
final.elf:     file format elf32-littlenios2
final.elf
architecture: nios2:r1, flags 0x00000112:
EXEC_P, HAS_SYMS, D_PAGED
start address 0x08000230

Program Header:
    LOAD off    0x00001000 vaddr 0x08000000 paddr 0x08000000 align 2**12
         filesz 0x00000020 memsz 0x00000020 flags r-x
    LOAD off    0x00001020 vaddr 0x08000020 paddr 0x08000020 align 2**12
         filesz 0x000150ac memsz 0x000150ac flags r-x
    LOAD off    0x000160cc vaddr 0x080150cc paddr 0x08016c5c align 2**12
         filesz 0x00001b90 memsz 0x00001b90 flags rw-
    LOAD off    0x000187ec vaddr 0x080187ec paddr 0x080187ec align 2**12
         filesz 0x00000000 memsz 0x00000198 flags rw-

Sections:
Idx Name          Size      VMA       LMA       File off  Algn
  0 .entry        00000020  08000000  08000000  00001000  2**5
                  CONTENTS, ALLOC, LOAD, READONLY, CODE
  1 .exceptions   00000210  08000020  08000020  00001020  2**2
                  CONTENTS, ALLOC, LOAD, READONLY, CODE
  2 .text         00014aa0  08000230  08000230  00001230  2**2
                  CONTENTS, ALLOC, LOAD, READONLY, CODE
  3 .rodata       000003fc  08014cd0  08014cd0  00015cd0  2**2
                  CONTENTS, ALLOC, LOAD, READONLY, DATA
  4 .rwdata       00001b90  080150cc  08016c5c  000160cc  2**2
                  CONTENTS, ALLOC, LOAD, DATA, SMALL_DATA
  5 .bss          00000198  080187ec  080187ec  000187ec  2**2
                  ALLOC, SMALL_DATA
  6 .SDRAM        00000000  08018984  08018984  00017c5c  2**0
                  CONTENTS
  7 .comment      00000023  00000000  00000000  00017c5c  2**0
                  CONTENTS, READONLY
  8 .debug_aranges 00001018  00000000  00000000  00017c80  2**3
                  CONTENTS, READONLY, DEBUGGING
  9 .debug_info   000263a9  00000000  00000000  00018c98  2**0
                  CONTENTS, READONLY, DEBUGGING
 10 .debug_abbrev 00009bd7  00000000  00000000  0003f041  2**0
                  CONTENTS, READONLY, DEBUGGING
 11 .debug_line   0000c80d  00000000  00000000  00048c18  2**0
                  CONTENTS, READONLY, DEBUGGING
 12 .debug_frame  00002910  00000000  00000000  00055428  2**2
                  CONTENTS, READONLY, DEBUGGING
 13 .debug_str    000041a5  00000000  00000000  00057d38  2**0
                  CONTENTS, READONLY, DEBUGGING
 14 .debug_loc    000178cc  00000000  00000000  0005bedd  2**0
                  CONTENTS, READONLY, DEBUGGING
 15 .debug_alt_sim_info 00000040  00000000  00000000  000737ac  2**2
                  CONTENTS, READONLY, DEBUGGING
 16 .debug_ranges 000018f0  00000000  00000000  000737f0  2**3
                  CONTENTS, READONLY, DEBUGGING
 17 .thread_model 00000003  00000000  00000000  00078e6a  2**0
                  CONTENTS, READONLY
 18 .cpu          0000000c  00000000  00000000  00078e6d  2**0
                  CONTENTS, READONLY
 19 .qsys         00000001  00000000  00000000  00078e79  2**0
                  CONTENTS, READONLY
 20 .simulation_enabled 00000001  00000000  00000000  00078e7a  2**0
                  CONTENTS, READONLY
 21 .sysid_hash   00000004  00000000  00000000  00078e7b  2**0
                  CONTENTS, READONLY
 22 .sysid_base   00000004  00000000  00000000  00078e7f  2**0
                  CONTENTS, READONLY
 23 .sysid_time   00000004  00000000  00000000  00078e83  2**0
                  CONTENTS, READONLY
 24 .stderr_dev   0000000b  00000000  00000000  00078e87  2**0
                  CONTENTS, READONLY
 25 .stdin_dev    0000000b  00000000  00000000  00078e92  2**0
                  CONTENTS, READONLY
 26 .stdout_dev   0000000b  00000000  00000000  00078e9d  2**0
                  CONTENTS, READONLY
 27 .sopc_system_name 00000009  00000000  00000000  00078ea8  2**0
                  CONTENTS, READONLY
 28 .quartus_project_dir 00000033  00000000  00000000  00078eb1  2**0
                  CONTENTS, READONLY
 29 .jdi          0000535a  00000000  00000000  00078ee4  2**0
                  CONTENTS, READONLY
 30 .sopcinfo     001658e1  00000000  00000000  0007e23e  2**0
                  CONTENTS, READONLY
SYMBOL TABLE:
08000000 l    d  .entry	00000000 .entry
08000020 l    d  .exceptions	00000000 .exceptions
08000230 l    d  .text	00000000 .text
08014cd0 l    d  .rodata	00000000 .rodata
080150cc l    d  .rwdata	00000000 .rwdata
080187ec l    d  .bss	00000000 .bss
08018984 l    d  .SDRAM	00000000 .SDRAM
00000000 l    d  .comment	00000000 .comment
00000000 l    d  .debug_aranges	00000000 .debug_aranges
00000000 l    d  .debug_info	00000000 .debug_info
00000000 l    d  .debug_abbrev	00000000 .debug_abbrev
00000000 l    d  .debug_line	00000000 .debug_line
00000000 l    d  .debug_frame	00000000 .debug_frame
00000000 l    d  .debug_str	00000000 .debug_str
00000000 l    d  .debug_loc	00000000 .debug_loc
00000000 l    d  .debug_alt_sim_info	00000000 .debug_alt_sim_info
00000000 l    d  .debug_ranges	00000000 .debug_ranges
00000000 l    df *ABS*	00000000 ../final_bsp//obj/HAL/src/crt0.o
08000268 l       .text	00000000 alt_after_alt_main
00000000 l    df *ABS*	00000000 alt_irq_handler.c
00000000 l    df *ABS*	00000000 alt_instruction_exception_entry.c
00000000 l    df *ABS*	00000000 bullet.c
00000000 l    df *ABS*	00000000 choose_ship.c
00000000 l    df *ABS*	00000000 io_handler.c
00000000 l    df *ABS*	00000000 main.c
00000000 l    df *ABS*	00000000 ship_logic.c
00000000 l    df *ABS*	00000000 torpedo.c
00000000 l    df *ABS*	00000000 usb.c
00000000 l    df *ABS*	00000000 usb_main.c
08018804 l     O .bss	00000002 ctl_reg
08018806 l     O .bss	00000002 no_device
00000000 l    df *ABS*	00000000 lib2-mul.c
00000000 l    df *ABS*	00000000 divdf3.c
00000000 l    df *ABS*	00000000 ledf2.c
00000000 l    df *ABS*	00000000 floatsidf.c
00000000 l    df *ABS*	00000000 floatunsidf.c
00000000 l    df *ABS*	00000000 libgcc2.c
00000000 l    df *ABS*	00000000 lib2-divmod.c
00000000 l    df *ABS*	00000000 libgcc2.c
00000000 l    df *ABS*	00000000 clock.c
00000000 l    df *ABS*	00000000 impure.c
080150cc l     O .rwdata	00000424 impure_data
00000000 l    df *ABS*	00000000 printf.c
00000000 l    df *ABS*	00000000 puts.c
00000000 l    df *ABS*	00000000 strlen.c
00000000 l    df *ABS*	00000000 timesr.c
00000000 l    df *ABS*	00000000 vfprintf.c
08014f16 l     O .rodata	00000010 zeroes.4404
08008814 l     F .text	000000bc __sbprintf
08014f26 l     O .rodata	00000010 blanks.4403
00000000 l    df *ABS*	00000000 wsetup.c
00000000 l    df *ABS*	00000000 dtoa.c
08008a24 l     F .text	00000228 quorem
00000000 l    df *ABS*	00000000 fflush.c
00000000 l    df *ABS*	00000000 findfp.c
0800a57c l     F .text	00000008 __fp_unlock
0800a590 l     F .text	0000019c __sinit.part.1
0800a72c l     F .text	00000008 __fp_lock
00000000 l    df *ABS*	00000000 mallocr.c
00000000 l    df *ABS*	00000000 fvwrite.c
00000000 l    df *ABS*	00000000 fwalk.c
00000000 l    df *ABS*	00000000 locale.c
08015510 l     O .rwdata	00000020 lc_ctype_charset
080154f0 l     O .rwdata	00000020 lc_message_charset
08015530 l     O .rwdata	00000038 lconv
00000000 l    df *ABS*	00000000 makebuf.c
00000000 l    df *ABS*	00000000 mallocr.c
00000000 l    df *ABS*	00000000 memchr.c
00000000 l    df *ABS*	00000000 memcpy.c
00000000 l    df *ABS*	00000000 memmove.c
00000000 l    df *ABS*	00000000 memset.c
00000000 l    df *ABS*	00000000 mprec.c
08014f54 l     O .rodata	0000000c p05.2768
00000000 l    df *ABS*	00000000 mallocr.c
00000000 l    df *ABS*	00000000 s_fpclassify.c
00000000 l    df *ABS*	00000000 sbrkr.c
00000000 l    df *ABS*	00000000 stdio.c
00000000 l    df *ABS*	00000000 strcmp.c
00000000 l    df *ABS*	00000000 vfprintf.c
0800dc00 l     F .text	000000fc __sprint_r.part.0
08015078 l     O .rodata	00000010 zeroes.4349
0800f23c l     F .text	000000bc __sbprintf
08015088 l     O .rodata	00000010 blanks.4348
00000000 l    df *ABS*	00000000 writer.c
00000000 l    df *ABS*	00000000 closer.c
00000000 l    df *ABS*	00000000 mallocr.c
00000000 l    df *ABS*	00000000 fclose.c
00000000 l    df *ABS*	00000000 fputwc.c
00000000 l    df *ABS*	00000000 fstatr.c
00000000 l    df *ABS*	00000000 int_errno.c
00000000 l    df *ABS*	00000000 isattyr.c
00000000 l    df *ABS*	00000000 lseekr.c
00000000 l    df *ABS*	00000000 readr.c
00000000 l    df *ABS*	00000000 wbuf.c
00000000 l    df *ABS*	00000000 wcrtomb.c
00000000 l    df *ABS*	00000000 wctomb_r.c
00000000 l    df *ABS*	00000000 libgcc2.c
00000000 l    df *ABS*	00000000 libgcc2.c
00000000 l    df *ABS*	00000000 adddf3.c
00000000 l    df *ABS*	00000000 eqdf2.c
00000000 l    df *ABS*	00000000 gedf2.c
00000000 l    df *ABS*	00000000 muldf3.c
00000000 l    df *ABS*	00000000 subdf3.c
00000000 l    df *ABS*	00000000 fixdfsi.c
00000000 l    df *ABS*	00000000 alt_close.c
080123fc l     F .text	0000003c alt_get_errno
00000000 l    df *ABS*	00000000 alt_dev.c
08012510 l     F .text	0000002c alt_dev_null_write
00000000 l    df *ABS*	00000000 alt_errno.c
00000000 l    df *ABS*	00000000 alt_fstat.c
0801253c l     F .text	0000003c alt_get_errno
00000000 l    df *ABS*	00000000 alt_isatty.c
08012630 l     F .text	0000003c alt_get_errno
00000000 l    df *ABS*	00000000 alt_load.c
08012718 l     F .text	00000068 alt_load_section
00000000 l    df *ABS*	00000000 alt_lseek.c
08012804 l     F .text	0000003c alt_get_errno
00000000 l    df *ABS*	00000000 alt_main.c
00000000 l    df *ABS*	00000000 alt_malloc_lock.c
00000000 l    df *ABS*	00000000 alt_read.c
080129e0 l     F .text	0000003c alt_get_errno
00000000 l    df *ABS*	00000000 alt_release_fd.c
00000000 l    df *ABS*	00000000 alt_sbrk.c
08016c4c l     O .rwdata	00000004 heap_end
00000000 l    df *ABS*	00000000 alt_times.c
08012c54 l     F .text	0000003c alt_get_errno
00000000 l    df *ABS*	00000000 alt_usleep.c
00000000 l    df *ABS*	00000000 alt_write.c
08012d38 l     F .text	0000003c alt_get_errno
00000000 l    df *ABS*	00000000 alt_sys_init.c
08012e74 l     F .text	00000034 alt_dev_reg
08015b18 l     O .rwdata	00001060 jtag_uart_0
00000000 l    df *ABS*	00000000 altera_avalon_jtag_uart_fd.c
00000000 l    df *ABS*	00000000 altera_avalon_jtag_uart_init.c
08013150 l     F .text	0000020c altera_avalon_jtag_uart_irq
0801335c l     F .text	000000a0 altera_avalon_jtag_uart_timeout
00000000 l    df *ABS*	00000000 altera_avalon_jtag_uart_ioctl.c
00000000 l    df *ABS*	00000000 altera_avalon_jtag_uart_read.c
00000000 l    df *ABS*	00000000 altera_avalon_jtag_uart_write.c
00000000 l    df *ABS*	00000000 alt_alarm_start.c
00000000 l    df *ABS*	00000000 alt_busy_sleep.c
00000000 l    df *ABS*	00000000 alt_dcache_flush_all.c
00000000 l    df *ABS*	00000000 alt_dev_llist_insert.c
08013c38 l     F .text	0000003c alt_get_errno
00000000 l    df *ABS*	00000000 alt_do_ctors.c
00000000 l    df *ABS*	00000000 alt_do_dtors.c
00000000 l    df *ABS*	00000000 alt_icache_flush_all.c
00000000 l    df *ABS*	00000000 alt_iic.c
00000000 l    df *ABS*	00000000 alt_iic_isr_register.c
00000000 l    df *ABS*	00000000 alt_io_redirect.c
08014098 l     F .text	000000e4 alt_open_fd
00000000 l    df *ABS*	00000000 alt_irq_vars.c
00000000 l    df *ABS*	00000000 alt_open.c
080141f8 l     F .text	0000003c alt_get_errno
08014234 l     F .text	000000ec alt_file_locked
00000000 l    df *ABS*	00000000 alt_tick.c
00000000 l    df *ABS*	00000000 altera_nios2_gen2_irq.c
00000000 l    df *ABS*	00000000 alt_find_dev.c
00000000 l    df *ABS*	00000000 alt_find_file.c
00000000 l    df *ABS*	00000000 alt_get_fd.c
00000000 l    df *ABS*	00000000 atexit.c
00000000 l    df *ABS*	00000000 exit.c
00000000 l    df *ABS*	00000000 memcmp.c
00000000 l    df *ABS*	00000000 __atexit.c
00000000 l    df *ABS*	00000000 __call_atexit.c
00000000 l    df *ABS*	00000000 alt_exit.c
08018858 g     O .bss	00000004 alt_instruction_exception_handler
0800d244 g     F .text	00000074 _mprec_log10
08001874 g     F .text	0000010c game_update
0800d330 g     F .text	0000008c __any_on
0800f7f0 g     F .text	00000054 _isatty_r
08014f60 g     O .rodata	00000028 __mprec_tinytens
0801291c g     F .text	0000007c alt_main
080063a8 g     F .text	000000c0 _puts_r
08016be4 g     O .rwdata	00000004 bullet_2_x_6
08018884 g     O .bss	00000100 alt_irq
0800f844 g     F .text	00000060 _lseek_r
08016c5c g       *ABS*	00000000 __flash_rwdata_start
080110b0 g     F .text	00000088 .hidden __eqdf2
08000430 g     F .text	000007b0 update_bullet
08018984 g       *ABS*	00000000 __alt_heap_start
0800636c g     F .text	0000003c printf
0800fa5c g     F .text	0000009c _wcrtomb_r
0801881a g     O .bss	00000002 usb_ctl_val
0800dac0 g     F .text	0000005c __sseek
0800a8dc g     F .text	00000010 __sinit
0801880c g     O .bss	00000004 keycode
0800f904 g     F .text	00000140 __swbuf_r
0800b3b0 g     F .text	0000007c _setlocale_r
0800a734 g     F .text	00000078 __sfmoreglue
080129bc g     F .text	00000024 __malloc_unlock
08018810 g     O .bss	00000004 keycode_2
08016b94 g     O .rwdata	00000004 bullet_1_x_6
08016b88 g     O .rwdata	00000004 bullet_1_x_3
08016c04 g     O .rwdata	00000004 bullet_2_y_4
08004890 g     F .text	00000080 UsbGetRetryCnt
0800c080 g     F .text	0000015c memmove
080010d8 g     F .text	000000b0 IO_init
0800a8c4 g     F .text	00000018 _cleanup
0800c304 g     F .text	000000a8 _Balloc
08016bcc g     O .rwdata	00000004 bullet_2_x_0
08016bd8 g     O .rwdata	00000004 bullet_2_x_3
08011138 g     F .text	000000dc .hidden __gtdf2
08014620 g     F .text	00000024 altera_nios2_gen2_irq_init
08000000 g     F .entry	0000000c __reset
08012c90 g     F .text	00000078 times
08016b7c g     O .rwdata	00000004 bullet_1_x_0
08000020 g       *ABS*	00000000 __flash_exceptions_start
0800f794 g     F .text	0000005c _fstat_r
0801883c g     O .bss	00000004 errno
0800da3c g     F .text	00000008 __seofread
08016c18 g     O .rwdata	00000004 bullet_2_y_9
08016ba4 g     O .rwdata	00000004 bullet_1_y_0
08005150 g     F .text	00000318 get_keycode
08016bc0 g     O .rwdata	00000004 bullet_1_y_7
08016bbc g     O .rwdata	00000004 bullet_1_y_6
08016be8 g     O .rwdata	00000004 bullet_2_x_7
08018844 g     O .bss	00000004 alt_argv
0801eb78 g       *ABS*	00000000 _gp
08012d08 g     F .text	00000030 usleep
080187f0 g     O .bss	00000004 attack_state
08015998 g     O .rwdata	00000180 alt_fd_list
08016c08 g     O .rwdata	00000004 bullet_2_y_5
08014644 g     F .text	00000090 alt_find_dev
0800bf38 g     F .text	00000148 memcpy
08006514 g     F .text	00000008 _times_r
0800367c g     F .text	000000e8 init_tor
0800a584 g     F .text	0000000c _cleanup_r
08005f54 g     F .text	000000dc .hidden __floatsidf
0801417c g     F .text	0000007c alt_io_redirect
0801881c g     O .bss	00000001 data_size
08005e60 g     F .text	000000f4 .hidden __ltdf2
08014cd0 g       *ABS*	00000000 __DTOR_END__
08006468 g     F .text	00000014 puts
080148a0 g     F .text	0000009c alt_exception_cause_generated_bad_addr
08016bfc g     O .rwdata	00000004 bullet_2_y_2
080187f4 g     O .bss	00000004 developer_mode
0800d920 g     F .text	00000074 __fpclassifyd
0800d1a0 g     F .text	000000a4 __ratio
0800f220 g     F .text	0000001c __vfiprintf_internal
08013554 g     F .text	0000021c altera_avalon_jtag_uart_read
0800633c g     F .text	00000030 _printf_r
08006234 g     F .text	00000064 .hidden __udivsi3
0801266c g     F .text	000000ac isatty
08014fb0 g     O .rodata	000000c8 __mprec_tens
08004990 g     F .text	000007c0 usb_init
0800b42c g     F .text	0000000c __locale_charset
08018838 g     O .bss	00000004 __malloc_top_pad
08003f1c g     F .text	00000268 UsbGetConfigDesc2
08016c24 g     O .rwdata	00000004 __mb_cur_max
0800b45c g     F .text	0000000c _localeconv_r
0800c738 g     F .text	0000003c __i2b
0800ad60 g     F .text	000004c8 __sfvwrite_r
08002418 g     F .text	000000cc press_d
0801881e g     O .bss	00000002 intStat
0800d994 g     F .text	00000054 _sbrk_r
0800f8a4 g     F .text	00000060 _read_r
08016c44 g     O .rwdata	00000004 alt_max_fd
0800f488 g     F .text	000000f0 _fclose_r
0800a54c g     F .text	00000030 fflush
08018834 g     O .bss	00000004 __malloc_max_sbrked_mem
08010804 g     F .text	000008ac .hidden __adddf3
08018814 g     O .bss	00000004 keycode_3
0800cf48 g     F .text	0000010c __b2d
08010240 g     F .text	000005c4 .hidden __umoddi3
08012840 g     F .text	000000dc lseek
08016b8c g     O .rwdata	00000004 bullet_1_x_4
08016c1c g     O .rwdata	00000004 _global_impure_ptr
0800d3bc g     F .text	00000564 _realloc_r
08018984 g       *ABS*	00000000 __bss_end
08013fa8 g     F .text	000000f0 alt_iic_isr_register
08014518 g     F .text	00000108 alt_tick
0800fc44 g     F .text	000005fc .hidden __udivdi3
0800f6f0 g     F .text	00000024 _fputwc_r
08014f88 g     O .rodata	00000028 __mprec_bigtens
0800c51c g     F .text	00000104 __s2b
08006030 g     F .text	000000a8 .hidden __floatunsidf
0800cc88 g     F .text	00000060 __mcmp
0800396c g     F .text	00000100 UsbSetAddress
08016bac g     O .rwdata	00000004 bullet_1_y_2
0800a8fc g     F .text	00000018 __fp_lock_all
08013f5c g     F .text	0000004c alt_ic_irq_enabled
0801447c g     F .text	0000009c alt_alarm_stop
0801884c g     O .bss	00000004 alt_irq_active
080000fc g     F .exceptions	000000d4 alt_irq_handler
08015970 g     O .rwdata	00000028 alt_dev_null
08016b9c g     O .rwdata	00000004 bullet_1_x_8
08013c18 g     F .text	00000020 alt_dcache_flush_all
0800c620 g     F .text	00000068 __hi0bits
08001210 g     F .text	00000080 IO_read
0801237c g     F .text	00000080 .hidden __fixdfsi
08016be0 g     O .rwdata	00000004 bullet_2_x_5
08002344 g     F .text	000000d4 press_a
08016c5c g       *ABS*	00000000 __ram_rwdata_end
08016bd4 g     O .rwdata	00000004 bullet_2_x_2
08016c3c g     O .rwdata	00000008 alt_dev_list
08012d74 g     F .text	00000100 write
08016c00 g     O .rwdata	00000004 bullet_2_y_3
080150cc g       *ABS*	00000000 __ram_rodata_end
08012578 g     F .text	000000b8 fstat
08000000 g       *ABS*	00000000 __alt_mem_SDRAM
08005e60 g     F .text	000000f4 .hidden __ledf2
0800026c g     F .text	000001c4 generate_bullet
08004910 g     F .text	00000080 UsbPrintMem
0800ca00 g     F .text	00000140 __pow5mult
0800dd14 g     F .text	0000150c ___vfiprintf_internal_r
0801882c g     O .bss	00000004 __nlocale_changed
08006298 g     F .text	00000058 .hidden __umodsi3
08001a00 g     F .text	00000600 gamefile_update
08018984 g       *ABS*	00000000 end
08016b84 g     O .rwdata	00000004 bullet_1_x_2
08013090 g     F .text	000000c0 altera_avalon_jtag_uart_init
080001d0 g     F .exceptions	00000060 alt_instruction_exception_entry
08002984 g     F .text	00000084 detect_ship_attack
08014cd0 g       *ABS*	00000000 __CTOR_LIST__
08002a08 g     F .text	00000310 generate_tor
10000000 g       *ABS*	00000000 __alt_stack_pointer
080060d8 g     F .text	00000064 .hidden __clzsi2
08013770 g     F .text	00000224 altera_avalon_jtag_uart_write
08016bb8 g     O .rwdata	00000004 bullet_1_y_5
0800a8ec g     F .text	00000004 __sfp_lock_acquire
0800be54 g     F .text	000000e4 memchr
0800651c g     F .text	000022dc ___vfprintf_internal_r
08004284 g     F .text	00000100 UsbClassRequest
0800aa50 g     F .text	00000310 _free_r
0800b438 g     F .text	00000010 __locale_mb_cur_max
08016c14 g     O .rwdata	00000004 bullet_2_y_8
08014b1c g     F .text	00000180 __call_exitprocs
08018828 g     O .bss	00000004 __mlocale_changed
080187f8 g     O .bss	00000004 win
08016c28 g     O .rwdata	00000004 __malloc_sbrk_base
080187ec g     O .bss	00000004 ship_state
08000230 g     F .text	0000003c _start
08002810 g     F .text	000000d4 update_helper
08018850 g     O .bss	00000004 _alt_tick_rate
0800cb40 g     F .text	00000148 __lshift
08018854 g     O .bss	00000004 _alt_nticks
08012a1c g     F .text	00000104 read
08012ee0 g     F .text	0000004c alt_sys_init
08014a04 g     F .text	00000118 __register_exitproc
08016b78 g     O .rwdata	00000004 game_file
0800c774 g     F .text	0000028c __multiply
080133fc g     F .text	00000068 altera_avalon_jtag_uart_close
0800327c g     F .text	00000298 move_tor
08005468 g     F .text	00000028 .hidden __mulsi3
080150cc g       *ABS*	00000000 __ram_rwdata_start
08014cd0 g       *ABS*	00000000 __ram_rodata_start
0801885c g     O .bss	00000028 __malloc_current_mallinfo
0800d054 g     F .text	0000014c __d2b
08016bf8 g     O .rwdata	00000004 bullet_2_y_1
08003a6c g     F .text	00000148 UsbGetDeviceDesc1
08012f2c g     F .text	00000060 altera_avalon_jtag_uart_read_fd
080147dc g     F .text	000000c4 alt_get_fd
08013ac0 g     F .text	00000158 alt_busy_sleep
080037e4 g     F .text	00000038 press_z
0800f358 g     F .text	00000054 _close_r
08014988 g     F .text	0000007c memcmp
08012fec g     F .text	00000050 altera_avalon_jtag_uart_close_fd
08018984 g       *ABS*	00000000 __alt_stack_base
0801303c g     F .text	00000054 altera_avalon_jtag_uart_ioctl_fd
080088d0 g     F .text	00000154 __swsetup_r
08016bb4 g     O .rwdata	00000004 bullet_1_y_4
08005490 g     F .text	000009d0 .hidden __divdf3
0800a7ac g     F .text	00000118 __sfp
0800d2b8 g     F .text	00000078 __copybits
08001290 g     F .text	000000b8 frame_clock
08015568 g     O .rwdata	00000408 __malloc_av_
0800a8f8 g     F .text	00000004 __sinit_lock_release
08011214 g     F .text	0000086c .hidden __muldf3
0800d9e8 g     F .text	00000054 __sread
0800480c g     F .text	00000084 UsbWaitTDListDone
080146d4 g     F .text	00000108 alt_find_file
08013c74 g     F .text	000000a4 alt_dev_llist_insert
08012998 g     F .text	00000024 __malloc_lock
08012ba4 g     F .text	000000b0 sbrk
0800a4f0 g     F .text	0000005c _fflush_r
0800f3ac g     F .text	000000dc _calloc_r
08018820 g     O .bss	00000001 hot_plug_count
080187ec g       *ABS*	00000000 __bss_start
08001980 g     F .text	00000080 ship_choose_update
0800c1dc g     F .text	00000128 memset
080020f8 g     F .text	000001bc main
08018848 g     O .bss	00000004 alt_envp
08018830 g     O .bss	00000004 __malloc_max_total_mem
08016bc8 g     O .rwdata	00000004 bullet_1_y_9
08012f8c g     F .text	00000060 altera_avalon_jtag_uart_write_fd
08004184 g     F .text	00000100 UsbSetConfig
0800fa44 g     F .text	00000018 __swbuf
0800db1c g     F .text	00000008 __sclose
080187fc g     O .bss	00000004 event
10000000 g       *ABS*	00000000 __alt_heap_limit
0800f578 g     F .text	00000014 fclose
08008c4c g     F .text	00001688 _dtoa_r
0800b648 g     F .text	0000080c _malloc_r
0800fbb8 g     F .text	00000030 __ascii_wctomb
08016c48 g     O .rwdata	00000004 alt_errno
080024e4 g     F .text	00000138 ship_init
0800b228 g     F .text	000000c4 _fwalk
0800613c g     F .text	00000084 .hidden __divsi3
08016ba8 g     O .rwdata	00000004 bullet_1_y_1
0800a92c g     F .text	00000124 _malloc_trim_r
08004384 g     F .text	00000148 UsbGetHidDesc
08014cd0 g       *ABS*	00000000 __CTOR_END__
080022fc g     F .text	00000048 press_s
0800db24 g     F .text	000000dc strcmp
08014cd0 g       *ABS*	00000000 __flash_rodata_start
08014cd0 g       *ABS*	00000000 __DTOR_LIST__
08016b98 g     O .rwdata	00000004 bullet_1_x_7
080110b0 g     F .text	00000088 .hidden __nedf2
08003874 g     F .text	00000044 UsbRead
08012ea8 g     F .text	00000038 alt_irq_init
08012b20 g     F .text	00000084 alt_release_fd
08014dc9 g     O .rodata	00000100 .hidden __clz_tab
08018824 g     O .bss	00000004 _PathLocale
0801493c g     F .text	00000014 atexit
0800f2f8 g     F .text	00000060 _write_r
08016bf0 g     O .rwdata	00000004 bullet_2_x_9
08001348 g     F .text	0000052c key_event
0800b468 g     F .text	00000018 setlocale
08016bdc g     O .rwdata	00000004 bullet_2_x_4
08016c20 g     O .rwdata	00000004 _impure_ptr
08018840 g     O .bss	00000004 alt_argc
08016b80 g     O .rwdata	00000004 bullet_1_x_1
0800a2d4 g     F .text	0000021c __sflush_r
08013d78 g     F .text	00000060 _do_dtors
0800b454 g     F .text	00000008 __locale_cjk_lang
08000020 g       .exceptions	00000000 alt_irq_entry
08002000 g     F .text	000000f8 test_round
0800cee4 g     F .text	00000064 __ulp
0800a914 g     F .text	00000018 __fp_unlock_all
08018818 g     O .bss	00000001 toggle
08016bec g     O .rwdata	00000004 bullet_2_x_8
08016c34 g     O .rwdata	00000008 alt_fs_list
08016bd0 g     O .rwdata	00000004 bullet_2_x_1
080044cc g     F .text	00000340 UsbGetReportDesc
08000020 g       *ABS*	00000000 __ram_exceptions_start
0800b480 g     F .text	0000000c localeconv
08013df8 g     F .text	00000050 alt_ic_isr_register
08000be0 g     F .text	00000164 init_bullet
08016bc4 g     O .rwdata	00000004 bullet_1_y_8
080028e4 g     F .text	000000a0 detect
08016c5c g       *ABS*	00000000 _edata
08016c10 g     O .rwdata	00000004 bullet_2_y_7
08018984 g       *ABS*	00000000 _end
0800381c g     F .text	00000058 UsbWrite
08003514 g     F .text	00000168 ifstop_tor
0800f58c g     F .text	00000164 __fputwc
08000230 g       *ABS*	00000000 __ram_exceptions_end
08013464 g     F .text	000000f0 altera_avalon_jtag_uart_ioctl
08018822 g     O .bss	00000002 code
08016c0c g     O .rwdata	00000004 bullet_2_y_6
08013ed0 g     F .text	0000008c alt_ic_irq_disable
0800da44 g     F .text	0000007c __swrite
080022b4 g     F .text	00000048 press_w
08016c2c g     O .rwdata	00000004 __malloc_trim_threshold
0800b448 g     F .text	0000000c __locale_msgcharset
08018808 g     O .bss	00000002 fs_device
08014950 g     F .text	00000038 exit
0800b2ec g     F .text	000000c4 _fwalk_reent
0800cce8 g     F .text	000001fc __mdiff
080061c0 g     F .text	00000074 .hidden __modsi3
08000d44 g     F .text	00000394 choose_ship
10000000 g       *ABS*	00000000 __alt_data_end
08000020 g     F .exceptions	00000000 alt_exception
08016bf4 g     O .rwdata	00000004 bullet_2_y_0
0800a8f0 g     F .text	00000004 __sfp_lock_release
08001188 g     F .text	00000088 IO_write
0800261c g     F .text	000001b0 update
08014c9c g     F .text	00000034 _exit
08013994 g     F .text	0000012c alt_alarm_start
08002d18 g     F .text	00000064 press_j
0800b48c g     F .text	000001bc __smakebuf_r
0800647c g     F .text	00000098 strlen
08014320 g     F .text	0000015c open
08011138 g     F .text	000000dc .hidden __gedf2
08016bb0 g     O .rwdata	00000004 bullet_1_y_3
080027cc g     F .text	00000044 stop
080062f0 g     F .text	0000004c clock
08016c30 g     O .rwdata	00000004 __wctomb
0800dcfc g     F .text	00000018 __sprint_r
08013dd8 g     F .text	00000020 alt_icache_flush_all
08016c50 g     O .rwdata	00000004 alt_priority_mask
08016b90 g     O .rwdata	00000004 bullet_1_x_5
08013e48 g     F .text	00000088 alt_ic_irq_enable
080087f8 g     F .text	0000001c __vfprintf_internal
0800fbe8 g     F .text	0000005c _wctomb_r
08003764 g     F .text	00000080 update_tor
08011a80 g     F .text	000008fc .hidden __subdf3
0800c688 g     F .text	000000b0 __lo0bits
08003d8c g     F .text	00000190 UsbGetConfigDesc1
08016c54 g     O .rwdata	00000008 alt_alarm_list
08013d18 g     F .text	00000060 _do_ctors
080038b8 g     F .text	000000b4 UsbSoftReset
0800faf8 g     F .text	000000c0 wcrtomb
08012438 g     F .text	000000d8 close
08003bb4 g     F .text	000001d8 UsbGetDeviceDesc2
08012780 g     F .text	00000084 alt_load
08002d7c g     F .text	00000500 upstate_tor
08018800 g     O .bss	00000004 target
0800f714 g     F .text	00000080 fputwc
08016ba0 g     O .rwdata	00000004 bullet_1_x_9
0800a8f4 g     F .text	00000004 __sinit_lock_acquire
0800c3d4 g     F .text	00000148 __multadd
0800c3ac g     F .text	00000028 _Bfree



Disassembly of section .entry:

08000000 <__reset>:
 * Jump to the _start entry point in the .text section if reset code
 * is allowed or if optimizing for RTL simulation.
 */
#if defined(ALT_ALLOW_CODE_AT_RESET) || defined(ALT_SIM_OPTIMIZE)
    /* Jump to the _start entry point in the .text section. */
    movhi r1, %hi(_start)
 8000000:	00420034 	movhi	at,2048
    ori r1, r1, %lo(_start)
 8000004:	08408c14 	ori	at,at,560
    jmp r1
 8000008:	0800683a 	jmp	at
	...

Disassembly of section .exceptions:

08000020 <alt_exception>:

#else /* ALT_EXCEPTION_STACK disabled */
        /* 
         * Reserve space on normal stack for registers about to be pushed.
         */
        addi  sp, sp, -76
 8000020:	deffed04 	addi	sp,sp,-76
         * documentation for details).
         *
         * Leave a gap in the stack frame at 4(sp) for the muldiv handler to
         * store zero into.
         */
        stw   ra,  0(sp)
 8000024:	dfc00015 	stw	ra,0(sp)
        stw   r1,   8(sp)
 8000028:	d8400215 	stw	at,8(sp)
        stw   r2,  12(sp)
 800002c:	d8800315 	stw	r2,12(sp)
        stw   r3,  16(sp)
 8000030:	d8c00415 	stw	r3,16(sp)
        stw   r4,  20(sp)
 8000034:	d9000515 	stw	r4,20(sp)
        stw   r5,  24(sp)
 8000038:	d9400615 	stw	r5,24(sp)
        stw   r6,  28(sp)
 800003c:	d9800715 	stw	r6,28(sp)
        stw   r7,  32(sp)
 8000040:	d9c00815 	stw	r7,32(sp)
        rdctl r5, estatus   /* Read early to avoid usage stall */
 8000044:	000b307a 	rdctl	r5,estatus
        stw   r8,  36(sp)
 8000048:	da000915 	stw	r8,36(sp)
        stw   r9,  40(sp)
 800004c:	da400a15 	stw	r9,40(sp)
        stw   r10, 44(sp)
 8000050:	da800b15 	stw	r10,44(sp)
        stw   r11, 48(sp)
 8000054:	dac00c15 	stw	r11,48(sp)
        stw   r12, 52(sp)
 8000058:	db000d15 	stw	r12,52(sp)
        stw   r13, 56(sp)
 800005c:	db400e15 	stw	r13,56(sp)
        stw   r14, 60(sp)
 8000060:	db800f15 	stw	r14,60(sp)
        stw   r15, 64(sp)
 8000064:	dbc01015 	stw	r15,64(sp)
        /*
         * ea-4 contains the address of the instruction being executed
         * when the exception occured. For interrupt exceptions, we will
         * will be re-issue the isntruction. Store it in 72(sp)
         */
        stw   r5,  68(sp)  /* estatus */
 8000068:	d9401115 	stw	r5,68(sp)
        addi  r15, ea, -4  /* instruction that caused exception */
 800006c:	ebffff04 	addi	r15,ea,-4
        stw   r15,  72(sp)
 8000070:	dbc01215 	stw	r15,72(sp)
#else
        /*
         * Test to see if the exception was a software exception or caused 
         * by an external interrupt, and vector accordingly.
         */
        rdctl r4, ipending
 8000074:	0009313a 	rdctl	r4,ipending
        andi  r2, r5, 1
 8000078:	2880004c 	andi	r2,r5,1
        beq   r2, zero, .Lnot_irq
 800007c:	10000326 	beq	r2,zero,800008c <alt_exception+0x6c>
        beq   r4, zero, .Lnot_irq
 8000080:	20000226 	beq	r4,zero,800008c <alt_exception+0x6c>
        /*
         * Now that all necessary registers have been preserved, call 
         * alt_irq_handler() to process the interrupts.
         */

        call alt_irq_handler
 8000084:	80000fc0 	call	80000fc <alt_irq_handler>

        .section .exceptions.irqreturn, "xa"

        br    .Lexception_exit
 8000088:	00000706 	br	80000a8 <alt_exception+0x88>
         * upon completion, so we write ea (address of instruction *after*
         * the one where the exception occured) into 72(sp). The actual
         * instruction that caused the exception is written in r2, which these
         * handlers will utilize.
         */
        stw ea, 72(sp) /* EA is PC+4 so will skip over instruction causing exception */
 800008c:	df401215 	stw	ea,72(sp)
.Lunknown_16bit:
        addi.n r4, r4, 2 /* Need PC+2 to skip over instruction causing exception */
        stw r4, 72(sp)

#else /* CDX is not Enabled and all instructions are 32bits */
        ldw r2, -4(ea) /* Instruction value that caused exception */
 8000090:	e8bfff17 	ldw	r2,-4(ea)
         * debugger is present) or go into an infinite loop since the
         * handling behavior is undefined; in that case we will not return here.
         */

        /* Load exception-causing address as first argument (r4) */
        addi   r4, ea, -4
 8000094:	e93fff04 	addi	r4,ea,-4

        /* Call the instruction-exception entry */
        call   alt_instruction_exception_entry
 8000098:	80001d00 	call	80001d0 <alt_instruction_exception_entry>
         * instruction
         *
         * Return code was 0: Skip. The instruction after the exception is
         * already stored in 72(sp).
         */
        bne   r2, r0, .Lexception_exit
 800009c:	1000021e 	bne	r2,zero,80000a8 <alt_exception+0x88>

        /*
         * Otherwise, modify 72(sp) to re-issue the instruction that caused the
         * exception.
         */
        addi  r15, ea, -4  /* instruction that caused exception */
 80000a0:	ebffff04 	addi	r15,ea,-4
        stw   r15,  72(sp)
 80000a4:	dbc01215 	stw	r15,72(sp)
        /* 
         * Restore the saved registers, so that all general purpose registers 
         * have been restored to their state at the time the interrupt occured.
         */

        ldw   r5,  68(sp)
 80000a8:	d9401117 	ldw	r5,68(sp)
        ldw   ea,  72(sp)  /* This becomes the PC once eret is executed */
 80000ac:	df401217 	ldw	ea,72(sp)
        ldw   ra,   0(sp)
 80000b0:	dfc00017 	ldw	ra,0(sp)

        wrctl estatus, r5
 80000b4:	2801707a 	wrctl	estatus,r5

        ldw   r1,   8(sp)
 80000b8:	d8400217 	ldw	at,8(sp)
        ldw   r2,  12(sp)
 80000bc:	d8800317 	ldw	r2,12(sp)
        ldw   r3,  16(sp)
 80000c0:	d8c00417 	ldw	r3,16(sp)
        ldw   r4,  20(sp)
 80000c4:	d9000517 	ldw	r4,20(sp)
        ldw   r5,  24(sp)
 80000c8:	d9400617 	ldw	r5,24(sp)
        ldw   r6,  28(sp)
 80000cc:	d9800717 	ldw	r6,28(sp)
        ldw   r7,  32(sp)
 80000d0:	d9c00817 	ldw	r7,32(sp)

#if defined(ALT_EXCEPTION_STACK) && defined(ALT_STACK_CHECK)
        ldw   et, %gprel(alt_exception_old_stack_limit)(gp)
#endif

        ldw   r8,  36(sp)
 80000d4:	da000917 	ldw	r8,36(sp)
        ldw   r9,  40(sp)
 80000d8:	da400a17 	ldw	r9,40(sp)
        ldw   r10, 44(sp)
 80000dc:	da800b17 	ldw	r10,44(sp)
        ldw   r11, 48(sp)
 80000e0:	dac00c17 	ldw	r11,48(sp)
        ldw   r12, 52(sp)
 80000e4:	db000d17 	ldw	r12,52(sp)
        ldw   r13, 56(sp)
 80000e8:	db400e17 	ldw	r13,56(sp)
        ldw   r14, 60(sp)
 80000ec:	db800f17 	ldw	r14,60(sp)
        ldw   r15, 64(sp)
 80000f0:	dbc01017 	ldw	r15,64(sp)
        stw   et, %gprel(alt_stack_limit_value)(gp)
        stw   zero, %gprel(alt_exception_old_stack_limit)(gp)
#endif /* ALT_STACK_CHECK */
        ldw   sp,  76(sp)
#else /* ALT_EXCEPTION_STACK disabled */
        addi  sp, sp, 76
 80000f4:	dec01304 	addi	sp,sp,76

        /*
         * Return to the interrupted instruction.
         */

        eret
 80000f8:	ef80083a 	eret

080000fc <alt_irq_handler>:
 * instruction is present if the macro ALT_CI_INTERRUPT_VECTOR defined.
 */

void alt_irq_handler (void) __attribute__ ((section (".exceptions")));
void alt_irq_handler (void)
{
 80000fc:	defff904 	addi	sp,sp,-28
 8000100:	dfc00615 	stw	ra,24(sp)
 8000104:	df000515 	stw	fp,20(sp)
 8000108:	df000504 	addi	fp,sp,20
  
  /*
   * Notify the operating system that we are at interrupt level.
   */ 
  
  ALT_OS_INT_ENTER();
 800010c:	0001883a 	nop
#ifndef NIOS2_EIC_PRESENT
static ALT_INLINE alt_u32 ALT_ALWAYS_INLINE alt_irq_pending (void)
{
  alt_u32 active;

  NIOS2_READ_IPENDING (active);
 8000110:	0005313a 	rdctl	r2,ipending
 8000114:	e0bffe15 	stw	r2,-8(fp)

  return active;
 8000118:	e0bffe17 	ldw	r2,-8(fp)
   * Consider the case where the high priority interupt is asserted during
   * the interrupt entry sequence for a lower priority interrupt to see why
   * this is the case.
   */

  active = alt_irq_pending ();
 800011c:	e0bffb15 	stw	r2,-20(fp)

  do
  {
    i = 0;
 8000120:	e03ffd15 	stw	zero,-12(fp)
    mask = 1;
 8000124:	00800044 	movi	r2,1
 8000128:	e0bffc15 	stw	r2,-16(fp)
     * called to clear the interrupt condition.
     */

    do
    {
      if (active & mask)
 800012c:	e0fffb17 	ldw	r3,-20(fp)
 8000130:	e0bffc17 	ldw	r2,-16(fp)
 8000134:	1884703a 	and	r2,r3,r2
 8000138:	10001426 	beq	r2,zero,800018c <alt_irq_handler+0x90>
      { 
#ifdef ALT_ENHANCED_INTERRUPT_API_PRESENT
        alt_irq[i].handler(alt_irq[i].context); 
 800013c:	008200b4 	movhi	r2,2050
 8000140:	10a22104 	addi	r2,r2,-30588
 8000144:	e0fffd17 	ldw	r3,-12(fp)
 8000148:	180690fa 	slli	r3,r3,3
 800014c:	10c5883a 	add	r2,r2,r3
 8000150:	10c00017 	ldw	r3,0(r2)
 8000154:	008200b4 	movhi	r2,2050
 8000158:	10a22104 	addi	r2,r2,-30588
 800015c:	e13ffd17 	ldw	r4,-12(fp)
 8000160:	200890fa 	slli	r4,r4,3
 8000164:	1105883a 	add	r2,r2,r4
 8000168:	10800104 	addi	r2,r2,4
 800016c:	10800017 	ldw	r2,0(r2)
 8000170:	1009883a 	mov	r4,r2
 8000174:	183ee83a 	callr	r3
#else
        alt_irq[i].handler(alt_irq[i].context, i); 
#endif
        break;
 8000178:	0001883a 	nop
#ifndef NIOS2_EIC_PRESENT
static ALT_INLINE alt_u32 ALT_ALWAYS_INLINE alt_irq_pending (void)
{
  alt_u32 active;

  NIOS2_READ_IPENDING (active);
 800017c:	0005313a 	rdctl	r2,ipending
 8000180:	e0bfff15 	stw	r2,-4(fp)

  return active;
 8000184:	e0bfff17 	ldw	r2,-4(fp)
 8000188:	00000706 	br	80001a8 <alt_irq_handler+0xac>
      }
      mask <<= 1;
 800018c:	e0bffc17 	ldw	r2,-16(fp)
 8000190:	1085883a 	add	r2,r2,r2
 8000194:	e0bffc15 	stw	r2,-16(fp)
      i++;
 8000198:	e0bffd17 	ldw	r2,-12(fp)
 800019c:	10800044 	addi	r2,r2,1
 80001a0:	e0bffd15 	stw	r2,-12(fp)

    } while (1);
 80001a4:	003fe106 	br	800012c <__alt_data_end+0xf800012c>

    active = alt_irq_pending ();
 80001a8:	e0bffb15 	stw	r2,-20(fp)
    
  } while (active);
 80001ac:	e0bffb17 	ldw	r2,-20(fp)
 80001b0:	103fdb1e 	bne	r2,zero,8000120 <__alt_data_end+0xf8000120>

  /*
   * Notify the operating system that interrupt processing is complete.
   */ 

  ALT_OS_INT_EXIT();
 80001b4:	0001883a 	nop
}
 80001b8:	0001883a 	nop
 80001bc:	e037883a 	mov	sp,fp
 80001c0:	dfc00117 	ldw	ra,4(sp)
 80001c4:	df000017 	ldw	fp,0(sp)
 80001c8:	dec00204 	addi	sp,sp,8
 80001cc:	f800283a 	ret

080001d0 <alt_instruction_exception_entry>:
 * that handler if it has been registered. Absent a handler, it will
 * break break or hang as discussed below.
 */
int 
alt_instruction_exception_entry (alt_u32 exception_pc)
{
 80001d0:	defffb04 	addi	sp,sp,-20
 80001d4:	dfc00415 	stw	ra,16(sp)
 80001d8:	df000315 	stw	fp,12(sp)
 80001dc:	df000304 	addi	fp,sp,12
 80001e0:	e13fff15 	stw	r4,-4(fp)
  cause = ( (cause & NIOS2_EXCEPTION_REG_CAUSE_MASK) >>
              NIOS2_EXCEPTION_REG_CAUSE_OFST );

  NIOS2_READ_BADADDR(badaddr);
#else
  cause = NIOS2_EXCEPTION_CAUSE_NOT_PRESENT;
 80001e4:	00bfffc4 	movi	r2,-1
 80001e8:	e0bffd15 	stw	r2,-12(fp)
  badaddr = 0;
 80001ec:	e03ffe15 	stw	zero,-8(fp)
#endif /* NIOS2_HAS_EXTRA_EXCEPTION_INFO */

  if(alt_instruction_exception_handler) {
 80001f0:	d0a73817 	ldw	r2,-25376(gp)
 80001f4:	10000726 	beq	r2,zero,8000214 <alt_instruction_exception_entry+0x44>
     * Call handler. Its return value indicates whether the exception-causing
     * instruction should be re-issued. The code that called us,
     * alt_eceptions_entry.S, will look at this value and adjust the ea
     * register as necessary
     */
    return alt_instruction_exception_handler(cause, exception_pc, badaddr);
 80001f8:	d0a73817 	ldw	r2,-25376(gp)
 80001fc:	e0fffd17 	ldw	r3,-12(fp)
 8000200:	e1bffe17 	ldw	r6,-8(fp)
 8000204:	e17fff17 	ldw	r5,-4(fp)
 8000208:	1809883a 	mov	r4,r3
 800020c:	103ee83a 	callr	r2
 8000210:	00000206 	br	800021c <alt_instruction_exception_entry+0x4c>
   *    (a peripheral which negates its interrupt output before its
   *    interrupt handler has been executed will cause spurious interrupts)
   */
  else {
#ifdef NIOS2_HAS_DEBUG_STUB
    NIOS2_BREAK();
 8000214:	003da03a 	break	0
      ;
#endif /* NIOS2_HAS_DEBUG_STUB */
  }

  /* We should not get here. Remove compiler warning. */
  return NIOS2_EXCEPTION_RETURN_REISSUE_INST;
 8000218:	0005883a 	mov	r2,zero
}
 800021c:	e037883a 	mov	sp,fp
 8000220:	dfc00117 	ldw	ra,4(sp)
 8000224:	df000017 	ldw	fp,0(sp)
 8000228:	dec00204 	addi	sp,sp,8
 800022c:	f800283a 	ret

Disassembly of section .text:

08000230 <_start>:

    /*
     * Now that the caches are initialized, set up the stack pointer and global pointer.
     * The values provided by the linker are assumed to be correctly aligned.
     */
    movhi sp, %hi(__alt_stack_pointer)
 8000230:	06c40034 	movhi	sp,4096
    ori sp, sp, %lo(__alt_stack_pointer)
 8000234:	dec00014 	ori	sp,sp,0
    movhi gp, %hi(_gp)
 8000238:	06820074 	movhi	gp,2049
    ori gp, gp, %lo(_gp)
 800023c:	d6bade14 	ori	gp,gp,60280
 */
#ifndef ALT_SIM_OPTIMIZE
    /* Log that the BSS is about to be cleared. */
    ALT_LOG_PUTS(alt_log_msg_bss)

    movhi r2, %hi(__bss_start)
 8000240:	00820074 	movhi	r2,2049
    ori r2, r2, %lo(__bss_start)
 8000244:	10a1fb14 	ori	r2,r2,34796

    movhi r3, %hi(__bss_end)
 8000248:	00c20074 	movhi	r3,2049
    ori r3, r3, %lo(__bss_end)
 800024c:	18e26114 	ori	r3,r3,35204

    beq r2, r3, 1f
 8000250:	10c00326 	beq	r2,r3,8000260 <_start+0x30>

0:
    stw zero, (r2)
 8000254:	10000015 	stw	zero,0(r2)
    addi r2, r2, 4
 8000258:	10800104 	addi	r2,r2,4
    bltu r2, r3, 0b
 800025c:	10fffd36 	bltu	r2,r3,8000254 <__alt_data_end+0xf8000254>
     * section aren't defined until alt_load() has been called).
     */
    mov   et, zero
#endif

    call alt_load
 8000260:	80127800 	call	8012780 <alt_load>

    /* Log that alt_main is about to be called. */
    ALT_LOG_PUTS(alt_log_msg_alt_main)

    /* Call the C entry point. It should never return. */
    call alt_main
 8000264:	801291c0 	call	801291c <alt_main>

08000268 <alt_after_alt_main>:

    /* Wait in infinite loop in case alt_main does return. */
alt_after_alt_main:
    br alt_after_alt_main
 8000268:	003fff06 	br	8000268 <__alt_data_end+0xf8000268>

0800026c <generate_bullet>:
 *  Created on: 2022Äê1ÔÂ2ÈÕ
 *      Author: jiaru
 */
#include "bullet.h"
#include "ship_logic.h"
void generate_bullet(ship_t *ship, int target, bullet_t *bullet){
 800026c:	defffb04 	addi	sp,sp,-20
 8000270:	df000415 	stw	fp,16(sp)
 8000274:	df000404 	addi	fp,sp,16
 8000278:	e13ffd15 	stw	r4,-12(fp)
 800027c:	e17ffe15 	stw	r5,-8(fp)
 8000280:	e1bfff15 	stw	r6,-4(fp)
	if (!bullet->stop)
 8000284:	e0bfff17 	ldw	r2,-4(fp)
 8000288:	10800017 	ldw	r2,0(r2)
 800028c:	10006326 	beq	r2,zero,800041c <generate_bullet+0x1b0>
		return;
	bullet->target = target;
 8000290:	e0bfff17 	ldw	r2,-4(fp)
 8000294:	e0fffe17 	ldw	r3,-8(fp)
 8000298:	10c02915 	stw	r3,164(r2)
	int i = 0;
 800029c:	e03ffc15 	stw	zero,-16(fp)
	if(target == 1)
 80002a0:	e0bffe17 	ldw	r2,-8(fp)
 80002a4:	10800058 	cmpnei	r2,r2,1
 80002a8:	10002e1e 	bne	r2,zero,8000364 <generate_bullet+0xf8>
		for (i = 0; i < 10; i++){
 80002ac:	e03ffc15 	stw	zero,-16(fp)
 80002b0:	00002806 	br	8000354 <generate_bullet+0xe8>
			bullet->x[i] = ship->x;
 80002b4:	e0bffd17 	ldw	r2,-12(fp)
 80002b8:	10c00117 	ldw	r3,4(r2)
 80002bc:	e13fff17 	ldw	r4,-4(fp)
 80002c0:	e0bffc17 	ldw	r2,-16(fp)
 80002c4:	10800044 	addi	r2,r2,1
 80002c8:	1085883a 	add	r2,r2,r2
 80002cc:	1085883a 	add	r2,r2,r2
 80002d0:	2085883a 	add	r2,r4,r2
 80002d4:	10c00015 	stw	r3,0(r2)
			bullet->y[i] = ship->y;
 80002d8:	e0bffd17 	ldw	r2,-12(fp)
 80002dc:	10c00217 	ldw	r3,8(r2)
 80002e0:	e13fff17 	ldw	r4,-4(fp)
 80002e4:	e0bffc17 	ldw	r2,-16(fp)
 80002e8:	108002c4 	addi	r2,r2,11
 80002ec:	1085883a 	add	r2,r2,r2
 80002f0:	1085883a 	add	r2,r2,r2
 80002f4:	2085883a 	add	r2,r4,r2
 80002f8:	10c00015 	stw	r3,0(r2)
			bullet->vx[i] = 10;
 80002fc:	e0ffff17 	ldw	r3,-4(fp)
 8000300:	e0bffc17 	ldw	r2,-16(fp)
 8000304:	10800544 	addi	r2,r2,21
 8000308:	1085883a 	add	r2,r2,r2
 800030c:	1085883a 	add	r2,r2,r2
 8000310:	1885883a 	add	r2,r3,r2
 8000314:	00c00284 	movi	r3,10
 8000318:	10c00015 	stw	r3,0(r2)
			bullet->vy[i] = -5 + i;
 800031c:	e0bffc17 	ldw	r2,-16(fp)
 8000320:	10fffec4 	addi	r3,r2,-5
 8000324:	e13fff17 	ldw	r4,-4(fp)
 8000328:	e0bffc17 	ldw	r2,-16(fp)
 800032c:	108007c4 	addi	r2,r2,31
 8000330:	1085883a 	add	r2,r2,r2
 8000334:	1085883a 	add	r2,r2,r2
 8000338:	2085883a 	add	r2,r4,r2
 800033c:	10c00015 	stw	r3,0(r2)
			bullet->stop = 0;
 8000340:	e0bfff17 	ldw	r2,-4(fp)
 8000344:	10000015 	stw	zero,0(r2)
	if (!bullet->stop)
		return;
	bullet->target = target;
	int i = 0;
	if(target == 1)
		for (i = 0; i < 10; i++){
 8000348:	e0bffc17 	ldw	r2,-16(fp)
 800034c:	10800044 	addi	r2,r2,1
 8000350:	e0bffc15 	stw	r2,-16(fp)
 8000354:	e0bffc17 	ldw	r2,-16(fp)
 8000358:	10800290 	cmplti	r2,r2,10
 800035c:	103fd51e 	bne	r2,zero,80002b4 <__alt_data_end+0xf80002b4>
 8000360:	00002f06 	br	8000420 <generate_bullet+0x1b4>
			bullet->vx[i] = 10;
			bullet->vy[i] = -5 + i;
			bullet->stop = 0;
		}
	else
		for (i = 0; i < 10; i++){
 8000364:	e03ffc15 	stw	zero,-16(fp)
 8000368:	00002806 	br	800040c <generate_bullet+0x1a0>
			bullet->x[i] = ship->x;
 800036c:	e0bffd17 	ldw	r2,-12(fp)
 8000370:	10c00117 	ldw	r3,4(r2)
 8000374:	e13fff17 	ldw	r4,-4(fp)
 8000378:	e0bffc17 	ldw	r2,-16(fp)
 800037c:	10800044 	addi	r2,r2,1
 8000380:	1085883a 	add	r2,r2,r2
 8000384:	1085883a 	add	r2,r2,r2
 8000388:	2085883a 	add	r2,r4,r2
 800038c:	10c00015 	stw	r3,0(r2)
			bullet->y[i] = ship->y;
 8000390:	e0bffd17 	ldw	r2,-12(fp)
 8000394:	10c00217 	ldw	r3,8(r2)
 8000398:	e13fff17 	ldw	r4,-4(fp)
 800039c:	e0bffc17 	ldw	r2,-16(fp)
 80003a0:	108002c4 	addi	r2,r2,11
 80003a4:	1085883a 	add	r2,r2,r2
 80003a8:	1085883a 	add	r2,r2,r2
 80003ac:	2085883a 	add	r2,r4,r2
 80003b0:	10c00015 	stw	r3,0(r2)
			bullet->vx[i] = -10;
 80003b4:	e0ffff17 	ldw	r3,-4(fp)
 80003b8:	e0bffc17 	ldw	r2,-16(fp)
 80003bc:	10800544 	addi	r2,r2,21
 80003c0:	1085883a 	add	r2,r2,r2
 80003c4:	1085883a 	add	r2,r2,r2
 80003c8:	1885883a 	add	r2,r3,r2
 80003cc:	00fffd84 	movi	r3,-10
 80003d0:	10c00015 	stw	r3,0(r2)
			bullet->vy[i] = -5 + i;
 80003d4:	e0bffc17 	ldw	r2,-16(fp)
 80003d8:	10fffec4 	addi	r3,r2,-5
 80003dc:	e13fff17 	ldw	r4,-4(fp)
 80003e0:	e0bffc17 	ldw	r2,-16(fp)
 80003e4:	108007c4 	addi	r2,r2,31
 80003e8:	1085883a 	add	r2,r2,r2
 80003ec:	1085883a 	add	r2,r2,r2
 80003f0:	2085883a 	add	r2,r4,r2
 80003f4:	10c00015 	stw	r3,0(r2)
			bullet->stop = 0;
 80003f8:	e0bfff17 	ldw	r2,-4(fp)
 80003fc:	10000015 	stw	zero,0(r2)
			bullet->vx[i] = 10;
			bullet->vy[i] = -5 + i;
			bullet->stop = 0;
		}
	else
		for (i = 0; i < 10; i++){
 8000400:	e0bffc17 	ldw	r2,-16(fp)
 8000404:	10800044 	addi	r2,r2,1
 8000408:	e0bffc15 	stw	r2,-16(fp)
 800040c:	e0bffc17 	ldw	r2,-16(fp)
 8000410:	10800290 	cmplti	r2,r2,10
 8000414:	103fd51e 	bne	r2,zero,800036c <__alt_data_end+0xf800036c>
 8000418:	00000106 	br	8000420 <generate_bullet+0x1b4>
 */
#include "bullet.h"
#include "ship_logic.h"
void generate_bullet(ship_t *ship, int target, bullet_t *bullet){
	if (!bullet->stop)
		return;
 800041c:	0001883a 	nop
			bullet->vx[i] = -10;
			bullet->vy[i] = -5 + i;
			bullet->stop = 0;
		}

}
 8000420:	e037883a 	mov	sp,fp
 8000424:	df000017 	ldw	fp,0(sp)
 8000428:	dec00104 	addi	sp,sp,4
 800042c:	f800283a 	ret

08000430 <update_bullet>:

void update_bullet(bullet_t *bullet1, bullet_t *bullet2, ship_t *ship1, ship_t *ship2){
 8000430:	defff904 	addi	sp,sp,-28
 8000434:	dfc00615 	stw	ra,24(sp)
 8000438:	df000515 	stw	fp,20(sp)
 800043c:	df000504 	addi	fp,sp,20
 8000440:	e13ffc15 	stw	r4,-16(fp)
 8000444:	e17ffd15 	stw	r5,-12(fp)
 8000448:	e1bffe15 	stw	r6,-8(fp)
 800044c:	e1ffff15 	stw	r7,-4(fp)
	int i;
	if (!bullet1->stop){
 8000450:	e0bffc17 	ldw	r2,-16(fp)
 8000454:	10800017 	ldw	r2,0(r2)
 8000458:	1000cb1e 	bne	r2,zero,8000788 <update_bullet+0x358>
		for(i = 0; i < 10; i++)
 800045c:	e03ffb15 	stw	zero,-20(fp)
 8000460:	0000c606 	br	800077c <update_bullet+0x34c>
		{
			bullet1->x[i] += bullet1->vx[i];
 8000464:	e0fffc17 	ldw	r3,-16(fp)
 8000468:	e0bffb17 	ldw	r2,-20(fp)
 800046c:	10800044 	addi	r2,r2,1
 8000470:	1085883a 	add	r2,r2,r2
 8000474:	1085883a 	add	r2,r2,r2
 8000478:	1885883a 	add	r2,r3,r2
 800047c:	10c00017 	ldw	r3,0(r2)
 8000480:	e13ffc17 	ldw	r4,-16(fp)
 8000484:	e0bffb17 	ldw	r2,-20(fp)
 8000488:	10800544 	addi	r2,r2,21
 800048c:	1085883a 	add	r2,r2,r2
 8000490:	1085883a 	add	r2,r2,r2
 8000494:	2085883a 	add	r2,r4,r2
 8000498:	10800017 	ldw	r2,0(r2)
 800049c:	1887883a 	add	r3,r3,r2
 80004a0:	e13ffc17 	ldw	r4,-16(fp)
 80004a4:	e0bffb17 	ldw	r2,-20(fp)
 80004a8:	10800044 	addi	r2,r2,1
 80004ac:	1085883a 	add	r2,r2,r2
 80004b0:	1085883a 	add	r2,r2,r2
 80004b4:	2085883a 	add	r2,r4,r2
 80004b8:	10c00015 	stw	r3,0(r2)
			bullet1->y[i] += bullet1->vy[i];
 80004bc:	e0fffc17 	ldw	r3,-16(fp)
 80004c0:	e0bffb17 	ldw	r2,-20(fp)
 80004c4:	108002c4 	addi	r2,r2,11
 80004c8:	1085883a 	add	r2,r2,r2
 80004cc:	1085883a 	add	r2,r2,r2
 80004d0:	1885883a 	add	r2,r3,r2
 80004d4:	10c00017 	ldw	r3,0(r2)
 80004d8:	e13ffc17 	ldw	r4,-16(fp)
 80004dc:	e0bffb17 	ldw	r2,-20(fp)
 80004e0:	108007c4 	addi	r2,r2,31
 80004e4:	1085883a 	add	r2,r2,r2
 80004e8:	1085883a 	add	r2,r2,r2
 80004ec:	2085883a 	add	r2,r4,r2
 80004f0:	10800017 	ldw	r2,0(r2)
 80004f4:	1887883a 	add	r3,r3,r2
 80004f8:	e13ffc17 	ldw	r4,-16(fp)
 80004fc:	e0bffb17 	ldw	r2,-20(fp)
 8000500:	108002c4 	addi	r2,r2,11
 8000504:	1085883a 	add	r2,r2,r2
 8000508:	1085883a 	add	r2,r2,r2
 800050c:	2085883a 	add	r2,r4,r2
 8000510:	10c00015 	stw	r3,0(r2)
			if(bullet1->x[i] >= RIGHT_MOST || bullet1->x[i] <= LEFT_MOST){
 8000514:	e0fffc17 	ldw	r3,-16(fp)
 8000518:	e0bffb17 	ldw	r2,-20(fp)
 800051c:	10800044 	addi	r2,r2,1
 8000520:	1085883a 	add	r2,r2,r2
 8000524:	1085883a 	add	r2,r2,r2
 8000528:	1885883a 	add	r2,r3,r2
 800052c:	10800017 	ldw	r2,0(r2)
 8000530:	108097c8 	cmpgei	r2,r2,607
 8000534:	1000091e 	bne	r2,zero,800055c <update_bullet+0x12c>
 8000538:	e0fffc17 	ldw	r3,-16(fp)
 800053c:	e0bffb17 	ldw	r2,-20(fp)
 8000540:	10800044 	addi	r2,r2,1
 8000544:	1085883a 	add	r2,r2,r2
 8000548:	1085883a 	add	r2,r2,r2
 800054c:	1885883a 	add	r2,r3,r2
 8000550:	10800017 	ldw	r2,0(r2)
 8000554:	10800888 	cmpgei	r2,r2,34
 8000558:	10001e1e 	bne	r2,zero,80005d4 <update_bullet+0x1a4>
				bullet1->x[i] = 1000;
 800055c:	e0fffc17 	ldw	r3,-16(fp)
 8000560:	e0bffb17 	ldw	r2,-20(fp)
 8000564:	10800044 	addi	r2,r2,1
 8000568:	1085883a 	add	r2,r2,r2
 800056c:	1085883a 	add	r2,r2,r2
 8000570:	1885883a 	add	r2,r3,r2
 8000574:	00c0fa04 	movi	r3,1000
 8000578:	10c00015 	stw	r3,0(r2)
				bullet1->y[i] = 1000;
 800057c:	e0fffc17 	ldw	r3,-16(fp)
 8000580:	e0bffb17 	ldw	r2,-20(fp)
 8000584:	108002c4 	addi	r2,r2,11
 8000588:	1085883a 	add	r2,r2,r2
 800058c:	1085883a 	add	r2,r2,r2
 8000590:	1885883a 	add	r2,r3,r2
 8000594:	00c0fa04 	movi	r3,1000
 8000598:	10c00015 	stw	r3,0(r2)
				bullet1->vx[i] = 0;
 800059c:	e0fffc17 	ldw	r3,-16(fp)
 80005a0:	e0bffb17 	ldw	r2,-20(fp)
 80005a4:	10800544 	addi	r2,r2,21
 80005a8:	1085883a 	add	r2,r2,r2
 80005ac:	1085883a 	add	r2,r2,r2
 80005b0:	1885883a 	add	r2,r3,r2
 80005b4:	10000015 	stw	zero,0(r2)
				bullet1->vy[i] = 0;
 80005b8:	e0fffc17 	ldw	r3,-16(fp)
 80005bc:	e0bffb17 	ldw	r2,-20(fp)
 80005c0:	108007c4 	addi	r2,r2,31
 80005c4:	1085883a 	add	r2,r2,r2
 80005c8:	1085883a 	add	r2,r2,r2
 80005cc:	1885883a 	add	r2,r3,r2
 80005d0:	10000015 	stw	zero,0(r2)
			}
			if(bullet1->y[i] <= UP_MOST || bullet1->y[i] >= DOWN_MOST){
 80005d4:	e0fffc17 	ldw	r3,-16(fp)
 80005d8:	e0bffb17 	ldw	r2,-20(fp)
 80005dc:	108002c4 	addi	r2,r2,11
 80005e0:	1085883a 	add	r2,r2,r2
 80005e4:	1085883a 	add	r2,r2,r2
 80005e8:	1885883a 	add	r2,r3,r2
 80005ec:	10800017 	ldw	r2,0(r2)
 80005f0:	10800a50 	cmplti	r2,r2,41
 80005f4:	1000091e 	bne	r2,zero,800061c <update_bullet+0x1ec>
 80005f8:	e0fffc17 	ldw	r3,-16(fp)
 80005fc:	e0bffb17 	ldw	r2,-20(fp)
 8000600:	108002c4 	addi	r2,r2,11
 8000604:	1085883a 	add	r2,r2,r2
 8000608:	1085883a 	add	r2,r2,r2
 800060c:	1885883a 	add	r2,r3,r2
 8000610:	10800017 	ldw	r2,0(r2)
 8000614:	10807090 	cmplti	r2,r2,450
 8000618:	10001e1e 	bne	r2,zero,8000694 <update_bullet+0x264>
				bullet1->x[i] = 1000;
 800061c:	e0fffc17 	ldw	r3,-16(fp)
 8000620:	e0bffb17 	ldw	r2,-20(fp)
 8000624:	10800044 	addi	r2,r2,1
 8000628:	1085883a 	add	r2,r2,r2
 800062c:	1085883a 	add	r2,r2,r2
 8000630:	1885883a 	add	r2,r3,r2
 8000634:	00c0fa04 	movi	r3,1000
 8000638:	10c00015 	stw	r3,0(r2)
				bullet1->y[i] = 1000;
 800063c:	e0fffc17 	ldw	r3,-16(fp)
 8000640:	e0bffb17 	ldw	r2,-20(fp)
 8000644:	108002c4 	addi	r2,r2,11
 8000648:	1085883a 	add	r2,r2,r2
 800064c:	1085883a 	add	r2,r2,r2
 8000650:	1885883a 	add	r2,r3,r2
 8000654:	00c0fa04 	movi	r3,1000
 8000658:	10c00015 	stw	r3,0(r2)
				bullet1->vx[i] = 0;
 800065c:	e0fffc17 	ldw	r3,-16(fp)
 8000660:	e0bffb17 	ldw	r2,-20(fp)
 8000664:	10800544 	addi	r2,r2,21
 8000668:	1085883a 	add	r2,r2,r2
 800066c:	1085883a 	add	r2,r2,r2
 8000670:	1885883a 	add	r2,r3,r2
 8000674:	10000015 	stw	zero,0(r2)
				bullet1->vy[i] = 0;
 8000678:	e0fffc17 	ldw	r3,-16(fp)
 800067c:	e0bffb17 	ldw	r2,-20(fp)
 8000680:	108007c4 	addi	r2,r2,31
 8000684:	1085883a 	add	r2,r2,r2
 8000688:	1085883a 	add	r2,r2,r2
 800068c:	1885883a 	add	r2,r3,r2
 8000690:	10000015 	stw	zero,0(r2)
			}
			if(detect(ship2, bullet1->x[i], bullet1->y[i], 10)){
 8000694:	e0fffc17 	ldw	r3,-16(fp)
 8000698:	e0bffb17 	ldw	r2,-20(fp)
 800069c:	10800044 	addi	r2,r2,1
 80006a0:	1085883a 	add	r2,r2,r2
 80006a4:	1085883a 	add	r2,r2,r2
 80006a8:	1885883a 	add	r2,r3,r2
 80006ac:	11000017 	ldw	r4,0(r2)
 80006b0:	e0fffc17 	ldw	r3,-16(fp)
 80006b4:	e0bffb17 	ldw	r2,-20(fp)
 80006b8:	108002c4 	addi	r2,r2,11
 80006bc:	1085883a 	add	r2,r2,r2
 80006c0:	1085883a 	add	r2,r2,r2
 80006c4:	1885883a 	add	r2,r3,r2
 80006c8:	10800017 	ldw	r2,0(r2)
 80006cc:	01c00284 	movi	r7,10
 80006d0:	100d883a 	mov	r6,r2
 80006d4:	200b883a 	mov	r5,r4
 80006d8:	e13fff17 	ldw	r4,-4(fp)
 80006dc:	80028e40 	call	80028e4 <detect>
 80006e0:	10002326 	beq	r2,zero,8000770 <update_bullet+0x340>
				ship2->HP -= 2;
 80006e4:	e0bfff17 	ldw	r2,-4(fp)
 80006e8:	10800517 	ldw	r2,20(r2)
 80006ec:	10ffff84 	addi	r3,r2,-2
 80006f0:	e0bfff17 	ldw	r2,-4(fp)
 80006f4:	10c00515 	stw	r3,20(r2)
				bullet1->x[i] = 1000;
 80006f8:	e0fffc17 	ldw	r3,-16(fp)
 80006fc:	e0bffb17 	ldw	r2,-20(fp)
 8000700:	10800044 	addi	r2,r2,1
 8000704:	1085883a 	add	r2,r2,r2
 8000708:	1085883a 	add	r2,r2,r2
 800070c:	1885883a 	add	r2,r3,r2
 8000710:	00c0fa04 	movi	r3,1000
 8000714:	10c00015 	stw	r3,0(r2)
				bullet1->y[i] = 1000;
 8000718:	e0fffc17 	ldw	r3,-16(fp)
 800071c:	e0bffb17 	ldw	r2,-20(fp)
 8000720:	108002c4 	addi	r2,r2,11
 8000724:	1085883a 	add	r2,r2,r2
 8000728:	1085883a 	add	r2,r2,r2
 800072c:	1885883a 	add	r2,r3,r2
 8000730:	00c0fa04 	movi	r3,1000
 8000734:	10c00015 	stw	r3,0(r2)
				bullet1->vx[i] = 0;
 8000738:	e0fffc17 	ldw	r3,-16(fp)
 800073c:	e0bffb17 	ldw	r2,-20(fp)
 8000740:	10800544 	addi	r2,r2,21
 8000744:	1085883a 	add	r2,r2,r2
 8000748:	1085883a 	add	r2,r2,r2
 800074c:	1885883a 	add	r2,r3,r2
 8000750:	10000015 	stw	zero,0(r2)
				bullet1->vy[i] = 0;
 8000754:	e0fffc17 	ldw	r3,-16(fp)
 8000758:	e0bffb17 	ldw	r2,-20(fp)
 800075c:	108007c4 	addi	r2,r2,31
 8000760:	1085883a 	add	r2,r2,r2
 8000764:	1085883a 	add	r2,r2,r2
 8000768:	1885883a 	add	r2,r3,r2
 800076c:	10000015 	stw	zero,0(r2)
}

void update_bullet(bullet_t *bullet1, bullet_t *bullet2, ship_t *ship1, ship_t *ship2){
	int i;
	if (!bullet1->stop){
		for(i = 0; i < 10; i++)
 8000770:	e0bffb17 	ldw	r2,-20(fp)
 8000774:	10800044 	addi	r2,r2,1
 8000778:	e0bffb15 	stw	r2,-20(fp)
 800077c:	e0bffb17 	ldw	r2,-20(fp)
 8000780:	10800290 	cmplti	r2,r2,10
 8000784:	103f371e 	bne	r2,zero,8000464 <__alt_data_end+0xf8000464>
				bullet1->vy[i] = 0;
			}
		}

	}
	if(bullet1->vx[0] == 0 && bullet1->vx[1] == 0
 8000788:	e0bffc17 	ldw	r2,-16(fp)
 800078c:	10801517 	ldw	r2,84(r2)
 8000790:	10001e1e 	bne	r2,zero,800080c <update_bullet+0x3dc>
 8000794:	e0bffc17 	ldw	r2,-16(fp)
 8000798:	10801617 	ldw	r2,88(r2)
 800079c:	10001b1e 	bne	r2,zero,800080c <update_bullet+0x3dc>
	&& bullet1->vx[2] == 0 && bullet1->vx[3]== 0 &&
 80007a0:	e0bffc17 	ldw	r2,-16(fp)
 80007a4:	10801717 	ldw	r2,92(r2)
 80007a8:	1000181e 	bne	r2,zero,800080c <update_bullet+0x3dc>
 80007ac:	e0bffc17 	ldw	r2,-16(fp)
 80007b0:	10801817 	ldw	r2,96(r2)
 80007b4:	1000151e 	bne	r2,zero,800080c <update_bullet+0x3dc>
	bullet1->vx[4] == 0 && bullet1->vx[5] == 0
 80007b8:	e0bffc17 	ldw	r2,-16(fp)
 80007bc:	10801917 	ldw	r2,100(r2)
			}
		}

	}
	if(bullet1->vx[0] == 0 && bullet1->vx[1] == 0
	&& bullet1->vx[2] == 0 && bullet1->vx[3]== 0 &&
 80007c0:	1000121e 	bne	r2,zero,800080c <update_bullet+0x3dc>
	bullet1->vx[4] == 0 && bullet1->vx[5] == 0
 80007c4:	e0bffc17 	ldw	r2,-16(fp)
 80007c8:	10801a17 	ldw	r2,104(r2)
 80007cc:	10000f1e 	bne	r2,zero,800080c <update_bullet+0x3dc>
	&& bullet1->vx[6] == 0 && bullet1->vx[7]== 0 &&
 80007d0:	e0bffc17 	ldw	r2,-16(fp)
 80007d4:	10801b17 	ldw	r2,108(r2)
 80007d8:	10000c1e 	bne	r2,zero,800080c <update_bullet+0x3dc>
 80007dc:	e0bffc17 	ldw	r2,-16(fp)
 80007e0:	10801c17 	ldw	r2,112(r2)
 80007e4:	1000091e 	bne	r2,zero,800080c <update_bullet+0x3dc>
		bullet1->vx[8] == 0 && bullet1->vx[9]== 0 ){
 80007e8:	e0bffc17 	ldw	r2,-16(fp)
 80007ec:	10801d17 	ldw	r2,116(r2)

	}
	if(bullet1->vx[0] == 0 && bullet1->vx[1] == 0
	&& bullet1->vx[2] == 0 && bullet1->vx[3]== 0 &&
	bullet1->vx[4] == 0 && bullet1->vx[5] == 0
	&& bullet1->vx[6] == 0 && bullet1->vx[7]== 0 &&
 80007f0:	1000061e 	bne	r2,zero,800080c <update_bullet+0x3dc>
		bullet1->vx[8] == 0 && bullet1->vx[9]== 0 ){
 80007f4:	e0bffc17 	ldw	r2,-16(fp)
 80007f8:	10801e17 	ldw	r2,120(r2)
 80007fc:	1000031e 	bne	r2,zero,800080c <update_bullet+0x3dc>
		bullet1->stop = 1;
 8000800:	e0bffc17 	ldw	r2,-16(fp)
 8000804:	00c00044 	movi	r3,1
 8000808:	10c00015 	stw	r3,0(r2)
	}
	if (!bullet2->stop){
 800080c:	e0bffd17 	ldw	r2,-12(fp)
 8000810:	10800017 	ldw	r2,0(r2)
 8000814:	1000cb1e 	bne	r2,zero,8000b44 <update_bullet+0x714>
		for(i = 0; i < 10; i++){
 8000818:	e03ffb15 	stw	zero,-20(fp)
 800081c:	0000c606 	br	8000b38 <update_bullet+0x708>
			bullet2->x[i] += bullet2->vx[i];
 8000820:	e0fffd17 	ldw	r3,-12(fp)
 8000824:	e0bffb17 	ldw	r2,-20(fp)
 8000828:	10800044 	addi	r2,r2,1
 800082c:	1085883a 	add	r2,r2,r2
 8000830:	1085883a 	add	r2,r2,r2
 8000834:	1885883a 	add	r2,r3,r2
 8000838:	10c00017 	ldw	r3,0(r2)
 800083c:	e13ffd17 	ldw	r4,-12(fp)
 8000840:	e0bffb17 	ldw	r2,-20(fp)
 8000844:	10800544 	addi	r2,r2,21
 8000848:	1085883a 	add	r2,r2,r2
 800084c:	1085883a 	add	r2,r2,r2
 8000850:	2085883a 	add	r2,r4,r2
 8000854:	10800017 	ldw	r2,0(r2)
 8000858:	1887883a 	add	r3,r3,r2
 800085c:	e13ffd17 	ldw	r4,-12(fp)
 8000860:	e0bffb17 	ldw	r2,-20(fp)
 8000864:	10800044 	addi	r2,r2,1
 8000868:	1085883a 	add	r2,r2,r2
 800086c:	1085883a 	add	r2,r2,r2
 8000870:	2085883a 	add	r2,r4,r2
 8000874:	10c00015 	stw	r3,0(r2)
			bullet2->y[i] += bullet2->vy[i];
 8000878:	e0fffd17 	ldw	r3,-12(fp)
 800087c:	e0bffb17 	ldw	r2,-20(fp)
 8000880:	108002c4 	addi	r2,r2,11
 8000884:	1085883a 	add	r2,r2,r2
 8000888:	1085883a 	add	r2,r2,r2
 800088c:	1885883a 	add	r2,r3,r2
 8000890:	10c00017 	ldw	r3,0(r2)
 8000894:	e13ffd17 	ldw	r4,-12(fp)
 8000898:	e0bffb17 	ldw	r2,-20(fp)
 800089c:	108007c4 	addi	r2,r2,31
 80008a0:	1085883a 	add	r2,r2,r2
 80008a4:	1085883a 	add	r2,r2,r2
 80008a8:	2085883a 	add	r2,r4,r2
 80008ac:	10800017 	ldw	r2,0(r2)
 80008b0:	1887883a 	add	r3,r3,r2
 80008b4:	e13ffd17 	ldw	r4,-12(fp)
 80008b8:	e0bffb17 	ldw	r2,-20(fp)
 80008bc:	108002c4 	addi	r2,r2,11
 80008c0:	1085883a 	add	r2,r2,r2
 80008c4:	1085883a 	add	r2,r2,r2
 80008c8:	2085883a 	add	r2,r4,r2
 80008cc:	10c00015 	stw	r3,0(r2)
			if(bullet2->x[i] >= RIGHT_MOST || bullet2->x[i] <= LEFT_MOST){
 80008d0:	e0fffd17 	ldw	r3,-12(fp)
 80008d4:	e0bffb17 	ldw	r2,-20(fp)
 80008d8:	10800044 	addi	r2,r2,1
 80008dc:	1085883a 	add	r2,r2,r2
 80008e0:	1085883a 	add	r2,r2,r2
 80008e4:	1885883a 	add	r2,r3,r2
 80008e8:	10800017 	ldw	r2,0(r2)
 80008ec:	108097c8 	cmpgei	r2,r2,607
 80008f0:	1000091e 	bne	r2,zero,8000918 <update_bullet+0x4e8>
 80008f4:	e0fffd17 	ldw	r3,-12(fp)
 80008f8:	e0bffb17 	ldw	r2,-20(fp)
 80008fc:	10800044 	addi	r2,r2,1
 8000900:	1085883a 	add	r2,r2,r2
 8000904:	1085883a 	add	r2,r2,r2
 8000908:	1885883a 	add	r2,r3,r2
 800090c:	10800017 	ldw	r2,0(r2)
 8000910:	10800888 	cmpgei	r2,r2,34
 8000914:	10001e1e 	bne	r2,zero,8000990 <update_bullet+0x560>
				bullet2->x[i] = 1000;
 8000918:	e0fffd17 	ldw	r3,-12(fp)
 800091c:	e0bffb17 	ldw	r2,-20(fp)
 8000920:	10800044 	addi	r2,r2,1
 8000924:	1085883a 	add	r2,r2,r2
 8000928:	1085883a 	add	r2,r2,r2
 800092c:	1885883a 	add	r2,r3,r2
 8000930:	00c0fa04 	movi	r3,1000
 8000934:	10c00015 	stw	r3,0(r2)
				bullet2->y[i] = 1000;
 8000938:	e0fffd17 	ldw	r3,-12(fp)
 800093c:	e0bffb17 	ldw	r2,-20(fp)
 8000940:	108002c4 	addi	r2,r2,11
 8000944:	1085883a 	add	r2,r2,r2
 8000948:	1085883a 	add	r2,r2,r2
 800094c:	1885883a 	add	r2,r3,r2
 8000950:	00c0fa04 	movi	r3,1000
 8000954:	10c00015 	stw	r3,0(r2)
				bullet2->vx[i] = 0;
 8000958:	e0fffd17 	ldw	r3,-12(fp)
 800095c:	e0bffb17 	ldw	r2,-20(fp)
 8000960:	10800544 	addi	r2,r2,21
 8000964:	1085883a 	add	r2,r2,r2
 8000968:	1085883a 	add	r2,r2,r2
 800096c:	1885883a 	add	r2,r3,r2
 8000970:	10000015 	stw	zero,0(r2)
				bullet2->vy[i] = 0;
 8000974:	e0fffd17 	ldw	r3,-12(fp)
 8000978:	e0bffb17 	ldw	r2,-20(fp)
 800097c:	108007c4 	addi	r2,r2,31
 8000980:	1085883a 	add	r2,r2,r2
 8000984:	1085883a 	add	r2,r2,r2
 8000988:	1885883a 	add	r2,r3,r2
 800098c:	10000015 	stw	zero,0(r2)
			}
			if(bullet2->y[i] <= UP_MOST || bullet2->y[i] >= DOWN_MOST){
 8000990:	e0fffd17 	ldw	r3,-12(fp)
 8000994:	e0bffb17 	ldw	r2,-20(fp)
 8000998:	108002c4 	addi	r2,r2,11
 800099c:	1085883a 	add	r2,r2,r2
 80009a0:	1085883a 	add	r2,r2,r2
 80009a4:	1885883a 	add	r2,r3,r2
 80009a8:	10800017 	ldw	r2,0(r2)
 80009ac:	10800a50 	cmplti	r2,r2,41
 80009b0:	1000091e 	bne	r2,zero,80009d8 <update_bullet+0x5a8>
 80009b4:	e0fffd17 	ldw	r3,-12(fp)
 80009b8:	e0bffb17 	ldw	r2,-20(fp)
 80009bc:	108002c4 	addi	r2,r2,11
 80009c0:	1085883a 	add	r2,r2,r2
 80009c4:	1085883a 	add	r2,r2,r2
 80009c8:	1885883a 	add	r2,r3,r2
 80009cc:	10800017 	ldw	r2,0(r2)
 80009d0:	10807090 	cmplti	r2,r2,450
 80009d4:	10001e1e 	bne	r2,zero,8000a50 <update_bullet+0x620>
				bullet2->x[i] = 1000;
 80009d8:	e0fffd17 	ldw	r3,-12(fp)
 80009dc:	e0bffb17 	ldw	r2,-20(fp)
 80009e0:	10800044 	addi	r2,r2,1
 80009e4:	1085883a 	add	r2,r2,r2
 80009e8:	1085883a 	add	r2,r2,r2
 80009ec:	1885883a 	add	r2,r3,r2
 80009f0:	00c0fa04 	movi	r3,1000
 80009f4:	10c00015 	stw	r3,0(r2)
				bullet2->y[i] = 1000;
 80009f8:	e0fffd17 	ldw	r3,-12(fp)
 80009fc:	e0bffb17 	ldw	r2,-20(fp)
 8000a00:	108002c4 	addi	r2,r2,11
 8000a04:	1085883a 	add	r2,r2,r2
 8000a08:	1085883a 	add	r2,r2,r2
 8000a0c:	1885883a 	add	r2,r3,r2
 8000a10:	00c0fa04 	movi	r3,1000
 8000a14:	10c00015 	stw	r3,0(r2)
				bullet2->vx[i] = 0;
 8000a18:	e0fffd17 	ldw	r3,-12(fp)
 8000a1c:	e0bffb17 	ldw	r2,-20(fp)
 8000a20:	10800544 	addi	r2,r2,21
 8000a24:	1085883a 	add	r2,r2,r2
 8000a28:	1085883a 	add	r2,r2,r2
 8000a2c:	1885883a 	add	r2,r3,r2
 8000a30:	10000015 	stw	zero,0(r2)
				bullet2->vy[i] = 0;
 8000a34:	e0fffd17 	ldw	r3,-12(fp)
 8000a38:	e0bffb17 	ldw	r2,-20(fp)
 8000a3c:	108007c4 	addi	r2,r2,31
 8000a40:	1085883a 	add	r2,r2,r2
 8000a44:	1085883a 	add	r2,r2,r2
 8000a48:	1885883a 	add	r2,r3,r2
 8000a4c:	10000015 	stw	zero,0(r2)
			}
			if(detect(ship1, bullet2->x[i], bullet2->y[i], 10)){
 8000a50:	e0fffd17 	ldw	r3,-12(fp)
 8000a54:	e0bffb17 	ldw	r2,-20(fp)
 8000a58:	10800044 	addi	r2,r2,1
 8000a5c:	1085883a 	add	r2,r2,r2
 8000a60:	1085883a 	add	r2,r2,r2
 8000a64:	1885883a 	add	r2,r3,r2
 8000a68:	11000017 	ldw	r4,0(r2)
 8000a6c:	e0fffd17 	ldw	r3,-12(fp)
 8000a70:	e0bffb17 	ldw	r2,-20(fp)
 8000a74:	108002c4 	addi	r2,r2,11
 8000a78:	1085883a 	add	r2,r2,r2
 8000a7c:	1085883a 	add	r2,r2,r2
 8000a80:	1885883a 	add	r2,r3,r2
 8000a84:	10800017 	ldw	r2,0(r2)
 8000a88:	01c00284 	movi	r7,10
 8000a8c:	100d883a 	mov	r6,r2
 8000a90:	200b883a 	mov	r5,r4
 8000a94:	e13ffe17 	ldw	r4,-8(fp)
 8000a98:	80028e40 	call	80028e4 <detect>
 8000a9c:	10002326 	beq	r2,zero,8000b2c <update_bullet+0x6fc>
				ship1->HP -= 2;
 8000aa0:	e0bffe17 	ldw	r2,-8(fp)
 8000aa4:	10800517 	ldw	r2,20(r2)
 8000aa8:	10ffff84 	addi	r3,r2,-2
 8000aac:	e0bffe17 	ldw	r2,-8(fp)
 8000ab0:	10c00515 	stw	r3,20(r2)
				bullet2->x[i] = 1000;
 8000ab4:	e0fffd17 	ldw	r3,-12(fp)
 8000ab8:	e0bffb17 	ldw	r2,-20(fp)
 8000abc:	10800044 	addi	r2,r2,1
 8000ac0:	1085883a 	add	r2,r2,r2
 8000ac4:	1085883a 	add	r2,r2,r2
 8000ac8:	1885883a 	add	r2,r3,r2
 8000acc:	00c0fa04 	movi	r3,1000
 8000ad0:	10c00015 	stw	r3,0(r2)
				bullet2->y[i] = 1000;
 8000ad4:	e0fffd17 	ldw	r3,-12(fp)
 8000ad8:	e0bffb17 	ldw	r2,-20(fp)
 8000adc:	108002c4 	addi	r2,r2,11
 8000ae0:	1085883a 	add	r2,r2,r2
 8000ae4:	1085883a 	add	r2,r2,r2
 8000ae8:	1885883a 	add	r2,r3,r2
 8000aec:	00c0fa04 	movi	r3,1000
 8000af0:	10c00015 	stw	r3,0(r2)
				bullet2->vx[i] = 0;
 8000af4:	e0fffd17 	ldw	r3,-12(fp)
 8000af8:	e0bffb17 	ldw	r2,-20(fp)
 8000afc:	10800544 	addi	r2,r2,21
 8000b00:	1085883a 	add	r2,r2,r2
 8000b04:	1085883a 	add	r2,r2,r2
 8000b08:	1885883a 	add	r2,r3,r2
 8000b0c:	10000015 	stw	zero,0(r2)
				bullet2->vy[i] = 0;
 8000b10:	e0fffd17 	ldw	r3,-12(fp)
 8000b14:	e0bffb17 	ldw	r2,-20(fp)
 8000b18:	108007c4 	addi	r2,r2,31
 8000b1c:	1085883a 	add	r2,r2,r2
 8000b20:	1085883a 	add	r2,r2,r2
 8000b24:	1885883a 	add	r2,r3,r2
 8000b28:	10000015 	stw	zero,0(r2)
	&& bullet1->vx[6] == 0 && bullet1->vx[7]== 0 &&
		bullet1->vx[8] == 0 && bullet1->vx[9]== 0 ){
		bullet1->stop = 1;
	}
	if (!bullet2->stop){
		for(i = 0; i < 10; i++){
 8000b2c:	e0bffb17 	ldw	r2,-20(fp)
 8000b30:	10800044 	addi	r2,r2,1
 8000b34:	e0bffb15 	stw	r2,-20(fp)
 8000b38:	e0bffb17 	ldw	r2,-20(fp)
 8000b3c:	10800290 	cmplti	r2,r2,10
 8000b40:	103f371e 	bne	r2,zero,8000820 <__alt_data_end+0xf8000820>
				bullet2->vx[i] = 0;
				bullet2->vy[i] = 0;
			}
		}
	}
	if(bullet2->vx[0] == 0 && bullet2->vx[1] == 0
 8000b44:	e0bffd17 	ldw	r2,-12(fp)
 8000b48:	10801517 	ldw	r2,84(r2)
 8000b4c:	10001e1e 	bne	r2,zero,8000bc8 <update_bullet+0x798>
 8000b50:	e0bffd17 	ldw	r2,-12(fp)
 8000b54:	10801617 	ldw	r2,88(r2)
 8000b58:	10001b1e 	bne	r2,zero,8000bc8 <update_bullet+0x798>
				&& bullet2->vx[2] == 0 && bullet2->vx[3]== 0 &&
 8000b5c:	e0bffd17 	ldw	r2,-12(fp)
 8000b60:	10801717 	ldw	r2,92(r2)
 8000b64:	1000181e 	bne	r2,zero,8000bc8 <update_bullet+0x798>
 8000b68:	e0bffd17 	ldw	r2,-12(fp)
 8000b6c:	10801817 	ldw	r2,96(r2)
 8000b70:	1000151e 	bne	r2,zero,8000bc8 <update_bullet+0x798>
				bullet2->vx[4] == 0 && bullet2->vx[5] == 0
 8000b74:	e0bffd17 	ldw	r2,-12(fp)
 8000b78:	10801917 	ldw	r2,100(r2)
				bullet2->vy[i] = 0;
			}
		}
	}
	if(bullet2->vx[0] == 0 && bullet2->vx[1] == 0
				&& bullet2->vx[2] == 0 && bullet2->vx[3]== 0 &&
 8000b7c:	1000121e 	bne	r2,zero,8000bc8 <update_bullet+0x798>
				bullet2->vx[4] == 0 && bullet2->vx[5] == 0
 8000b80:	e0bffd17 	ldw	r2,-12(fp)
 8000b84:	10801a17 	ldw	r2,104(r2)
 8000b88:	10000f1e 	bne	r2,zero,8000bc8 <update_bullet+0x798>
				&& bullet2->vx[6] == 0 && bullet2->vx[7]== 0 &&
 8000b8c:	e0bffd17 	ldw	r2,-12(fp)
 8000b90:	10801b17 	ldw	r2,108(r2)
 8000b94:	10000c1e 	bne	r2,zero,8000bc8 <update_bullet+0x798>
 8000b98:	e0bffd17 	ldw	r2,-12(fp)
 8000b9c:	10801c17 	ldw	r2,112(r2)
 8000ba0:	1000091e 	bne	r2,zero,8000bc8 <update_bullet+0x798>
				 bullet2->vx[8] == 0 && bullet2->vx[9]== 0 ){
 8000ba4:	e0bffd17 	ldw	r2,-12(fp)
 8000ba8:	10801d17 	ldw	r2,116(r2)
		}
	}
	if(bullet2->vx[0] == 0 && bullet2->vx[1] == 0
				&& bullet2->vx[2] == 0 && bullet2->vx[3]== 0 &&
				bullet2->vx[4] == 0 && bullet2->vx[5] == 0
				&& bullet2->vx[6] == 0 && bullet2->vx[7]== 0 &&
 8000bac:	1000061e 	bne	r2,zero,8000bc8 <update_bullet+0x798>
				 bullet2->vx[8] == 0 && bullet2->vx[9]== 0 ){
 8000bb0:	e0bffd17 	ldw	r2,-12(fp)
 8000bb4:	10801e17 	ldw	r2,120(r2)
 8000bb8:	1000031e 	bne	r2,zero,8000bc8 <update_bullet+0x798>
		bullet2->stop = 1;
 8000bbc:	e0bffd17 	ldw	r2,-12(fp)
 8000bc0:	00c00044 	movi	r3,1
 8000bc4:	10c00015 	stw	r3,0(r2)
	}
}
 8000bc8:	0001883a 	nop
 8000bcc:	e037883a 	mov	sp,fp
 8000bd0:	dfc00117 	ldw	ra,4(sp)
 8000bd4:	df000017 	ldw	fp,0(sp)
 8000bd8:	dec00204 	addi	sp,sp,8
 8000bdc:	f800283a 	ret

08000be0 <init_bullet>:

void init_bullet(bullet_t *bullet1, bullet_t *bullet2){
 8000be0:	defffc04 	addi	sp,sp,-16
 8000be4:	df000315 	stw	fp,12(sp)
 8000be8:	df000304 	addi	fp,sp,12
 8000bec:	e13ffe15 	stw	r4,-8(fp)
 8000bf0:	e17fff15 	stw	r5,-4(fp)
	int i;
	bullet1->stop = 1;
 8000bf4:	e0bffe17 	ldw	r2,-8(fp)
 8000bf8:	00c00044 	movi	r3,1
 8000bfc:	10c00015 	stw	r3,0(r2)
	bullet2->stop = 1;
 8000c00:	e0bfff17 	ldw	r2,-4(fp)
 8000c04:	00c00044 	movi	r3,1
 8000c08:	10c00015 	stw	r3,0(r2)
	for (i = 0; i < 10; i++)
 8000c0c:	e03ffd15 	stw	zero,-12(fp)
 8000c10:	00004406 	br	8000d24 <init_bullet+0x144>
	{
		bullet1->x[i] = 1000;
 8000c14:	e0fffe17 	ldw	r3,-8(fp)
 8000c18:	e0bffd17 	ldw	r2,-12(fp)
 8000c1c:	10800044 	addi	r2,r2,1
 8000c20:	1085883a 	add	r2,r2,r2
 8000c24:	1085883a 	add	r2,r2,r2
 8000c28:	1885883a 	add	r2,r3,r2
 8000c2c:	00c0fa04 	movi	r3,1000
 8000c30:	10c00015 	stw	r3,0(r2)
		bullet1->y[i] = 1000;
 8000c34:	e0fffe17 	ldw	r3,-8(fp)
 8000c38:	e0bffd17 	ldw	r2,-12(fp)
 8000c3c:	108002c4 	addi	r2,r2,11
 8000c40:	1085883a 	add	r2,r2,r2
 8000c44:	1085883a 	add	r2,r2,r2
 8000c48:	1885883a 	add	r2,r3,r2
 8000c4c:	00c0fa04 	movi	r3,1000
 8000c50:	10c00015 	stw	r3,0(r2)
		bullet2->x[i] = 1000;
 8000c54:	e0ffff17 	ldw	r3,-4(fp)
 8000c58:	e0bffd17 	ldw	r2,-12(fp)
 8000c5c:	10800044 	addi	r2,r2,1
 8000c60:	1085883a 	add	r2,r2,r2
 8000c64:	1085883a 	add	r2,r2,r2
 8000c68:	1885883a 	add	r2,r3,r2
 8000c6c:	00c0fa04 	movi	r3,1000
 8000c70:	10c00015 	stw	r3,0(r2)
		bullet2->y[i] = 1000;
 8000c74:	e0ffff17 	ldw	r3,-4(fp)
 8000c78:	e0bffd17 	ldw	r2,-12(fp)
 8000c7c:	108002c4 	addi	r2,r2,11
 8000c80:	1085883a 	add	r2,r2,r2
 8000c84:	1085883a 	add	r2,r2,r2
 8000c88:	1885883a 	add	r2,r3,r2
 8000c8c:	00c0fa04 	movi	r3,1000
 8000c90:	10c00015 	stw	r3,0(r2)
		bullet1->vx[i] = 0;
 8000c94:	e0fffe17 	ldw	r3,-8(fp)
 8000c98:	e0bffd17 	ldw	r2,-12(fp)
 8000c9c:	10800544 	addi	r2,r2,21
 8000ca0:	1085883a 	add	r2,r2,r2
 8000ca4:	1085883a 	add	r2,r2,r2
 8000ca8:	1885883a 	add	r2,r3,r2
 8000cac:	10000015 	stw	zero,0(r2)
		bullet2->vx[i] = 0;
 8000cb0:	e0ffff17 	ldw	r3,-4(fp)
 8000cb4:	e0bffd17 	ldw	r2,-12(fp)
 8000cb8:	10800544 	addi	r2,r2,21
 8000cbc:	1085883a 	add	r2,r2,r2
 8000cc0:	1085883a 	add	r2,r2,r2
 8000cc4:	1885883a 	add	r2,r3,r2
 8000cc8:	10000015 	stw	zero,0(r2)
		bullet1->vy[i] = 0;
 8000ccc:	e0fffe17 	ldw	r3,-8(fp)
 8000cd0:	e0bffd17 	ldw	r2,-12(fp)
 8000cd4:	108007c4 	addi	r2,r2,31
 8000cd8:	1085883a 	add	r2,r2,r2
 8000cdc:	1085883a 	add	r2,r2,r2
 8000ce0:	1885883a 	add	r2,r3,r2
 8000ce4:	10000015 	stw	zero,0(r2)
		bullet2->vy[i] = 0;
 8000ce8:	e0ffff17 	ldw	r3,-4(fp)
 8000cec:	e0bffd17 	ldw	r2,-12(fp)
 8000cf0:	108007c4 	addi	r2,r2,31
 8000cf4:	1085883a 	add	r2,r2,r2
 8000cf8:	1085883a 	add	r2,r2,r2
 8000cfc:	1885883a 	add	r2,r3,r2
 8000d00:	10000015 	stw	zero,0(r2)
		bullet1->target = 1;
 8000d04:	e0bffe17 	ldw	r2,-8(fp)
 8000d08:	00c00044 	movi	r3,1
 8000d0c:	10c02915 	stw	r3,164(r2)
		bullet2->target =0;
 8000d10:	e0bfff17 	ldw	r2,-4(fp)
 8000d14:	10002915 	stw	zero,164(r2)

void init_bullet(bullet_t *bullet1, bullet_t *bullet2){
	int i;
	bullet1->stop = 1;
	bullet2->stop = 1;
	for (i = 0; i < 10; i++)
 8000d18:	e0bffd17 	ldw	r2,-12(fp)
 8000d1c:	10800044 	addi	r2,r2,1
 8000d20:	e0bffd15 	stw	r2,-12(fp)
 8000d24:	e0bffd17 	ldw	r2,-12(fp)
 8000d28:	10800290 	cmplti	r2,r2,10
 8000d2c:	103fb91e 	bne	r2,zero,8000c14 <__alt_data_end+0xf8000c14>
		bullet1->vy[i] = 0;
		bullet2->vy[i] = 0;
		bullet1->target = 1;
		bullet2->target =0;
	}
}
 8000d30:	0001883a 	nop
 8000d34:	e037883a 	mov	sp,fp
 8000d38:	df000017 	ldw	fp,0(sp)
 8000d3c:	dec00104 	addi	sp,sp,4
 8000d40:	f800283a 	ret

08000d44 <choose_ship>:
 * or
 * ENTER: 		game_start = 1;
 * ESC:	  		game_start = 0, developer_mode = 0;
 * BACKSPACE: 	game_start = 0, developer_mode = 1;
 */
void choose_ship(int* player1_ready, int* player2_ready, ship_t* ship, ship_t* ship2){
 8000d44:	defff204 	addi	sp,sp,-56
 8000d48:	dfc00d15 	stw	ra,52(sp)
 8000d4c:	df000c15 	stw	fp,48(sp)
 8000d50:	df000c04 	addi	fp,sp,48
 8000d54:	e13ffc15 	stw	r4,-16(fp)
 8000d58:	e17ffd15 	stw	r5,-12(fp)
 8000d5c:	e1bffe15 	stw	r6,-8(fp)
 8000d60:	e1ffff15 	stw	r7,-4(fp)
	unsigned long key, key2, key3;
	int key_array[4];
	int cur_key, cur_key2;
	
	get_keycode(&key, &key2, &key3);
 8000d64:	e13ff704 	addi	r4,fp,-36
 8000d68:	e0fff604 	addi	r3,fp,-40
 8000d6c:	e0bff504 	addi	r2,fp,-44
 8000d70:	200d883a 	mov	r6,r4
 8000d74:	180b883a 	mov	r5,r3
 8000d78:	1009883a 	mov	r4,r2
 8000d7c:	80051500 	call	8005150 <get_keycode>
	key_array[0]= (key>>24) & 0xff;
 8000d80:	e0bff517 	ldw	r2,-44(fp)
 8000d84:	1004d63a 	srli	r2,r2,24
 8000d88:	e0bff815 	stw	r2,-32(fp)
	key_array[1]= (key>>16) & 0xff;
 8000d8c:	e0bff517 	ldw	r2,-44(fp)
 8000d90:	1004d43a 	srli	r2,r2,16
 8000d94:	10803fcc 	andi	r2,r2,255
 8000d98:	e0bff915 	stw	r2,-28(fp)
	key_array[2]= (key>>8) & 0xff;
 8000d9c:	e0bff517 	ldw	r2,-44(fp)
 8000da0:	1004d23a 	srli	r2,r2,8
 8000da4:	10803fcc 	andi	r2,r2,255
 8000da8:	e0bffa15 	stw	r2,-24(fp)
	key_array[3]= key & 0xff;
 8000dac:	e0bff517 	ldw	r2,-44(fp)
 8000db0:	10803fcc 	andi	r2,r2,255
 8000db4:	e0bffb15 	stw	r2,-20(fp)


		
        if(!*(player1_ready)){
 8000db8:	e0bffc17 	ldw	r2,-16(fp)
 8000dbc:	10800017 	ldw	r2,0(r2)
 8000dc0:	1000561e 	bne	r2,zero,8000f1c <choose_ship+0x1d8>
            if (key_array[0] == KEY_A || key_array[1] == KEY_A ||
 8000dc4:	e0bff817 	ldw	r2,-32(fp)
 8000dc8:	10800120 	cmpeqi	r2,r2,4
 8000dcc:	10000f1e 	bne	r2,zero,8000e0c <choose_ship+0xc8>
 8000dd0:	e0bff917 	ldw	r2,-28(fp)
 8000dd4:	10800120 	cmpeqi	r2,r2,4
 8000dd8:	10000c1e 	bne	r2,zero,8000e0c <choose_ship+0xc8>
        			key_array[2] == KEY_A ||key_array[3] == KEY_A ||
 8000ddc:	e0bffa17 	ldw	r2,-24(fp)
	key_array[3]= key & 0xff;


		
        if(!*(player1_ready)){
            if (key_array[0] == KEY_A || key_array[1] == KEY_A ||
 8000de0:	10800120 	cmpeqi	r2,r2,4
 8000de4:	1000091e 	bne	r2,zero,8000e0c <choose_ship+0xc8>
        			key_array[2] == KEY_A ||key_array[3] == KEY_A ||
 8000de8:	e0bffb17 	ldw	r2,-20(fp)
 8000dec:	10800120 	cmpeqi	r2,r2,4
 8000df0:	1000061e 	bne	r2,zero,8000e0c <choose_ship+0xc8>
        			key_array[4] == KEY_A || key_array[5] == KEY_A){
 8000df4:	e0bffc17 	ldw	r2,-16(fp)


		
        if(!*(player1_ready)){
            if (key_array[0] == KEY_A || key_array[1] == KEY_A ||
        			key_array[2] == KEY_A ||key_array[3] == KEY_A ||
 8000df8:	10800120 	cmpeqi	r2,r2,4
 8000dfc:	1000031e 	bne	r2,zero,8000e0c <choose_ship+0xc8>
        			key_array[4] == KEY_A || key_array[5] == KEY_A){
 8000e00:	e0bffd17 	ldw	r2,-12(fp)
 8000e04:	10800118 	cmpnei	r2,r2,4
 8000e08:	10000d1e 	bne	r2,zero,8000e40 <choose_ship+0xfc>
                if(ship->choose_ship == 0){
 8000e0c:	e0bffe17 	ldw	r2,-8(fp)
 8000e10:	10801017 	ldw	r2,64(r2)
 8000e14:	1000041e 	bne	r2,zero,8000e28 <choose_ship+0xe4>
                    ship->choose_ship = SHIP_KIND_MAX;
 8000e18:	e0bffe17 	ldw	r2,-8(fp)
 8000e1c:	00c00084 	movi	r3,2
 8000e20:	10c01015 	stw	r3,64(r2)
		
        if(!*(player1_ready)){
            if (key_array[0] == KEY_A || key_array[1] == KEY_A ||
        			key_array[2] == KEY_A ||key_array[3] == KEY_A ||
        			key_array[4] == KEY_A || key_array[5] == KEY_A){
                if(ship->choose_ship == 0){
 8000e24:	00003d06 	br	8000f1c <choose_ship+0x1d8>
                    ship->choose_ship = SHIP_KIND_MAX;
                }
                else{
                    ship->choose_ship--;
 8000e28:	e0bffe17 	ldw	r2,-8(fp)
 8000e2c:	10801017 	ldw	r2,64(r2)
 8000e30:	10ffffc4 	addi	r3,r2,-1
 8000e34:	e0bffe17 	ldw	r2,-8(fp)
 8000e38:	10c01015 	stw	r3,64(r2)
		
        if(!*(player1_ready)){
            if (key_array[0] == KEY_A || key_array[1] == KEY_A ||
        			key_array[2] == KEY_A ||key_array[3] == KEY_A ||
        			key_array[4] == KEY_A || key_array[5] == KEY_A){
                if(ship->choose_ship == 0){
 8000e3c:	00003706 	br	8000f1c <choose_ship+0x1d8>
                }
                else{
                    ship->choose_ship--;
                }
            }
            else if (key_array[0] == KEY_D || key_array[1] == KEY_D ||
 8000e40:	e0bff817 	ldw	r2,-32(fp)
 8000e44:	108001e0 	cmpeqi	r2,r2,7
 8000e48:	10000f1e 	bne	r2,zero,8000e88 <choose_ship+0x144>
 8000e4c:	e0bff917 	ldw	r2,-28(fp)
 8000e50:	108001e0 	cmpeqi	r2,r2,7
 8000e54:	10000c1e 	bne	r2,zero,8000e88 <choose_ship+0x144>
    				key_array[2] == KEY_D || key_array[3] == KEY_D ||
 8000e58:	e0bffa17 	ldw	r2,-24(fp)
                }
                else{
                    ship->choose_ship--;
                }
            }
            else if (key_array[0] == KEY_D || key_array[1] == KEY_D ||
 8000e5c:	108001e0 	cmpeqi	r2,r2,7
 8000e60:	1000091e 	bne	r2,zero,8000e88 <choose_ship+0x144>
    				key_array[2] == KEY_D || key_array[3] == KEY_D ||
 8000e64:	e0bffb17 	ldw	r2,-20(fp)
 8000e68:	108001e0 	cmpeqi	r2,r2,7
 8000e6c:	1000061e 	bne	r2,zero,8000e88 <choose_ship+0x144>
    				key_array[4] == KEY_D || key_array[5] == KEY_D){
 8000e70:	e0bffc17 	ldw	r2,-16(fp)
                else{
                    ship->choose_ship--;
                }
            }
            else if (key_array[0] == KEY_D || key_array[1] == KEY_D ||
    				key_array[2] == KEY_D || key_array[3] == KEY_D ||
 8000e74:	108001e0 	cmpeqi	r2,r2,7
 8000e78:	1000031e 	bne	r2,zero,8000e88 <choose_ship+0x144>
    				key_array[4] == KEY_D || key_array[5] == KEY_D){
 8000e7c:	e0bffd17 	ldw	r2,-12(fp)
 8000e80:	108001d8 	cmpnei	r2,r2,7
 8000e84:	10000d1e 	bne	r2,zero,8000ebc <choose_ship+0x178>
                if(ship->choose_ship == SHIP_KIND_MAX){
 8000e88:	e0bffe17 	ldw	r2,-8(fp)
 8000e8c:	10801017 	ldw	r2,64(r2)
 8000e90:	10800098 	cmpnei	r2,r2,2
 8000e94:	1000031e 	bne	r2,zero,8000ea4 <choose_ship+0x160>
                    ship->choose_ship = 0;
 8000e98:	e0bffe17 	ldw	r2,-8(fp)
 8000e9c:	10001015 	stw	zero,64(r2)
                }
            }
            else if (key_array[0] == KEY_D || key_array[1] == KEY_D ||
    				key_array[2] == KEY_D || key_array[3] == KEY_D ||
    				key_array[4] == KEY_D || key_array[5] == KEY_D){
                if(ship->choose_ship == SHIP_KIND_MAX){
 8000ea0:	00001e06 	br	8000f1c <choose_ship+0x1d8>
                    ship->choose_ship = 0;
                }
                else{
                    ship->choose_ship++;
 8000ea4:	e0bffe17 	ldw	r2,-8(fp)
 8000ea8:	10801017 	ldw	r2,64(r2)
 8000eac:	10c00044 	addi	r3,r2,1
 8000eb0:	e0bffe17 	ldw	r2,-8(fp)
 8000eb4:	10c01015 	stw	r3,64(r2)
                }
            }
            else if (key_array[0] == KEY_D || key_array[1] == KEY_D ||
    				key_array[2] == KEY_D || key_array[3] == KEY_D ||
    				key_array[4] == KEY_D || key_array[5] == KEY_D){
                if(ship->choose_ship == SHIP_KIND_MAX){
 8000eb8:	00001806 	br	8000f1c <choose_ship+0x1d8>
                }
                else{
                    ship->choose_ship++;
                }
            }
            else if (key_array[0] == KEY_J ||key_array[1] == KEY_J
 8000ebc:	e0bff817 	ldw	r2,-32(fp)
 8000ec0:	10800360 	cmpeqi	r2,r2,13
 8000ec4:	10000f1e 	bne	r2,zero,8000f04 <choose_ship+0x1c0>
 8000ec8:	e0bff917 	ldw	r2,-28(fp)
 8000ecc:	10800360 	cmpeqi	r2,r2,13
 8000ed0:	10000c1e 	bne	r2,zero,8000f04 <choose_ship+0x1c0>
    				||key_array[2] == KEY_J ||key_array[3] == KEY_J
 8000ed4:	e0bffa17 	ldw	r2,-24(fp)
 8000ed8:	10800360 	cmpeqi	r2,r2,13
 8000edc:	1000091e 	bne	r2,zero,8000f04 <choose_ship+0x1c0>
 8000ee0:	e0bffb17 	ldw	r2,-20(fp)
 8000ee4:	10800360 	cmpeqi	r2,r2,13
 8000ee8:	1000061e 	bne	r2,zero,8000f04 <choose_ship+0x1c0>
    				||key_array[4] == KEY_J ||key_array[5] == KEY_J){
 8000eec:	e0bffc17 	ldw	r2,-16(fp)
 8000ef0:	10800360 	cmpeqi	r2,r2,13
 8000ef4:	1000031e 	bne	r2,zero,8000f04 <choose_ship+0x1c0>
 8000ef8:	e0bffd17 	ldw	r2,-12(fp)
 8000efc:	10800358 	cmpnei	r2,r2,13
 8000f00:	1000061e 	bne	r2,zero,8000f1c <choose_ship+0x1d8>
                *player1_ready = 1;
 8000f04:	e0bffc17 	ldw	r2,-16(fp)
 8000f08:	00c00044 	movi	r3,1
 8000f0c:	10c00015 	stw	r3,0(r2)
                ship->ship_choose_ready = 1;
 8000f10:	e0bffe17 	ldw	r2,-8(fp)
 8000f14:	00c00044 	movi	r3,1
 8000f18:	10c01115 	stw	r3,68(r2)
            }
        }

        if(!(*player2_ready)){
 8000f1c:	e0bffd17 	ldw	r2,-12(fp)
 8000f20:	10800017 	ldw	r2,0(r2)
 8000f24:	1000561e 	bne	r2,zero,8001080 <choose_ship+0x33c>
            if (  key_array[0] == KEY_LEFT ||key_array[1] == KEY_LEFT
 8000f28:	e0bff817 	ldw	r2,-32(fp)
 8000f2c:	10801420 	cmpeqi	r2,r2,80
 8000f30:	10000f1e 	bne	r2,zero,8000f70 <choose_ship+0x22c>
 8000f34:	e0bff917 	ldw	r2,-28(fp)
 8000f38:	10801420 	cmpeqi	r2,r2,80
 8000f3c:	10000c1e 	bne	r2,zero,8000f70 <choose_ship+0x22c>
				||key_array[2] == KEY_LEFT ||key_array[3] == KEY_LEFT
 8000f40:	e0bffa17 	ldw	r2,-24(fp)
 8000f44:	10801420 	cmpeqi	r2,r2,80
 8000f48:	1000091e 	bne	r2,zero,8000f70 <choose_ship+0x22c>
 8000f4c:	e0bffb17 	ldw	r2,-20(fp)
 8000f50:	10801420 	cmpeqi	r2,r2,80
 8000f54:	1000061e 	bne	r2,zero,8000f70 <choose_ship+0x22c>
				||key_array[4] == KEY_LEFT ||key_array[5] == KEY_LEFT){
 8000f58:	e0bffc17 	ldw	r2,-16(fp)
 8000f5c:	10801420 	cmpeqi	r2,r2,80
 8000f60:	1000031e 	bne	r2,zero,8000f70 <choose_ship+0x22c>
 8000f64:	e0bffd17 	ldw	r2,-12(fp)
 8000f68:	10801418 	cmpnei	r2,r2,80
 8000f6c:	10000d1e 	bne	r2,zero,8000fa4 <choose_ship+0x260>
                if(ship2->choose_ship == 0){
 8000f70:	e0bfff17 	ldw	r2,-4(fp)
 8000f74:	10801017 	ldw	r2,64(r2)
 8000f78:	1000041e 	bne	r2,zero,8000f8c <choose_ship+0x248>
                    ship2->choose_ship = SHIP_KIND_MAX;
 8000f7c:	e0bfff17 	ldw	r2,-4(fp)
 8000f80:	00c00084 	movi	r3,2
 8000f84:	10c01015 	stw	r3,64(r2)

        if(!(*player2_ready)){
            if (  key_array[0] == KEY_LEFT ||key_array[1] == KEY_LEFT
				||key_array[2] == KEY_LEFT ||key_array[3] == KEY_LEFT
				||key_array[4] == KEY_LEFT ||key_array[5] == KEY_LEFT){
                if(ship2->choose_ship == 0){
 8000f88:	00003d06 	br	8001080 <choose_ship+0x33c>
                    ship2->choose_ship = SHIP_KIND_MAX;
                }
                else{
                    ship2->choose_ship--;
 8000f8c:	e0bfff17 	ldw	r2,-4(fp)
 8000f90:	10801017 	ldw	r2,64(r2)
 8000f94:	10ffffc4 	addi	r3,r2,-1
 8000f98:	e0bfff17 	ldw	r2,-4(fp)
 8000f9c:	10c01015 	stw	r3,64(r2)

        if(!(*player2_ready)){
            if (  key_array[0] == KEY_LEFT ||key_array[1] == KEY_LEFT
				||key_array[2] == KEY_LEFT ||key_array[3] == KEY_LEFT
				||key_array[4] == KEY_LEFT ||key_array[5] == KEY_LEFT){
                if(ship2->choose_ship == 0){
 8000fa0:	00003706 	br	8001080 <choose_ship+0x33c>
                }
                else{
                    ship2->choose_ship--;
                }
            }
            else if ( key_array[0] == KEY_RIGHT ||key_array[1] == KEY_RIGHT
 8000fa4:	e0bff817 	ldw	r2,-32(fp)
 8000fa8:	108013e0 	cmpeqi	r2,r2,79
 8000fac:	10000f1e 	bne	r2,zero,8000fec <choose_ship+0x2a8>
 8000fb0:	e0bff917 	ldw	r2,-28(fp)
 8000fb4:	108013e0 	cmpeqi	r2,r2,79
 8000fb8:	10000c1e 	bne	r2,zero,8000fec <choose_ship+0x2a8>
    				||key_array[2] == KEY_RIGHT ||key_array[3] == KEY_RIGHT
 8000fbc:	e0bffa17 	ldw	r2,-24(fp)
 8000fc0:	108013e0 	cmpeqi	r2,r2,79
 8000fc4:	1000091e 	bne	r2,zero,8000fec <choose_ship+0x2a8>
 8000fc8:	e0bffb17 	ldw	r2,-20(fp)
 8000fcc:	108013e0 	cmpeqi	r2,r2,79
 8000fd0:	1000061e 	bne	r2,zero,8000fec <choose_ship+0x2a8>
    				||key_array[4] == KEY_RIGHT ||key_array[5] == KEY_RIGHT){
 8000fd4:	e0bffc17 	ldw	r2,-16(fp)
 8000fd8:	108013e0 	cmpeqi	r2,r2,79
 8000fdc:	1000031e 	bne	r2,zero,8000fec <choose_ship+0x2a8>
 8000fe0:	e0bffd17 	ldw	r2,-12(fp)
 8000fe4:	108013d8 	cmpnei	r2,r2,79
 8000fe8:	10000d1e 	bne	r2,zero,8001020 <choose_ship+0x2dc>
                if(ship2->choose_ship == SHIP_KIND_MAX){
 8000fec:	e0bfff17 	ldw	r2,-4(fp)
 8000ff0:	10801017 	ldw	r2,64(r2)
 8000ff4:	10800098 	cmpnei	r2,r2,2
 8000ff8:	1000031e 	bne	r2,zero,8001008 <choose_ship+0x2c4>
                    ship2->choose_ship = 0;
 8000ffc:	e0bfff17 	ldw	r2,-4(fp)
 8001000:	10001015 	stw	zero,64(r2)
                }
            }
            else if ( key_array[0] == KEY_RIGHT ||key_array[1] == KEY_RIGHT
    				||key_array[2] == KEY_RIGHT ||key_array[3] == KEY_RIGHT
    				||key_array[4] == KEY_RIGHT ||key_array[5] == KEY_RIGHT){
                if(ship2->choose_ship == SHIP_KIND_MAX){
 8001004:	00001e06 	br	8001080 <choose_ship+0x33c>
                    ship2->choose_ship = 0;
                }
                else{
                    ship2->choose_ship++;
 8001008:	e0bfff17 	ldw	r2,-4(fp)
 800100c:	10801017 	ldw	r2,64(r2)
 8001010:	10c00044 	addi	r3,r2,1
 8001014:	e0bfff17 	ldw	r2,-4(fp)
 8001018:	10c01015 	stw	r3,64(r2)
                }
            }
            else if ( key_array[0] == KEY_RIGHT ||key_array[1] == KEY_RIGHT
    				||key_array[2] == KEY_RIGHT ||key_array[3] == KEY_RIGHT
    				||key_array[4] == KEY_RIGHT ||key_array[5] == KEY_RIGHT){
                if(ship2->choose_ship == SHIP_KIND_MAX){
 800101c:	00001806 	br	8001080 <choose_ship+0x33c>
                }
                else{
                    ship2->choose_ship++;
                }
            }
            else if (key_array[0] == KEY_SPACE ||key_array[1] == KEY_SPACE||
 8001020:	e0bff817 	ldw	r2,-32(fp)
 8001024:	10800b20 	cmpeqi	r2,r2,44
 8001028:	10000f1e 	bne	r2,zero,8001068 <choose_ship+0x324>
 800102c:	e0bff917 	ldw	r2,-28(fp)
 8001030:	10800b20 	cmpeqi	r2,r2,44
 8001034:	10000c1e 	bne	r2,zero,8001068 <choose_ship+0x324>
    				key_array[2] == KEY_SPACE|| key_array[3] == KEY_SPACE||
 8001038:	e0bffa17 	ldw	r2,-24(fp)
                }
                else{
                    ship2->choose_ship++;
                }
            }
            else if (key_array[0] == KEY_SPACE ||key_array[1] == KEY_SPACE||
 800103c:	10800b20 	cmpeqi	r2,r2,44
 8001040:	1000091e 	bne	r2,zero,8001068 <choose_ship+0x324>
    				key_array[2] == KEY_SPACE|| key_array[3] == KEY_SPACE||
 8001044:	e0bffb17 	ldw	r2,-20(fp)
 8001048:	10800b20 	cmpeqi	r2,r2,44
 800104c:	1000061e 	bne	r2,zero,8001068 <choose_ship+0x324>
    				key_array[4] == KEY_SPACE || key_array[5] == KEY_SPACE){
 8001050:	e0bffc17 	ldw	r2,-16(fp)
                else{
                    ship2->choose_ship++;
                }
            }
            else if (key_array[0] == KEY_SPACE ||key_array[1] == KEY_SPACE||
    				key_array[2] == KEY_SPACE|| key_array[3] == KEY_SPACE||
 8001054:	10800b20 	cmpeqi	r2,r2,44
 8001058:	1000031e 	bne	r2,zero,8001068 <choose_ship+0x324>
    				key_array[4] == KEY_SPACE || key_array[5] == KEY_SPACE){
 800105c:	e0bffd17 	ldw	r2,-12(fp)
 8001060:	10800b18 	cmpnei	r2,r2,44
 8001064:	1000061e 	bne	r2,zero,8001080 <choose_ship+0x33c>
                *player2_ready = 1;
 8001068:	e0bffd17 	ldw	r2,-12(fp)
 800106c:	00c00044 	movi	r3,1
 8001070:	10c00015 	stw	r3,0(r2)
                ship2->ship_choose_ready = 1;
 8001074:	e0bfff17 	ldw	r2,-4(fp)
 8001078:	00c00044 	movi	r3,1
 800107c:	10c01115 	stw	r3,68(r2)
            }
		}

		if(player1_ready && player2_ready){
 8001080:	e0bffc17 	ldw	r2,-16(fp)
 8001084:	10000226 	beq	r2,zero,8001090 <choose_ship+0x34c>
 8001088:	e0bffd17 	ldw	r2,-12(fp)
 800108c:	10000c1e 	bne	r2,zero,80010c0 <choose_ship+0x37c>
            return;
        }
		else if (cur_key == KEY_ESC){
 8001090:	e0bff417 	ldw	r2,-48(fp)
 8001094:	10800a58 	cmpnei	r2,r2,41
 8001098:	10000a1e 	bne	r2,zero,80010c4 <choose_ship+0x380>
			*player1_ready = 0;
 800109c:	e0bffc17 	ldw	r2,-16(fp)
 80010a0:	10000015 	stw	zero,0(r2)
            *player2_ready = 0;
 80010a4:	e0bffd17 	ldw	r2,-12(fp)
 80010a8:	10000015 	stw	zero,0(r2)
            ship->ship_choose_ready = 0;
 80010ac:	e0bffe17 	ldw	r2,-8(fp)
 80010b0:	10001115 	stw	zero,68(r2)
            ship2->ship_choose_ready = 0;
 80010b4:	e0bfff17 	ldw	r2,-4(fp)
 80010b8:	10001115 	stw	zero,68(r2)
			return;
 80010bc:	00000106 	br	80010c4 <choose_ship+0x380>
                ship2->ship_choose_ready = 1;
            }
		}

		if(player1_ready && player2_ready){
            return;
 80010c0:	0001883a 	nop
            ship->ship_choose_ready = 0;
            ship2->ship_choose_ready = 0;
			return;
		}

}
 80010c4:	e037883a 	mov	sp,fp
 80010c8:	dfc00117 	ldw	ra,4(sp)
 80010cc:	df000017 	ldw	fp,0(sp)
 80010d0:	dec00204 	addi	sp,sp,8
 80010d4:	f800283a 	ret

080010d8 <IO_init>:
//io_handler.c
#include "io_handler.h"
#include <stdio.h>

void IO_init(void)
{
 80010d8:	deffff04 	addi	sp,sp,-4
 80010dc:	df000015 	stw	fp,0(sp)
 80010e0:	d839883a 	mov	fp,sp
	*otg_hpi_reset = 1;
 80010e4:	00840034 	movhi	r2,4096
 80010e8:	1084e804 	addi	r2,r2,5024
 80010ec:	00c00044 	movi	r3,1
 80010f0:	10c00005 	stb	r3,0(r2)
	*otg_hpi_cs = 1;
 80010f4:	00840034 	movhi	r2,4096
 80010f8:	1084ec04 	addi	r2,r2,5040
 80010fc:	00c00044 	movi	r3,1
 8001100:	10c00005 	stb	r3,0(r2)
	*otg_hpi_r = 1;
 8001104:	00840034 	movhi	r2,4096
 8001108:	1084f804 	addi	r2,r2,5088
 800110c:	00c00044 	movi	r3,1
 8001110:	10c00005 	stb	r3,0(r2)
	*otg_hpi_w = 1;
 8001114:	00840034 	movhi	r2,4096
 8001118:	1084fc04 	addi	r2,r2,5104
 800111c:	00c00044 	movi	r3,1
 8001120:	10c00005 	stb	r3,0(r2)
	*otg_hpi_address = 0;
 8001124:	00840034 	movhi	r2,4096
 8001128:	1084f004 	addi	r2,r2,5056
 800112c:	10000015 	stw	zero,0(r2)
	*otg_hpi_data = 0;
 8001130:	00840034 	movhi	r2,4096
 8001134:	1084f404 	addi	r2,r2,5072
 8001138:	10000015 	stw	zero,0(r2)
	// Reset OTG chip
	*otg_hpi_cs = 0;
 800113c:	00840034 	movhi	r2,4096
 8001140:	1084ec04 	addi	r2,r2,5040
 8001144:	10000005 	stb	zero,0(r2)
	*otg_hpi_reset = 0;
 8001148:	00840034 	movhi	r2,4096
 800114c:	1084e804 	addi	r2,r2,5024
 8001150:	10000005 	stb	zero,0(r2)
	*otg_hpi_reset = 1;
 8001154:	00840034 	movhi	r2,4096
 8001158:	1084e804 	addi	r2,r2,5024
 800115c:	00c00044 	movi	r3,1
 8001160:	10c00005 	stb	r3,0(r2)
	*otg_hpi_cs = 1;
 8001164:	00840034 	movhi	r2,4096
 8001168:	1084ec04 	addi	r2,r2,5040
 800116c:	00c00044 	movi	r3,1
 8001170:	10c00005 	stb	r3,0(r2)
}
 8001174:	0001883a 	nop
 8001178:	e037883a 	mov	sp,fp
 800117c:	df000017 	ldw	fp,0(sp)
 8001180:	dec00104 	addi	sp,sp,4
 8001184:	f800283a 	ret

08001188 <IO_write>:

void IO_write(alt_u8 Address, alt_u16 Data)
{
 8001188:	defffd04 	addi	sp,sp,-12
 800118c:	df000215 	stw	fp,8(sp)
 8001190:	df000204 	addi	fp,sp,8
 8001194:	2007883a 	mov	r3,r4
 8001198:	2805883a 	mov	r2,r5
 800119c:	e0fffe05 	stb	r3,-8(fp)
 80011a0:	e0bfff0d 	sth	r2,-4(fp)
//*************************************************************************//
//									TASK								   //
//*************************************************************************//
//							Write this function							   //
//*************************************************************************//
	*otg_hpi_address = Address;
 80011a4:	00840034 	movhi	r2,4096
 80011a8:	1084f004 	addi	r2,r2,5056
 80011ac:	e0fffe03 	ldbu	r3,-8(fp)
 80011b0:	10c00015 	stw	r3,0(r2)
	*otg_hpi_data = Data;
 80011b4:	00840034 	movhi	r2,4096
 80011b8:	1084f404 	addi	r2,r2,5072
 80011bc:	e0ffff0b 	ldhu	r3,-4(fp)
 80011c0:	10c00015 	stw	r3,0(r2)
	*otg_hpi_cs = 0;
 80011c4:	00840034 	movhi	r2,4096
 80011c8:	1084ec04 	addi	r2,r2,5040
 80011cc:	10000005 	stb	zero,0(r2)
	*otg_hpi_w = 0;
 80011d0:	00840034 	movhi	r2,4096
 80011d4:	1084fc04 	addi	r2,r2,5104
 80011d8:	10000005 	stb	zero,0(r2)

	//reset the OTG
	*otg_hpi_w = 1;
 80011dc:	00840034 	movhi	r2,4096
 80011e0:	1084fc04 	addi	r2,r2,5104
 80011e4:	00c00044 	movi	r3,1
 80011e8:	10c00005 	stb	r3,0(r2)
	*otg_hpi_cs = 1;
 80011ec:	00840034 	movhi	r2,4096
 80011f0:	1084ec04 	addi	r2,r2,5040
 80011f4:	00c00044 	movi	r3,1
 80011f8:	10c00005 	stb	r3,0(r2)
}
 80011fc:	0001883a 	nop
 8001200:	e037883a 	mov	sp,fp
 8001204:	df000017 	ldw	fp,0(sp)
 8001208:	dec00104 	addi	sp,sp,4
 800120c:	f800283a 	ret

08001210 <IO_read>:

alt_u16 IO_read(alt_u8 Address)
{
 8001210:	defffd04 	addi	sp,sp,-12
 8001214:	df000215 	stw	fp,8(sp)
 8001218:	df000204 	addi	fp,sp,8
 800121c:	2005883a 	mov	r2,r4
 8001220:	e0bfff05 	stb	r2,-4(fp)
//									TASK								   //
//*************************************************************************//
//							Write this function							   //
//*************************************************************************//
	//printf("%x\n",temp);
	*otg_hpi_address = Address;
 8001224:	00840034 	movhi	r2,4096
 8001228:	1084f004 	addi	r2,r2,5056
 800122c:	e0ffff03 	ldbu	r3,-4(fp)
 8001230:	10c00015 	stw	r3,0(r2)
	*otg_hpi_cs = 0;
 8001234:	00840034 	movhi	r2,4096
 8001238:	1084ec04 	addi	r2,r2,5040
 800123c:	10000005 	stb	zero,0(r2)
	*otg_hpi_r = 0;
 8001240:	00840034 	movhi	r2,4096
 8001244:	1084f804 	addi	r2,r2,5088
 8001248:	10000005 	stb	zero,0(r2)
	temp = *otg_hpi_data;
 800124c:	00840034 	movhi	r2,4096
 8001250:	1084f404 	addi	r2,r2,5072
 8001254:	10800017 	ldw	r2,0(r2)
 8001258:	e0bffe0d 	sth	r2,-8(fp)

	//reset the OTG
	*otg_hpi_r = 1;
 800125c:	00840034 	movhi	r2,4096
 8001260:	1084f804 	addi	r2,r2,5088
 8001264:	00c00044 	movi	r3,1
 8001268:	10c00005 	stb	r3,0(r2)
	*otg_hpi_cs = 1;
 800126c:	00840034 	movhi	r2,4096
 8001270:	1084ec04 	addi	r2,r2,5040
 8001274:	00c00044 	movi	r3,1
 8001278:	10c00005 	stb	r3,0(r2)
	return temp;
 800127c:	e0bffe0b 	ldhu	r2,-8(fp)
}
 8001280:	e037883a 	mov	sp,fp
 8001284:	df000017 	ldw	fp,0(sp)
 8001288:	dec00104 	addi	sp,sp,4
 800128c:	f800283a 	ret

08001290 <frame_clock>:
	PRESS_ATK, 
	PRESS_SKILL
}event;


void frame_clock (double frame_time){
 8001290:	defff804 	addi	sp,sp,-32
 8001294:	dfc00715 	stw	ra,28(sp)
 8001298:	df000615 	stw	fp,24(sp)
 800129c:	df000604 	addi	fp,sp,24
 80012a0:	e13ffe15 	stw	r4,-8(fp)
 80012a4:	e17fff15 	stw	r5,-4(fp)
	double time_to_switch = frame_time;
 80012a8:	e0bffe17 	ldw	r2,-8(fp)
 80012ac:	e0bffb15 	stw	r2,-20(fp)
 80012b0:	e0bfff17 	ldw	r2,-4(fp)
 80012b4:	e0bffc15 	stw	r2,-16(fp)
	clock_t begin = clock();
 80012b8:	80062f00 	call	80062f0 <clock>
 80012bc:	e0bffd15 	stw	r2,-12(fp)
	clock_t end = clock();
 80012c0:	80062f00 	call	80062f0 <clock>
 80012c4:	e0bffa15 	stw	r2,-24(fp)
	while ((double)(end-begin)/CLOCKS_PER_SEC <time_to_switch){
 80012c8:	00000206 	br	80012d4 <frame_clock+0x44>
		end = clock();
 80012cc:	80062f00 	call	80062f0 <clock>
 80012d0:	e0bffa15 	stw	r2,-24(fp)

void frame_clock (double frame_time){
	double time_to_switch = frame_time;
	clock_t begin = clock();
	clock_t end = clock();
	while ((double)(end-begin)/CLOCKS_PER_SEC <time_to_switch){
 80012d4:	e0fffa17 	ldw	r3,-24(fp)
 80012d8:	e0bffd17 	ldw	r2,-12(fp)
 80012dc:	1885c83a 	sub	r2,r3,r2
 80012e0:	1009883a 	mov	r4,r2
 80012e4:	80060300 	call	8006030 <__floatunsidf>
 80012e8:	1011883a 	mov	r8,r2
 80012ec:	1813883a 	mov	r9,r3
 80012f0:	000d883a 	mov	r6,zero
 80012f4:	01d023f4 	movhi	r7,16527
 80012f8:	39d00004 	addi	r7,r7,16384
 80012fc:	4009883a 	mov	r4,r8
 8001300:	480b883a 	mov	r5,r9
 8001304:	80054900 	call	8005490 <__divdf3>
 8001308:	1009883a 	mov	r4,r2
 800130c:	180b883a 	mov	r5,r3
 8001310:	2005883a 	mov	r2,r4
 8001314:	2807883a 	mov	r3,r5
 8001318:	e1bffb17 	ldw	r6,-20(fp)
 800131c:	e1fffc17 	ldw	r7,-16(fp)
 8001320:	1009883a 	mov	r4,r2
 8001324:	180b883a 	mov	r5,r3
 8001328:	8005e600 	call	8005e60 <__ledf2>
 800132c:	103fe716 	blt	r2,zero,80012cc <__alt_data_end+0xf80012cc>
		end = clock();
	}
}
 8001330:	0001883a 	nop
 8001334:	e037883a 	mov	sp,fp
 8001338:	dfc00117 	ldw	ra,4(sp)
 800133c:	df000017 	ldw	fp,0(sp)
 8001340:	dec00204 	addi	sp,sp,8
 8001344:	f800283a 	ret

08001348 <key_event>:
 * or
 * ENTER: 		game_start = 1;
 * ESC:	  		game_start = 0, developer_mode = 0;
 * BACKSPACE: 	game_start = 0, developer_mode = 1;
 */
void key_event(int* game_start, ship_t* ship, ship_t* ship2, torpedo_t *torpedo1, torpedo_t *torpedo2){
 8001348:	defff104 	addi	sp,sp,-60
 800134c:	dfc00e15 	stw	ra,56(sp)
 8001350:	df000d15 	stw	fp,52(sp)
 8001354:	df000d04 	addi	fp,sp,52
 8001358:	e13ffc15 	stw	r4,-16(fp)
 800135c:	e17ffd15 	stw	r5,-12(fp)
 8001360:	e1bffe15 	stw	r6,-8(fp)
 8001364:	e1ffff15 	stw	r7,-4(fp)
	unsigned long key2;
	unsigned long key3;

	int key_array[6];
	int cur_key, cur_key2, cur_key3;
	get_keycode(&key, &key2, &key3);
 8001368:	e0fff504 	addi	r3,fp,-44
 800136c:	e0bff404 	addi	r2,fp,-48
 8001370:	180d883a 	mov	r6,r3
 8001374:	100b883a 	mov	r5,r2
 8001378:	e13ff304 	addi	r4,fp,-52
 800137c:	80051500 	call	8005150 <get_keycode>


	key_array[0]= (key>>24) & 0xff;
 8001380:	e0bff317 	ldw	r2,-52(fp)
 8001384:	1004d63a 	srli	r2,r2,24
 8001388:	e0bff615 	stw	r2,-40(fp)
	key_array[1]= (key>>16) & 0xff;
 800138c:	e0bff317 	ldw	r2,-52(fp)
 8001390:	1004d43a 	srli	r2,r2,16
 8001394:	10803fcc 	andi	r2,r2,255
 8001398:	e0bff715 	stw	r2,-36(fp)
	key_array[2]= (key>>8) & 0xff;
 800139c:	e0bff317 	ldw	r2,-52(fp)
 80013a0:	1004d23a 	srli	r2,r2,8
 80013a4:	10803fcc 	andi	r2,r2,255
 80013a8:	e0bff815 	stw	r2,-32(fp)
	key_array[3]= key & 0xff;
 80013ac:	e0bff317 	ldw	r2,-52(fp)
 80013b0:	10803fcc 	andi	r2,r2,255
 80013b4:	e0bff915 	stw	r2,-28(fp)

	key_array[4]= (key2>>24) & 0xff;
 80013b8:	e0bff417 	ldw	r2,-48(fp)
 80013bc:	1004d63a 	srli	r2,r2,24
 80013c0:	e0bffa15 	stw	r2,-24(fp)
	key_array[5]= (key2>>16) & 0xff;
 80013c4:	e0bff417 	ldw	r2,-48(fp)
 80013c8:	1004d43a 	srli	r2,r2,16
 80013cc:	10803fcc 	andi	r2,r2,255
 80013d0:	e0bffb15 	stw	r2,-20(fp)

		if (key_array[0] == KEY_W || key_array[1] == KEY_W ||
 80013d4:	e0bff617 	ldw	r2,-40(fp)
 80013d8:	108006a0 	cmpeqi	r2,r2,26
 80013dc:	10000f1e 	bne	r2,zero,800141c <key_event+0xd4>
 80013e0:	e0bff717 	ldw	r2,-36(fp)
 80013e4:	108006a0 	cmpeqi	r2,r2,26
 80013e8:	10000c1e 	bne	r2,zero,800141c <key_event+0xd4>
			key_array[2] == KEY_W ||key_array[3] == KEY_W ||
 80013ec:	e0bff817 	ldw	r2,-32(fp)
	key_array[3]= key & 0xff;

	key_array[4]= (key2>>24) & 0xff;
	key_array[5]= (key2>>16) & 0xff;

		if (key_array[0] == KEY_W || key_array[1] == KEY_W ||
 80013f0:	108006a0 	cmpeqi	r2,r2,26
 80013f4:	1000091e 	bne	r2,zero,800141c <key_event+0xd4>
			key_array[2] == KEY_W ||key_array[3] == KEY_W ||
 80013f8:	e0bff917 	ldw	r2,-28(fp)
 80013fc:	108006a0 	cmpeqi	r2,r2,26
 8001400:	1000061e 	bne	r2,zero,800141c <key_event+0xd4>
			key_array[4] == KEY_W ||key_array[5] == KEY_W){
 8001404:	e0bffa17 	ldw	r2,-24(fp)

	key_array[4]= (key2>>24) & 0xff;
	key_array[5]= (key2>>16) & 0xff;

		if (key_array[0] == KEY_W || key_array[1] == KEY_W ||
			key_array[2] == KEY_W ||key_array[3] == KEY_W ||
 8001408:	108006a0 	cmpeqi	r2,r2,26
 800140c:	1000031e 	bne	r2,zero,800141c <key_event+0xd4>
			key_array[4] == KEY_W ||key_array[5] == KEY_W){
 8001410:	e0bffb17 	ldw	r2,-20(fp)
 8001414:	10800698 	cmpnei	r2,r2,26
 8001418:	1000021e 	bne	r2,zero,8001424 <key_event+0xdc>

			press_w(ship);
 800141c:	e13ffd17 	ldw	r4,-12(fp)
 8001420:	80022b40 	call	80022b4 <press_w>
		}
		if (key_array[0] == KEY_S || key_array[1] == KEY_S ||
 8001424:	e0bff617 	ldw	r2,-40(fp)
 8001428:	108005a0 	cmpeqi	r2,r2,22
 800142c:	10000f1e 	bne	r2,zero,800146c <key_event+0x124>
 8001430:	e0bff717 	ldw	r2,-36(fp)
 8001434:	108005a0 	cmpeqi	r2,r2,22
 8001438:	10000c1e 	bne	r2,zero,800146c <key_event+0x124>
				key_array[2] == KEY_S || key_array[3] == KEY_S ||
 800143c:	e0bff817 	ldw	r2,-32(fp)
			key_array[2] == KEY_W ||key_array[3] == KEY_W ||
			key_array[4] == KEY_W ||key_array[5] == KEY_W){

			press_w(ship);
		}
		if (key_array[0] == KEY_S || key_array[1] == KEY_S ||
 8001440:	108005a0 	cmpeqi	r2,r2,22
 8001444:	1000091e 	bne	r2,zero,800146c <key_event+0x124>
				key_array[2] == KEY_S || key_array[3] == KEY_S ||
 8001448:	e0bff917 	ldw	r2,-28(fp)
 800144c:	108005a0 	cmpeqi	r2,r2,22
 8001450:	1000061e 	bne	r2,zero,800146c <key_event+0x124>
			 key_array[4] == KEY_S||key_array[5] == KEY_S){
 8001454:	e0bffa17 	ldw	r2,-24(fp)
			key_array[4] == KEY_W ||key_array[5] == KEY_W){

			press_w(ship);
		}
		if (key_array[0] == KEY_S || key_array[1] == KEY_S ||
				key_array[2] == KEY_S || key_array[3] == KEY_S ||
 8001458:	108005a0 	cmpeqi	r2,r2,22
 800145c:	1000031e 	bne	r2,zero,800146c <key_event+0x124>
			 key_array[4] == KEY_S||key_array[5] == KEY_S){
 8001460:	e0bffb17 	ldw	r2,-20(fp)
 8001464:	10800598 	cmpnei	r2,r2,22
 8001468:	1000021e 	bne	r2,zero,8001474 <key_event+0x12c>

			press_s(ship);
 800146c:	e13ffd17 	ldw	r4,-12(fp)
 8001470:	80022fc0 	call	80022fc <press_s>
		}
		if (key_array[0] == KEY_A || key_array[1] == KEY_A ||
 8001474:	e0bff617 	ldw	r2,-40(fp)
 8001478:	10800120 	cmpeqi	r2,r2,4
 800147c:	10000f1e 	bne	r2,zero,80014bc <key_event+0x174>
 8001480:	e0bff717 	ldw	r2,-36(fp)
 8001484:	10800120 	cmpeqi	r2,r2,4
 8001488:	10000c1e 	bne	r2,zero,80014bc <key_event+0x174>
			key_array[2] == KEY_A ||key_array[3] == KEY_A ||
 800148c:	e0bff817 	ldw	r2,-32(fp)
				key_array[2] == KEY_S || key_array[3] == KEY_S ||
			 key_array[4] == KEY_S||key_array[5] == KEY_S){

			press_s(ship);
		}
		if (key_array[0] == KEY_A || key_array[1] == KEY_A ||
 8001490:	10800120 	cmpeqi	r2,r2,4
 8001494:	1000091e 	bne	r2,zero,80014bc <key_event+0x174>
			key_array[2] == KEY_A ||key_array[3] == KEY_A ||
 8001498:	e0bff917 	ldw	r2,-28(fp)
 800149c:	10800120 	cmpeqi	r2,r2,4
 80014a0:	1000061e 	bne	r2,zero,80014bc <key_event+0x174>
			key_array[4] == KEY_A || key_array[5] == KEY_A){
 80014a4:	e0bffa17 	ldw	r2,-24(fp)
			 key_array[4] == KEY_S||key_array[5] == KEY_S){

			press_s(ship);
		}
		if (key_array[0] == KEY_A || key_array[1] == KEY_A ||
			key_array[2] == KEY_A ||key_array[3] == KEY_A ||
 80014a8:	10800120 	cmpeqi	r2,r2,4
 80014ac:	1000031e 	bne	r2,zero,80014bc <key_event+0x174>
			key_array[4] == KEY_A || key_array[5] == KEY_A){
 80014b0:	e0bffb17 	ldw	r2,-20(fp)
 80014b4:	10800118 	cmpnei	r2,r2,4
 80014b8:	1000021e 	bne	r2,zero,80014c4 <key_event+0x17c>

			press_a(ship);
 80014bc:	e13ffd17 	ldw	r4,-12(fp)
 80014c0:	80023440 	call	8002344 <press_a>
		}
		if (key_array[0] == KEY_D || key_array[1] == KEY_D ||
 80014c4:	e0bff617 	ldw	r2,-40(fp)
 80014c8:	108001e0 	cmpeqi	r2,r2,7
 80014cc:	10000f1e 	bne	r2,zero,800150c <key_event+0x1c4>
 80014d0:	e0bff717 	ldw	r2,-36(fp)
 80014d4:	108001e0 	cmpeqi	r2,r2,7
 80014d8:	10000c1e 	bne	r2,zero,800150c <key_event+0x1c4>
				key_array[2] == KEY_D || key_array[3] == KEY_D ||
 80014dc:	e0bff817 	ldw	r2,-32(fp)
			key_array[2] == KEY_A ||key_array[3] == KEY_A ||
			key_array[4] == KEY_A || key_array[5] == KEY_A){

			press_a(ship);
		}
		if (key_array[0] == KEY_D || key_array[1] == KEY_D ||
 80014e0:	108001e0 	cmpeqi	r2,r2,7
 80014e4:	1000091e 	bne	r2,zero,800150c <key_event+0x1c4>
				key_array[2] == KEY_D || key_array[3] == KEY_D ||
 80014e8:	e0bff917 	ldw	r2,-28(fp)
 80014ec:	108001e0 	cmpeqi	r2,r2,7
 80014f0:	1000061e 	bne	r2,zero,800150c <key_event+0x1c4>
				key_array[4] == KEY_D || key_array[5] == KEY_D){
 80014f4:	e0bffa17 	ldw	r2,-24(fp)
			key_array[4] == KEY_A || key_array[5] == KEY_A){

			press_a(ship);
		}
		if (key_array[0] == KEY_D || key_array[1] == KEY_D ||
				key_array[2] == KEY_D || key_array[3] == KEY_D ||
 80014f8:	108001e0 	cmpeqi	r2,r2,7
 80014fc:	1000031e 	bne	r2,zero,800150c <key_event+0x1c4>
				key_array[4] == KEY_D || key_array[5] == KEY_D){
 8001500:	e0bffb17 	ldw	r2,-20(fp)
 8001504:	108001d8 	cmpnei	r2,r2,7
 8001508:	1000021e 	bne	r2,zero,8001514 <key_event+0x1cc>

			press_d(ship);
 800150c:	e13ffd17 	ldw	r4,-12(fp)
 8001510:	80024180 	call	8002418 <press_d>
		}
		if (key_array[0] == KEY_J ||key_array[1] == KEY_J
 8001514:	e0bff617 	ldw	r2,-40(fp)
 8001518:	10800360 	cmpeqi	r2,r2,13
 800151c:	10000f1e 	bne	r2,zero,800155c <key_event+0x214>
 8001520:	e0bff717 	ldw	r2,-36(fp)
 8001524:	10800360 	cmpeqi	r2,r2,13
 8001528:	10000c1e 	bne	r2,zero,800155c <key_event+0x214>
				||key_array[2] == KEY_J ||key_array[3] == KEY_J
 800152c:	e0bff817 	ldw	r2,-32(fp)
 8001530:	10800360 	cmpeqi	r2,r2,13
 8001534:	1000091e 	bne	r2,zero,800155c <key_event+0x214>
 8001538:	e0bff917 	ldw	r2,-28(fp)
 800153c:	10800360 	cmpeqi	r2,r2,13
 8001540:	1000061e 	bne	r2,zero,800155c <key_event+0x214>
				||key_array[4] == KEY_J ||key_array[5] == KEY_J){
 8001544:	e0bffa17 	ldw	r2,-24(fp)
 8001548:	10800360 	cmpeqi	r2,r2,13
 800154c:	1000031e 	bne	r2,zero,800155c <key_event+0x214>
 8001550:	e0bffb17 	ldw	r2,-20(fp)
 8001554:	10800358 	cmpnei	r2,r2,13
 8001558:	1000071e 	bne	r2,zero,8001578 <key_event+0x230>
			press_j(ship, torpedo1, SHIP2);
 800155c:	01800044 	movi	r6,1
 8001560:	e17fff17 	ldw	r5,-4(fp)
 8001564:	e13ffd17 	ldw	r4,-12(fp)
 8001568:	8002d180 	call	8002d18 <press_j>
			printf("torpedo1 \n");
 800156c:	01020074 	movhi	r4,2049
 8001570:	21133404 	addi	r4,r4,19664
 8001574:	80064680 	call	8006468 <puts>
		}
		if(key_array[0] == KEY_SPACE ||key_array[1] == KEY_SPACE||
 8001578:	e0bff617 	ldw	r2,-40(fp)
 800157c:	10800b20 	cmpeqi	r2,r2,44
 8001580:	10000f1e 	bne	r2,zero,80015c0 <key_event+0x278>
 8001584:	e0bff717 	ldw	r2,-36(fp)
 8001588:	10800b20 	cmpeqi	r2,r2,44
 800158c:	10000c1e 	bne	r2,zero,80015c0 <key_event+0x278>
				key_array[2] == KEY_SPACE|| key_array[3] == KEY_SPACE||
 8001590:	e0bff817 	ldw	r2,-32(fp)
				||key_array[2] == KEY_J ||key_array[3] == KEY_J
				||key_array[4] == KEY_J ||key_array[5] == KEY_J){
			press_j(ship, torpedo1, SHIP2);
			printf("torpedo1 \n");
		}
		if(key_array[0] == KEY_SPACE ||key_array[1] == KEY_SPACE||
 8001594:	10800b20 	cmpeqi	r2,r2,44
 8001598:	1000091e 	bne	r2,zero,80015c0 <key_event+0x278>
				key_array[2] == KEY_SPACE|| key_array[3] == KEY_SPACE||
 800159c:	e0bff917 	ldw	r2,-28(fp)
 80015a0:	10800b20 	cmpeqi	r2,r2,44
 80015a4:	1000061e 	bne	r2,zero,80015c0 <key_event+0x278>
				key_array[4] == KEY_SPACE || key_array[5] == KEY_SPACE){
 80015a8:	e0bffa17 	ldw	r2,-24(fp)
				||key_array[4] == KEY_J ||key_array[5] == KEY_J){
			press_j(ship, torpedo1, SHIP2);
			printf("torpedo1 \n");
		}
		if(key_array[0] == KEY_SPACE ||key_array[1] == KEY_SPACE||
				key_array[2] == KEY_SPACE|| key_array[3] == KEY_SPACE||
 80015ac:	10800b20 	cmpeqi	r2,r2,44
 80015b0:	1000031e 	bne	r2,zero,80015c0 <key_event+0x278>
				key_array[4] == KEY_SPACE || key_array[5] == KEY_SPACE){
 80015b4:	e0bffb17 	ldw	r2,-20(fp)
 80015b8:	10800b18 	cmpnei	r2,r2,44
 80015bc:	1000071e 	bne	r2,zero,80015dc <key_event+0x294>
			press_j(ship2, torpedo2, SHIP1);
 80015c0:	000d883a 	mov	r6,zero
 80015c4:	e1400217 	ldw	r5,8(fp)
 80015c8:	e13ffe17 	ldw	r4,-8(fp)
 80015cc:	8002d180 	call	8002d18 <press_j>
			printf("torpedo2 \n");
 80015d0:	01020074 	movhi	r4,2049
 80015d4:	21133704 	addi	r4,r4,19676
 80015d8:	80064680 	call	8006468 <puts>
		}
		if (key_array[0] == KEY_UP || key_array[1] == KEY_UP ||
 80015dc:	e0bff617 	ldw	r2,-40(fp)
 80015e0:	108014a0 	cmpeqi	r2,r2,82
 80015e4:	10000f1e 	bne	r2,zero,8001624 <key_event+0x2dc>
 80015e8:	e0bff717 	ldw	r2,-36(fp)
 80015ec:	108014a0 	cmpeqi	r2,r2,82
 80015f0:	10000c1e 	bne	r2,zero,8001624 <key_event+0x2dc>
				key_array[2] == KEY_UP || key_array[3] == KEY_UP ||
 80015f4:	e0bff817 	ldw	r2,-32(fp)
				key_array[2] == KEY_SPACE|| key_array[3] == KEY_SPACE||
				key_array[4] == KEY_SPACE || key_array[5] == KEY_SPACE){
			press_j(ship2, torpedo2, SHIP1);
			printf("torpedo2 \n");
		}
		if (key_array[0] == KEY_UP || key_array[1] == KEY_UP ||
 80015f8:	108014a0 	cmpeqi	r2,r2,82
 80015fc:	1000091e 	bne	r2,zero,8001624 <key_event+0x2dc>
				key_array[2] == KEY_UP || key_array[3] == KEY_UP ||
 8001600:	e0bff917 	ldw	r2,-28(fp)
 8001604:	108014a0 	cmpeqi	r2,r2,82
 8001608:	1000061e 	bne	r2,zero,8001624 <key_event+0x2dc>
				key_array[4] == KEY_UP || key_array[5] == KEY_UP ){
 800160c:	e0bffa17 	ldw	r2,-24(fp)
				key_array[4] == KEY_SPACE || key_array[5] == KEY_SPACE){
			press_j(ship2, torpedo2, SHIP1);
			printf("torpedo2 \n");
		}
		if (key_array[0] == KEY_UP || key_array[1] == KEY_UP ||
				key_array[2] == KEY_UP || key_array[3] == KEY_UP ||
 8001610:	108014a0 	cmpeqi	r2,r2,82
 8001614:	1000031e 	bne	r2,zero,8001624 <key_event+0x2dc>
				key_array[4] == KEY_UP || key_array[5] == KEY_UP ){
 8001618:	e0bffb17 	ldw	r2,-20(fp)
 800161c:	10801498 	cmpnei	r2,r2,82
 8001620:	1000021e 	bne	r2,zero,800162c <key_event+0x2e4>

			press_w(ship2);
 8001624:	e13ffe17 	ldw	r4,-8(fp)
 8001628:	80022b40 	call	80022b4 <press_w>
		}
		if (key_array[0] == KEY_DOWN || key_array[1] == KEY_DOWN ||
 800162c:	e0bff617 	ldw	r2,-40(fp)
 8001630:	10801460 	cmpeqi	r2,r2,81
 8001634:	10000f1e 	bne	r2,zero,8001674 <key_event+0x32c>
 8001638:	e0bff717 	ldw	r2,-36(fp)
 800163c:	10801460 	cmpeqi	r2,r2,81
 8001640:	10000c1e 	bne	r2,zero,8001674 <key_event+0x32c>
				key_array[2] == KEY_DOWN || key_array[3] == KEY_DOWN ||
 8001644:	e0bff817 	ldw	r2,-32(fp)
				key_array[2] == KEY_UP || key_array[3] == KEY_UP ||
				key_array[4] == KEY_UP || key_array[5] == KEY_UP ){

			press_w(ship2);
		}
		if (key_array[0] == KEY_DOWN || key_array[1] == KEY_DOWN ||
 8001648:	10801460 	cmpeqi	r2,r2,81
 800164c:	1000091e 	bne	r2,zero,8001674 <key_event+0x32c>
				key_array[2] == KEY_DOWN || key_array[3] == KEY_DOWN ||
 8001650:	e0bff917 	ldw	r2,-28(fp)
 8001654:	10801460 	cmpeqi	r2,r2,81
 8001658:	1000061e 	bne	r2,zero,8001674 <key_event+0x32c>
				key_array[4] == KEY_DOWN || key_array[5] == KEY_DOWN){
 800165c:	e0bffa17 	ldw	r2,-24(fp)
				key_array[4] == KEY_UP || key_array[5] == KEY_UP ){

			press_w(ship2);
		}
		if (key_array[0] == KEY_DOWN || key_array[1] == KEY_DOWN ||
				key_array[2] == KEY_DOWN || key_array[3] == KEY_DOWN ||
 8001660:	10801460 	cmpeqi	r2,r2,81
 8001664:	1000031e 	bne	r2,zero,8001674 <key_event+0x32c>
				key_array[4] == KEY_DOWN || key_array[5] == KEY_DOWN){
 8001668:	e0bffb17 	ldw	r2,-20(fp)
 800166c:	10801458 	cmpnei	r2,r2,81
 8001670:	1000021e 	bne	r2,zero,800167c <key_event+0x334>

			press_s(ship2);
 8001674:	e13ffe17 	ldw	r4,-8(fp)
 8001678:	80022fc0 	call	80022fc <press_s>
		}
		if (key_array[0] == KEY_LEFT || key_array[1] == KEY_LEFT ||
 800167c:	e0bff617 	ldw	r2,-40(fp)
 8001680:	10801420 	cmpeqi	r2,r2,80
 8001684:	10000f1e 	bne	r2,zero,80016c4 <key_event+0x37c>
 8001688:	e0bff717 	ldw	r2,-36(fp)
 800168c:	10801420 	cmpeqi	r2,r2,80
 8001690:	10000c1e 	bne	r2,zero,80016c4 <key_event+0x37c>
				key_array[2] == KEY_LEFT || key_array[3] == KEY_LEFT ||
 8001694:	e0bff817 	ldw	r2,-32(fp)
				key_array[2] == KEY_DOWN || key_array[3] == KEY_DOWN ||
				key_array[4] == KEY_DOWN || key_array[5] == KEY_DOWN){

			press_s(ship2);
		}
		if (key_array[0] == KEY_LEFT || key_array[1] == KEY_LEFT ||
 8001698:	10801420 	cmpeqi	r2,r2,80
 800169c:	1000091e 	bne	r2,zero,80016c4 <key_event+0x37c>
				key_array[2] == KEY_LEFT || key_array[3] == KEY_LEFT ||
 80016a0:	e0bff917 	ldw	r2,-28(fp)
 80016a4:	10801420 	cmpeqi	r2,r2,80
 80016a8:	1000061e 	bne	r2,zero,80016c4 <key_event+0x37c>
				key_array[4] == KEY_LEFT || key_array[5] == KEY_LEFT){
 80016ac:	e0bffa17 	ldw	r2,-24(fp)
				key_array[4] == KEY_DOWN || key_array[5] == KEY_DOWN){

			press_s(ship2);
		}
		if (key_array[0] == KEY_LEFT || key_array[1] == KEY_LEFT ||
				key_array[2] == KEY_LEFT || key_array[3] == KEY_LEFT ||
 80016b0:	10801420 	cmpeqi	r2,r2,80
 80016b4:	1000031e 	bne	r2,zero,80016c4 <key_event+0x37c>
				key_array[4] == KEY_LEFT || key_array[5] == KEY_LEFT){
 80016b8:	e0bffb17 	ldw	r2,-20(fp)
 80016bc:	10801418 	cmpnei	r2,r2,80
 80016c0:	1000021e 	bne	r2,zero,80016cc <key_event+0x384>
			press_a(ship2);
 80016c4:	e13ffe17 	ldw	r4,-8(fp)
 80016c8:	80023440 	call	8002344 <press_a>
		}
		if (key_array[0] == KEY_RIGHT || key_array[1] == KEY_RIGHT ||
 80016cc:	e0bff617 	ldw	r2,-40(fp)
 80016d0:	108013e0 	cmpeqi	r2,r2,79
 80016d4:	10000f1e 	bne	r2,zero,8001714 <key_event+0x3cc>
 80016d8:	e0bff717 	ldw	r2,-36(fp)
 80016dc:	108013e0 	cmpeqi	r2,r2,79
 80016e0:	10000c1e 	bne	r2,zero,8001714 <key_event+0x3cc>
				key_array[2] == KEY_RIGHT || key_array[3] == KEY_RIGHT ||
 80016e4:	e0bff817 	ldw	r2,-32(fp)
		if (key_array[0] == KEY_LEFT || key_array[1] == KEY_LEFT ||
				key_array[2] == KEY_LEFT || key_array[3] == KEY_LEFT ||
				key_array[4] == KEY_LEFT || key_array[5] == KEY_LEFT){
			press_a(ship2);
		}
		if (key_array[0] == KEY_RIGHT || key_array[1] == KEY_RIGHT ||
 80016e8:	108013e0 	cmpeqi	r2,r2,79
 80016ec:	1000091e 	bne	r2,zero,8001714 <key_event+0x3cc>
				key_array[2] == KEY_RIGHT || key_array[3] == KEY_RIGHT ||
 80016f0:	e0bff917 	ldw	r2,-28(fp)
 80016f4:	108013e0 	cmpeqi	r2,r2,79
 80016f8:	1000061e 	bne	r2,zero,8001714 <key_event+0x3cc>
				key_array[4] == KEY_RIGHT || key_array[5] == KEY_RIGHT ){
 80016fc:	e0bffa17 	ldw	r2,-24(fp)
				key_array[2] == KEY_LEFT || key_array[3] == KEY_LEFT ||
				key_array[4] == KEY_LEFT || key_array[5] == KEY_LEFT){
			press_a(ship2);
		}
		if (key_array[0] == KEY_RIGHT || key_array[1] == KEY_RIGHT ||
				key_array[2] == KEY_RIGHT || key_array[3] == KEY_RIGHT ||
 8001700:	108013e0 	cmpeqi	r2,r2,79
 8001704:	1000031e 	bne	r2,zero,8001714 <key_event+0x3cc>
				key_array[4] == KEY_RIGHT || key_array[5] == KEY_RIGHT ){
 8001708:	e0bffb17 	ldw	r2,-20(fp)
 800170c:	108013d8 	cmpnei	r2,r2,79
 8001710:	1000021e 	bne	r2,zero,800171c <key_event+0x3d4>
			press_d(ship2);
 8001714:	e13ffe17 	ldw	r4,-8(fp)
 8001718:	80024180 	call	8002418 <press_d>
		}
		if (key_array[0] == KEY_Z || key_array[1] == KEY_Z ||
 800171c:	e0bff617 	ldw	r2,-40(fp)
 8001720:	10800760 	cmpeqi	r2,r2,29
 8001724:	10000f1e 	bne	r2,zero,8001764 <key_event+0x41c>
 8001728:	e0bff717 	ldw	r2,-36(fp)
 800172c:	10800760 	cmpeqi	r2,r2,29
 8001730:	10000c1e 	bne	r2,zero,8001764 <key_event+0x41c>
			key_array[2] == KEY_Z || key_array[3] == KEY_Z ||
 8001734:	e0bff817 	ldw	r2,-32(fp)
		if (key_array[0] == KEY_RIGHT || key_array[1] == KEY_RIGHT ||
				key_array[2] == KEY_RIGHT || key_array[3] == KEY_RIGHT ||
				key_array[4] == KEY_RIGHT || key_array[5] == KEY_RIGHT ){
			press_d(ship2);
		}
		if (key_array[0] == KEY_Z || key_array[1] == KEY_Z ||
 8001738:	10800760 	cmpeqi	r2,r2,29
 800173c:	1000091e 	bne	r2,zero,8001764 <key_event+0x41c>
			key_array[2] == KEY_Z || key_array[3] == KEY_Z ||
 8001740:	e0bff917 	ldw	r2,-28(fp)
 8001744:	10800760 	cmpeqi	r2,r2,29
 8001748:	1000061e 	bne	r2,zero,8001764 <key_event+0x41c>
			key_array[4] == KEY_Z || key_array[5] == KEY_Z ){
 800174c:	e0bffa17 	ldw	r2,-24(fp)
				key_array[2] == KEY_RIGHT || key_array[3] == KEY_RIGHT ||
				key_array[4] == KEY_RIGHT || key_array[5] == KEY_RIGHT ){
			press_d(ship2);
		}
		if (key_array[0] == KEY_Z || key_array[1] == KEY_Z ||
			key_array[2] == KEY_Z || key_array[3] == KEY_Z ||
 8001750:	10800760 	cmpeqi	r2,r2,29
 8001754:	1000031e 	bne	r2,zero,8001764 <key_event+0x41c>
			key_array[4] == KEY_Z || key_array[5] == KEY_Z ){
 8001758:	e0bffb17 	ldw	r2,-20(fp)
 800175c:	10800758 	cmpnei	r2,r2,29
 8001760:	1000021e 	bne	r2,zero,800176c <key_event+0x424>
			press_z(ship2);
 8001764:	e13ffe17 	ldw	r4,-8(fp)
 8001768:	80037e40 	call	80037e4 <press_z>
		}
		if (key_array[0] == KEY_SLASH || key_array[1] == KEY_SLASH ||
 800176c:	e0bff617 	ldw	r2,-40(fp)
 8001770:	10800e20 	cmpeqi	r2,r2,56
 8001774:	10000f1e 	bne	r2,zero,80017b4 <key_event+0x46c>
 8001778:	e0bff717 	ldw	r2,-36(fp)
 800177c:	10800e20 	cmpeqi	r2,r2,56
 8001780:	10000c1e 	bne	r2,zero,80017b4 <key_event+0x46c>
			key_array[2] == KEY_SLASH || key_array[3] == KEY_SLASH ||
 8001784:	e0bff817 	ldw	r2,-32(fp)
		if (key_array[0] == KEY_Z || key_array[1] == KEY_Z ||
			key_array[2] == KEY_Z || key_array[3] == KEY_Z ||
			key_array[4] == KEY_Z || key_array[5] == KEY_Z ){
			press_z(ship2);
		}
		if (key_array[0] == KEY_SLASH || key_array[1] == KEY_SLASH ||
 8001788:	10800e20 	cmpeqi	r2,r2,56
 800178c:	1000091e 	bne	r2,zero,80017b4 <key_event+0x46c>
			key_array[2] == KEY_SLASH || key_array[3] == KEY_SLASH ||
 8001790:	e0bff917 	ldw	r2,-28(fp)
 8001794:	10800e20 	cmpeqi	r2,r2,56
 8001798:	1000061e 	bne	r2,zero,80017b4 <key_event+0x46c>
			key_array[4] == KEY_SLASH || key_array[5] == KEY_SLASH ){
 800179c:	e0bffa17 	ldw	r2,-24(fp)
			key_array[2] == KEY_Z || key_array[3] == KEY_Z ||
			key_array[4] == KEY_Z || key_array[5] == KEY_Z ){
			press_z(ship2);
		}
		if (key_array[0] == KEY_SLASH || key_array[1] == KEY_SLASH ||
			key_array[2] == KEY_SLASH || key_array[3] == KEY_SLASH ||
 80017a0:	10800e20 	cmpeqi	r2,r2,56
 80017a4:	1000031e 	bne	r2,zero,80017b4 <key_event+0x46c>
			key_array[4] == KEY_SLASH || key_array[5] == KEY_SLASH ){
 80017a8:	e0bffb17 	ldw	r2,-20(fp)
 80017ac:	10800e18 	cmpnei	r2,r2,56
 80017b0:	1000021e 	bne	r2,zero,80017bc <key_event+0x474>
			press_z(ship2);
 80017b4:	e13ffe17 	ldw	r4,-8(fp)
 80017b8:	80037e40 	call	80037e4 <press_z>
		// }
		// if (cur_key == KEY_L){
		// 	press_l(ship);
		// }

		if (key_array[0] == KEY_ENTER || key_array[1] == KEY_ENTER){
 80017bc:	e0bff617 	ldw	r2,-40(fp)
 80017c0:	10800a20 	cmpeqi	r2,r2,40
 80017c4:	1000031e 	bne	r2,zero,80017d4 <key_event+0x48c>
 80017c8:	e0bff717 	ldw	r2,-36(fp)
 80017cc:	10800a18 	cmpnei	r2,r2,40
 80017d0:	1000041e 	bne	r2,zero,80017e4 <key_event+0x49c>
			*game_start = 1;
 80017d4:	e0bffc17 	ldw	r2,-16(fp)
 80017d8:	00c00044 	movi	r3,1
 80017dc:	10c00015 	stw	r3,0(r2)
			return;
 80017e0:	00001f06 	br	8001860 <key_event+0x518>
		}
		else if (key_array[0] == KEY_ESC || key_array[1] == KEY_ESC){
 80017e4:	e0bff617 	ldw	r2,-40(fp)
 80017e8:	10800a60 	cmpeqi	r2,r2,41
 80017ec:	1000031e 	bne	r2,zero,80017fc <key_event+0x4b4>
 80017f0:	e0bff717 	ldw	r2,-36(fp)
 80017f4:	10800a58 	cmpnei	r2,r2,41
 80017f8:	1000041e 	bne	r2,zero,800180c <key_event+0x4c4>
			*game_start = 0;
 80017fc:	e0bffc17 	ldw	r2,-16(fp)
 8001800:	10000015 	stw	zero,0(r2)
			developer_mode = 0;
 8001804:	d0271f15 	stw	zero,-25476(gp)
			return;
 8001808:	00001506 	br	8001860 <key_event+0x518>
		}
		else if (key_array[0] == KEY_ESC || key_array[1] == KEY_ESC){
 800180c:	e0bff617 	ldw	r2,-40(fp)
 8001810:	10800a60 	cmpeqi	r2,r2,41
 8001814:	1000031e 	bne	r2,zero,8001824 <key_event+0x4dc>
 8001818:	e0bff717 	ldw	r2,-36(fp)
 800181c:	10800a58 	cmpnei	r2,r2,41
 8001820:	1000031e 	bne	r2,zero,8001830 <key_event+0x4e8>
			*game_start = 0;
 8001824:	e0bffc17 	ldw	r2,-16(fp)
 8001828:	10000015 	stw	zero,0(r2)
			return;
 800182c:	00000c06 	br	8001860 <key_event+0x518>
		}
		else if (key_array[0] == KEY_BACKSPACE || key_array[1] == KEY_BACKSPACE){
 8001830:	e0bff617 	ldw	r2,-40(fp)
 8001834:	10800aa0 	cmpeqi	r2,r2,42
 8001838:	1000031e 	bne	r2,zero,8001848 <key_event+0x500>
 800183c:	e0bff717 	ldw	r2,-36(fp)
 8001840:	10800a98 	cmpnei	r2,r2,42
 8001844:	1000051e 	bne	r2,zero,800185c <key_event+0x514>
			*game_start = 0;
 8001848:	e0bffc17 	ldw	r2,-16(fp)
 800184c:	10000015 	stw	zero,0(r2)
			developer_mode = 1;
 8001850:	00800044 	movi	r2,1
 8001854:	d0a71f15 	stw	r2,-25476(gp)
			return;
 8001858:	00000106 	br	8001860 <key_event+0x518>
		}
		else{
			return;
 800185c:	0001883a 	nop
		}
}
 8001860:	e037883a 	mov	sp,fp
 8001864:	dfc00117 	ldw	ra,4(sp)
 8001868:	df000017 	ldw	fp,0(sp)
 800186c:	dec00204 	addi	sp,sp,8
 8001870:	f800283a 	ret

08001874 <game_update>:
/*
 * 1. update saber state and x,y
 * 2. update gamefile
*/
void game_update(int *game_start,ship_t *ship, ship_t *ship2, torpedo_t *torpedo1, torpedo_t *torpedo2,
		bullet_t *bullet1, bullet_t *bullet2){
 8001874:	defff704 	addi	sp,sp,-36
 8001878:	dfc00815 	stw	ra,32(sp)
 800187c:	df000715 	stw	fp,28(sp)
 8001880:	df000704 	addi	fp,sp,28
 8001884:	e13ffc15 	stw	r4,-16(fp)
 8001888:	e17ffd15 	stw	r5,-12(fp)
 800188c:	e1bffe15 	stw	r6,-8(fp)
 8001890:	e1ffff15 	stw	r7,-4(fp)
	// update saber state and x, y
	update(ship, ship2);
 8001894:	e17ffe17 	ldw	r5,-8(fp)
 8001898:	e13ffd17 	ldw	r4,-12(fp)
 800189c:	800261c0 	call	800261c <update>
	generate_bullet(ship, SHIP2, bullet1);
 80018a0:	e1800317 	ldw	r6,12(fp)
 80018a4:	01400044 	movi	r5,1
 80018a8:	e13ffd17 	ldw	r4,-12(fp)
 80018ac:	800026c0 	call	800026c <generate_bullet>
	generate_bullet(ship2, SHIP1, bullet2);
 80018b0:	e1800417 	ldw	r6,16(fp)
 80018b4:	000b883a 	mov	r5,zero
 80018b8:	e13ffe17 	ldw	r4,-8(fp)
 80018bc:	800026c0 	call	800026c <generate_bullet>
	update_bullet(bullet1, bullet2, ship, ship2);
 80018c0:	e1fffe17 	ldw	r7,-8(fp)
 80018c4:	e1bffd17 	ldw	r6,-12(fp)
 80018c8:	e1400417 	ldw	r5,16(fp)
 80018cc:	e1000317 	ldw	r4,12(fp)
 80018d0:	80004300 	call	8000430 <update_bullet>
	printf("%d\n", bullet1->stop);
 80018d4:	e0800317 	ldw	r2,12(fp)
 80018d8:	10800017 	ldw	r2,0(r2)
 80018dc:	100b883a 	mov	r5,r2
 80018e0:	01020074 	movhi	r4,2049
 80018e4:	21133a04 	addi	r4,r4,19688
 80018e8:	800636c0 	call	800636c <printf>
	detect_ship_attack(ship,ship2);
 80018ec:	e17ffe17 	ldw	r5,-8(fp)
 80018f0:	e13ffd17 	ldw	r4,-12(fp)
 80018f4:	80029840 	call	8002984 <detect_ship_attack>
	update_tor(torpedo1, torpedo2, ship, ship2);
 80018f8:	e1fffe17 	ldw	r7,-8(fp)
 80018fc:	e1bffd17 	ldw	r6,-12(fp)
 8001900:	e1400217 	ldw	r5,8(fp)
 8001904:	e13fff17 	ldw	r4,-4(fp)
 8001908:	80037640 	call	8003764 <update_tor>
	if (ship->HP <= 0)
 800190c:	e0bffd17 	ldw	r2,-12(fp)
 8001910:	10800517 	ldw	r2,20(r2)
 8001914:	00800316 	blt	zero,r2,8001924 <game_update+0xb0>
		ship->state = DEAD;
 8001918:	e0bffd17 	ldw	r2,-12(fp)
 800191c:	00c00144 	movi	r3,5
 8001920:	10c00815 	stw	r3,32(r2)
	if (ship2->HP <=0)
 8001924:	e0bffe17 	ldw	r2,-8(fp)
 8001928:	10800517 	ldw	r2,20(r2)
 800192c:	00800316 	blt	zero,r2,800193c <game_update+0xc8>
		ship2->state = DEAD;
 8001930:	e0bffe17 	ldw	r2,-8(fp)
 8001934:	00c00144 	movi	r3,5
 8001938:	10c00815 	stw	r3,32(r2)
	// send the information to the hardware
	gamefile_update(game_start, ship, ship2, torpedo1, torpedo2, bullet1, bullet2);
 800193c:	e0800417 	ldw	r2,16(fp)
 8001940:	d8800215 	stw	r2,8(sp)
 8001944:	e0800317 	ldw	r2,12(fp)
 8001948:	d8800115 	stw	r2,4(sp)
 800194c:	e0800217 	ldw	r2,8(fp)
 8001950:	d8800015 	stw	r2,0(sp)
 8001954:	e1ffff17 	ldw	r7,-4(fp)
 8001958:	e1bffe17 	ldw	r6,-8(fp)
 800195c:	e17ffd17 	ldw	r5,-12(fp)
 8001960:	e13ffc17 	ldw	r4,-16(fp)
 8001964:	8001a000 	call	8001a00 <gamefile_update>
}
 8001968:	0001883a 	nop
 800196c:	e037883a 	mov	sp,fp
 8001970:	dfc00117 	ldw	ra,4(sp)
 8001974:	df000017 	ldw	fp,0(sp)
 8001978:	dec00204 	addi	sp,sp,8
 800197c:	f800283a 	ret

08001980 <ship_choose_update>:

void ship_choose_update(int* player1_ready, int* player2_ready, ship_t *ship, ship_t *ship2){
 8001980:	defffb04 	addi	sp,sp,-20
 8001984:	df000415 	stw	fp,16(sp)
 8001988:	df000404 	addi	fp,sp,16
 800198c:	e13ffc15 	stw	r4,-16(fp)
 8001990:	e17ffd15 	stw	r5,-12(fp)
 8001994:	e1bffe15 	stw	r6,-8(fp)
 8001998:	e1ffff15 	stw	r7,-4(fp)
    game_file[60] = ship->choose_ship;
 800199c:	d0a00017 	ldw	r2,-32768(gp)
 80019a0:	10803c04 	addi	r2,r2,240
 80019a4:	e0fffe17 	ldw	r3,-8(fp)
 80019a8:	18c01017 	ldw	r3,64(r3)
 80019ac:	10c00015 	stw	r3,0(r2)
    game_file[61] = ship2->choose_ship;
 80019b0:	d0a00017 	ldw	r2,-32768(gp)
 80019b4:	10803d04 	addi	r2,r2,244
 80019b8:	e0ffff17 	ldw	r3,-4(fp)
 80019bc:	18c01017 	ldw	r3,64(r3)
 80019c0:	10c00015 	stw	r3,0(r2)
    game_file[62] = ship->ship_choose_ready;
 80019c4:	d0a00017 	ldw	r2,-32768(gp)
 80019c8:	10803e04 	addi	r2,r2,248
 80019cc:	e0fffe17 	ldw	r3,-8(fp)
 80019d0:	18c01117 	ldw	r3,68(r3)
 80019d4:	10c00015 	stw	r3,0(r2)
    game_file[63] = ship2->ship_choose_ready;
 80019d8:	d0a00017 	ldw	r2,-32768(gp)
 80019dc:	10803f04 	addi	r2,r2,252
 80019e0:	e0ffff17 	ldw	r3,-4(fp)
 80019e4:	18c01117 	ldw	r3,68(r3)
 80019e8:	10c00015 	stw	r3,0(r2)
}
 80019ec:	0001883a 	nop
 80019f0:	e037883a 	mov	sp,fp
 80019f4:	df000017 	ldw	fp,0(sp)
 80019f8:	dec00104 	addi	sp,sp,4
 80019fc:	f800283a 	ret

08001a00 <gamefile_update>:
/*
 * gamefile_update : use characters information to update the game file,
 * 					which will communicate with the hardware
 */
void gamefile_update(int *game_start, ship_t *ship, ship_t *ship2, torpedo_t *torpedo1, torpedo_t *torpedo2,
		bullet_t *bullet1, bullet_t *bullet2){
 8001a00:	defffb04 	addi	sp,sp,-20
 8001a04:	df000415 	stw	fp,16(sp)
 8001a08:	df000404 	addi	fp,sp,16
 8001a0c:	e13ffc15 	stw	r4,-16(fp)
 8001a10:	e17ffd15 	stw	r5,-12(fp)
 8001a14:	e1bffe15 	stw	r6,-8(fp)
 8001a18:	e1ffff15 	stw	r7,-4(fp)
	game_file[0] = ship->exist;
 8001a1c:	d0a00017 	ldw	r2,-32768(gp)
 8001a20:	e0fffd17 	ldw	r3,-12(fp)
 8001a24:	18c00017 	ldw	r3,0(r3)
 8001a28:	10c00015 	stw	r3,0(r2)
	game_file[1] = ship->x;
 8001a2c:	d0a00017 	ldw	r2,-32768(gp)
 8001a30:	10800104 	addi	r2,r2,4
 8001a34:	e0fffd17 	ldw	r3,-12(fp)
 8001a38:	18c00117 	ldw	r3,4(r3)
 8001a3c:	10c00015 	stw	r3,0(r2)
	game_file[2] = ship->y;
 8001a40:	d0a00017 	ldw	r2,-32768(gp)
 8001a44:	10800204 	addi	r2,r2,8
 8001a48:	e0fffd17 	ldw	r3,-12(fp)
 8001a4c:	18c00217 	ldw	r3,8(r3)
 8001a50:	10c00015 	stw	r3,0(r2)
	game_file[3] = ship->state;
 8001a54:	d0a00017 	ldw	r2,-32768(gp)
 8001a58:	10800304 	addi	r2,r2,12
 8001a5c:	e0fffd17 	ldw	r3,-12(fp)
 8001a60:	18c00817 	ldw	r3,32(r3)
 8001a64:	10c00015 	stw	r3,0(r2)
	game_file[4] = ship->HP > 2;
 8001a68:	d0a00017 	ldw	r2,-32768(gp)
 8001a6c:	10800404 	addi	r2,r2,16
 8001a70:	e0fffd17 	ldw	r3,-12(fp)
 8001a74:	18c00517 	ldw	r3,20(r3)
 8001a78:	18c000c8 	cmpgei	r3,r3,3
 8001a7c:	18c03fcc 	andi	r3,r3,255
 8001a80:	10c00015 	stw	r3,0(r2)

	game_file[7] = ship2->exist;
 8001a84:	d0a00017 	ldw	r2,-32768(gp)
 8001a88:	10800704 	addi	r2,r2,28
 8001a8c:	e0fffe17 	ldw	r3,-8(fp)
 8001a90:	18c00017 	ldw	r3,0(r3)
 8001a94:	10c00015 	stw	r3,0(r2)
	game_file[8] = ship2->x;
 8001a98:	d0a00017 	ldw	r2,-32768(gp)
 8001a9c:	10800804 	addi	r2,r2,32
 8001aa0:	e0fffe17 	ldw	r3,-8(fp)
 8001aa4:	18c00117 	ldw	r3,4(r3)
 8001aa8:	10c00015 	stw	r3,0(r2)
	game_file[9] = ship2->y;
 8001aac:	d0a00017 	ldw	r2,-32768(gp)
 8001ab0:	10800904 	addi	r2,r2,36
 8001ab4:	e0fffe17 	ldw	r3,-8(fp)
 8001ab8:	18c00217 	ldw	r3,8(r3)
 8001abc:	10c00015 	stw	r3,0(r2)
	game_file[10] = ship2->state;
 8001ac0:	d0a00017 	ldw	r2,-32768(gp)
 8001ac4:	10800a04 	addi	r2,r2,40
 8001ac8:	e0fffe17 	ldw	r3,-8(fp)
 8001acc:	18c00817 	ldw	r3,32(r3)
 8001ad0:	10c00015 	stw	r3,0(r2)
	game_file[11] = ship2->HP > 2;
 8001ad4:	d0a00017 	ldw	r2,-32768(gp)
 8001ad8:	10800b04 	addi	r2,r2,44
 8001adc:	e0fffe17 	ldw	r3,-8(fp)
 8001ae0:	18c00517 	ldw	r3,20(r3)
 8001ae4:	18c000c8 	cmpgei	r3,r3,3
 8001ae8:	18c03fcc 	andi	r3,r3,255
 8001aec:	10c00015 	stw	r3,0(r2)

	game_file[12] = torpedo1->x[0];
 8001af0:	d0a00017 	ldw	r2,-32768(gp)
 8001af4:	10800c04 	addi	r2,r2,48
 8001af8:	e0ffff17 	ldw	r3,-4(fp)
 8001afc:	18c00017 	ldw	r3,0(r3)
 8001b00:	10c00015 	stw	r3,0(r2)
	game_file[13] = torpedo1->x[1];
 8001b04:	d0a00017 	ldw	r2,-32768(gp)
 8001b08:	10800d04 	addi	r2,r2,52
 8001b0c:	e0ffff17 	ldw	r3,-4(fp)
 8001b10:	18c00117 	ldw	r3,4(r3)
 8001b14:	10c00015 	stw	r3,0(r2)
	game_file[14] = torpedo1->x[2];
 8001b18:	d0a00017 	ldw	r2,-32768(gp)
 8001b1c:	10800e04 	addi	r2,r2,56
 8001b20:	e0ffff17 	ldw	r3,-4(fp)
 8001b24:	18c00217 	ldw	r3,8(r3)
 8001b28:	10c00015 	stw	r3,0(r2)
	game_file[15] = torpedo1->x[3];
 8001b2c:	d0a00017 	ldw	r2,-32768(gp)
 8001b30:	10800f04 	addi	r2,r2,60
 8001b34:	e0ffff17 	ldw	r3,-4(fp)
 8001b38:	18c00317 	ldw	r3,12(r3)
 8001b3c:	10c00015 	stw	r3,0(r2)
	game_file[16] = torpedo1->y[0];
 8001b40:	d0a00017 	ldw	r2,-32768(gp)
 8001b44:	10801004 	addi	r2,r2,64
 8001b48:	e0ffff17 	ldw	r3,-4(fp)
 8001b4c:	18c00417 	ldw	r3,16(r3)
 8001b50:	10c00015 	stw	r3,0(r2)
	game_file[17] = torpedo1->y[1];
 8001b54:	d0a00017 	ldw	r2,-32768(gp)
 8001b58:	10801104 	addi	r2,r2,68
 8001b5c:	e0ffff17 	ldw	r3,-4(fp)
 8001b60:	18c00517 	ldw	r3,20(r3)
 8001b64:	10c00015 	stw	r3,0(r2)
	game_file[18] = torpedo1->y[2];
 8001b68:	d0a00017 	ldw	r2,-32768(gp)
 8001b6c:	10801204 	addi	r2,r2,72
 8001b70:	e0ffff17 	ldw	r3,-4(fp)
 8001b74:	18c00617 	ldw	r3,24(r3)
 8001b78:	10c00015 	stw	r3,0(r2)
	game_file[19] = torpedo1->y[3];
 8001b7c:	d0a00017 	ldw	r2,-32768(gp)
 8001b80:	10801304 	addi	r2,r2,76
 8001b84:	e0ffff17 	ldw	r3,-4(fp)
 8001b88:	18c00717 	ldw	r3,28(r3)
 8001b8c:	10c00015 	stw	r3,0(r2)

//	game_file[19] = *game_start;
	game_file[20] = *game_start==0;
 8001b90:	d0a00017 	ldw	r2,-32768(gp)
 8001b94:	10801404 	addi	r2,r2,80
 8001b98:	e0fffc17 	ldw	r3,-16(fp)
 8001b9c:	18c00017 	ldw	r3,0(r3)
 8001ba0:	1807003a 	cmpeq	r3,r3,zero
 8001ba4:	18c03fcc 	andi	r3,r3,255
 8001ba8:	10c00015 	stw	r3,0(r2)
	game_file[21] = ship2->HP<=0;
 8001bac:	d0a00017 	ldw	r2,-32768(gp)
 8001bb0:	10801504 	addi	r2,r2,84
 8001bb4:	e0fffe17 	ldw	r3,-8(fp)
 8001bb8:	18c00517 	ldw	r3,20(r3)
 8001bbc:	00c6403a 	cmpge	r3,zero,r3
 8001bc0:	18c03fcc 	andi	r3,r3,255
 8001bc4:	10c00015 	stw	r3,0(r2)
	game_file[22] = ship->HP<=0;
 8001bc8:	d0a00017 	ldw	r2,-32768(gp)
 8001bcc:	10801604 	addi	r2,r2,88
 8001bd0:	e0fffd17 	ldw	r3,-12(fp)
 8001bd4:	18c00517 	ldw	r3,20(r3)
 8001bd8:	00c6403a 	cmpge	r3,zero,r3
 8001bdc:	18c03fcc 	andi	r3,r3,255
 8001be0:	10c00015 	stw	r3,0(r2)
	game_file[23] = ship2 -> HP;
 8001be4:	d0a00017 	ldw	r2,-32768(gp)
 8001be8:	10801704 	addi	r2,r2,92
 8001bec:	e0fffe17 	ldw	r3,-8(fp)
 8001bf0:	18c00517 	ldw	r3,20(r3)
 8001bf4:	10c00015 	stw	r3,0(r2)
	game_file[24] = ship -> HP;
 8001bf8:	d0a00017 	ldw	r2,-32768(gp)
 8001bfc:	10801804 	addi	r2,r2,96
 8001c00:	e0fffd17 	ldw	r3,-12(fp)
 8001c04:	18c00517 	ldw	r3,20(r3)
 8001c08:	10c00015 	stw	r3,0(r2)
	game_file[25] = *game_start;
 8001c0c:	d0a00017 	ldw	r2,-32768(gp)
 8001c10:	10801904 	addi	r2,r2,100
 8001c14:	e0fffc17 	ldw	r3,-16(fp)
 8001c18:	18c00017 	ldw	r3,0(r3)
 8001c1c:	10c00015 	stw	r3,0(r2)

	game_file[26] = torpedo2->x[0];
 8001c20:	d0a00017 	ldw	r2,-32768(gp)
 8001c24:	10801a04 	addi	r2,r2,104
 8001c28:	e0c00117 	ldw	r3,4(fp)
 8001c2c:	18c00017 	ldw	r3,0(r3)
 8001c30:	10c00015 	stw	r3,0(r2)
	game_file[27] = torpedo2->x[1];
 8001c34:	d0a00017 	ldw	r2,-32768(gp)
 8001c38:	10801b04 	addi	r2,r2,108
 8001c3c:	e0c00117 	ldw	r3,4(fp)
 8001c40:	18c00117 	ldw	r3,4(r3)
 8001c44:	10c00015 	stw	r3,0(r2)
	game_file[28] = torpedo2->x[2];
 8001c48:	d0a00017 	ldw	r2,-32768(gp)
 8001c4c:	10801c04 	addi	r2,r2,112
 8001c50:	e0c00117 	ldw	r3,4(fp)
 8001c54:	18c00217 	ldw	r3,8(r3)
 8001c58:	10c00015 	stw	r3,0(r2)
	game_file[29] = torpedo2->x[3];
 8001c5c:	d0a00017 	ldw	r2,-32768(gp)
 8001c60:	10801d04 	addi	r2,r2,116
 8001c64:	e0c00117 	ldw	r3,4(fp)
 8001c68:	18c00317 	ldw	r3,12(r3)
 8001c6c:	10c00015 	stw	r3,0(r2)
	game_file[30] = torpedo2->y[0];
 8001c70:	d0a00017 	ldw	r2,-32768(gp)
 8001c74:	10801e04 	addi	r2,r2,120
 8001c78:	e0c00117 	ldw	r3,4(fp)
 8001c7c:	18c00417 	ldw	r3,16(r3)
 8001c80:	10c00015 	stw	r3,0(r2)
	game_file[31] = torpedo2->y[1];
 8001c84:	d0a00017 	ldw	r2,-32768(gp)
 8001c88:	10801f04 	addi	r2,r2,124
 8001c8c:	e0c00117 	ldw	r3,4(fp)
 8001c90:	18c00517 	ldw	r3,20(r3)
 8001c94:	10c00015 	stw	r3,0(r2)
	game_file[32] = torpedo2->y[2];
 8001c98:	d0a00017 	ldw	r2,-32768(gp)
 8001c9c:	10802004 	addi	r2,r2,128
 8001ca0:	e0c00117 	ldw	r3,4(fp)
 8001ca4:	18c00617 	ldw	r3,24(r3)
 8001ca8:	10c00015 	stw	r3,0(r2)
	game_file[33] = torpedo2->y[3];
 8001cac:	d0a00017 	ldw	r2,-32768(gp)
 8001cb0:	10802104 	addi	r2,r2,132
 8001cb4:	e0c00117 	ldw	r3,4(fp)
 8001cb8:	18c00717 	ldw	r3,28(r3)
 8001cbc:	10c00015 	stw	r3,0(r2)

	// game_file[35] = saber -> Excalibur_state < EXCALIBURNULL;
	// game_file[36] = (saber->FaceDirection==RIGHT)? saber->x+EXCALIBUR_LENGTH/2+EXCALIBUR_X_BIAS: saber->x-(EXCALIBUR_LENGTH/2+EXCALIBUR_X_BIAS);
	 game_file[37] = torpedo1->stop;
 8001cc0:	d0a00017 	ldw	r2,-32768(gp)
 8001cc4:	10802504 	addi	r2,r2,148
 8001cc8:	e0ffff17 	ldw	r3,-4(fp)
 8001ccc:	18c01417 	ldw	r3,80(r3)
 8001cd0:	10c00015 	stw	r3,0(r2)
	 game_file[38] = torpedo2->stop;
 8001cd4:	d0a00017 	ldw	r2,-32768(gp)
 8001cd8:	10802604 	addi	r2,r2,152
 8001cdc:	e0c00117 	ldw	r3,4(fp)
 8001ce0:	18c01417 	ldw	r3,80(r3)
 8001ce4:	10c00015 	stw	r3,0(r2)
	game_file[39] = ship->FaceDirection == LEFT;
 8001ce8:	d0a00017 	ldw	r2,-32768(gp)
 8001cec:	10802704 	addi	r2,r2,156
 8001cf0:	e0fffd17 	ldw	r3,-12(fp)
 8001cf4:	18c00717 	ldw	r3,28(r3)
 8001cf8:	18c00060 	cmpeqi	r3,r3,1
 8001cfc:	18c03fcc 	andi	r3,r3,255
 8001d00:	10c00015 	stw	r3,0(r2)
	game_file[40] = ship2->FaceDirection == LEFT;
 8001d04:	d0a00017 	ldw	r2,-32768(gp)
 8001d08:	10802804 	addi	r2,r2,160
 8001d0c:	e0fffe17 	ldw	r3,-8(fp)
 8001d10:	18c00717 	ldw	r3,28(r3)
 8001d14:	18c00060 	cmpeqi	r3,r3,1
 8001d18:	18c03fcc 	andi	r3,r3,255
 8001d1c:	10c00015 	stw	r3,0(r2)
	game_file[41] = win;
 8001d20:	d0a00017 	ldw	r2,-32768(gp)
 8001d24:	10802904 	addi	r2,r2,164
 8001d28:	d0e72017 	ldw	r3,-25472(gp)
 8001d2c:	10c00015 	stw	r3,0(r2)

	// game_file[43] = saber->Excalibur_remain;
	game_file[44] = *game_start;
 8001d30:	d0a00017 	ldw	r2,-32768(gp)
 8001d34:	10802c04 	addi	r2,r2,176
 8001d38:	e0fffc17 	ldw	r3,-16(fp)
 8001d3c:	18c00017 	ldw	r3,0(r3)
 8001d40:	10c00015 	stw	r3,0(r2)

	game_file[45] = bullet1->stop;
 8001d44:	d0a00017 	ldw	r2,-32768(gp)
 8001d48:	10802d04 	addi	r2,r2,180
 8001d4c:	e0c00217 	ldw	r3,8(fp)
 8001d50:	18c00017 	ldw	r3,0(r3)
 8001d54:	10c00015 	stw	r3,0(r2)
	game_file[46] = bullet2->stop;
 8001d58:	d0a00017 	ldw	r2,-32768(gp)
 8001d5c:	10802e04 	addi	r2,r2,184
 8001d60:	e0c00317 	ldw	r3,12(fp)
 8001d64:	18c00017 	ldw	r3,0(r3)
 8001d68:	10c00015 	stw	r3,0(r2)
	*bullet_1_x_0 = bullet1->x[0];
 8001d6c:	d0a00117 	ldw	r2,-32764(gp)
 8001d70:	e0c00217 	ldw	r3,8(fp)
 8001d74:	18c00117 	ldw	r3,4(r3)
 8001d78:	10c00015 	stw	r3,0(r2)
	*bullet_1_x_1 = bullet1->x[1];
 8001d7c:	d0a00217 	ldw	r2,-32760(gp)
 8001d80:	e0c00217 	ldw	r3,8(fp)
 8001d84:	18c00217 	ldw	r3,8(r3)
 8001d88:	10c00015 	stw	r3,0(r2)
	*bullet_1_x_2 = bullet1->x[2];
 8001d8c:	d0a00317 	ldw	r2,-32756(gp)
 8001d90:	e0c00217 	ldw	r3,8(fp)
 8001d94:	18c00317 	ldw	r3,12(r3)
 8001d98:	10c00015 	stw	r3,0(r2)
	*bullet_1_x_3 = bullet1->x[3];
 8001d9c:	d0a00417 	ldw	r2,-32752(gp)
 8001da0:	e0c00217 	ldw	r3,8(fp)
 8001da4:	18c00417 	ldw	r3,16(r3)
 8001da8:	10c00015 	stw	r3,0(r2)
	*bullet_1_x_4 = bullet1->x[4];
 8001dac:	d0a00517 	ldw	r2,-32748(gp)
 8001db0:	e0c00217 	ldw	r3,8(fp)
 8001db4:	18c00517 	ldw	r3,20(r3)
 8001db8:	10c00015 	stw	r3,0(r2)
	*bullet_1_x_5 = bullet1->x[5];
 8001dbc:	d0a00617 	ldw	r2,-32744(gp)
 8001dc0:	e0c00217 	ldw	r3,8(fp)
 8001dc4:	18c00617 	ldw	r3,24(r3)
 8001dc8:	10c00015 	stw	r3,0(r2)
	*bullet_1_x_6 = bullet1->x[6];
 8001dcc:	d0a00717 	ldw	r2,-32740(gp)
 8001dd0:	e0c00217 	ldw	r3,8(fp)
 8001dd4:	18c00717 	ldw	r3,28(r3)
 8001dd8:	10c00015 	stw	r3,0(r2)
	*bullet_1_x_7 = bullet1->x[7];
 8001ddc:	d0a00817 	ldw	r2,-32736(gp)
 8001de0:	e0c00217 	ldw	r3,8(fp)
 8001de4:	18c00817 	ldw	r3,32(r3)
 8001de8:	10c00015 	stw	r3,0(r2)
	*bullet_1_x_8 = bullet1->x[8];
 8001dec:	d0a00917 	ldw	r2,-32732(gp)
 8001df0:	e0c00217 	ldw	r3,8(fp)
 8001df4:	18c00917 	ldw	r3,36(r3)
 8001df8:	10c00015 	stw	r3,0(r2)
	*bullet_1_x_9 = bullet1->x[9];
 8001dfc:	d0a00a17 	ldw	r2,-32728(gp)
 8001e00:	e0c00217 	ldw	r3,8(fp)
 8001e04:	18c00a17 	ldw	r3,40(r3)
 8001e08:	10c00015 	stw	r3,0(r2)
	*bullet_1_y_0 = bullet1->y[0];
 8001e0c:	d0a00b17 	ldw	r2,-32724(gp)
 8001e10:	e0c00217 	ldw	r3,8(fp)
 8001e14:	18c00b17 	ldw	r3,44(r3)
 8001e18:	10c00015 	stw	r3,0(r2)
	*bullet_1_y_1 = bullet1->y[1];
 8001e1c:	d0a00c17 	ldw	r2,-32720(gp)
 8001e20:	e0c00217 	ldw	r3,8(fp)
 8001e24:	18c00c17 	ldw	r3,48(r3)
 8001e28:	10c00015 	stw	r3,0(r2)
	*bullet_1_y_2 = bullet1->y[2];
 8001e2c:	d0a00d17 	ldw	r2,-32716(gp)
 8001e30:	e0c00217 	ldw	r3,8(fp)
 8001e34:	18c00d17 	ldw	r3,52(r3)
 8001e38:	10c00015 	stw	r3,0(r2)
	*bullet_1_y_3 = bullet1->y[3];
 8001e3c:	d0a00e17 	ldw	r2,-32712(gp)
 8001e40:	e0c00217 	ldw	r3,8(fp)
 8001e44:	18c00e17 	ldw	r3,56(r3)
 8001e48:	10c00015 	stw	r3,0(r2)
	*bullet_1_y_4 = bullet1->y[4];
 8001e4c:	d0a00f17 	ldw	r2,-32708(gp)
 8001e50:	e0c00217 	ldw	r3,8(fp)
 8001e54:	18c00f17 	ldw	r3,60(r3)
 8001e58:	10c00015 	stw	r3,0(r2)
	*bullet_1_y_5 = bullet1->y[5];
 8001e5c:	d0a01017 	ldw	r2,-32704(gp)
 8001e60:	e0c00217 	ldw	r3,8(fp)
 8001e64:	18c01017 	ldw	r3,64(r3)
 8001e68:	10c00015 	stw	r3,0(r2)
	*bullet_1_y_6 = bullet1->y[6];
 8001e6c:	d0a01117 	ldw	r2,-32700(gp)
 8001e70:	e0c00217 	ldw	r3,8(fp)
 8001e74:	18c01117 	ldw	r3,68(r3)
 8001e78:	10c00015 	stw	r3,0(r2)
	*bullet_1_y_7 = bullet1->y[7];
 8001e7c:	d0a01217 	ldw	r2,-32696(gp)
 8001e80:	e0c00217 	ldw	r3,8(fp)
 8001e84:	18c01217 	ldw	r3,72(r3)
 8001e88:	10c00015 	stw	r3,0(r2)
	*bullet_1_y_8 = bullet1->y[8];
 8001e8c:	d0a01317 	ldw	r2,-32692(gp)
 8001e90:	e0c00217 	ldw	r3,8(fp)
 8001e94:	18c01317 	ldw	r3,76(r3)
 8001e98:	10c00015 	stw	r3,0(r2)
	*bullet_1_y_9 = bullet1->y[9];
 8001e9c:	d0a01417 	ldw	r2,-32688(gp)
 8001ea0:	e0c00217 	ldw	r3,8(fp)
 8001ea4:	18c01417 	ldw	r3,80(r3)
 8001ea8:	10c00015 	stw	r3,0(r2)
	*bullet_2_x_0 = bullet2->x[0];
 8001eac:	d0a01517 	ldw	r2,-32684(gp)
 8001eb0:	e0c00317 	ldw	r3,12(fp)
 8001eb4:	18c00117 	ldw	r3,4(r3)
 8001eb8:	10c00015 	stw	r3,0(r2)
	*bullet_2_x_1 = bullet2->x[1];
 8001ebc:	d0a01617 	ldw	r2,-32680(gp)
 8001ec0:	e0c00317 	ldw	r3,12(fp)
 8001ec4:	18c00217 	ldw	r3,8(r3)
 8001ec8:	10c00015 	stw	r3,0(r2)
	*bullet_2_x_2 = bullet2->x[2];
 8001ecc:	d0a01717 	ldw	r2,-32676(gp)
 8001ed0:	e0c00317 	ldw	r3,12(fp)
 8001ed4:	18c00317 	ldw	r3,12(r3)
 8001ed8:	10c00015 	stw	r3,0(r2)
	*bullet_2_x_3 = bullet2->x[3];
 8001edc:	d0a01817 	ldw	r2,-32672(gp)
 8001ee0:	e0c00317 	ldw	r3,12(fp)
 8001ee4:	18c00417 	ldw	r3,16(r3)
 8001ee8:	10c00015 	stw	r3,0(r2)
	*bullet_2_x_4 = bullet2->x[4];
 8001eec:	d0a01917 	ldw	r2,-32668(gp)
 8001ef0:	e0c00317 	ldw	r3,12(fp)
 8001ef4:	18c00517 	ldw	r3,20(r3)
 8001ef8:	10c00015 	stw	r3,0(r2)
	*bullet_2_x_5 = bullet2->x[5];
 8001efc:	d0a01a17 	ldw	r2,-32664(gp)
 8001f00:	e0c00317 	ldw	r3,12(fp)
 8001f04:	18c00617 	ldw	r3,24(r3)
 8001f08:	10c00015 	stw	r3,0(r2)
	*bullet_2_x_6 = bullet2->x[6];
 8001f0c:	d0a01b17 	ldw	r2,-32660(gp)
 8001f10:	e0c00317 	ldw	r3,12(fp)
 8001f14:	18c00717 	ldw	r3,28(r3)
 8001f18:	10c00015 	stw	r3,0(r2)
	*bullet_2_x_7 = bullet2->x[7];
 8001f1c:	d0a01c17 	ldw	r2,-32656(gp)
 8001f20:	e0c00317 	ldw	r3,12(fp)
 8001f24:	18c00817 	ldw	r3,32(r3)
 8001f28:	10c00015 	stw	r3,0(r2)
	*bullet_2_x_8 = bullet2->x[8];
 8001f2c:	d0a01d17 	ldw	r2,-32652(gp)
 8001f30:	e0c00317 	ldw	r3,12(fp)
 8001f34:	18c00917 	ldw	r3,36(r3)
 8001f38:	10c00015 	stw	r3,0(r2)
	*bullet_2_x_9 = bullet2->x[9];
 8001f3c:	d0a01e17 	ldw	r2,-32648(gp)
 8001f40:	e0c00317 	ldw	r3,12(fp)
 8001f44:	18c00a17 	ldw	r3,40(r3)
 8001f48:	10c00015 	stw	r3,0(r2)
	*bullet_2_y_0 = bullet2->y[0];
 8001f4c:	d0a01f17 	ldw	r2,-32644(gp)
 8001f50:	e0c00317 	ldw	r3,12(fp)
 8001f54:	18c00b17 	ldw	r3,44(r3)
 8001f58:	10c00015 	stw	r3,0(r2)
	*bullet_2_y_1 = bullet2->y[1];
 8001f5c:	d0a02017 	ldw	r2,-32640(gp)
 8001f60:	e0c00317 	ldw	r3,12(fp)
 8001f64:	18c00c17 	ldw	r3,48(r3)
 8001f68:	10c00015 	stw	r3,0(r2)
	*bullet_2_y_2 = bullet2->y[2];
 8001f6c:	d0a02117 	ldw	r2,-32636(gp)
 8001f70:	e0c00317 	ldw	r3,12(fp)
 8001f74:	18c00d17 	ldw	r3,52(r3)
 8001f78:	10c00015 	stw	r3,0(r2)
	*bullet_2_y_3 = bullet2->y[3];
 8001f7c:	d0a02217 	ldw	r2,-32632(gp)
 8001f80:	e0c00317 	ldw	r3,12(fp)
 8001f84:	18c00e17 	ldw	r3,56(r3)
 8001f88:	10c00015 	stw	r3,0(r2)
	*bullet_2_y_4 = bullet2->y[4];
 8001f8c:	d0a02317 	ldw	r2,-32628(gp)
 8001f90:	e0c00317 	ldw	r3,12(fp)
 8001f94:	18c00f17 	ldw	r3,60(r3)
 8001f98:	10c00015 	stw	r3,0(r2)
	*bullet_2_y_5 = bullet2->y[5];
 8001f9c:	d0a02417 	ldw	r2,-32624(gp)
 8001fa0:	e0c00317 	ldw	r3,12(fp)
 8001fa4:	18c01017 	ldw	r3,64(r3)
 8001fa8:	10c00015 	stw	r3,0(r2)
	*bullet_2_y_6 = bullet2->y[6];
 8001fac:	d0a02517 	ldw	r2,-32620(gp)
 8001fb0:	e0c00317 	ldw	r3,12(fp)
 8001fb4:	18c01117 	ldw	r3,68(r3)
 8001fb8:	10c00015 	stw	r3,0(r2)
	*bullet_2_y_7 = bullet2->y[7];
 8001fbc:	d0a02617 	ldw	r2,-32616(gp)
 8001fc0:	e0c00317 	ldw	r3,12(fp)
 8001fc4:	18c01217 	ldw	r3,72(r3)
 8001fc8:	10c00015 	stw	r3,0(r2)
	*bullet_2_y_8 = bullet2->y[8];
 8001fcc:	d0a02717 	ldw	r2,-32612(gp)
 8001fd0:	e0c00317 	ldw	r3,12(fp)
 8001fd4:	18c01317 	ldw	r3,76(r3)
 8001fd8:	10c00015 	stw	r3,0(r2)
	*bullet_2_y_9 = bullet2->y[9];
 8001fdc:	d0a02817 	ldw	r2,-32608(gp)
 8001fe0:	e0c00317 	ldw	r3,12(fp)
 8001fe4:	18c01417 	ldw	r3,80(r3)
 8001fe8:	10c00015 	stw	r3,0(r2)
}
 8001fec:	0001883a 	nop
 8001ff0:	e037883a 	mov	sp,fp
 8001ff4:	df000017 	ldw	fp,0(sp)
 8001ff8:	dec00104 	addi	sp,sp,4
 8001ffc:	f800283a 	ret

08002000 <test_round>:

/*
 * test movement
 */
void test_round(int *game_start, ship_t *ship, ship_t *ship2, torpedo_t *torpedo1, torpedo_t *torpedo2, bullet_t *bullet1, bullet_t *bullet2){
 8002000:	defff704 	addi	sp,sp,-36
 8002004:	dfc00815 	stw	ra,32(sp)
 8002008:	df000715 	stw	fp,28(sp)
 800200c:	df000704 	addi	fp,sp,28
 8002010:	e13ffc15 	stw	r4,-16(fp)
 8002014:	e17ffd15 	stw	r5,-12(fp)
 8002018:	e1bffe15 	stw	r6,-8(fp)
 800201c:	e1ffff15 	stw	r7,-4(fp)
	ship_init(ship, ship2);
 8002020:	e17ffe17 	ldw	r5,-8(fp)
 8002024:	e13ffd17 	ldw	r4,-12(fp)
 8002028:	80024e40 	call	80024e4 <ship_init>
	init_tor(torpedo1, SHIP2);
 800202c:	01400044 	movi	r5,1
 8002030:	e13fff17 	ldw	r4,-4(fp)
 8002034:	800367c0 	call	800367c <init_tor>
	init_tor(torpedo2, SHIP1);
 8002038:	000b883a 	mov	r5,zero
 800203c:	e1000217 	ldw	r4,8(fp)
 8002040:	800367c0 	call	800367c <init_tor>
	init_bullet(bullet1, bullet2);
 8002044:	e1400417 	ldw	r5,16(fp)
 8002048:	e1000317 	ldw	r4,12(fp)
 800204c:	8000be00 	call	8000be0 <init_bullet>
	while(*game_start == 1){
 8002050:	00001f06 	br	80020d0 <test_round+0xd0>
		// use key code update saber state, vx and vy
		key_event(game_start, ship, ship2, torpedo1, torpedo2);
 8002054:	e0800217 	ldw	r2,8(fp)
 8002058:	d8800015 	stw	r2,0(sp)
 800205c:	e1ffff17 	ldw	r7,-4(fp)
 8002060:	e1bffe17 	ldw	r6,-8(fp)
 8002064:	e17ffd17 	ldw	r5,-12(fp)
 8002068:	e13ffc17 	ldw	r4,-16(fp)
 800206c:	80013480 	call	8001348 <key_event>
		game_update(game_start, ship, ship2, torpedo1, torpedo2, bullet1, bullet2);
 8002070:	e0800417 	ldw	r2,16(fp)
 8002074:	d8800215 	stw	r2,8(sp)
 8002078:	e0800317 	ldw	r2,12(fp)
 800207c:	d8800115 	stw	r2,4(sp)
 8002080:	e0800217 	ldw	r2,8(fp)
 8002084:	d8800015 	stw	r2,0(sp)
 8002088:	e1ffff17 	ldw	r7,-4(fp)
 800208c:	e1bffe17 	ldw	r6,-8(fp)
 8002090:	e17ffd17 	ldw	r5,-12(fp)
 8002094:	e13ffc17 	ldw	r4,-16(fp)
 8002098:	80018740 	call	8001874 <game_update>
		if(ship->state == DEAD || ship2->state == DEAD)
 800209c:	e0bffd17 	ldw	r2,-12(fp)
 80020a0:	10800817 	ldw	r2,32(r2)
 80020a4:	10800160 	cmpeqi	r2,r2,5
 80020a8:	1000041e 	bne	r2,zero,80020bc <test_round+0xbc>
 80020ac:	e0bffe17 	ldw	r2,-8(fp)
 80020b0:	10800817 	ldw	r2,32(r2)
 80020b4:	10800158 	cmpnei	r2,r2,5
 80020b8:	1000051e 	bne	r2,zero,80020d0 <test_round+0xd0>
		{
			*game_start = 0;
 80020bc:	e0bffc17 	ldw	r2,-16(fp)
 80020c0:	10000015 	stw	zero,0(r2)
			printf("GAME OVER\n");
 80020c4:	01020074 	movhi	r4,2049
 80020c8:	21133b04 	addi	r4,r4,19692
 80020cc:	80064680 	call	8006468 <puts>
void test_round(int *game_start, ship_t *ship, ship_t *ship2, torpedo_t *torpedo1, torpedo_t *torpedo2, bullet_t *bullet1, bullet_t *bullet2){
	ship_init(ship, ship2);
	init_tor(torpedo1, SHIP2);
	init_tor(torpedo2, SHIP1);
	init_bullet(bullet1, bullet2);
	while(*game_start == 1){
 80020d0:	e0bffc17 	ldw	r2,-16(fp)
 80020d4:	10800017 	ldw	r2,0(r2)
 80020d8:	10800060 	cmpeqi	r2,r2,1
 80020dc:	103fdd1e 	bne	r2,zero,8002054 <__alt_data_end+0xf8002054>
		{
			*game_start = 0;
			printf("GAME OVER\n");
		}
	}
}
 80020e0:	0001883a 	nop
 80020e4:	e037883a 	mov	sp,fp
 80020e8:	dfc00117 	ldw	ra,4(sp)
 80020ec:	df000017 	ldw	fp,0(sp)
 80020f0:	dec00204 	addi	sp,sp,8
 80020f4:	f800283a 	ret

080020f8 <main>:

int main(){
 80020f8:	deff5204 	addi	sp,sp,-696
 80020fc:	dfc0ad15 	stw	ra,692(sp)
 8002100:	df00ac15 	stw	fp,688(sp)
 8002104:	df00ac04 	addi	fp,sp,688
	printf("start");
 8002108:	01020074 	movhi	r4,2049
 800210c:	21133e04 	addi	r4,r4,19704
 8002110:	800636c0 	call	800636c <printf>
	ship_t ship1, ship2;
	bullet_t bullet1, bullet2;
	torpedo_t torpedo1, torpedo2;
	int game_start = 0;
 8002114:	e03f5715 	stw	zero,-676(fp)
	usb_init();		// initialize usb
 8002118:	80049900 	call	8004990 <usb_init>
	developer_mode = 0;
 800211c:	d0271f15 	stw	zero,-25476(gp)
	int frame_time = 2;
 8002120:	00800084 	movi	r2,2
 8002124:	e0bf5815 	stw	r2,-672(fp)
	while(1){
		win = 0;
 8002128:	d0272015 	stw	zero,-25472(gp)
		printf("start");
 800212c:	01020074 	movhi	r4,2049
 8002130:	21133e04 	addi	r4,r4,19704
 8002134:	800636c0 	call	800636c <printf>
		ship_init(&ship1, &ship2);
 8002138:	e0ff6b04 	addi	r3,fp,-596
 800213c:	e0bf5904 	addi	r2,fp,-668
 8002140:	180b883a 	mov	r5,r3
 8002144:	1009883a 	mov	r4,r2
 8002148:	80024e40 	call	80024e4 <ship_init>
		int player1_ready = 0;
 800214c:	e03ffd15 	stw	zero,-12(fp)
		int player2_ready = 0;
 8002150:	e03ffe15 	stw	zero,-8(fp)
		while(!(player1_ready && player2_ready)){
 8002154:	00001206 	br	80021a0 <main+0xa8>
			choose_ship(&player1_ready, &player2_ready, &ship1, &ship2);
 8002158:	e17f6b04 	addi	r5,fp,-596
 800215c:	e13f5904 	addi	r4,fp,-668
 8002160:	e0fffe04 	addi	r3,fp,-8
 8002164:	e0bffd04 	addi	r2,fp,-12
 8002168:	280f883a 	mov	r7,r5
 800216c:	200d883a 	mov	r6,r4
 8002170:	180b883a 	mov	r5,r3
 8002174:	1009883a 	mov	r4,r2
 8002178:	8000d440 	call	8000d44 <choose_ship>
			ship_choose_update(&player1_ready, &player2_ready, &ship1, &ship2);
 800217c:	e17f6b04 	addi	r5,fp,-596
 8002180:	e13f5904 	addi	r4,fp,-668
 8002184:	e0fffe04 	addi	r3,fp,-8
 8002188:	e0bffd04 	addi	r2,fp,-12
 800218c:	280f883a 	mov	r7,r5
 8002190:	200d883a 	mov	r6,r4
 8002194:	180b883a 	mov	r5,r3
 8002198:	1009883a 	mov	r4,r2
 800219c:	80019800 	call	8001980 <ship_choose_update>
		win = 0;
		printf("start");
		ship_init(&ship1, &ship2);
		int player1_ready = 0;
		int player2_ready = 0;
		while(!(player1_ready && player2_ready)){
 80021a0:	e0bffd17 	ldw	r2,-12(fp)
 80021a4:	103fec26 	beq	r2,zero,8002158 <__alt_data_end+0xf8002158>
 80021a8:	e0bffe17 	ldw	r2,-8(fp)
 80021ac:	103fea26 	beq	r2,zero,8002158 <__alt_data_end+0xf8002158>
			choose_ship(&player1_ready, &player2_ready, &ship1, &ship2);
			ship_choose_update(&player1_ready, &player2_ready, &ship1, &ship2);
		}
		printf("choose ship ready\n");
 80021b0:	01020074 	movhi	r4,2049
 80021b4:	21134004 	addi	r4,r4,19712
 80021b8:	80064680 	call	8006468 <puts>

		int game_start = 0;
 80021bc:	e03fff15 	stw	zero,-4(fp)
		while(game_start == 0){
 80021c0:	00001a06 	br	800222c <main+0x134>
			key_event(&game_start, &ship1, &ship2, &torpedo1, &torpedo2);
 80021c4:	e1bfd104 	addi	r6,fp,-188
 80021c8:	e17f6b04 	addi	r5,fp,-596
 80021cc:	e13f5904 	addi	r4,fp,-668
 80021d0:	e0ffff04 	addi	r3,fp,-4
 80021d4:	e0bfe704 	addi	r2,fp,-100
 80021d8:	d8800015 	stw	r2,0(sp)
 80021dc:	300f883a 	mov	r7,r6
 80021e0:	280d883a 	mov	r6,r5
 80021e4:	200b883a 	mov	r5,r4
 80021e8:	1809883a 	mov	r4,r3
 80021ec:	80013480 	call	8001348 <key_event>
			gamefile_update(&game_start, &ship1, &ship2, &torpedo1, &torpedo2, &bullet1, &bullet2);
 80021f0:	e1bfd104 	addi	r6,fp,-188
 80021f4:	e17f6b04 	addi	r5,fp,-596
 80021f8:	e13f5904 	addi	r4,fp,-668
 80021fc:	e0ffff04 	addi	r3,fp,-4
 8002200:	e0bfa704 	addi	r2,fp,-356
 8002204:	d8800215 	stw	r2,8(sp)
 8002208:	e0bf7d04 	addi	r2,fp,-524
 800220c:	d8800115 	stw	r2,4(sp)
 8002210:	e0bfe704 	addi	r2,fp,-100
 8002214:	d8800015 	stw	r2,0(sp)
 8002218:	300f883a 	mov	r7,r6
 800221c:	280d883a 	mov	r6,r5
 8002220:	200b883a 	mov	r5,r4
 8002224:	1809883a 	mov	r4,r3
 8002228:	8001a000 	call	8001a00 <gamefile_update>
			ship_choose_update(&player1_ready, &player2_ready, &ship1, &ship2);
		}
		printf("choose ship ready\n");

		int game_start = 0;
		while(game_start == 0){
 800222c:	e0bfff17 	ldw	r2,-4(fp)
 8002230:	103fe426 	beq	r2,zero,80021c4 <__alt_data_end+0xf80021c4>
			key_event(&game_start, &ship1, &ship2, &torpedo1, &torpedo2);
			gamefile_update(&game_start, &ship1, &ship2, &torpedo1, &torpedo2, &bullet1, &bullet2);
		}
		printf("game start\n");
 8002234:	01020074 	movhi	r4,2049
 8002238:	21134504 	addi	r4,r4,19732
 800223c:	80064680 	call	8006468 <puts>

		while (1){
			frame_clock(frame_time);
 8002240:	e13f5817 	ldw	r4,-672(fp)
 8002244:	8005f540 	call	8005f54 <__floatsidf>
 8002248:	100b883a 	mov	r5,r2
 800224c:	180d883a 	mov	r6,r3
 8002250:	2809883a 	mov	r4,r5
 8002254:	300b883a 	mov	r5,r6
 8002258:	80012900 	call	8001290 <frame_clock>
			// wait until next clock
			test_round(&game_start, &ship1, &ship2, &torpedo1, &torpedo2, &bullet1, &bullet2);
 800225c:	e1bfd104 	addi	r6,fp,-188
 8002260:	e17f6b04 	addi	r5,fp,-596
 8002264:	e13f5904 	addi	r4,fp,-668
 8002268:	e0ffff04 	addi	r3,fp,-4
 800226c:	e0bfa704 	addi	r2,fp,-356
 8002270:	d8800215 	stw	r2,8(sp)
 8002274:	e0bf7d04 	addi	r2,fp,-524
 8002278:	d8800115 	stw	r2,4(sp)
 800227c:	e0bfe704 	addi	r2,fp,-100
 8002280:	d8800015 	stw	r2,0(sp)
 8002284:	300f883a 	mov	r7,r6
 8002288:	280d883a 	mov	r6,r5
 800228c:	200b883a 	mov	r5,r4
 8002290:	1809883a 	mov	r4,r3
 8002294:	80020000 	call	8002000 <test_round>
			if (game_start == 0){
 8002298:	e0bfff17 	ldw	r2,-4(fp)
 800229c:	103fe81e 	bne	r2,zero,8002240 <__alt_data_end+0xf8002240>
				printf("back to initial\n");
 80022a0:	01020074 	movhi	r4,2049
 80022a4:	21134804 	addi	r4,r4,19744
 80022a8:	80064680 	call	8006468 <puts>
				break;
 80022ac:	0001883a 	nop
		// 	key_event(&game_start, &saber);
		// 	gamefile_update(&game_start, &saber);
		// 	if (game_start == 0){goto GAME_INITIAL;}
		// }
		// printf("saber vx :%x\n", saber.vx);
	}
 80022b0:	003f9d06 	br	8002128 <__alt_data_end+0xf8002128>

080022b4 <press_w>:
#include "ship_logic.h"
#include <stdio.h>

void press_w(ship_t *saber){
 80022b4:	defffe04 	addi	sp,sp,-8
 80022b8:	df000115 	stw	fp,4(sp)
 80022bc:	df000104 	addi	fp,sp,4
 80022c0:	e13fff15 	stw	r4,-4(fp)
    if (saber->vy > -VY_MOST){
 80022c4:	e0bfff17 	ldw	r2,-4(fp)
 80022c8:	10800417 	ldw	r2,16(r2)
 80022cc:	10bffed0 	cmplti	r2,r2,-5
 80022d0:	1000051e 	bne	r2,zero,80022e8 <press_w+0x34>
    	saber->vy--;
 80022d4:	e0bfff17 	ldw	r2,-4(fp)
 80022d8:	10800417 	ldw	r2,16(r2)
 80022dc:	10ffffc4 	addi	r3,r2,-1
 80022e0:	e0bfff17 	ldw	r2,-4(fp)
 80022e4:	10c00415 	stw	r3,16(r2)
    }
}
 80022e8:	0001883a 	nop
 80022ec:	e037883a 	mov	sp,fp
 80022f0:	df000017 	ldw	fp,0(sp)
 80022f4:	dec00104 	addi	sp,sp,4
 80022f8:	f800283a 	ret

080022fc <press_s>:

void press_s(ship_t *saber){
 80022fc:	defffe04 	addi	sp,sp,-8
 8002300:	df000115 	stw	fp,4(sp)
 8002304:	df000104 	addi	fp,sp,4
 8002308:	e13fff15 	stw	r4,-4(fp)
    if (saber->vy < VY_MOST){
 800230c:	e0bfff17 	ldw	r2,-4(fp)
 8002310:	10800417 	ldw	r2,16(r2)
 8002314:	10800188 	cmpgei	r2,r2,6
 8002318:	1000051e 	bne	r2,zero,8002330 <press_s+0x34>
    	saber->vy++;
 800231c:	e0bfff17 	ldw	r2,-4(fp)
 8002320:	10800417 	ldw	r2,16(r2)
 8002324:	10c00044 	addi	r3,r2,1
 8002328:	e0bfff17 	ldw	r2,-4(fp)
 800232c:	10c00415 	stw	r3,16(r2)
    }
}
 8002330:	0001883a 	nop
 8002334:	e037883a 	mov	sp,fp
 8002338:	df000017 	ldw	fp,0(sp)
 800233c:	dec00104 	addi	sp,sp,4
 8002340:	f800283a 	ret

08002344 <press_a>:

void press_a(ship_t *saber){
 8002344:	defffe04 	addi	sp,sp,-8
 8002348:	df000115 	stw	fp,4(sp)
 800234c:	df000104 	addi	fp,sp,4
 8002350:	e13fff15 	stw	r4,-4(fp)
	if (saber->state == STOP){
 8002354:	e0bfff17 	ldw	r2,-4(fp)
 8002358:	10800817 	ldw	r2,32(r2)
 800235c:	10000c1e 	bne	r2,zero,8002390 <press_a+0x4c>
		saber->state = WALK_LEFT1;
 8002360:	e0bfff17 	ldw	r2,-4(fp)
 8002364:	00c00084 	movi	r3,2
 8002368:	10c00815 	stw	r3,32(r2)
		saber->vx--;
 800236c:	e0bfff17 	ldw	r2,-4(fp)
 8002370:	10800317 	ldw	r2,12(r2)
 8002374:	10ffffc4 	addi	r3,r2,-1
 8002378:	e0bfff17 	ldw	r2,-4(fp)
 800237c:	10c00315 	stw	r3,12(r2)
		saber->FaceDirection = LEFT;
 8002380:	e0bfff17 	ldw	r2,-4(fp)
 8002384:	00c00044 	movi	r3,1
 8002388:	10c00715 	stw	r3,28(r2)
	else if(saber->state == WALK_RIGHT1){
		saber->state = WALK_LEFT1;
		saber -> vx--;
		saber->FaceDirection = LEFT;
	}
}
 800238c:	00001d06 	br	8002404 <press_a+0xc0>
	if (saber->state == STOP){
		saber->state = WALK_LEFT1;
		saber->vx--;
		saber->FaceDirection = LEFT;
	}
	else if (saber->state == WALK_LEFT1 ){
 8002390:	e0bfff17 	ldw	r2,-4(fp)
 8002394:	10800817 	ldw	r2,32(r2)
 8002398:	10800098 	cmpnei	r2,r2,2
 800239c:	10000a1e 	bne	r2,zero,80023c8 <press_a+0x84>
		if (saber->vx > -VX_MOST){
 80023a0:	e0bfff17 	ldw	r2,-4(fp)
 80023a4:	10800317 	ldw	r2,12(r2)
 80023a8:	10bffe50 	cmplti	r2,r2,-7
 80023ac:	1000151e 	bne	r2,zero,8002404 <press_a+0xc0>
			saber->vx--;
 80023b0:	e0bfff17 	ldw	r2,-4(fp)
 80023b4:	10800317 	ldw	r2,12(r2)
 80023b8:	10ffffc4 	addi	r3,r2,-1
 80023bc:	e0bfff17 	ldw	r2,-4(fp)
 80023c0:	10c00315 	stw	r3,12(r2)
	else if(saber->state == WALK_RIGHT1){
		saber->state = WALK_LEFT1;
		saber -> vx--;
		saber->FaceDirection = LEFT;
	}
}
 80023c4:	00000f06 	br	8002404 <press_a+0xc0>
	else if (saber->state == WALK_LEFT1 ){
		if (saber->vx > -VX_MOST){
			saber->vx--;
		}
	}
	else if(saber->state == WALK_RIGHT1){
 80023c8:	e0bfff17 	ldw	r2,-4(fp)
 80023cc:	10800817 	ldw	r2,32(r2)
 80023d0:	108000d8 	cmpnei	r2,r2,3
 80023d4:	10000b1e 	bne	r2,zero,8002404 <press_a+0xc0>
		saber->state = WALK_LEFT1;
 80023d8:	e0bfff17 	ldw	r2,-4(fp)
 80023dc:	00c00084 	movi	r3,2
 80023e0:	10c00815 	stw	r3,32(r2)
		saber -> vx--;
 80023e4:	e0bfff17 	ldw	r2,-4(fp)
 80023e8:	10800317 	ldw	r2,12(r2)
 80023ec:	10ffffc4 	addi	r3,r2,-1
 80023f0:	e0bfff17 	ldw	r2,-4(fp)
 80023f4:	10c00315 	stw	r3,12(r2)
		saber->FaceDirection = LEFT;
 80023f8:	e0bfff17 	ldw	r2,-4(fp)
 80023fc:	00c00044 	movi	r3,1
 8002400:	10c00715 	stw	r3,28(r2)
	}
}
 8002404:	0001883a 	nop
 8002408:	e037883a 	mov	sp,fp
 800240c:	df000017 	ldw	fp,0(sp)
 8002410:	dec00104 	addi	sp,sp,4
 8002414:	f800283a 	ret

08002418 <press_d>:

void press_d(ship_t *saber){
 8002418:	defffe04 	addi	sp,sp,-8
 800241c:	df000115 	stw	fp,4(sp)
 8002420:	df000104 	addi	fp,sp,4
 8002424:	e13fff15 	stw	r4,-4(fp)
	if (saber->state == STOP){
 8002428:	e0bfff17 	ldw	r2,-4(fp)
 800242c:	10800817 	ldw	r2,32(r2)
 8002430:	10000b1e 	bne	r2,zero,8002460 <press_d+0x48>
		saber->vx++;
 8002434:	e0bfff17 	ldw	r2,-4(fp)
 8002438:	10800317 	ldw	r2,12(r2)
 800243c:	10c00044 	addi	r3,r2,1
 8002440:	e0bfff17 	ldw	r2,-4(fp)
 8002444:	10c00315 	stw	r3,12(r2)
		saber->state = WALK_RIGHT1;
 8002448:	e0bfff17 	ldw	r2,-4(fp)
 800244c:	00c000c4 	movi	r3,3
 8002450:	10c00815 	stw	r3,32(r2)
		saber->FaceDirection = RIGHT;
 8002454:	e0bfff17 	ldw	r2,-4(fp)
 8002458:	10000715 	stw	zero,28(r2)
	else if(saber->state == WALK_LEFT1){
		saber->state = WALK_RIGHT1;
		saber -> vx++;
		saber->FaceDirection = RIGHT;
	}
}
 800245c:	00001c06 	br	80024d0 <press_d+0xb8>
	if (saber->state == STOP){
		saber->vx++;
		saber->state = WALK_RIGHT1;
		saber->FaceDirection = RIGHT;
	}
	else if (saber->state == WALK_RIGHT1 ){
 8002460:	e0bfff17 	ldw	r2,-4(fp)
 8002464:	10800817 	ldw	r2,32(r2)
 8002468:	108000d8 	cmpnei	r2,r2,3
 800246c:	10000a1e 	bne	r2,zero,8002498 <press_d+0x80>
		if (saber->vx < VX_MOST){
 8002470:	e0bfff17 	ldw	r2,-4(fp)
 8002474:	10800317 	ldw	r2,12(r2)
 8002478:	10800208 	cmpgei	r2,r2,8
 800247c:	1000141e 	bne	r2,zero,80024d0 <press_d+0xb8>
			saber->vx++;
 8002480:	e0bfff17 	ldw	r2,-4(fp)
 8002484:	10800317 	ldw	r2,12(r2)
 8002488:	10c00044 	addi	r3,r2,1
 800248c:	e0bfff17 	ldw	r2,-4(fp)
 8002490:	10c00315 	stw	r3,12(r2)
	else if(saber->state == WALK_LEFT1){
		saber->state = WALK_RIGHT1;
		saber -> vx++;
		saber->FaceDirection = RIGHT;
	}
}
 8002494:	00000e06 	br	80024d0 <press_d+0xb8>
	else if (saber->state == WALK_RIGHT1 ){
		if (saber->vx < VX_MOST){
			saber->vx++;
		}
	}
	else if(saber->state == WALK_LEFT1){
 8002498:	e0bfff17 	ldw	r2,-4(fp)
 800249c:	10800817 	ldw	r2,32(r2)
 80024a0:	10800098 	cmpnei	r2,r2,2
 80024a4:	10000a1e 	bne	r2,zero,80024d0 <press_d+0xb8>
		saber->state = WALK_RIGHT1;
 80024a8:	e0bfff17 	ldw	r2,-4(fp)
 80024ac:	00c000c4 	movi	r3,3
 80024b0:	10c00815 	stw	r3,32(r2)
		saber -> vx++;
 80024b4:	e0bfff17 	ldw	r2,-4(fp)
 80024b8:	10800317 	ldw	r2,12(r2)
 80024bc:	10c00044 	addi	r3,r2,1
 80024c0:	e0bfff17 	ldw	r2,-4(fp)
 80024c4:	10c00315 	stw	r3,12(r2)
		saber->FaceDirection = RIGHT;
 80024c8:	e0bfff17 	ldw	r2,-4(fp)
 80024cc:	10000715 	stw	zero,28(r2)
	}
}
 80024d0:	0001883a 	nop
 80024d4:	e037883a 	mov	sp,fp
 80024d8:	df000017 	ldw	fp,0(sp)
 80024dc:	dec00104 	addi	sp,sp,4
 80024e0:	f800283a 	ret

080024e4 <ship_init>:
// 		saber-> Excalibur_remain --;
// 	}
// }


void ship_init(ship_t *ship, ship_t *ship2){
 80024e4:	defffd04 	addi	sp,sp,-12
 80024e8:	df000215 	stw	fp,8(sp)
 80024ec:	df000204 	addi	fp,sp,8
 80024f0:	e13ffe15 	stw	r4,-8(fp)
 80024f4:	e17fff15 	stw	r5,-4(fp)
	ship -> exist = 1;
 80024f8:	e0bffe17 	ldw	r2,-8(fp)
 80024fc:	00c00044 	movi	r3,1
 8002500:	10c00015 	stw	r3,0(r2)
	ship -> vx = 0;
 8002504:	e0bffe17 	ldw	r2,-8(fp)
 8002508:	10000315 	stw	zero,12(r2)
	ship -> vy = 0;
 800250c:	e0bffe17 	ldw	r2,-8(fp)
 8002510:	10000415 	stw	zero,16(r2)
	ship -> x = INIT_X;
 8002514:	e0bffe17 	ldw	r2,-8(fp)
 8002518:	00c00c84 	movi	r3,50
 800251c:	10c00115 	stw	r3,4(r2)
	ship -> y = INIT_Y;
 8002520:	e0bffe17 	ldw	r2,-8(fp)
 8002524:	00c03c04 	movi	r3,240
 8002528:	10c00215 	stw	r3,8(r2)
	ship -> HP = 50;
 800252c:	e0bffe17 	ldw	r2,-8(fp)
 8002530:	00c00c84 	movi	r3,50
 8002534:	10c00515 	stw	r3,20(r2)
	ship -> ATK = 3;
 8002538:	e0bffe17 	ldw	r2,-8(fp)
 800253c:	00c000c4 	movi	r3,3
 8002540:	10c00615 	stw	r3,24(r2)
	ship -> state = WALK_RIGHT1;
 8002544:	e0bffe17 	ldw	r2,-8(fp)
 8002548:	00c000c4 	movi	r3,3
 800254c:	10c00815 	stw	r3,32(r2)
	ship -> state_count = 0;
 8002550:	e0bffe17 	ldw	r2,-8(fp)
 8002554:	10000915 	stw	zero,36(r2)
	// ship -> Excalibur_state = EXCALIBURNULL;
	// ship -> Excalibur_damage = 5;
	// ship -> Excalibur_remain = 3;
	ship -> IsFighting = 0;
 8002558:	e0bffe17 	ldw	r2,-8(fp)
 800255c:	10000d15 	stw	zero,52(r2)
	ship -> FaceDirection = RIGHT;
 8002560:	e0bffe17 	ldw	r2,-8(fp)
 8002564:	10000715 	stw	zero,28(r2)
	ship -> injuring =0;
 8002568:	e0bffe17 	ldw	r2,-8(fp)
 800256c:	10000e15 	stw	zero,56(r2)
	ship->choose_ship = 0;
 8002570:	e0bffe17 	ldw	r2,-8(fp)
 8002574:	10001015 	stw	zero,64(r2)
	ship->ship_choose_ready = 0;
 8002578:	e0bffe17 	ldw	r2,-8(fp)
 800257c:	10001115 	stw	zero,68(r2)

	ship2 -> exist = 1;
 8002580:	e0bfff17 	ldw	r2,-4(fp)
 8002584:	00c00044 	movi	r3,1
 8002588:	10c00015 	stw	r3,0(r2)
	ship2 -> vx = 0;
 800258c:	e0bfff17 	ldw	r2,-4(fp)
 8002590:	10000315 	stw	zero,12(r2)
	ship2 -> vy = 0;
 8002594:	e0bfff17 	ldw	r2,-4(fp)
 8002598:	10000415 	stw	zero,16(r2)
	ship2 -> x = INIT_X2;
 800259c:	e0bfff17 	ldw	r2,-4(fp)
 80025a0:	00c04b04 	movi	r3,300
 80025a4:	10c00115 	stw	r3,4(r2)
	ship2 -> y = INIT_Y2;
 80025a8:	e0bfff17 	ldw	r2,-4(fp)
 80025ac:	00c03c04 	movi	r3,240
 80025b0:	10c00215 	stw	r3,8(r2)
	ship2 -> HP = 50;
 80025b4:	e0bfff17 	ldw	r2,-4(fp)
 80025b8:	00c00c84 	movi	r3,50
 80025bc:	10c00515 	stw	r3,20(r2)
	ship2 -> ATK = 3;
 80025c0:	e0bfff17 	ldw	r2,-4(fp)
 80025c4:	00c000c4 	movi	r3,3
 80025c8:	10c00615 	stw	r3,24(r2)
	ship2 -> state = WALK_RIGHT1;
 80025cc:	e0bfff17 	ldw	r2,-4(fp)
 80025d0:	00c000c4 	movi	r3,3
 80025d4:	10c00815 	stw	r3,32(r2)
	ship2 -> state_count = 0;
 80025d8:	e0bfff17 	ldw	r2,-4(fp)
 80025dc:	10000915 	stw	zero,36(r2)
	// ship2 -> Excalibur_state = EXCALIBURNULL;
	// ship2 -> Excalibur_damage = 5;
	// ship2 -> Excalibur_remain = 3;
	ship2 -> IsFighting = 0;
 80025e0:	e0bfff17 	ldw	r2,-4(fp)
 80025e4:	10000d15 	stw	zero,52(r2)
	ship2 -> FaceDirection = RIGHT;
 80025e8:	e0bfff17 	ldw	r2,-4(fp)
 80025ec:	10000715 	stw	zero,28(r2)
	ship2 -> injuring =0;
 80025f0:	e0bfff17 	ldw	r2,-4(fp)
 80025f4:	10000e15 	stw	zero,56(r2)
	ship2->choose_ship = 0;
 80025f8:	e0bfff17 	ldw	r2,-4(fp)
 80025fc:	10001015 	stw	zero,64(r2)
	ship2->ship_choose_ready = 0;
 8002600:	e0bfff17 	ldw	r2,-4(fp)
 8002604:	10001115 	stw	zero,68(r2)
}
 8002608:	0001883a 	nop
 800260c:	e037883a 	mov	sp,fp
 8002610:	df000017 	ldw	fp,0(sp)
 8002614:	dec00104 	addi	sp,sp,4
 8002618:	f800283a 	ret

0800261c <update>:


void update(ship_t *ship, ship_t *ship2){
 800261c:	defffc04 	addi	sp,sp,-16
 8002620:	dfc00315 	stw	ra,12(sp)
 8002624:	df000215 	stw	fp,8(sp)
 8002628:	df000204 	addi	fp,sp,8
 800262c:	e13ffe15 	stw	r4,-8(fp)
 8002630:	e17fff15 	stw	r5,-4(fp)
	ship -> x = ship ->x + ship->vx;
 8002634:	e0bffe17 	ldw	r2,-8(fp)
 8002638:	10c00117 	ldw	r3,4(r2)
 800263c:	e0bffe17 	ldw	r2,-8(fp)
 8002640:	10800317 	ldw	r2,12(r2)
 8002644:	1887883a 	add	r3,r3,r2
 8002648:	e0bffe17 	ldw	r2,-8(fp)
 800264c:	10c00115 	stw	r3,4(r2)
	ship -> y = ship ->y + ship->vy;
 8002650:	e0bffe17 	ldw	r2,-8(fp)
 8002654:	10c00217 	ldw	r3,8(r2)
 8002658:	e0bffe17 	ldw	r2,-8(fp)
 800265c:	10800417 	ldw	r2,16(r2)
 8002660:	1887883a 	add	r3,r3,r2
 8002664:	e0bffe17 	ldw	r2,-8(fp)
 8002668:	10c00215 	stw	r3,8(r2)
	ship2 -> x = ship2 ->x + ship2->vx;
 800266c:	e0bfff17 	ldw	r2,-4(fp)
 8002670:	10c00117 	ldw	r3,4(r2)
 8002674:	e0bfff17 	ldw	r2,-4(fp)
 8002678:	10800317 	ldw	r2,12(r2)
 800267c:	1887883a 	add	r3,r3,r2
 8002680:	e0bfff17 	ldw	r2,-4(fp)
 8002684:	10c00115 	stw	r3,4(r2)
	ship2 -> y = ship2 ->y + ship2->vy;
 8002688:	e0bfff17 	ldw	r2,-4(fp)
 800268c:	10c00217 	ldw	r3,8(r2)
 8002690:	e0bfff17 	ldw	r2,-4(fp)
 8002694:	10800417 	ldw	r2,16(r2)
 8002698:	1887883a 	add	r3,r3,r2
 800269c:	e0bfff17 	ldw	r2,-4(fp)
 80026a0:	10c00215 	stw	r3,8(r2)
	// 		saber->Excalibur_count = 0;
	// 	}
	// }

	// boundary check
	if (ship-> x < LEFT_MOST){ship-> x = LEFT_MOST;}
 80026a4:	e0bffe17 	ldw	r2,-8(fp)
 80026a8:	10800117 	ldw	r2,4(r2)
 80026ac:	10800848 	cmpgei	r2,r2,33
 80026b0:	1000031e 	bne	r2,zero,80026c0 <update+0xa4>
 80026b4:	e0bffe17 	ldw	r2,-8(fp)
 80026b8:	00c00844 	movi	r3,33
 80026bc:	10c00115 	stw	r3,4(r2)
	if (ship-> x > RIGHT_MOST){ship-> x = RIGHT_MOST;}
 80026c0:	e0bffe17 	ldw	r2,-8(fp)
 80026c4:	10800117 	ldw	r2,4(r2)
 80026c8:	10809810 	cmplti	r2,r2,608
 80026cc:	1000031e 	bne	r2,zero,80026dc <update+0xc0>
 80026d0:	e0bffe17 	ldw	r2,-8(fp)
 80026d4:	00c097c4 	movi	r3,607
 80026d8:	10c00115 	stw	r3,4(r2)
	if (ship-> y < UP_MOST){ship-> y = UP_MOST;}
 80026dc:	e0bffe17 	ldw	r2,-8(fp)
 80026e0:	10800217 	ldw	r2,8(r2)
 80026e4:	10800a08 	cmpgei	r2,r2,40
 80026e8:	1000031e 	bne	r2,zero,80026f8 <update+0xdc>
 80026ec:	e0bffe17 	ldw	r2,-8(fp)
 80026f0:	00c00a04 	movi	r3,40
 80026f4:	10c00215 	stw	r3,8(r2)
	if (ship-> y > DOWN_MOST){ship-> y = DOWN_MOST;}
 80026f8:	e0bffe17 	ldw	r2,-8(fp)
 80026fc:	10800217 	ldw	r2,8(r2)
 8002700:	108070d0 	cmplti	r2,r2,451
 8002704:	1000031e 	bne	r2,zero,8002714 <update+0xf8>
 8002708:	e0bffe17 	ldw	r2,-8(fp)
 800270c:	00c07084 	movi	r3,450
 8002710:	10c00215 	stw	r3,8(r2)

	if (ship2-> x < LEFT_MOST){ship2-> x = LEFT_MOST;}
 8002714:	e0bfff17 	ldw	r2,-4(fp)
 8002718:	10800117 	ldw	r2,4(r2)
 800271c:	10800848 	cmpgei	r2,r2,33
 8002720:	1000031e 	bne	r2,zero,8002730 <update+0x114>
 8002724:	e0bfff17 	ldw	r2,-4(fp)
 8002728:	00c00844 	movi	r3,33
 800272c:	10c00115 	stw	r3,4(r2)
	if (ship2-> x > RIGHT_MOST){ship2-> x = RIGHT_MOST;}
 8002730:	e0bfff17 	ldw	r2,-4(fp)
 8002734:	10800117 	ldw	r2,4(r2)
 8002738:	10809810 	cmplti	r2,r2,608
 800273c:	1000031e 	bne	r2,zero,800274c <update+0x130>
 8002740:	e0bfff17 	ldw	r2,-4(fp)
 8002744:	00c097c4 	movi	r3,607
 8002748:	10c00115 	stw	r3,4(r2)
	if (ship2-> y < UP_MOST){ship2-> y = UP_MOST;}
 800274c:	e0bfff17 	ldw	r2,-4(fp)
 8002750:	10800217 	ldw	r2,8(r2)
 8002754:	10800a08 	cmpgei	r2,r2,40
 8002758:	1000031e 	bne	r2,zero,8002768 <update+0x14c>
 800275c:	e0bfff17 	ldw	r2,-4(fp)
 8002760:	00c00a04 	movi	r3,40
 8002764:	10c00215 	stw	r3,8(r2)
	if (ship2-> y > DOWN_MOST){ship2-> y = DOWN_MOST;}
 8002768:	e0bfff17 	ldw	r2,-4(fp)
 800276c:	10800217 	ldw	r2,8(r2)
 8002770:	108070d0 	cmplti	r2,r2,451
 8002774:	1000031e 	bne	r2,zero,8002784 <update+0x168>
 8002778:	e0bfff17 	ldw	r2,-4(fp)
 800277c:	00c07084 	movi	r3,450
 8002780:	10c00215 	stw	r3,8(r2)

	update_helper(ship, ATTACK, ATTACK);
 8002784:	01800104 	movi	r6,4
 8002788:	01400104 	movi	r5,4
 800278c:	e13ffe17 	ldw	r4,-8(fp)
 8002790:	80028100 	call	8002810 <update_helper>
	// update_helper(ship, EXCALIBUR_LEFT1, EXCALIBUR_LEFT4);
	// update_helper(ship, EXCALIBUR_RIGHT1, EXCALIBUR_RIGHT4);

	update_helper(ship2, ATTACK, ATTACK);
 8002794:	01800104 	movi	r6,4
 8002798:	01400104 	movi	r5,4
 800279c:	e13fff17 	ldw	r4,-4(fp)
 80027a0:	80028100 	call	8002810 <update_helper>
	update_helper(ship2, ATTACK, ATTACK);
 80027a4:	01800104 	movi	r6,4
 80027a8:	01400104 	movi	r5,4
 80027ac:	e13fff17 	ldw	r4,-4(fp)
 80027b0:	80028100 	call	8002810 <update_helper>
	// update_helper(ship2, EXCALIBUR_RIGHT1, EXCALIBUR_RIGHT4);
	// update_helper(saber, GET_HITTED, saber->state);

	// update_helper(saber, POSE_LEFT1, POSE_LEFT2);
	// update_helper(saber, POSE_RIGHT1, POSE_RIGHT2);
}
 80027b4:	0001883a 	nop
 80027b8:	e037883a 	mov	sp,fp
 80027bc:	dfc00117 	ldw	ra,4(sp)
 80027c0:	df000017 	ldw	fp,0(sp)
 80027c4:	dec00204 	addi	sp,sp,8
 80027c8:	f800283a 	ret

080027cc <stop>:

void stop(ship_t *ship){
 80027cc:	defffe04 	addi	sp,sp,-8
 80027d0:	df000115 	stw	fp,4(sp)
 80027d4:	df000104 	addi	fp,sp,4
 80027d8:	e13fff15 	stw	r4,-4(fp)
	if(ship-> vx == 0 && ship-> vy == 0){
 80027dc:	e0bfff17 	ldw	r2,-4(fp)
 80027e0:	10800317 	ldw	r2,12(r2)
 80027e4:	1000051e 	bne	r2,zero,80027fc <stop+0x30>
 80027e8:	e0bfff17 	ldw	r2,-4(fp)
 80027ec:	10800417 	ldw	r2,16(r2)
 80027f0:	1000021e 	bne	r2,zero,80027fc <stop+0x30>
		ship->state = STOP;
 80027f4:	e0bfff17 	ldw	r2,-4(fp)
 80027f8:	10000815 	stw	zero,32(r2)
	}
}
 80027fc:	0001883a 	nop
 8002800:	e037883a 	mov	sp,fp
 8002804:	df000017 	ldw	fp,0(sp)
 8002808:	dec00104 	addi	sp,sp,4
 800280c:	f800283a 	ret

08002810 <update_helper>:

// help update the frame state information
void update_helper(ship_t *ship, int state_start, int state_end){
 8002810:	defffb04 	addi	sp,sp,-20
 8002814:	df000415 	stw	fp,16(sp)
 8002818:	df000404 	addi	fp,sp,16
 800281c:	e13ffd15 	stw	r4,-12(fp)
 8002820:	e17ffe15 	stw	r5,-8(fp)
 8002824:	e1bfff15 	stw	r6,-4(fp)
	int final_frame;
	final_frame = ship->FaceDirection == RIGHT? WALK_RIGHT1:WALK_LEFT1;
 8002828:	e0bffd17 	ldw	r2,-12(fp)
 800282c:	10800717 	ldw	r2,28(r2)
 8002830:	1000021e 	bne	r2,zero,800283c <update_helper+0x2c>
 8002834:	008000c4 	movi	r2,3
 8002838:	00000106 	br	8002840 <update_helper+0x30>
 800283c:	00800084 	movi	r2,2
 8002840:	e0bffc15 	stw	r2,-16(fp)
	if (ship->HP <= 0){
 8002844:	e0bffd17 	ldw	r2,-12(fp)
 8002848:	10800517 	ldw	r2,20(r2)
 800284c:	00800216 	blt	zero,r2,8002858 <update_helper+0x48>
		ship->exist = 0;
 8002850:	e0bffd17 	ldw	r2,-12(fp)
 8002854:	10000015 	stw	zero,0(r2)
	}
	if (ship->state >= state_start && ship->state<= state_end){
 8002858:	e0bffd17 	ldw	r2,-12(fp)
 800285c:	10c00817 	ldw	r3,32(r2)
 8002860:	e0bffe17 	ldw	r2,-8(fp)
 8002864:	18801a16 	blt	r3,r2,80028d0 <update_helper+0xc0>
 8002868:	e0bffd17 	ldw	r2,-12(fp)
 800286c:	10800817 	ldw	r2,32(r2)
 8002870:	e0ffff17 	ldw	r3,-4(fp)
 8002874:	18801616 	blt	r3,r2,80028d0 <update_helper+0xc0>
//		ship->vx = 0;
//		ship->vy = 0;
		if (ship->state_count ++ > STATE_COUNT_MAX){
 8002878:	e0bffd17 	ldw	r2,-12(fp)
 800287c:	10800917 	ldw	r2,36(r2)
 8002880:	11000044 	addi	r4,r2,1
 8002884:	e0fffd17 	ldw	r3,-12(fp)
 8002888:	19000915 	stw	r4,36(r3)
 800288c:	10800090 	cmplti	r2,r2,2
 8002890:	10000f1e 	bne	r2,zero,80028d0 <update_helper+0xc0>
			ship->state = (ship->state == state_end)? final_frame:ship->state+1;
 8002894:	e0bffd17 	ldw	r2,-12(fp)
 8002898:	10c00817 	ldw	r3,32(r2)
 800289c:	e0bfff17 	ldw	r2,-4(fp)
 80028a0:	18800426 	beq	r3,r2,80028b4 <update_helper+0xa4>
 80028a4:	e0bffd17 	ldw	r2,-12(fp)
 80028a8:	10800817 	ldw	r2,32(r2)
 80028ac:	10800044 	addi	r2,r2,1
 80028b0:	00000106 	br	80028b8 <update_helper+0xa8>
 80028b4:	e0bffc17 	ldw	r2,-16(fp)
 80028b8:	e0fffd17 	ldw	r3,-12(fp)
 80028bc:	18800815 	stw	r2,32(r3)
			ship->state_count = 0;
 80028c0:	e0bffd17 	ldw	r2,-12(fp)
 80028c4:	10000915 	stw	zero,36(r2)
			ship->IsFighting = 0;
 80028c8:	e0bffd17 	ldw	r2,-12(fp)
 80028cc:	10000d15 	stw	zero,52(r2)
		}
	}
}
 80028d0:	0001883a 	nop
 80028d4:	e037883a 	mov	sp,fp
 80028d8:	df000017 	ldw	fp,0(sp)
 80028dc:	dec00104 	addi	sp,sp,4
 80028e0:	f800283a 	ret

080028e4 <detect>:


int detect(ship_t *ship, int x, int y, int dis){
 80028e4:	defff704 	addi	sp,sp,-36
 80028e8:	dfc00815 	stw	ra,32(sp)
 80028ec:	df000715 	stw	fp,28(sp)
 80028f0:	dc000615 	stw	r16,24(sp)
 80028f4:	df000704 	addi	fp,sp,28
 80028f8:	e13ffb15 	stw	r4,-20(fp)
 80028fc:	e17ffc15 	stw	r5,-16(fp)
 8002900:	e1bffd15 	stw	r6,-12(fp)
 8002904:	e1fffe15 	stw	r7,-8(fp)
	int dis_x, dis_y;
	dis_x = ship->x - x;
 8002908:	e0bffb17 	ldw	r2,-20(fp)
 800290c:	10c00117 	ldw	r3,4(r2)
 8002910:	e0bffc17 	ldw	r2,-16(fp)
 8002914:	1885c83a 	sub	r2,r3,r2
 8002918:	e0bff915 	stw	r2,-28(fp)
	dis_y = ship->y - y;
 800291c:	e0bffb17 	ldw	r2,-20(fp)
 8002920:	10c00217 	ldw	r3,8(r2)
 8002924:	e0bffd17 	ldw	r2,-12(fp)
 8002928:	1885c83a 	sub	r2,r3,r2
 800292c:	e0bffa15 	stw	r2,-24(fp)
	if (dis_x*dis_x + dis_y*dis_y < dis*dis)
 8002930:	e17ff917 	ldw	r5,-28(fp)
 8002934:	e13ff917 	ldw	r4,-28(fp)
 8002938:	80054680 	call	8005468 <__mulsi3>
 800293c:	1021883a 	mov	r16,r2
 8002940:	e17ffa17 	ldw	r5,-24(fp)
 8002944:	e13ffa17 	ldw	r4,-24(fp)
 8002948:	80054680 	call	8005468 <__mulsi3>
 800294c:	80a1883a 	add	r16,r16,r2
 8002950:	e17ffe17 	ldw	r5,-8(fp)
 8002954:	e13ffe17 	ldw	r4,-8(fp)
 8002958:	80054680 	call	8005468 <__mulsi3>
 800295c:	8080020e 	bge	r16,r2,8002968 <detect+0x84>
		return 1;
 8002960:	00800044 	movi	r2,1
 8002964:	00000106 	br	800296c <detect+0x88>
	else
		return 0;
 8002968:	0005883a 	mov	r2,zero
}
 800296c:	e6ffff04 	addi	sp,fp,-4
 8002970:	dfc00217 	ldw	ra,8(sp)
 8002974:	df000117 	ldw	fp,4(sp)
 8002978:	dc000017 	ldw	r16,0(sp)
 800297c:	dec00304 	addi	sp,sp,12
 8002980:	f800283a 	ret

08002984 <detect_ship_attack>:

void detect_ship_attack(ship_t *ship1, ship_t *ship2){
 8002984:	defffb04 	addi	sp,sp,-20
 8002988:	dfc00415 	stw	ra,16(sp)
 800298c:	df000315 	stw	fp,12(sp)
 8002990:	df000304 	addi	fp,sp,12
 8002994:	e13ffe15 	stw	r4,-8(fp)
 8002998:	e17fff15 	stw	r5,-4(fp)
	int flag = detect(ship1, ship2->x, ship2->y, 40);
 800299c:	e0bfff17 	ldw	r2,-4(fp)
 80029a0:	10c00117 	ldw	r3,4(r2)
 80029a4:	e0bfff17 	ldw	r2,-4(fp)
 80029a8:	10800217 	ldw	r2,8(r2)
 80029ac:	01c00a04 	movi	r7,40
 80029b0:	100d883a 	mov	r6,r2
 80029b4:	180b883a 	mov	r5,r3
 80029b8:	e13ffe17 	ldw	r4,-8(fp)
 80029bc:	80028e40 	call	80028e4 <detect>
 80029c0:	e0bffd15 	stw	r2,-12(fp)
	if(flag){
 80029c4:	e0bffd17 	ldw	r2,-12(fp)
 80029c8:	10000926 	beq	r2,zero,80029f0 <detect_ship_attack+0x6c>
		ship1->vx = 0;
 80029cc:	e0bffe17 	ldw	r2,-8(fp)
 80029d0:	10000315 	stw	zero,12(r2)
		ship2->vx = 0;
 80029d4:	e0bfff17 	ldw	r2,-4(fp)
 80029d8:	10000315 	stw	zero,12(r2)
		ship1->vy = 0;
 80029dc:	e0bffe17 	ldw	r2,-8(fp)
 80029e0:	10000415 	stw	zero,16(r2)
		ship2->vy = 0;
 80029e4:	e0bfff17 	ldw	r2,-4(fp)
 80029e8:	10000415 	stw	zero,16(r2)
	}
	return ;
 80029ec:	0001883a 	nop
 80029f0:	0001883a 	nop
}
 80029f4:	e037883a 	mov	sp,fp
 80029f8:	dfc00117 	ldw	ra,4(sp)
 80029fc:	df000017 	ldw	fp,0(sp)
 8002a00:	dec00204 	addi	sp,sp,8
 8002a04:	f800283a 	ret

08002a08 <generate_tor>:
#include "torpedo.h"
#include "ship_logic.h"
#include <stdio.h>
#include "system.h"

void generate_tor(torpedo_t *torpedo, ship_t *ship, int target){
 8002a08:	defff804 	addi	sp,sp,-32
 8002a0c:	dfc00715 	stw	ra,28(sp)
 8002a10:	df000615 	stw	fp,24(sp)
 8002a14:	dc000515 	stw	r16,20(sp)
 8002a18:	df000604 	addi	fp,sp,24
 8002a1c:	e13ffc15 	stw	r4,-16(fp)
 8002a20:	e17ffd15 	stw	r5,-12(fp)
 8002a24:	e1bffe15 	stw	r6,-8(fp)
	if(!torpedo -> stop){
 8002a28:	e0bffc17 	ldw	r2,-16(fp)
 8002a2c:	10801417 	ldw	r2,80(r2)
 8002a30:	1000041e 	bne	r2,zero,8002a44 <generate_tor+0x3c>
		printf("The cooldown period has not yet passed");
 8002a34:	01020074 	movhi	r4,2049
 8002a38:	21134c04 	addi	r4,r4,19760
 8002a3c:	800636c0 	call	800636c <printf>
		return;
 8002a40:	0000af06 	br	8002d00 <generate_tor+0x2f8>
	}
	if (target == 1){
 8002a44:	e0bffe17 	ldw	r2,-8(fp)
 8002a48:	10800058 	cmpnei	r2,r2,1
 8002a4c:	1000581e 	bne	r2,zero,8002bb0 <generate_tor+0x1a8>
		torpedo->stop = 0;
 8002a50:	e0bffc17 	ldw	r2,-16(fp)
 8002a54:	10001415 	stw	zero,80(r2)
		torpedo->x[0] = ship->x-20;
 8002a58:	e0bffd17 	ldw	r2,-12(fp)
 8002a5c:	10800117 	ldw	r2,4(r2)
 8002a60:	10fffb04 	addi	r3,r2,-20
 8002a64:	e0bffc17 	ldw	r2,-16(fp)
 8002a68:	10c00015 	stw	r3,0(r2)
		torpedo->x[1] = ship->x-20;
 8002a6c:	e0bffd17 	ldw	r2,-12(fp)
 8002a70:	10800117 	ldw	r2,4(r2)
 8002a74:	10fffb04 	addi	r3,r2,-20
 8002a78:	e0bffc17 	ldw	r2,-16(fp)
 8002a7c:	10c00115 	stw	r3,4(r2)
		torpedo->x[2] = ship->x-20;
 8002a80:	e0bffd17 	ldw	r2,-12(fp)
 8002a84:	10800117 	ldw	r2,4(r2)
 8002a88:	10fffb04 	addi	r3,r2,-20
 8002a8c:	e0bffc17 	ldw	r2,-16(fp)
 8002a90:	10c00215 	stw	r3,8(r2)
		torpedo->x[3] = ship->x-20;
 8002a94:	e0bffd17 	ldw	r2,-12(fp)
 8002a98:	10800117 	ldw	r2,4(r2)
 8002a9c:	10fffb04 	addi	r3,r2,-20
 8002aa0:	e0bffc17 	ldw	r2,-16(fp)
 8002aa4:	10c00315 	stw	r3,12(r2)
		torpedo->y[0] = ship->y-20;
 8002aa8:	e0bffd17 	ldw	r2,-12(fp)
 8002aac:	10800217 	ldw	r2,8(r2)
 8002ab0:	10fffb04 	addi	r3,r2,-20
 8002ab4:	e0bffc17 	ldw	r2,-16(fp)
 8002ab8:	10c00415 	stw	r3,16(r2)

		for (int i=1; i<4; i++)
 8002abc:	00800044 	movi	r2,1
 8002ac0:	e0bffa15 	stw	r2,-24(fp)
 8002ac4:	00001306 	br	8002b14 <generate_tor+0x10c>
			torpedo->y[i] = torpedo->y[i-1] + 20;
 8002ac8:	e0bffa17 	ldw	r2,-24(fp)
 8002acc:	10bfffc4 	addi	r2,r2,-1
 8002ad0:	e0fffc17 	ldw	r3,-16(fp)
 8002ad4:	10800104 	addi	r2,r2,4
 8002ad8:	1085883a 	add	r2,r2,r2
 8002adc:	1085883a 	add	r2,r2,r2
 8002ae0:	1885883a 	add	r2,r3,r2
 8002ae4:	10800017 	ldw	r2,0(r2)
 8002ae8:	10c00504 	addi	r3,r2,20
 8002aec:	e13ffc17 	ldw	r4,-16(fp)
 8002af0:	e0bffa17 	ldw	r2,-24(fp)
 8002af4:	10800104 	addi	r2,r2,4
 8002af8:	1085883a 	add	r2,r2,r2
 8002afc:	1085883a 	add	r2,r2,r2
 8002b00:	2085883a 	add	r2,r4,r2
 8002b04:	10c00015 	stw	r3,0(r2)
		torpedo->x[1] = ship->x-20;
		torpedo->x[2] = ship->x-20;
		torpedo->x[3] = ship->x-20;
		torpedo->y[0] = ship->y-20;

		for (int i=1; i<4; i++)
 8002b08:	e0bffa17 	ldw	r2,-24(fp)
 8002b0c:	10800044 	addi	r2,r2,1
 8002b10:	e0bffa15 	stw	r2,-24(fp)
 8002b14:	e0bffa17 	ldw	r2,-24(fp)
 8002b18:	10800110 	cmplti	r2,r2,4
 8002b1c:	103fea1e 	bne	r2,zero,8002ac8 <__alt_data_end+0xf8002ac8>
			torpedo->y[i] = torpedo->y[i-1] + 20;

		torpedo->vx[0] = 4;
 8002b20:	e0bffc17 	ldw	r2,-16(fp)
 8002b24:	00c00104 	movi	r3,4
 8002b28:	10c00815 	stw	r3,32(r2)
		torpedo->vy[0] = -3;
 8002b2c:	e0bffc17 	ldw	r2,-16(fp)
 8002b30:	00ffff44 	movi	r3,-3
 8002b34:	10c00c15 	stw	r3,48(r2)
		torpedo->vx[1] = 5;
 8002b38:	e0bffc17 	ldw	r2,-16(fp)
 8002b3c:	00c00144 	movi	r3,5
 8002b40:	10c00915 	stw	r3,36(r2)
		torpedo->vy[1] = -1;
 8002b44:	e0bffc17 	ldw	r2,-16(fp)
 8002b48:	00ffffc4 	movi	r3,-1
 8002b4c:	10c00d15 	stw	r3,52(r2)
		torpedo->vx[2] = 5;
 8002b50:	e0bffc17 	ldw	r2,-16(fp)
 8002b54:	00c00144 	movi	r3,5
 8002b58:	10c00a15 	stw	r3,40(r2)
		torpedo->vy[2] = 1;
 8002b5c:	e0bffc17 	ldw	r2,-16(fp)
 8002b60:	00c00044 	movi	r3,1
 8002b64:	10c00e15 	stw	r3,56(r2)
		torpedo->vx[3] = 4;
 8002b68:	e0bffc17 	ldw	r2,-16(fp)
 8002b6c:	00c00104 	movi	r3,4
 8002b70:	10c00b15 	stw	r3,44(r2)
		torpedo->vy[3] = 3;
 8002b74:	e0bffc17 	ldw	r2,-16(fp)
 8002b78:	00c000c4 	movi	r3,3
 8002b7c:	10c00f15 	stw	r3,60(r2)

		torpedo->attack_state[0] = TRACING;
 8002b80:	e0bffc17 	ldw	r2,-16(fp)
 8002b84:	10001015 	stw	zero,64(r2)
		torpedo->attack_state[1] = TRACING;
 8002b88:	e0bffc17 	ldw	r2,-16(fp)
 8002b8c:	10001115 	stw	zero,68(r2)
		torpedo->attack_state[2] = TRACING;
 8002b90:	e0bffc17 	ldw	r2,-16(fp)
 8002b94:	10001215 	stw	zero,72(r2)
		torpedo->attack_state[3] = TRACING;
 8002b98:	e0bffc17 	ldw	r2,-16(fp)
 8002b9c:	10001315 	stw	zero,76(r2)

		torpedo->target = target;
 8002ba0:	e0bffc17 	ldw	r2,-16(fp)
 8002ba4:	e0fffe17 	ldw	r3,-8(fp)
 8002ba8:	10c01515 	stw	r3,84(r2)
 8002bac:	00005406 	br	8002d00 <generate_tor+0x2f8>
	}
	else{
		torpedo->stop = 0;
 8002bb0:	e0bffc17 	ldw	r2,-16(fp)
 8002bb4:	10001415 	stw	zero,80(r2)
		torpedo->x[0] = ship->x+20;
 8002bb8:	e0bffd17 	ldw	r2,-12(fp)
 8002bbc:	10800117 	ldw	r2,4(r2)
 8002bc0:	10c00504 	addi	r3,r2,20
 8002bc4:	e0bffc17 	ldw	r2,-16(fp)
 8002bc8:	10c00015 	stw	r3,0(r2)
		torpedo->x[1] = ship->x+20;
 8002bcc:	e0bffd17 	ldw	r2,-12(fp)
 8002bd0:	10800117 	ldw	r2,4(r2)
 8002bd4:	10c00504 	addi	r3,r2,20
 8002bd8:	e0bffc17 	ldw	r2,-16(fp)
 8002bdc:	10c00115 	stw	r3,4(r2)
		torpedo->x[2] = ship->x+20;
 8002be0:	e0bffd17 	ldw	r2,-12(fp)
 8002be4:	10800117 	ldw	r2,4(r2)
 8002be8:	10c00504 	addi	r3,r2,20
 8002bec:	e0bffc17 	ldw	r2,-16(fp)
 8002bf0:	10c00215 	stw	r3,8(r2)
		torpedo->x[3] = ship->x+20;
 8002bf4:	e0bffd17 	ldw	r2,-12(fp)
 8002bf8:	10800117 	ldw	r2,4(r2)
 8002bfc:	10c00504 	addi	r3,r2,20
 8002c00:	e0bffc17 	ldw	r2,-16(fp)
 8002c04:	10c00315 	stw	r3,12(r2)
		torpedo->y[0] = ship->y-20;
 8002c08:	e0bffd17 	ldw	r2,-12(fp)
 8002c0c:	10800217 	ldw	r2,8(r2)
 8002c10:	10fffb04 	addi	r3,r2,-20
 8002c14:	e0bffc17 	ldw	r2,-16(fp)
 8002c18:	10c00415 	stw	r3,16(r2)
		for (int i=1; i<4; i++)
 8002c1c:	00800044 	movi	r2,1
 8002c20:	e0bffb15 	stw	r2,-20(fp)
 8002c24:	00001006 	br	8002c68 <generate_tor+0x260>
			torpedo->y[i] = torpedo->y[0] + i*6;
 8002c28:	e0bffc17 	ldw	r2,-16(fp)
 8002c2c:	14000417 	ldw	r16,16(r2)
 8002c30:	01400184 	movi	r5,6
 8002c34:	e13ffb17 	ldw	r4,-20(fp)
 8002c38:	80054680 	call	8005468 <__mulsi3>
 8002c3c:	8087883a 	add	r3,r16,r2
 8002c40:	e13ffc17 	ldw	r4,-16(fp)
 8002c44:	e0bffb17 	ldw	r2,-20(fp)
 8002c48:	10800104 	addi	r2,r2,4
 8002c4c:	1085883a 	add	r2,r2,r2
 8002c50:	1085883a 	add	r2,r2,r2
 8002c54:	2085883a 	add	r2,r4,r2
 8002c58:	10c00015 	stw	r3,0(r2)
		torpedo->x[0] = ship->x+20;
		torpedo->x[1] = ship->x+20;
		torpedo->x[2] = ship->x+20;
		torpedo->x[3] = ship->x+20;
		torpedo->y[0] = ship->y-20;
		for (int i=1; i<4; i++)
 8002c5c:	e0bffb17 	ldw	r2,-20(fp)
 8002c60:	10800044 	addi	r2,r2,1
 8002c64:	e0bffb15 	stw	r2,-20(fp)
 8002c68:	e0bffb17 	ldw	r2,-20(fp)
 8002c6c:	10800110 	cmplti	r2,r2,4
 8002c70:	103fed1e 	bne	r2,zero,8002c28 <__alt_data_end+0xf8002c28>
			torpedo->y[i] = torpedo->y[0] + i*6;

		torpedo->vx[0] = -4;
 8002c74:	e0bffc17 	ldw	r2,-16(fp)
 8002c78:	00ffff04 	movi	r3,-4
 8002c7c:	10c00815 	stw	r3,32(r2)
		torpedo->vy[0] = -3;
 8002c80:	e0bffc17 	ldw	r2,-16(fp)
 8002c84:	00ffff44 	movi	r3,-3
 8002c88:	10c00c15 	stw	r3,48(r2)
		torpedo->vx[1] = -5;
 8002c8c:	e0bffc17 	ldw	r2,-16(fp)
 8002c90:	00fffec4 	movi	r3,-5
 8002c94:	10c00915 	stw	r3,36(r2)
		torpedo->vy[1] = -1;
 8002c98:	e0bffc17 	ldw	r2,-16(fp)
 8002c9c:	00ffffc4 	movi	r3,-1
 8002ca0:	10c00d15 	stw	r3,52(r2)
		torpedo->vx[2] = -5;
 8002ca4:	e0bffc17 	ldw	r2,-16(fp)
 8002ca8:	00fffec4 	movi	r3,-5
 8002cac:	10c00a15 	stw	r3,40(r2)
		torpedo->vy[2] = 1;
 8002cb0:	e0bffc17 	ldw	r2,-16(fp)
 8002cb4:	00c00044 	movi	r3,1
 8002cb8:	10c00e15 	stw	r3,56(r2)
		torpedo->vx[3] = -4;
 8002cbc:	e0bffc17 	ldw	r2,-16(fp)
 8002cc0:	00ffff04 	movi	r3,-4
 8002cc4:	10c00b15 	stw	r3,44(r2)
		torpedo->vy[3] = 3;
 8002cc8:	e0bffc17 	ldw	r2,-16(fp)
 8002ccc:	00c000c4 	movi	r3,3
 8002cd0:	10c00f15 	stw	r3,60(r2)

		torpedo->attack_state[0] = TRACING;
 8002cd4:	e0bffc17 	ldw	r2,-16(fp)
 8002cd8:	10001015 	stw	zero,64(r2)
		torpedo->attack_state[1] = TRACING;
 8002cdc:	e0bffc17 	ldw	r2,-16(fp)
 8002ce0:	10001115 	stw	zero,68(r2)
		torpedo->attack_state[2] = TRACING;
 8002ce4:	e0bffc17 	ldw	r2,-16(fp)
 8002ce8:	10001215 	stw	zero,72(r2)
		torpedo->attack_state[3] = TRACING;
 8002cec:	e0bffc17 	ldw	r2,-16(fp)
 8002cf0:	10001315 	stw	zero,76(r2)

		torpedo->target = target;
 8002cf4:	e0bffc17 	ldw	r2,-16(fp)
 8002cf8:	e0fffe17 	ldw	r3,-8(fp)
 8002cfc:	10c01515 	stw	r3,84(r2)
	}
}
 8002d00:	e6ffff04 	addi	sp,fp,-4
 8002d04:	dfc00217 	ldw	ra,8(sp)
 8002d08:	df000117 	ldw	fp,4(sp)
 8002d0c:	dc000017 	ldw	r16,0(sp)
 8002d10:	dec00304 	addi	sp,sp,12
 8002d14:	f800283a 	ret

08002d18 <press_j>:


void press_j(ship_t *ship, torpedo_t *torpedo, int target){
 8002d18:	defffb04 	addi	sp,sp,-20
 8002d1c:	dfc00415 	stw	ra,16(sp)
 8002d20:	df000315 	stw	fp,12(sp)
 8002d24:	df000304 	addi	fp,sp,12
 8002d28:	e13ffd15 	stw	r4,-12(fp)
 8002d2c:	e17ffe15 	stw	r5,-8(fp)
 8002d30:	e1bfff15 	stw	r6,-4(fp)
//    if (ship->state == WALK_LEFT1){
		ship-> state = ATTACK;
 8002d34:	e0bffd17 	ldw	r2,-12(fp)
 8002d38:	00c00104 	movi	r3,4
 8002d3c:	10c00815 	stw	r3,32(r2)
		ship-> state_count = 0;
 8002d40:	e0bffd17 	ldw	r2,-12(fp)
 8002d44:	10000915 	stw	zero,36(r2)
		ship-> IsFighting = 1;
 8002d48:	e0bffd17 	ldw	r2,-12(fp)
 8002d4c:	00c00044 	movi	r3,1
 8002d50:	10c00d15 	stw	r3,52(r2)
		generate_tor(torpedo, ship, target);
 8002d54:	e1bfff17 	ldw	r6,-4(fp)
 8002d58:	e17ffd17 	ldw	r5,-12(fp)
 8002d5c:	e13ffe17 	ldw	r4,-8(fp)
 8002d60:	8002a080 	call	8002a08 <generate_tor>
//		ship-> state = ATTACK;
//		ship-> state_count = 0;
//		ship-> IsFighting = 1;
//		generate_tor(torpedo, ship, target);
//	}
}
 8002d64:	0001883a 	nop
 8002d68:	e037883a 	mov	sp,fp
 8002d6c:	dfc00117 	ldw	ra,4(sp)
 8002d70:	df000017 	ldw	fp,0(sp)
 8002d74:	dec00204 	addi	sp,sp,8
 8002d78:	f800283a 	ret

08002d7c <upstate_tor>:

void upstate_tor(torpedo_t *torpedo, ship_t *ship1, ship_t *ship2){
 8002d7c:	defffa04 	addi	sp,sp,-24
 8002d80:	dfc00515 	stw	ra,20(sp)
 8002d84:	df000415 	stw	fp,16(sp)
 8002d88:	df000404 	addi	fp,sp,16
 8002d8c:	e13ffd15 	stw	r4,-12(fp)
 8002d90:	e17ffe15 	stw	r5,-8(fp)
 8002d94:	e1bfff15 	stw	r6,-4(fp)
	int i;
	if(torpedo->stop)
 8002d98:	e0bffd17 	ldw	r2,-12(fp)
 8002d9c:	10801417 	ldw	r2,80(r2)
 8002da0:	1001301e 	bne	r2,zero,8003264 <upstate_tor+0x4e8>
		return;
	for(i = 0; i < 4 ;i++){
 8002da4:	e03ffc15 	stw	zero,-16(fp)
 8002da8:	00012a06 	br	8003254 <upstate_tor+0x4d8>
		if (torpedo->x[i] > RIGHT_MOST || torpedo->x[i] < LEFT_MOST){
 8002dac:	e0fffd17 	ldw	r3,-12(fp)
 8002db0:	e0bffc17 	ldw	r2,-16(fp)
 8002db4:	1085883a 	add	r2,r2,r2
 8002db8:	1085883a 	add	r2,r2,r2
 8002dbc:	1885883a 	add	r2,r3,r2
 8002dc0:	10800017 	ldw	r2,0(r2)
 8002dc4:	10809808 	cmpgei	r2,r2,608
 8002dc8:	1000081e 	bne	r2,zero,8002dec <upstate_tor+0x70>
 8002dcc:	e0fffd17 	ldw	r3,-12(fp)
 8002dd0:	e0bffc17 	ldw	r2,-16(fp)
 8002dd4:	1085883a 	add	r2,r2,r2
 8002dd8:	1085883a 	add	r2,r2,r2
 8002ddc:	1885883a 	add	r2,r3,r2
 8002de0:	10800017 	ldw	r2,0(r2)
 8002de4:	10800848 	cmpgei	r2,r2,33
 8002de8:	1000241e 	bne	r2,zero,8002e7c <upstate_tor+0x100>
			torpedo->x[i] = 0;
 8002dec:	e0fffd17 	ldw	r3,-12(fp)
 8002df0:	e0bffc17 	ldw	r2,-16(fp)
 8002df4:	1085883a 	add	r2,r2,r2
 8002df8:	1085883a 	add	r2,r2,r2
 8002dfc:	1885883a 	add	r2,r3,r2
 8002e00:	10000015 	stw	zero,0(r2)
			torpedo->y[i] = 0;
 8002e04:	e0fffd17 	ldw	r3,-12(fp)
 8002e08:	e0bffc17 	ldw	r2,-16(fp)
 8002e0c:	10800104 	addi	r2,r2,4
 8002e10:	1085883a 	add	r2,r2,r2
 8002e14:	1085883a 	add	r2,r2,r2
 8002e18:	1885883a 	add	r2,r3,r2
 8002e1c:	10000015 	stw	zero,0(r2)
			torpedo->vx[i] = 0;
 8002e20:	e0fffd17 	ldw	r3,-12(fp)
 8002e24:	e0bffc17 	ldw	r2,-16(fp)
 8002e28:	10800204 	addi	r2,r2,8
 8002e2c:	1085883a 	add	r2,r2,r2
 8002e30:	1085883a 	add	r2,r2,r2
 8002e34:	1885883a 	add	r2,r3,r2
 8002e38:	10000015 	stw	zero,0(r2)
			torpedo->vy[i] = 0;
 8002e3c:	e0fffd17 	ldw	r3,-12(fp)
 8002e40:	e0bffc17 	ldw	r2,-16(fp)
 8002e44:	10800304 	addi	r2,r2,12
 8002e48:	1085883a 	add	r2,r2,r2
 8002e4c:	1085883a 	add	r2,r2,r2
 8002e50:	1885883a 	add	r2,r3,r2
 8002e54:	10000015 	stw	zero,0(r2)
			torpedo->attack_state[i] = DESTROY;
 8002e58:	e0fffd17 	ldw	r3,-12(fp)
 8002e5c:	e0bffc17 	ldw	r2,-16(fp)
 8002e60:	10800404 	addi	r2,r2,16
 8002e64:	1085883a 	add	r2,r2,r2
 8002e68:	1085883a 	add	r2,r2,r2
 8002e6c:	1885883a 	add	r2,r3,r2
 8002e70:	00c000c4 	movi	r3,3
 8002e74:	10c00015 	stw	r3,0(r2)
 8002e78:	0000f306 	br	8003248 <upstate_tor+0x4cc>
		}
		else if (torpedo->y[i] < UP_MOST || torpedo->y[i] > DOWN_MOST){
 8002e7c:	e0fffd17 	ldw	r3,-12(fp)
 8002e80:	e0bffc17 	ldw	r2,-16(fp)
 8002e84:	10800104 	addi	r2,r2,4
 8002e88:	1085883a 	add	r2,r2,r2
 8002e8c:	1085883a 	add	r2,r2,r2
 8002e90:	1885883a 	add	r2,r3,r2
 8002e94:	10800017 	ldw	r2,0(r2)
 8002e98:	10800a10 	cmplti	r2,r2,40
 8002e9c:	1000091e 	bne	r2,zero,8002ec4 <upstate_tor+0x148>
 8002ea0:	e0fffd17 	ldw	r3,-12(fp)
 8002ea4:	e0bffc17 	ldw	r2,-16(fp)
 8002ea8:	10800104 	addi	r2,r2,4
 8002eac:	1085883a 	add	r2,r2,r2
 8002eb0:	1085883a 	add	r2,r2,r2
 8002eb4:	1885883a 	add	r2,r3,r2
 8002eb8:	10800017 	ldw	r2,0(r2)
 8002ebc:	108070d0 	cmplti	r2,r2,451
 8002ec0:	1000241e 	bne	r2,zero,8002f54 <upstate_tor+0x1d8>
			torpedo->x[i] = 0;
 8002ec4:	e0fffd17 	ldw	r3,-12(fp)
 8002ec8:	e0bffc17 	ldw	r2,-16(fp)
 8002ecc:	1085883a 	add	r2,r2,r2
 8002ed0:	1085883a 	add	r2,r2,r2
 8002ed4:	1885883a 	add	r2,r3,r2
 8002ed8:	10000015 	stw	zero,0(r2)
			torpedo->y[i] = 0;
 8002edc:	e0fffd17 	ldw	r3,-12(fp)
 8002ee0:	e0bffc17 	ldw	r2,-16(fp)
 8002ee4:	10800104 	addi	r2,r2,4
 8002ee8:	1085883a 	add	r2,r2,r2
 8002eec:	1085883a 	add	r2,r2,r2
 8002ef0:	1885883a 	add	r2,r3,r2
 8002ef4:	10000015 	stw	zero,0(r2)
			torpedo->vx[i] = 0;
 8002ef8:	e0fffd17 	ldw	r3,-12(fp)
 8002efc:	e0bffc17 	ldw	r2,-16(fp)
 8002f00:	10800204 	addi	r2,r2,8
 8002f04:	1085883a 	add	r2,r2,r2
 8002f08:	1085883a 	add	r2,r2,r2
 8002f0c:	1885883a 	add	r2,r3,r2
 8002f10:	10000015 	stw	zero,0(r2)
			torpedo->vy[i] = 0;
 8002f14:	e0fffd17 	ldw	r3,-12(fp)
 8002f18:	e0bffc17 	ldw	r2,-16(fp)
 8002f1c:	10800304 	addi	r2,r2,12
 8002f20:	1085883a 	add	r2,r2,r2
 8002f24:	1085883a 	add	r2,r2,r2
 8002f28:	1885883a 	add	r2,r3,r2
 8002f2c:	10000015 	stw	zero,0(r2)
			torpedo->attack_state[i] = DESTROY;
 8002f30:	e0fffd17 	ldw	r3,-12(fp)
 8002f34:	e0bffc17 	ldw	r2,-16(fp)
 8002f38:	10800404 	addi	r2,r2,16
 8002f3c:	1085883a 	add	r2,r2,r2
 8002f40:	1085883a 	add	r2,r2,r2
 8002f44:	1885883a 	add	r2,r3,r2
 8002f48:	00c000c4 	movi	r3,3
 8002f4c:	10c00015 	stw	r3,0(r2)
 8002f50:	0000bd06 	br	8003248 <upstate_tor+0x4cc>
		}
		else if (detect(ship1,torpedo->x[i], torpedo->y[i], 20) && torpedo->target == 0){
 8002f54:	e0fffd17 	ldw	r3,-12(fp)
 8002f58:	e0bffc17 	ldw	r2,-16(fp)
 8002f5c:	1085883a 	add	r2,r2,r2
 8002f60:	1085883a 	add	r2,r2,r2
 8002f64:	1885883a 	add	r2,r3,r2
 8002f68:	11000017 	ldw	r4,0(r2)
 8002f6c:	e0fffd17 	ldw	r3,-12(fp)
 8002f70:	e0bffc17 	ldw	r2,-16(fp)
 8002f74:	10800104 	addi	r2,r2,4
 8002f78:	1085883a 	add	r2,r2,r2
 8002f7c:	1085883a 	add	r2,r2,r2
 8002f80:	1885883a 	add	r2,r3,r2
 8002f84:	10800017 	ldw	r2,0(r2)
 8002f88:	01c00504 	movi	r7,20
 8002f8c:	100d883a 	mov	r6,r2
 8002f90:	200b883a 	mov	r5,r4
 8002f94:	e13ffe17 	ldw	r4,-8(fp)
 8002f98:	80028e40 	call	80028e4 <detect>
 8002f9c:	10002c26 	beq	r2,zero,8003050 <upstate_tor+0x2d4>
 8002fa0:	e0bffd17 	ldw	r2,-12(fp)
 8002fa4:	10801517 	ldw	r2,84(r2)
 8002fa8:	1000291e 	bne	r2,zero,8003050 <upstate_tor+0x2d4>
			torpedo->x[i] = 0;
 8002fac:	e0fffd17 	ldw	r3,-12(fp)
 8002fb0:	e0bffc17 	ldw	r2,-16(fp)
 8002fb4:	1085883a 	add	r2,r2,r2
 8002fb8:	1085883a 	add	r2,r2,r2
 8002fbc:	1885883a 	add	r2,r3,r2
 8002fc0:	10000015 	stw	zero,0(r2)
			torpedo->y[i] = 0;
 8002fc4:	e0fffd17 	ldw	r3,-12(fp)
 8002fc8:	e0bffc17 	ldw	r2,-16(fp)
 8002fcc:	10800104 	addi	r2,r2,4
 8002fd0:	1085883a 	add	r2,r2,r2
 8002fd4:	1085883a 	add	r2,r2,r2
 8002fd8:	1885883a 	add	r2,r3,r2
 8002fdc:	10000015 	stw	zero,0(r2)
			torpedo->vx[i] = 0;
 8002fe0:	e0fffd17 	ldw	r3,-12(fp)
 8002fe4:	e0bffc17 	ldw	r2,-16(fp)
 8002fe8:	10800204 	addi	r2,r2,8
 8002fec:	1085883a 	add	r2,r2,r2
 8002ff0:	1085883a 	add	r2,r2,r2
 8002ff4:	1885883a 	add	r2,r3,r2
 8002ff8:	10000015 	stw	zero,0(r2)
			torpedo->vy[i] = 0;
 8002ffc:	e0fffd17 	ldw	r3,-12(fp)
 8003000:	e0bffc17 	ldw	r2,-16(fp)
 8003004:	10800304 	addi	r2,r2,12
 8003008:	1085883a 	add	r2,r2,r2
 800300c:	1085883a 	add	r2,r2,r2
 8003010:	1885883a 	add	r2,r3,r2
 8003014:	10000015 	stw	zero,0(r2)
			torpedo->attack_state[i] = HIT;
 8003018:	e0fffd17 	ldw	r3,-12(fp)
 800301c:	e0bffc17 	ldw	r2,-16(fp)
 8003020:	10800404 	addi	r2,r2,16
 8003024:	1085883a 	add	r2,r2,r2
 8003028:	1085883a 	add	r2,r2,r2
 800302c:	1885883a 	add	r2,r3,r2
 8003030:	00c00044 	movi	r3,1
 8003034:	10c00015 	stw	r3,0(r2)
			ship1->HP -= 2;
 8003038:	e0bffe17 	ldw	r2,-8(fp)
 800303c:	10800517 	ldw	r2,20(r2)
 8003040:	10ffff84 	addi	r3,r2,-2
 8003044:	e0bffe17 	ldw	r2,-8(fp)
 8003048:	10c00515 	stw	r3,20(r2)
 800304c:	00007e06 	br	8003248 <upstate_tor+0x4cc>
		}
		else if (detect(ship2,torpedo->x[i], torpedo->y[i], 20) && torpedo->target == 1){
 8003050:	e0fffd17 	ldw	r3,-12(fp)
 8003054:	e0bffc17 	ldw	r2,-16(fp)
 8003058:	1085883a 	add	r2,r2,r2
 800305c:	1085883a 	add	r2,r2,r2
 8003060:	1885883a 	add	r2,r3,r2
 8003064:	11000017 	ldw	r4,0(r2)
 8003068:	e0fffd17 	ldw	r3,-12(fp)
 800306c:	e0bffc17 	ldw	r2,-16(fp)
 8003070:	10800104 	addi	r2,r2,4
 8003074:	1085883a 	add	r2,r2,r2
 8003078:	1085883a 	add	r2,r2,r2
 800307c:	1885883a 	add	r2,r3,r2
 8003080:	10800017 	ldw	r2,0(r2)
 8003084:	01c00504 	movi	r7,20
 8003088:	100d883a 	mov	r6,r2
 800308c:	200b883a 	mov	r5,r4
 8003090:	e13fff17 	ldw	r4,-4(fp)
 8003094:	80028e40 	call	80028e4 <detect>
 8003098:	10002d26 	beq	r2,zero,8003150 <upstate_tor+0x3d4>
 800309c:	e0bffd17 	ldw	r2,-12(fp)
 80030a0:	10801517 	ldw	r2,84(r2)
 80030a4:	10800058 	cmpnei	r2,r2,1
 80030a8:	1000291e 	bne	r2,zero,8003150 <upstate_tor+0x3d4>
			torpedo->x[i] = 0;
 80030ac:	e0fffd17 	ldw	r3,-12(fp)
 80030b0:	e0bffc17 	ldw	r2,-16(fp)
 80030b4:	1085883a 	add	r2,r2,r2
 80030b8:	1085883a 	add	r2,r2,r2
 80030bc:	1885883a 	add	r2,r3,r2
 80030c0:	10000015 	stw	zero,0(r2)
			torpedo->y[i] = 0;
 80030c4:	e0fffd17 	ldw	r3,-12(fp)
 80030c8:	e0bffc17 	ldw	r2,-16(fp)
 80030cc:	10800104 	addi	r2,r2,4
 80030d0:	1085883a 	add	r2,r2,r2
 80030d4:	1085883a 	add	r2,r2,r2
 80030d8:	1885883a 	add	r2,r3,r2
 80030dc:	10000015 	stw	zero,0(r2)
			torpedo->vx[i] = 0;
 80030e0:	e0fffd17 	ldw	r3,-12(fp)
 80030e4:	e0bffc17 	ldw	r2,-16(fp)
 80030e8:	10800204 	addi	r2,r2,8
 80030ec:	1085883a 	add	r2,r2,r2
 80030f0:	1085883a 	add	r2,r2,r2
 80030f4:	1885883a 	add	r2,r3,r2
 80030f8:	10000015 	stw	zero,0(r2)
			torpedo->vy[i] = 0;
 80030fc:	e0fffd17 	ldw	r3,-12(fp)
 8003100:	e0bffc17 	ldw	r2,-16(fp)
 8003104:	10800304 	addi	r2,r2,12
 8003108:	1085883a 	add	r2,r2,r2
 800310c:	1085883a 	add	r2,r2,r2
 8003110:	1885883a 	add	r2,r3,r2
 8003114:	10000015 	stw	zero,0(r2)
			torpedo->attack_state[i] = HIT;
 8003118:	e0fffd17 	ldw	r3,-12(fp)
 800311c:	e0bffc17 	ldw	r2,-16(fp)
 8003120:	10800404 	addi	r2,r2,16
 8003124:	1085883a 	add	r2,r2,r2
 8003128:	1085883a 	add	r2,r2,r2
 800312c:	1885883a 	add	r2,r3,r2
 8003130:	00c00044 	movi	r3,1
 8003134:	10c00015 	stw	r3,0(r2)
			ship2->HP -= 2;
 8003138:	e0bfff17 	ldw	r2,-4(fp)
 800313c:	10800517 	ldw	r2,20(r2)
 8003140:	10ffff84 	addi	r3,r2,-2
 8003144:	e0bfff17 	ldw	r2,-4(fp)
 8003148:	10c00515 	stw	r3,20(r2)
 800314c:	00003e06 	br	8003248 <upstate_tor+0x4cc>
		}
		else if (detect(ship1,torpedo->x[i], torpedo->y[i], 150) && torpedo->target == 0) //distance > 150; torpedo Permanently switch to inertial guidance
 8003150:	e0fffd17 	ldw	r3,-12(fp)
 8003154:	e0bffc17 	ldw	r2,-16(fp)
 8003158:	1085883a 	add	r2,r2,r2
 800315c:	1085883a 	add	r2,r2,r2
 8003160:	1885883a 	add	r2,r3,r2
 8003164:	11000017 	ldw	r4,0(r2)
 8003168:	e0fffd17 	ldw	r3,-12(fp)
 800316c:	e0bffc17 	ldw	r2,-16(fp)
 8003170:	10800104 	addi	r2,r2,4
 8003174:	1085883a 	add	r2,r2,r2
 8003178:	1085883a 	add	r2,r2,r2
 800317c:	1885883a 	add	r2,r3,r2
 8003180:	10800017 	ldw	r2,0(r2)
 8003184:	01c02584 	movi	r7,150
 8003188:	100d883a 	mov	r6,r2
 800318c:	200b883a 	mov	r5,r4
 8003190:	e13ffe17 	ldw	r4,-8(fp)
 8003194:	80028e40 	call	80028e4 <detect>
 8003198:	10000c26 	beq	r2,zero,80031cc <upstate_tor+0x450>
 800319c:	e0bffd17 	ldw	r2,-12(fp)
 80031a0:	10801517 	ldw	r2,84(r2)
 80031a4:	1000091e 	bne	r2,zero,80031cc <upstate_tor+0x450>
		{
			torpedo->attack_state[i] = INERTIAL;
 80031a8:	e0fffd17 	ldw	r3,-12(fp)
 80031ac:	e0bffc17 	ldw	r2,-16(fp)
 80031b0:	10800404 	addi	r2,r2,16
 80031b4:	1085883a 	add	r2,r2,r2
 80031b8:	1085883a 	add	r2,r2,r2
 80031bc:	1885883a 	add	r2,r3,r2
 80031c0:	00c00084 	movi	r3,2
 80031c4:	10c00015 	stw	r3,0(r2)
 80031c8:	00001f06 	br	8003248 <upstate_tor+0x4cc>
		}
		else if (detect(ship2,torpedo->x[i], torpedo->y[i], 150) && torpedo->target == 1) //distance > 150; torpedo Permanently switch to inertial guidance
 80031cc:	e0fffd17 	ldw	r3,-12(fp)
 80031d0:	e0bffc17 	ldw	r2,-16(fp)
 80031d4:	1085883a 	add	r2,r2,r2
 80031d8:	1085883a 	add	r2,r2,r2
 80031dc:	1885883a 	add	r2,r3,r2
 80031e0:	11000017 	ldw	r4,0(r2)
 80031e4:	e0fffd17 	ldw	r3,-12(fp)
 80031e8:	e0bffc17 	ldw	r2,-16(fp)
 80031ec:	10800104 	addi	r2,r2,4
 80031f0:	1085883a 	add	r2,r2,r2
 80031f4:	1085883a 	add	r2,r2,r2
 80031f8:	1885883a 	add	r2,r3,r2
 80031fc:	10800017 	ldw	r2,0(r2)
 8003200:	01c02584 	movi	r7,150
 8003204:	100d883a 	mov	r6,r2
 8003208:	200b883a 	mov	r5,r4
 800320c:	e13fff17 	ldw	r4,-4(fp)
 8003210:	80028e40 	call	80028e4 <detect>
 8003214:	10000c26 	beq	r2,zero,8003248 <upstate_tor+0x4cc>
 8003218:	e0bffd17 	ldw	r2,-12(fp)
 800321c:	10801517 	ldw	r2,84(r2)
 8003220:	10800058 	cmpnei	r2,r2,1
 8003224:	1000081e 	bne	r2,zero,8003248 <upstate_tor+0x4cc>
		{
			torpedo->attack_state[i] = INERTIAL;
 8003228:	e0fffd17 	ldw	r3,-12(fp)
 800322c:	e0bffc17 	ldw	r2,-16(fp)
 8003230:	10800404 	addi	r2,r2,16
 8003234:	1085883a 	add	r2,r2,r2
 8003238:	1085883a 	add	r2,r2,r2
 800323c:	1885883a 	add	r2,r3,r2
 8003240:	00c00084 	movi	r3,2
 8003244:	10c00015 	stw	r3,0(r2)

void upstate_tor(torpedo_t *torpedo, ship_t *ship1, ship_t *ship2){
	int i;
	if(torpedo->stop)
		return;
	for(i = 0; i < 4 ;i++){
 8003248:	e0bffc17 	ldw	r2,-16(fp)
 800324c:	10800044 	addi	r2,r2,1
 8003250:	e0bffc15 	stw	r2,-16(fp)
 8003254:	e0bffc17 	ldw	r2,-16(fp)
 8003258:	10800110 	cmplti	r2,r2,4
 800325c:	103ed31e 	bne	r2,zero,8002dac <__alt_data_end+0xf8002dac>
 8003260:	00000106 	br	8003268 <upstate_tor+0x4ec>
}

void upstate_tor(torpedo_t *torpedo, ship_t *ship1, ship_t *ship2){
	int i;
	if(torpedo->stop)
		return;
 8003264:	0001883a 	nop
		else if (detect(ship2,torpedo->x[i], torpedo->y[i], 150) && torpedo->target == 1) //distance > 150; torpedo Permanently switch to inertial guidance
		{
			torpedo->attack_state[i] = INERTIAL;
		}
	}
}
 8003268:	e037883a 	mov	sp,fp
 800326c:	dfc00117 	ldw	ra,4(sp)
 8003270:	df000017 	ldw	fp,0(sp)
 8003274:	dec00204 	addi	sp,sp,8
 8003278:	f800283a 	ret

0800327c <move_tor>:


void move_tor(torpedo_t *torpedo, ship_t *target){
 800327c:	defff704 	addi	sp,sp,-36
 8003280:	dfc00815 	stw	ra,32(sp)
 8003284:	df000715 	stw	fp,28(sp)
 8003288:	dc000615 	stw	r16,24(sp)
 800328c:	df000704 	addi	fp,sp,28
 8003290:	e13ffd15 	stw	r4,-12(fp)
 8003294:	e17ffe15 	stw	r5,-8(fp)
	int i;
	if(torpedo->stop)
 8003298:	e0bffd17 	ldw	r2,-12(fp)
 800329c:	10801417 	ldw	r2,80(r2)
 80032a0:	1000951e 	bne	r2,zero,80034f8 <move_tor+0x27c>
		return;
	for (i = 0; i < 4; i++){
 80032a4:	e03ff915 	stw	zero,-28(fp)
 80032a8:	00008f06 	br	80034e8 <move_tor+0x26c>
		int disx = target->x - torpedo->x[i];
 80032ac:	e0bffe17 	ldw	r2,-8(fp)
 80032b0:	10c00117 	ldw	r3,4(r2)
 80032b4:	e13ffd17 	ldw	r4,-12(fp)
 80032b8:	e0bff917 	ldw	r2,-28(fp)
 80032bc:	1085883a 	add	r2,r2,r2
 80032c0:	1085883a 	add	r2,r2,r2
 80032c4:	2085883a 	add	r2,r4,r2
 80032c8:	10800017 	ldw	r2,0(r2)
 80032cc:	1885c83a 	sub	r2,r3,r2
 80032d0:	e0bffa15 	stw	r2,-24(fp)
		disx = disx<0? (-disx):(disx);
 80032d4:	e0bffa17 	ldw	r2,-24(fp)
 80032d8:	1000010e 	bge	r2,zero,80032e0 <move_tor+0x64>
 80032dc:	0085c83a 	sub	r2,zero,r2
 80032e0:	e0bffa15 	stw	r2,-24(fp)
		int disy = target->y - torpedo->y[i];
 80032e4:	e0bffe17 	ldw	r2,-8(fp)
 80032e8:	10c00217 	ldw	r3,8(r2)
 80032ec:	e13ffd17 	ldw	r4,-12(fp)
 80032f0:	e0bff917 	ldw	r2,-28(fp)
 80032f4:	10800104 	addi	r2,r2,4
 80032f8:	1085883a 	add	r2,r2,r2
 80032fc:	1085883a 	add	r2,r2,r2
 8003300:	2085883a 	add	r2,r4,r2
 8003304:	10800017 	ldw	r2,0(r2)
 8003308:	1885c83a 	sub	r2,r3,r2
 800330c:	e0bffb15 	stw	r2,-20(fp)
		disy = disy<0? (-disy):(disy);
 8003310:	e0bffb17 	ldw	r2,-20(fp)
 8003314:	1000010e 	bge	r2,zero,800331c <move_tor+0xa0>
 8003318:	0085c83a 	sub	r2,zero,r2
 800331c:	e0bffb15 	stw	r2,-20(fp)
		int dis = (int)((disx*disx) + (disy*disy));
 8003320:	e17ffa17 	ldw	r5,-24(fp)
 8003324:	e13ffa17 	ldw	r4,-24(fp)
 8003328:	80054680 	call	8005468 <__mulsi3>
 800332c:	1021883a 	mov	r16,r2
 8003330:	e17ffb17 	ldw	r5,-20(fp)
 8003334:	e13ffb17 	ldw	r4,-20(fp)
 8003338:	80054680 	call	8005468 <__mulsi3>
 800333c:	8085883a 	add	r2,r16,r2
 8003340:	e0bffc15 	stw	r2,-16(fp)
		if(torpedo->attack_state[i] == TRACING){
 8003344:	e0fffd17 	ldw	r3,-12(fp)
 8003348:	e0bff917 	ldw	r2,-28(fp)
 800334c:	10800404 	addi	r2,r2,16
 8003350:	1085883a 	add	r2,r2,r2
 8003354:	1085883a 	add	r2,r2,r2
 8003358:	1885883a 	add	r2,r3,r2
 800335c:	10800017 	ldw	r2,0(r2)
 8003360:	10002b1e 	bne	r2,zero,8003410 <move_tor+0x194>
//			torpedo->vx[i] = disx;
//			torpedo->vy[i] = disy;
			torpedo->x[i] += torpedo->vx[i];
 8003364:	e0fffd17 	ldw	r3,-12(fp)
 8003368:	e0bff917 	ldw	r2,-28(fp)
 800336c:	1085883a 	add	r2,r2,r2
 8003370:	1085883a 	add	r2,r2,r2
 8003374:	1885883a 	add	r2,r3,r2
 8003378:	10c00017 	ldw	r3,0(r2)
 800337c:	e13ffd17 	ldw	r4,-12(fp)
 8003380:	e0bff917 	ldw	r2,-28(fp)
 8003384:	10800204 	addi	r2,r2,8
 8003388:	1085883a 	add	r2,r2,r2
 800338c:	1085883a 	add	r2,r2,r2
 8003390:	2085883a 	add	r2,r4,r2
 8003394:	10800017 	ldw	r2,0(r2)
 8003398:	1887883a 	add	r3,r3,r2
 800339c:	e13ffd17 	ldw	r4,-12(fp)
 80033a0:	e0bff917 	ldw	r2,-28(fp)
 80033a4:	1085883a 	add	r2,r2,r2
 80033a8:	1085883a 	add	r2,r2,r2
 80033ac:	2085883a 	add	r2,r4,r2
 80033b0:	10c00015 	stw	r3,0(r2)
			torpedo->y[i] += torpedo->vy[i];
 80033b4:	e0fffd17 	ldw	r3,-12(fp)
 80033b8:	e0bff917 	ldw	r2,-28(fp)
 80033bc:	10800104 	addi	r2,r2,4
 80033c0:	1085883a 	add	r2,r2,r2
 80033c4:	1085883a 	add	r2,r2,r2
 80033c8:	1885883a 	add	r2,r3,r2
 80033cc:	10c00017 	ldw	r3,0(r2)
 80033d0:	e13ffd17 	ldw	r4,-12(fp)
 80033d4:	e0bff917 	ldw	r2,-28(fp)
 80033d8:	10800304 	addi	r2,r2,12
 80033dc:	1085883a 	add	r2,r2,r2
 80033e0:	1085883a 	add	r2,r2,r2
 80033e4:	2085883a 	add	r2,r4,r2
 80033e8:	10800017 	ldw	r2,0(r2)
 80033ec:	1887883a 	add	r3,r3,r2
 80033f0:	e13ffd17 	ldw	r4,-12(fp)
 80033f4:	e0bff917 	ldw	r2,-28(fp)
 80033f8:	10800104 	addi	r2,r2,4
 80033fc:	1085883a 	add	r2,r2,r2
 8003400:	1085883a 	add	r2,r2,r2
 8003404:	2085883a 	add	r2,r4,r2
 8003408:	10c00015 	stw	r3,0(r2)
 800340c:	00003306 	br	80034dc <move_tor+0x260>
		}
		else if(torpedo->attack_state[i] == INERTIAL){
 8003410:	e0fffd17 	ldw	r3,-12(fp)
 8003414:	e0bff917 	ldw	r2,-28(fp)
 8003418:	10800404 	addi	r2,r2,16
 800341c:	1085883a 	add	r2,r2,r2
 8003420:	1085883a 	add	r2,r2,r2
 8003424:	1885883a 	add	r2,r3,r2
 8003428:	10800017 	ldw	r2,0(r2)
 800342c:	10800098 	cmpnei	r2,r2,2
 8003430:	10002a1e 	bne	r2,zero,80034dc <move_tor+0x260>
			torpedo->x[i] += torpedo->vx[i];
 8003434:	e0fffd17 	ldw	r3,-12(fp)
 8003438:	e0bff917 	ldw	r2,-28(fp)
 800343c:	1085883a 	add	r2,r2,r2
 8003440:	1085883a 	add	r2,r2,r2
 8003444:	1885883a 	add	r2,r3,r2
 8003448:	10c00017 	ldw	r3,0(r2)
 800344c:	e13ffd17 	ldw	r4,-12(fp)
 8003450:	e0bff917 	ldw	r2,-28(fp)
 8003454:	10800204 	addi	r2,r2,8
 8003458:	1085883a 	add	r2,r2,r2
 800345c:	1085883a 	add	r2,r2,r2
 8003460:	2085883a 	add	r2,r4,r2
 8003464:	10800017 	ldw	r2,0(r2)
 8003468:	1887883a 	add	r3,r3,r2
 800346c:	e13ffd17 	ldw	r4,-12(fp)
 8003470:	e0bff917 	ldw	r2,-28(fp)
 8003474:	1085883a 	add	r2,r2,r2
 8003478:	1085883a 	add	r2,r2,r2
 800347c:	2085883a 	add	r2,r4,r2
 8003480:	10c00015 	stw	r3,0(r2)
			torpedo->y[i] += torpedo->vy[i];
 8003484:	e0fffd17 	ldw	r3,-12(fp)
 8003488:	e0bff917 	ldw	r2,-28(fp)
 800348c:	10800104 	addi	r2,r2,4
 8003490:	1085883a 	add	r2,r2,r2
 8003494:	1085883a 	add	r2,r2,r2
 8003498:	1885883a 	add	r2,r3,r2
 800349c:	10c00017 	ldw	r3,0(r2)
 80034a0:	e13ffd17 	ldw	r4,-12(fp)
 80034a4:	e0bff917 	ldw	r2,-28(fp)
 80034a8:	10800304 	addi	r2,r2,12
 80034ac:	1085883a 	add	r2,r2,r2
 80034b0:	1085883a 	add	r2,r2,r2
 80034b4:	2085883a 	add	r2,r4,r2
 80034b8:	10800017 	ldw	r2,0(r2)
 80034bc:	1887883a 	add	r3,r3,r2
 80034c0:	e13ffd17 	ldw	r4,-12(fp)
 80034c4:	e0bff917 	ldw	r2,-28(fp)
 80034c8:	10800104 	addi	r2,r2,4
 80034cc:	1085883a 	add	r2,r2,r2
 80034d0:	1085883a 	add	r2,r2,r2
 80034d4:	2085883a 	add	r2,r4,r2
 80034d8:	10c00015 	stw	r3,0(r2)

void move_tor(torpedo_t *torpedo, ship_t *target){
	int i;
	if(torpedo->stop)
		return;
	for (i = 0; i < 4; i++){
 80034dc:	e0bff917 	ldw	r2,-28(fp)
 80034e0:	10800044 	addi	r2,r2,1
 80034e4:	e0bff915 	stw	r2,-28(fp)
 80034e8:	e0bff917 	ldw	r2,-28(fp)
 80034ec:	10800110 	cmplti	r2,r2,4
 80034f0:	103f6e1e 	bne	r2,zero,80032ac <__alt_data_end+0xf80032ac>
 80034f4:	00000106 	br	80034fc <move_tor+0x280>


void move_tor(torpedo_t *torpedo, ship_t *target){
	int i;
	if(torpedo->stop)
		return;
 80034f8:	0001883a 	nop
		else if(torpedo->attack_state[i] == INERTIAL){
			torpedo->x[i] += torpedo->vx[i];
			torpedo->y[i] += torpedo->vy[i];
		}
	}
}
 80034fc:	e6ffff04 	addi	sp,fp,-4
 8003500:	dfc00217 	ldw	ra,8(sp)
 8003504:	df000117 	ldw	fp,4(sp)
 8003508:	dc000017 	ldw	r16,0(sp)
 800350c:	dec00304 	addi	sp,sp,12
 8003510:	f800283a 	ret

08003514 <ifstop_tor>:

void ifstop_tor(torpedo_t *torpedo){
 8003514:	defffd04 	addi	sp,sp,-12
 8003518:	df000215 	stw	fp,8(sp)
 800351c:	df000204 	addi	fp,sp,8
 8003520:	e13fff15 	stw	r4,-4(fp)
	if(torpedo->stop)
 8003524:	e0bfff17 	ldw	r2,-4(fp)
 8003528:	10801417 	ldw	r2,80(r2)
 800352c:	10004e1e 	bne	r2,zero,8003668 <ifstop_tor+0x154>
		return;
	if((torpedo->attack_state[0] == HIT || torpedo->attack_state[0] == DESTROY) &&
 8003530:	e0bfff17 	ldw	r2,-4(fp)
 8003534:	10801017 	ldw	r2,64(r2)
 8003538:	10800060 	cmpeqi	r2,r2,1
 800353c:	1000041e 	bne	r2,zero,8003550 <ifstop_tor+0x3c>
 8003540:	e0bfff17 	ldw	r2,-4(fp)
 8003544:	10801017 	ldw	r2,64(r2)
 8003548:	108000d8 	cmpnei	r2,r2,3
 800354c:	1000471e 	bne	r2,zero,800366c <ifstop_tor+0x158>
	   (torpedo->attack_state[1] == HIT || torpedo->attack_state[1] == DESTROY) &&
 8003550:	e0bfff17 	ldw	r2,-4(fp)
 8003554:	10801117 	ldw	r2,68(r2)
}

void ifstop_tor(torpedo_t *torpedo){
	if(torpedo->stop)
		return;
	if((torpedo->attack_state[0] == HIT || torpedo->attack_state[0] == DESTROY) &&
 8003558:	10800060 	cmpeqi	r2,r2,1
 800355c:	1000041e 	bne	r2,zero,8003570 <ifstop_tor+0x5c>
	   (torpedo->attack_state[1] == HIT || torpedo->attack_state[1] == DESTROY) &&
 8003560:	e0bfff17 	ldw	r2,-4(fp)
 8003564:	10801117 	ldw	r2,68(r2)
 8003568:	108000d8 	cmpnei	r2,r2,3
 800356c:	10003f1e 	bne	r2,zero,800366c <ifstop_tor+0x158>
	   (torpedo->attack_state[2] == HIT || torpedo->attack_state[2] == DESTROY) &&
 8003570:	e0bfff17 	ldw	r2,-4(fp)
 8003574:	10801217 	ldw	r2,72(r2)

void ifstop_tor(torpedo_t *torpedo){
	if(torpedo->stop)
		return;
	if((torpedo->attack_state[0] == HIT || torpedo->attack_state[0] == DESTROY) &&
	   (torpedo->attack_state[1] == HIT || torpedo->attack_state[1] == DESTROY) &&
 8003578:	10800060 	cmpeqi	r2,r2,1
 800357c:	1000041e 	bne	r2,zero,8003590 <ifstop_tor+0x7c>
	   (torpedo->attack_state[2] == HIT || torpedo->attack_state[2] == DESTROY) &&
 8003580:	e0bfff17 	ldw	r2,-4(fp)
 8003584:	10801217 	ldw	r2,72(r2)
 8003588:	108000d8 	cmpnei	r2,r2,3
 800358c:	1000371e 	bne	r2,zero,800366c <ifstop_tor+0x158>
	   (torpedo->attack_state[3] == HIT || torpedo->attack_state[3] == DESTROY)){
 8003590:	e0bfff17 	ldw	r2,-4(fp)
 8003594:	10801317 	ldw	r2,76(r2)
void ifstop_tor(torpedo_t *torpedo){
	if(torpedo->stop)
		return;
	if((torpedo->attack_state[0] == HIT || torpedo->attack_state[0] == DESTROY) &&
	   (torpedo->attack_state[1] == HIT || torpedo->attack_state[1] == DESTROY) &&
	   (torpedo->attack_state[2] == HIT || torpedo->attack_state[2] == DESTROY) &&
 8003598:	10800060 	cmpeqi	r2,r2,1
 800359c:	1000041e 	bne	r2,zero,80035b0 <ifstop_tor+0x9c>
	   (torpedo->attack_state[3] == HIT || torpedo->attack_state[3] == DESTROY)){
 80035a0:	e0bfff17 	ldw	r2,-4(fp)
 80035a4:	10801317 	ldw	r2,76(r2)
 80035a8:	108000d8 	cmpnei	r2,r2,3
 80035ac:	10002f1e 	bne	r2,zero,800366c <ifstop_tor+0x158>
		torpedo->stop = 1;
 80035b0:	e0bfff17 	ldw	r2,-4(fp)
 80035b4:	00c00044 	movi	r3,1
 80035b8:	10c01415 	stw	r3,80(r2)
		for(int i = 0; i < 4; i++){
 80035bc:	e03ffe15 	stw	zero,-8(fp)
 80035c0:	00002506 	br	8003658 <ifstop_tor+0x144>
			torpedo->attack_state[i] = 0;
 80035c4:	e0ffff17 	ldw	r3,-4(fp)
 80035c8:	e0bffe17 	ldw	r2,-8(fp)
 80035cc:	10800404 	addi	r2,r2,16
 80035d0:	1085883a 	add	r2,r2,r2
 80035d4:	1085883a 	add	r2,r2,r2
 80035d8:	1885883a 	add	r2,r3,r2
 80035dc:	10000015 	stw	zero,0(r2)
			torpedo->vx[i] = 0;
 80035e0:	e0ffff17 	ldw	r3,-4(fp)
 80035e4:	e0bffe17 	ldw	r2,-8(fp)
 80035e8:	10800204 	addi	r2,r2,8
 80035ec:	1085883a 	add	r2,r2,r2
 80035f0:	1085883a 	add	r2,r2,r2
 80035f4:	1885883a 	add	r2,r3,r2
 80035f8:	10000015 	stw	zero,0(r2)
			torpedo->vy[i] = 0;
 80035fc:	e0ffff17 	ldw	r3,-4(fp)
 8003600:	e0bffe17 	ldw	r2,-8(fp)
 8003604:	10800304 	addi	r2,r2,12
 8003608:	1085883a 	add	r2,r2,r2
 800360c:	1085883a 	add	r2,r2,r2
 8003610:	1885883a 	add	r2,r3,r2
 8003614:	10000015 	stw	zero,0(r2)
			torpedo->x[i] = 0;
 8003618:	e0ffff17 	ldw	r3,-4(fp)
 800361c:	e0bffe17 	ldw	r2,-8(fp)
 8003620:	1085883a 	add	r2,r2,r2
 8003624:	1085883a 	add	r2,r2,r2
 8003628:	1885883a 	add	r2,r3,r2
 800362c:	10000015 	stw	zero,0(r2)
			torpedo->y[i] = 0;
 8003630:	e0ffff17 	ldw	r3,-4(fp)
 8003634:	e0bffe17 	ldw	r2,-8(fp)
 8003638:	10800104 	addi	r2,r2,4
 800363c:	1085883a 	add	r2,r2,r2
 8003640:	1085883a 	add	r2,r2,r2
 8003644:	1885883a 	add	r2,r3,r2
 8003648:	10000015 	stw	zero,0(r2)
	if((torpedo->attack_state[0] == HIT || torpedo->attack_state[0] == DESTROY) &&
	   (torpedo->attack_state[1] == HIT || torpedo->attack_state[1] == DESTROY) &&
	   (torpedo->attack_state[2] == HIT || torpedo->attack_state[2] == DESTROY) &&
	   (torpedo->attack_state[3] == HIT || torpedo->attack_state[3] == DESTROY)){
		torpedo->stop = 1;
		for(int i = 0; i < 4; i++){
 800364c:	e0bffe17 	ldw	r2,-8(fp)
 8003650:	10800044 	addi	r2,r2,1
 8003654:	e0bffe15 	stw	r2,-8(fp)
 8003658:	e0bffe17 	ldw	r2,-8(fp)
 800365c:	10800110 	cmplti	r2,r2,4
 8003660:	103fd81e 	bne	r2,zero,80035c4 <__alt_data_end+0xf80035c4>
 8003664:	00000106 	br	800366c <ifstop_tor+0x158>
	}
}

void ifstop_tor(torpedo_t *torpedo){
	if(torpedo->stop)
		return;
 8003668:	0001883a 	nop
			torpedo->vy[i] = 0;
			torpedo->x[i] = 0;
			torpedo->y[i] = 0;
		}
	}
}
 800366c:	e037883a 	mov	sp,fp
 8003670:	df000017 	ldw	fp,0(sp)
 8003674:	dec00104 	addi	sp,sp,4
 8003678:	f800283a 	ret

0800367c <init_tor>:

void init_tor(torpedo_t *torpedo, int target){
 800367c:	defffc04 	addi	sp,sp,-16
 8003680:	df000315 	stw	fp,12(sp)
 8003684:	df000304 	addi	fp,sp,12
 8003688:	e13ffe15 	stw	r4,-8(fp)
 800368c:	e17fff15 	stw	r5,-4(fp)
	for(int i = 0; i < 4; i++){
 8003690:	e03ffd15 	stw	zero,-12(fp)
 8003694:	00002506 	br	800372c <init_tor+0xb0>
		torpedo->attack_state[i] = 0;
 8003698:	e0fffe17 	ldw	r3,-8(fp)
 800369c:	e0bffd17 	ldw	r2,-12(fp)
 80036a0:	10800404 	addi	r2,r2,16
 80036a4:	1085883a 	add	r2,r2,r2
 80036a8:	1085883a 	add	r2,r2,r2
 80036ac:	1885883a 	add	r2,r3,r2
 80036b0:	10000015 	stw	zero,0(r2)
		torpedo->vx[i] = 0;
 80036b4:	e0fffe17 	ldw	r3,-8(fp)
 80036b8:	e0bffd17 	ldw	r2,-12(fp)
 80036bc:	10800204 	addi	r2,r2,8
 80036c0:	1085883a 	add	r2,r2,r2
 80036c4:	1085883a 	add	r2,r2,r2
 80036c8:	1885883a 	add	r2,r3,r2
 80036cc:	10000015 	stw	zero,0(r2)
		torpedo->vy[i] = 0;
 80036d0:	e0fffe17 	ldw	r3,-8(fp)
 80036d4:	e0bffd17 	ldw	r2,-12(fp)
 80036d8:	10800304 	addi	r2,r2,12
 80036dc:	1085883a 	add	r2,r2,r2
 80036e0:	1085883a 	add	r2,r2,r2
 80036e4:	1885883a 	add	r2,r3,r2
 80036e8:	10000015 	stw	zero,0(r2)
		torpedo->x[i] = 0;
 80036ec:	e0fffe17 	ldw	r3,-8(fp)
 80036f0:	e0bffd17 	ldw	r2,-12(fp)
 80036f4:	1085883a 	add	r2,r2,r2
 80036f8:	1085883a 	add	r2,r2,r2
 80036fc:	1885883a 	add	r2,r3,r2
 8003700:	10000015 	stw	zero,0(r2)
		torpedo->y[i] = 0;
 8003704:	e0fffe17 	ldw	r3,-8(fp)
 8003708:	e0bffd17 	ldw	r2,-12(fp)
 800370c:	10800104 	addi	r2,r2,4
 8003710:	1085883a 	add	r2,r2,r2
 8003714:	1085883a 	add	r2,r2,r2
 8003718:	1885883a 	add	r2,r3,r2
 800371c:	10000015 	stw	zero,0(r2)
		}
	}
}

void init_tor(torpedo_t *torpedo, int target){
	for(int i = 0; i < 4; i++){
 8003720:	e0bffd17 	ldw	r2,-12(fp)
 8003724:	10800044 	addi	r2,r2,1
 8003728:	e0bffd15 	stw	r2,-12(fp)
 800372c:	e0bffd17 	ldw	r2,-12(fp)
 8003730:	10800110 	cmplti	r2,r2,4
 8003734:	103fd81e 	bne	r2,zero,8003698 <__alt_data_end+0xf8003698>
		torpedo->vx[i] = 0;
		torpedo->vy[i] = 0;
		torpedo->x[i] = 0;
		torpedo->y[i] = 0;
	}
	torpedo->stop = 1;
 8003738:	e0bffe17 	ldw	r2,-8(fp)
 800373c:	00c00044 	movi	r3,1
 8003740:	10c01415 	stw	r3,80(r2)
	torpedo->target = target;
 8003744:	e0bffe17 	ldw	r2,-8(fp)
 8003748:	e0ffff17 	ldw	r3,-4(fp)
 800374c:	10c01515 	stw	r3,84(r2)
}
 8003750:	0001883a 	nop
 8003754:	e037883a 	mov	sp,fp
 8003758:	df000017 	ldw	fp,0(sp)
 800375c:	dec00104 	addi	sp,sp,4
 8003760:	f800283a 	ret

08003764 <update_tor>:

void update_tor(torpedo_t *torpedo1,torpedo_t *torpedo2, ship_t *ship1, ship_t *ship2){
 8003764:	defffa04 	addi	sp,sp,-24
 8003768:	dfc00515 	stw	ra,20(sp)
 800376c:	df000415 	stw	fp,16(sp)
 8003770:	df000404 	addi	fp,sp,16
 8003774:	e13ffc15 	stw	r4,-16(fp)
 8003778:	e17ffd15 	stw	r5,-12(fp)
 800377c:	e1bffe15 	stw	r6,-8(fp)
 8003780:	e1ffff15 	stw	r7,-4(fp)
	move_tor(torpedo1, ship2);
 8003784:	e17fff17 	ldw	r5,-4(fp)
 8003788:	e13ffc17 	ldw	r4,-16(fp)
 800378c:	800327c0 	call	800327c <move_tor>
	move_tor(torpedo2, ship1);
 8003790:	e17ffe17 	ldw	r5,-8(fp)
 8003794:	e13ffd17 	ldw	r4,-12(fp)
 8003798:	800327c0 	call	800327c <move_tor>
	upstate_tor(torpedo1, ship1, ship2);
 800379c:	e1bfff17 	ldw	r6,-4(fp)
 80037a0:	e17ffe17 	ldw	r5,-8(fp)
 80037a4:	e13ffc17 	ldw	r4,-16(fp)
 80037a8:	8002d7c0 	call	8002d7c <upstate_tor>
	upstate_tor(torpedo2, ship1, ship2);
 80037ac:	e1bfff17 	ldw	r6,-4(fp)
 80037b0:	e17ffe17 	ldw	r5,-8(fp)
 80037b4:	e13ffd17 	ldw	r4,-12(fp)
 80037b8:	8002d7c0 	call	8002d7c <upstate_tor>
	ifstop_tor(torpedo1);
 80037bc:	e13ffc17 	ldw	r4,-16(fp)
 80037c0:	80035140 	call	8003514 <ifstop_tor>
	ifstop_tor(torpedo2);
 80037c4:	e13ffd17 	ldw	r4,-12(fp)
 80037c8:	80035140 	call	8003514 <ifstop_tor>

}
 80037cc:	0001883a 	nop
 80037d0:	e037883a 	mov	sp,fp
 80037d4:	dfc00117 	ldw	ra,4(sp)
 80037d8:	df000017 	ldw	fp,0(sp)
 80037dc:	dec00204 	addi	sp,sp,8
 80037e0:	f800283a 	ret

080037e4 <press_z>:

void press_z(ship_t *target){
 80037e4:	defffe04 	addi	sp,sp,-8
 80037e8:	df000115 	stw	fp,4(sp)
 80037ec:	df000104 	addi	fp,sp,4
 80037f0:	e13fff15 	stw	r4,-4(fp)
	target->HP -= 4;
 80037f4:	e0bfff17 	ldw	r2,-4(fp)
 80037f8:	10800517 	ldw	r2,20(r2)
 80037fc:	10ffff04 	addi	r3,r2,-4
 8003800:	e0bfff17 	ldw	r2,-4(fp)
 8003804:	10c00515 	stw	r3,20(r2)

}
 8003808:	0001883a 	nop
 800380c:	e037883a 	mov	sp,fp
 8003810:	df000017 	ldw	fp,0(sp)
 8003814:	dec00104 	addi	sp,sp,4
 8003818:	f800283a 	ret

0800381c <UsbWrite>:
 *
 * @note     None
 *
 ******************************************************************************/
void UsbWrite(alt_u16 Address, alt_u16 Data)
{
 800381c:	defffc04 	addi	sp,sp,-16
 8003820:	dfc00315 	stw	ra,12(sp)
 8003824:	df000215 	stw	fp,8(sp)
 8003828:	df000204 	addi	fp,sp,8
 800382c:	2007883a 	mov	r3,r4
 8003830:	2805883a 	mov	r2,r5
 8003834:	e0fffe0d 	sth	r3,-8(fp)
 8003838:	e0bfff0d 	sth	r2,-4(fp)
//*************************************************************************//
//									TASK								   //
//*************************************************************************//
//							Write this function							   //
//*************************************************************************//
	IO_write(HPI_ADDR, Address);
 800383c:	e0bffe0b 	ldhu	r2,-8(fp)
 8003840:	100b883a 	mov	r5,r2
 8003844:	01000084 	movi	r4,2
 8003848:	80011880 	call	8001188 <IO_write>
	IO_write(HPI_DATA,Data);
 800384c:	e0bfff0b 	ldhu	r2,-4(fp)
 8003850:	100b883a 	mov	r5,r2
 8003854:	0009883a 	mov	r4,zero
 8003858:	80011880 	call	8001188 <IO_write>
}
 800385c:	0001883a 	nop
 8003860:	e037883a 	mov	sp,fp
 8003864:	dfc00117 	ldw	ra,4(sp)
 8003868:	df000017 	ldw	fp,0(sp)
 800386c:	dec00204 	addi	sp,sp,8
 8003870:	f800283a 	ret

08003874 <UsbRead>:
 *
 * @note     None
 *
 ******************************************************************************/
alt_u16 UsbRead(alt_u16 Address)
{
 8003874:	defffd04 	addi	sp,sp,-12
 8003878:	dfc00215 	stw	ra,8(sp)
 800387c:	df000115 	stw	fp,4(sp)
 8003880:	df000104 	addi	fp,sp,4
 8003884:	2005883a 	mov	r2,r4
 8003888:	e0bfff0d 	sth	r2,-4(fp)
//*************************************************************************//
//									TASK								   //
//*************************************************************************//
//							Write this function							   //
//*************************************************************************//
	IO_write(HPI_ADDR, Address);
 800388c:	e0bfff0b 	ldhu	r2,-4(fp)
 8003890:	100b883a 	mov	r5,r2
 8003894:	01000084 	movi	r4,2
 8003898:	80011880 	call	8001188 <IO_write>
	return (IO_read(HPI_DATA));
 800389c:	0009883a 	mov	r4,zero
 80038a0:	80012100 	call	8001210 <IO_read>
}
 80038a4:	e037883a 	mov	sp,fp
 80038a8:	dfc00117 	ldw	ra,4(sp)
 80038ac:	df000017 	ldw	fp,0(sp)
 80038b0:	dec00204 	addi	sp,sp,8
 80038b4:	f800283a 	ret

080038b8 <UsbSoftReset>:
 *
 * @note     None
 *
 ******************************************************************************/
void UsbSoftReset()
{
 80038b8:	defffe04 	addi	sp,sp,-8
 80038bc:	dfc00115 	stw	ra,4(sp)
 80038c0:	df000015 	stw	fp,0(sp)
 80038c4:	d839883a 	mov	fp,sp
	//XIo_Out16(USB_MAILBOX, COMM_RESET);
	IO_write(HPI_MAILBOX,COMM_RESET); //COMM_JUMP2CODE
 80038c8:	017e9414 	movui	r5,64080
 80038cc:	01000044 	movi	r4,1
 80038d0:	80011880 	call	8001188 <IO_write>
	usleep(100000);
 80038d4:	010000b4 	movhi	r4,2
 80038d8:	2121a804 	addi	r4,r4,-31072
 80038dc:	8012d080 	call	8012d08 <usleep>
	printf("[USB INIT]:reset finished!\n");
 80038e0:	01020074 	movhi	r4,2049
 80038e4:	21135604 	addi	r4,r4,19800
 80038e8:	80064680 	call	8006468 <puts>

	usleep(500000);
 80038ec:	01000234 	movhi	r4,8
 80038f0:	21284804 	addi	r4,r4,-24288
 80038f4:	8012d080 	call	8012d08 <usleep>
	printf("[USB INIT]:Clear up the interrupt\r\n");
 80038f8:	01020074 	movhi	r4,2049
 80038fc:	21135d04 	addi	r4,r4,19828
 8003900:	80064680 	call	8006468 <puts>
	IO_read(HPI_MAILBOX);
 8003904:	01000044 	movi	r4,1
 8003908:	80012100 	call	8001210 <IO_read>
	IO_read(HPI_STATUS);
 800390c:	010000c4 	movi	r4,3
 8003910:	80012100 	call	8001210 <IO_read>

	// Had to add the write due to a bug in BIOS where they overwrite
	// the mailbox after initialization with garbage.  The read clears
	// any pending interrupts.
	UsbRead (HPI_SIE1_MSG_ADR);
 8003914:	01005104 	movi	r4,324
 8003918:	80038740 	call	8003874 <UsbRead>
	UsbWrite (HPI_SIE1_MSG_ADR, 0);
 800391c:	000b883a 	mov	r5,zero
 8003920:	01005104 	movi	r4,324
 8003924:	800381c0 	call	800381c <UsbWrite>
	UsbRead (HPI_SIE2_MSG_ADR);
 8003928:	01005204 	movi	r4,328
 800392c:	80038740 	call	8003874 <UsbRead>
	UsbWrite (HPI_SIE2_MSG_ADR, 0);
 8003930:	000b883a 	mov	r5,zero
 8003934:	01005204 	movi	r4,328
 8003938:	800381c0 	call	800381c <UsbWrite>


	UsbWrite (HOST1_STAT_REG, 0xFFFF);
 800393c:	017fffd4 	movui	r5,65535
 8003940:	01302414 	movui	r4,49296
 8003944:	800381c0 	call	800381c <UsbWrite>
	UsbWrite (HOST2_STAT_REG, 0xFFFF);
 8003948:	017fffd4 	movui	r5,65535
 800394c:	01302c14 	movui	r4,49328
 8003950:	800381c0 	call	800381c <UsbWrite>
}
 8003954:	0001883a 	nop
 8003958:	e037883a 	mov	sp,fp
 800395c:	dfc00117 	ldw	ra,4(sp)
 8003960:	df000017 	ldw	fp,0(sp)
 8003964:	dec00204 	addi	sp,sp,8
 8003968:	f800283a 	ret

0800396c <UsbSetAddress>:


void UsbSetAddress()
{
 800396c:	defffe04 	addi	sp,sp,-8
 8003970:	dfc00115 	stw	ra,4(sp)
 8003974:	df000015 	stw	fp,0(sp)
 8003978:	d839883a 	mov	fp,sp
	//the starting address
	IO_write(HPI_ADDR,0x0500); //the start address
 800397c:	01414004 	movi	r5,1280
 8003980:	01000084 	movi	r4,2
 8003984:	80011880 	call	8001188 <IO_write>
	// TD #1: 6 writes
	IO_write(HPI_DATA,0x050C);
 8003988:	01414304 	movi	r5,1292
 800398c:	0009883a 	mov	r4,zero
 8003990:	80011880 	call	8001188 <IO_write>
	IO_write(HPI_DATA,0x0008); //4 port number
 8003994:	01400204 	movi	r5,8
 8003998:	0009883a 	mov	r4,zero
 800399c:	80011880 	call	8001188 <IO_write>
	// TASK: Complete with 4 more IOWR functions
	IO_write(HPI_DATA,0x00D0);
 80039a0:	01403404 	movi	r5,208
 80039a4:	0009883a 	mov	r4,zero
 80039a8:	80011880 	call	8001188 <IO_write>
	IO_write(HPI_DATA,0x0001);
 80039ac:	01400044 	movi	r5,1
 80039b0:	0009883a 	mov	r4,zero
 80039b4:	80011880 	call	8001188 <IO_write>
	IO_write(HPI_DATA,0x0013);
 80039b8:	014004c4 	movi	r5,19
 80039bc:	0009883a 	mov	r4,zero
 80039c0:	80011880 	call	8001188 <IO_write>
	IO_write(HPI_DATA,0x0514);
 80039c4:	01414504 	movi	r5,1300
 80039c8:	0009883a 	mov	r4,zero
 80039cc:	80011880 	call	8001188 <IO_write>
	// TD #2: 4 writes
	// TASK: Complete with 4 IOWR functions
	IO_write(HPI_DATA,0x0500);
 80039d0:	01414004 	movi	r5,1280
 80039d4:	0009883a 	mov	r4,zero
 80039d8:	80011880 	call	8001188 <IO_write>
	IO_write(HPI_DATA,0x0002);
 80039dc:	01400084 	movi	r5,2
 80039e0:	0009883a 	mov	r4,zero
 80039e4:	80011880 	call	8001188 <IO_write>
	IO_write(HPI_DATA,0x0000);
 80039e8:	000b883a 	mov	r5,zero
 80039ec:	0009883a 	mov	r4,zero
 80039f0:	80011880 	call	8001188 <IO_write>
	IO_write(HPI_DATA,0x0000);
 80039f4:	000b883a 	mov	r5,zero
 80039f8:	0009883a 	mov	r4,zero
 80039fc:	80011880 	call	8001188 <IO_write>
	// TD #3: 6 writes
	// TASK: Complete with 6 IOWR functions
	IO_write(HPI_DATA,0x0000); //
 8003a00:	000b883a 	mov	r5,zero
 8003a04:	0009883a 	mov	r4,zero
 8003a08:	80011880 	call	8001188 <IO_write>
	IO_write(HPI_DATA,0x0000);//
 8003a0c:	000b883a 	mov	r5,zero
 8003a10:	0009883a 	mov	r4,zero
 8003a14:	80011880 	call	8001188 <IO_write>
	IO_write(HPI_DATA,0x0090);//
 8003a18:	01402404 	movi	r5,144
 8003a1c:	0009883a 	mov	r4,zero
 8003a20:	80011880 	call	8001188 <IO_write>
	IO_write(HPI_DATA,0x0041);
 8003a24:	01401044 	movi	r5,65
 8003a28:	0009883a 	mov	r4,zero
 8003a2c:	80011880 	call	8001188 <IO_write>
	IO_write(HPI_DATA,0x0013);
 8003a30:	014004c4 	movi	r5,19
 8003a34:	0009883a 	mov	r4,zero
 8003a38:	80011880 	call	8001188 <IO_write>
	IO_write(HPI_DATA,0x0000);
 8003a3c:	000b883a 	mov	r5,zero
 8003a40:	0009883a 	mov	r4,zero
 8003a44:	80011880 	call	8001188 <IO_write>

	UsbWrite(HUSB_SIE1_pCurrentTDPtr,0x0500); //HUSB_SIE1_pCurrentTDPtr
 8003a48:	01414004 	movi	r5,1280
 8003a4c:	01006c04 	movi	r4,432
 8003a50:	800381c0 	call	800381c <UsbWrite>
}
 8003a54:	0001883a 	nop
 8003a58:	e037883a 	mov	sp,fp
 8003a5c:	dfc00117 	ldw	ra,4(sp)
 8003a60:	df000017 	ldw	fp,0(sp)
 8003a64:	dec00204 	addi	sp,sp,8
 8003a68:	f800283a 	ret

08003a6c <UsbGetDeviceDesc1>:


void UsbGetDeviceDesc1()
{
 8003a6c:	defffe04 	addi	sp,sp,-8
 8003a70:	dfc00115 	stw	ra,4(sp)
 8003a74:	df000015 	stw	fp,0(sp)
 8003a78:	d839883a 	mov	fp,sp
	//the starting address
	IO_write(HPI_ADDR,0x0500); //the start address
 8003a7c:	01414004 	movi	r5,1280
 8003a80:	01000084 	movi	r4,2
 8003a84:	80011880 	call	8001188 <IO_write>
	IO_write(HPI_DATA,0x050C);
 8003a88:	01414304 	movi	r5,1292
 8003a8c:	0009883a 	mov	r4,zero
 8003a90:	80011880 	call	8001188 <IO_write>
	IO_write(HPI_DATA,0x0008); //4 port number
 8003a94:	01400204 	movi	r5,8
 8003a98:	0009883a 	mov	r4,zero
 8003a9c:	80011880 	call	8001188 <IO_write>
	IO_write(HPI_DATA,0x02D0); //device address
 8003aa0:	0140b404 	movi	r5,720
 8003aa4:	0009883a 	mov	r4,zero
 8003aa8:	80011880 	call	8001188 <IO_write>
	IO_write(HPI_DATA,0x0001);
 8003aac:	01400044 	movi	r5,1
 8003ab0:	0009883a 	mov	r4,zero
 8003ab4:	80011880 	call	8001188 <IO_write>
	IO_write(HPI_DATA,0x0013);
 8003ab8:	014004c4 	movi	r5,19
 8003abc:	0009883a 	mov	r4,zero
 8003ac0:	80011880 	call	8001188 <IO_write>
	IO_write(HPI_DATA,0x0514);
 8003ac4:	01414504 	movi	r5,1300
 8003ac8:	0009883a 	mov	r4,zero
 8003acc:	80011880 	call	8001188 <IO_write>

	//td content 4 bytes
	IO_write(HPI_DATA,0x0680);//c
 8003ad0:	0141a004 	movi	r5,1664
 8003ad4:	0009883a 	mov	r4,zero
 8003ad8:	80011880 	call	8001188 <IO_write>
	IO_write(HPI_DATA,0x0100); //device 0x01
 8003adc:	01404004 	movi	r5,256
 8003ae0:	0009883a 	mov	r4,zero
 8003ae4:	80011880 	call	8001188 <IO_write>
	IO_write(HPI_DATA,0x0000);
 8003ae8:	000b883a 	mov	r5,zero
 8003aec:	0009883a 	mov	r4,zero
 8003af0:	80011880 	call	8001188 <IO_write>
	IO_write(HPI_DATA,0x0008);
 8003af4:	01400204 	movi	r5,8
 8003af8:	0009883a 	mov	r4,zero
 8003afc:	80011880 	call	8001188 <IO_write>

	//data phase IN
	IO_write(HPI_DATA,0x052C); //
 8003b00:	01414b04 	movi	r5,1324
 8003b04:	0009883a 	mov	r4,zero
 8003b08:	80011880 	call	8001188 <IO_write>
	IO_write(HPI_DATA,0x0008);//
 8003b0c:	01400204 	movi	r5,8
 8003b10:	0009883a 	mov	r4,zero
 8003b14:	80011880 	call	8001188 <IO_write>
	IO_write(HPI_DATA,0x0290);//
 8003b18:	0140a404 	movi	r5,656
 8003b1c:	0009883a 	mov	r4,zero
 8003b20:	80011880 	call	8001188 <IO_write>
	IO_write(HPI_DATA,0x0041);
 8003b24:	01401044 	movi	r5,65
 8003b28:	0009883a 	mov	r4,zero
 8003b2c:	80011880 	call	8001188 <IO_write>
	IO_write(HPI_DATA,0x0013);
 8003b30:	014004c4 	movi	r5,19
 8003b34:	0009883a 	mov	r4,zero
 8003b38:	80011880 	call	8001188 <IO_write>
	IO_write(HPI_DATA,0x0520);
 8003b3c:	01414804 	movi	r5,1312
 8003b40:	0009883a 	mov	r4,zero
 8003b44:	80011880 	call	8001188 <IO_write>

	//    //status phase
	IO_write(HPI_DATA,0x0000); //don't care
 8003b48:	000b883a 	mov	r5,zero
 8003b4c:	0009883a 	mov	r4,zero
 8003b50:	80011880 	call	8001188 <IO_write>
	IO_write(HPI_DATA,0x0000);//port number
 8003b54:	000b883a 	mov	r5,zero
 8003b58:	0009883a 	mov	r4,zero
 8003b5c:	80011880 	call	8001188 <IO_write>
	IO_write(HPI_DATA,0x0210);//device address
 8003b60:	01408404 	movi	r5,528
 8003b64:	0009883a 	mov	r4,zero
 8003b68:	80011880 	call	8001188 <IO_write>
	IO_write(HPI_DATA,0x0041);
 8003b6c:	01401044 	movi	r5,65
 8003b70:	0009883a 	mov	r4,zero
 8003b74:	80011880 	call	8001188 <IO_write>
	IO_write(HPI_DATA,0x0013);
 8003b78:	014004c4 	movi	r5,19
 8003b7c:	0009883a 	mov	r4,zero
 8003b80:	80011880 	call	8001188 <IO_write>
	IO_write(HPI_DATA,0x0000);
 8003b84:	000b883a 	mov	r5,zero
 8003b88:	0009883a 	mov	r4,zero
 8003b8c:	80011880 	call	8001188 <IO_write>

	UsbWrite(HUSB_SIE1_pCurrentTDPtr,0x0500); //HUSB_SIE1_pCurrentTDPtr
 8003b90:	01414004 	movi	r5,1280
 8003b94:	01006c04 	movi	r4,432
 8003b98:	800381c0 	call	800381c <UsbWrite>
}
 8003b9c:	0001883a 	nop
 8003ba0:	e037883a 	mov	sp,fp
 8003ba4:	dfc00117 	ldw	ra,4(sp)
 8003ba8:	df000017 	ldw	fp,0(sp)
 8003bac:	dec00204 	addi	sp,sp,8
 8003bb0:	f800283a 	ret

08003bb4 <UsbGetDeviceDesc2>:

void UsbGetDeviceDesc2()
{
 8003bb4:	defffe04 	addi	sp,sp,-8
 8003bb8:	dfc00115 	stw	ra,4(sp)
 8003bbc:	df000015 	stw	fp,0(sp)
 8003bc0:	d839883a 	mov	fp,sp
	//the starting address
	IO_write(HPI_ADDR,0x0500); //the start address
 8003bc4:	01414004 	movi	r5,1280
 8003bc8:	01000084 	movi	r4,2
 8003bcc:	80011880 	call	8001188 <IO_write>
	IO_write(HPI_DATA,0x050C);
 8003bd0:	01414304 	movi	r5,1292
 8003bd4:	0009883a 	mov	r4,zero
 8003bd8:	80011880 	call	8001188 <IO_write>
	IO_write(HPI_DATA,0x0008); //4 port number
 8003bdc:	01400204 	movi	r5,8
 8003be0:	0009883a 	mov	r4,zero
 8003be4:	80011880 	call	8001188 <IO_write>
	IO_write(HPI_DATA,0x02D0); //device address
 8003be8:	0140b404 	movi	r5,720
 8003bec:	0009883a 	mov	r4,zero
 8003bf0:	80011880 	call	8001188 <IO_write>
	IO_write(HPI_DATA,0x0001);
 8003bf4:	01400044 	movi	r5,1
 8003bf8:	0009883a 	mov	r4,zero
 8003bfc:	80011880 	call	8001188 <IO_write>
	IO_write(HPI_DATA,0x0013);
 8003c00:	014004c4 	movi	r5,19
 8003c04:	0009883a 	mov	r4,zero
 8003c08:	80011880 	call	8001188 <IO_write>
	IO_write(HPI_DATA,0x0514);
 8003c0c:	01414504 	movi	r5,1300
 8003c10:	0009883a 	mov	r4,zero
 8003c14:	80011880 	call	8001188 <IO_write>

	//td content 4 bytes
	IO_write(HPI_DATA,0x0680);//c
 8003c18:	0141a004 	movi	r5,1664
 8003c1c:	0009883a 	mov	r4,zero
 8003c20:	80011880 	call	8001188 <IO_write>
	IO_write(HPI_DATA,0x0100);//e //device 0x01
 8003c24:	01404004 	movi	r5,256
 8003c28:	0009883a 	mov	r4,zero
 8003c2c:	80011880 	call	8001188 <IO_write>
	IO_write(HPI_DATA,0x0000);//0
 8003c30:	000b883a 	mov	r5,zero
 8003c34:	0009883a 	mov	r4,zero
 8003c38:	80011880 	call	8001188 <IO_write>
	IO_write(HPI_DATA,0x0012);//2
 8003c3c:	01400484 	movi	r5,18
 8003c40:	0009883a 	mov	r4,zero
 8003c44:	80011880 	call	8001188 <IO_write>

	//data phase IN-1
	IO_write(HPI_DATA,0x0544); //514
 8003c48:	01415104 	movi	r5,1348
 8003c4c:	0009883a 	mov	r4,zero
 8003c50:	80011880 	call	8001188 <IO_write>
	IO_write(HPI_DATA,0x0008);//6
 8003c54:	01400204 	movi	r5,8
 8003c58:	0009883a 	mov	r4,zero
 8003c5c:	80011880 	call	8001188 <IO_write>
	IO_write(HPI_DATA,0x0290);//8
 8003c60:	0140a404 	movi	r5,656
 8003c64:	0009883a 	mov	r4,zero
 8003c68:	80011880 	call	8001188 <IO_write>
	IO_write(HPI_DATA,0x0041);//a
 8003c6c:	01401044 	movi	r5,65
 8003c70:	0009883a 	mov	r4,zero
 8003c74:	80011880 	call	8001188 <IO_write>
	IO_write(HPI_DATA,0x0013);//c
 8003c78:	014004c4 	movi	r5,19
 8003c7c:	0009883a 	mov	r4,zero
 8003c80:	80011880 	call	8001188 <IO_write>
	IO_write(HPI_DATA,0x0520);//e
 8003c84:	01414804 	movi	r5,1312
 8003c88:	0009883a 	mov	r4,zero
 8003c8c:	80011880 	call	8001188 <IO_write>

	//data phase IN-2
	IO_write(HPI_DATA,0x054c); //520
 8003c90:	01415304 	movi	r5,1356
 8003c94:	0009883a 	mov	r4,zero
 8003c98:	80011880 	call	8001188 <IO_write>
	IO_write(HPI_DATA,0x0008);//2
 8003c9c:	01400204 	movi	r5,8
 8003ca0:	0009883a 	mov	r4,zero
 8003ca4:	80011880 	call	8001188 <IO_write>
	IO_write(HPI_DATA,0x0290);//4
 8003ca8:	0140a404 	movi	r5,656
 8003cac:	0009883a 	mov	r4,zero
 8003cb0:	80011880 	call	8001188 <IO_write>
	IO_write(HPI_DATA,0x0001);//6
 8003cb4:	01400044 	movi	r5,1
 8003cb8:	0009883a 	mov	r4,zero
 8003cbc:	80011880 	call	8001188 <IO_write>
	IO_write(HPI_DATA,0x0013);//8
 8003cc0:	014004c4 	movi	r5,19
 8003cc4:	0009883a 	mov	r4,zero
 8003cc8:	80011880 	call	8001188 <IO_write>
	IO_write(HPI_DATA,0x052c);//a
 8003ccc:	01414b04 	movi	r5,1324
 8003cd0:	0009883a 	mov	r4,zero
 8003cd4:	80011880 	call	8001188 <IO_write>

	//data phase IN-3
	IO_write(HPI_DATA,0x0554); //c
 8003cd8:	01415504 	movi	r5,1364
 8003cdc:	0009883a 	mov	r4,zero
 8003ce0:	80011880 	call	8001188 <IO_write>
	IO_write(HPI_DATA,0x0002);//e
 8003ce4:	01400084 	movi	r5,2
 8003ce8:	0009883a 	mov	r4,zero
 8003cec:	80011880 	call	8001188 <IO_write>
	IO_write(HPI_DATA,0x0290);//530
 8003cf0:	0140a404 	movi	r5,656
 8003cf4:	0009883a 	mov	r4,zero
 8003cf8:	80011880 	call	8001188 <IO_write>
	IO_write(HPI_DATA,0x0041);//2
 8003cfc:	01401044 	movi	r5,65
 8003d00:	0009883a 	mov	r4,zero
 8003d04:	80011880 	call	8001188 <IO_write>
	IO_write(HPI_DATA,0x0013);//4
 8003d08:	014004c4 	movi	r5,19
 8003d0c:	0009883a 	mov	r4,zero
 8003d10:	80011880 	call	8001188 <IO_write>
	IO_write(HPI_DATA,0x0538);//6
 8003d14:	01414e04 	movi	r5,1336
 8003d18:	0009883a 	mov	r4,zero
 8003d1c:	80011880 	call	8001188 <IO_write>

	//status phase
	IO_write(HPI_DATA,0x0000); //538
 8003d20:	000b883a 	mov	r5,zero
 8003d24:	0009883a 	mov	r4,zero
 8003d28:	80011880 	call	8001188 <IO_write>
	IO_write(HPI_DATA,0x0000);//a
 8003d2c:	000b883a 	mov	r5,zero
 8003d30:	0009883a 	mov	r4,zero
 8003d34:	80011880 	call	8001188 <IO_write>
	IO_write(HPI_DATA,0x0210);//c
 8003d38:	01408404 	movi	r5,528
 8003d3c:	0009883a 	mov	r4,zero
 8003d40:	80011880 	call	8001188 <IO_write>
	IO_write(HPI_DATA,0x0041);//e
 8003d44:	01401044 	movi	r5,65
 8003d48:	0009883a 	mov	r4,zero
 8003d4c:	80011880 	call	8001188 <IO_write>
	IO_write(HPI_DATA,0x0013);//540
 8003d50:	014004c4 	movi	r5,19
 8003d54:	0009883a 	mov	r4,zero
 8003d58:	80011880 	call	8001188 <IO_write>
	IO_write(HPI_DATA,0x0000);//2
 8003d5c:	000b883a 	mov	r5,zero
 8003d60:	0009883a 	mov	r4,zero
 8003d64:	80011880 	call	8001188 <IO_write>

	UsbWrite(HUSB_SIE1_pCurrentTDPtr,0x0500); //HUSB_SIE1_pCurrentTDPtr
 8003d68:	01414004 	movi	r5,1280
 8003d6c:	01006c04 	movi	r4,432
 8003d70:	800381c0 	call	800381c <UsbWrite>
}
 8003d74:	0001883a 	nop
 8003d78:	e037883a 	mov	sp,fp
 8003d7c:	dfc00117 	ldw	ra,4(sp)
 8003d80:	df000017 	ldw	fp,0(sp)
 8003d84:	dec00204 	addi	sp,sp,8
 8003d88:	f800283a 	ret

08003d8c <UsbGetConfigDesc1>:


void UsbGetConfigDesc1()
{
 8003d8c:	defffe04 	addi	sp,sp,-8
 8003d90:	dfc00115 	stw	ra,4(sp)
 8003d94:	df000015 	stw	fp,0(sp)
 8003d98:	d839883a 	mov	fp,sp
	//the starting address
	IO_write(HPI_ADDR,0x0500); //the start address
 8003d9c:	01414004 	movi	r5,1280
 8003da0:	01000084 	movi	r4,2
 8003da4:	80011880 	call	8001188 <IO_write>
	IO_write(HPI_DATA,0x050C);
 8003da8:	01414304 	movi	r5,1292
 8003dac:	0009883a 	mov	r4,zero
 8003db0:	80011880 	call	8001188 <IO_write>
	IO_write(HPI_DATA,0x0008); //4 port number
 8003db4:	01400204 	movi	r5,8
 8003db8:	0009883a 	mov	r4,zero
 8003dbc:	80011880 	call	8001188 <IO_write>
	IO_write(HPI_DATA,0x02D0); //device address
 8003dc0:	0140b404 	movi	r5,720
 8003dc4:	0009883a 	mov	r4,zero
 8003dc8:	80011880 	call	8001188 <IO_write>
	IO_write(HPI_DATA,0x0001);
 8003dcc:	01400044 	movi	r5,1
 8003dd0:	0009883a 	mov	r4,zero
 8003dd4:	80011880 	call	8001188 <IO_write>
	IO_write(HPI_DATA,0x0013);
 8003dd8:	014004c4 	movi	r5,19
 8003ddc:	0009883a 	mov	r4,zero
 8003de0:	80011880 	call	8001188 <IO_write>
	IO_write(HPI_DATA,0x0514);
 8003de4:	01414504 	movi	r5,1300
 8003de8:	0009883a 	mov	r4,zero
 8003dec:	80011880 	call	8001188 <IO_write>

	//td content 4 bytes
	IO_write(HPI_DATA,0x0680);//c
 8003df0:	0141a004 	movi	r5,1664
 8003df4:	0009883a 	mov	r4,zero
 8003df8:	80011880 	call	8001188 <IO_write>
	IO_write(HPI_DATA,0x0200);//e //config 0x02
 8003dfc:	01408004 	movi	r5,512
 8003e00:	0009883a 	mov	r4,zero
 8003e04:	80011880 	call	8001188 <IO_write>
	IO_write(HPI_DATA,0x0000);//0
 8003e08:	000b883a 	mov	r5,zero
 8003e0c:	0009883a 	mov	r4,zero
 8003e10:	80011880 	call	8001188 <IO_write>
	IO_write(HPI_DATA,0x0009);//2
 8003e14:	01400244 	movi	r5,9
 8003e18:	0009883a 	mov	r4,zero
 8003e1c:	80011880 	call	8001188 <IO_write>

	//data phase IN-1
	IO_write(HPI_DATA,0x0544); //514
 8003e20:	01415104 	movi	r5,1348
 8003e24:	0009883a 	mov	r4,zero
 8003e28:	80011880 	call	8001188 <IO_write>
	IO_write(HPI_DATA,0x0008);//6
 8003e2c:	01400204 	movi	r5,8
 8003e30:	0009883a 	mov	r4,zero
 8003e34:	80011880 	call	8001188 <IO_write>
	IO_write(HPI_DATA,0x0290);//8
 8003e38:	0140a404 	movi	r5,656
 8003e3c:	0009883a 	mov	r4,zero
 8003e40:	80011880 	call	8001188 <IO_write>
	IO_write(HPI_DATA,0x0041);//a
 8003e44:	01401044 	movi	r5,65
 8003e48:	0009883a 	mov	r4,zero
 8003e4c:	80011880 	call	8001188 <IO_write>
	IO_write(HPI_DATA,0x0013);//c
 8003e50:	014004c4 	movi	r5,19
 8003e54:	0009883a 	mov	r4,zero
 8003e58:	80011880 	call	8001188 <IO_write>
	IO_write(HPI_DATA,0x0520);//e
 8003e5c:	01414804 	movi	r5,1312
 8003e60:	0009883a 	mov	r4,zero
 8003e64:	80011880 	call	8001188 <IO_write>

	//data phase IN-2
	IO_write(HPI_DATA,0x054c); //520
 8003e68:	01415304 	movi	r5,1356
 8003e6c:	0009883a 	mov	r4,zero
 8003e70:	80011880 	call	8001188 <IO_write>
	IO_write(HPI_DATA,0x0001);//2
 8003e74:	01400044 	movi	r5,1
 8003e78:	0009883a 	mov	r4,zero
 8003e7c:	80011880 	call	8001188 <IO_write>
	IO_write(HPI_DATA,0x0290);//4
 8003e80:	0140a404 	movi	r5,656
 8003e84:	0009883a 	mov	r4,zero
 8003e88:	80011880 	call	8001188 <IO_write>
	IO_write(HPI_DATA,0x0001);//6 //data0
 8003e8c:	01400044 	movi	r5,1
 8003e90:	0009883a 	mov	r4,zero
 8003e94:	80011880 	call	8001188 <IO_write>
	IO_write(HPI_DATA,0x0013);//8
 8003e98:	014004c4 	movi	r5,19
 8003e9c:	0009883a 	mov	r4,zero
 8003ea0:	80011880 	call	8001188 <IO_write>
	IO_write(HPI_DATA,0x052c);//a
 8003ea4:	01414b04 	movi	r5,1324
 8003ea8:	0009883a 	mov	r4,zero
 8003eac:	80011880 	call	8001188 <IO_write>

	//status phase
	IO_write(HPI_DATA,0x0000); //52c
 8003eb0:	000b883a 	mov	r5,zero
 8003eb4:	0009883a 	mov	r4,zero
 8003eb8:	80011880 	call	8001188 <IO_write>
	IO_write(HPI_DATA,0x0000);//e
 8003ebc:	000b883a 	mov	r5,zero
 8003ec0:	0009883a 	mov	r4,zero
 8003ec4:	80011880 	call	8001188 <IO_write>
	IO_write(HPI_DATA,0x0210);//530
 8003ec8:	01408404 	movi	r5,528
 8003ecc:	0009883a 	mov	r4,zero
 8003ed0:	80011880 	call	8001188 <IO_write>
	IO_write(HPI_DATA,0x0041);//2
 8003ed4:	01401044 	movi	r5,65
 8003ed8:	0009883a 	mov	r4,zero
 8003edc:	80011880 	call	8001188 <IO_write>
	IO_write(HPI_DATA,0x0013);//4
 8003ee0:	014004c4 	movi	r5,19
 8003ee4:	0009883a 	mov	r4,zero
 8003ee8:	80011880 	call	8001188 <IO_write>
	IO_write(HPI_DATA,0x0000);//6
 8003eec:	000b883a 	mov	r5,zero
 8003ef0:	0009883a 	mov	r4,zero
 8003ef4:	80011880 	call	8001188 <IO_write>

	UsbWrite(HUSB_SIE1_pCurrentTDPtr,0x0500); //HUSB_SIE1_pCurrentTDPtr
 8003ef8:	01414004 	movi	r5,1280
 8003efc:	01006c04 	movi	r4,432
 8003f00:	800381c0 	call	800381c <UsbWrite>
}
 8003f04:	0001883a 	nop
 8003f08:	e037883a 	mov	sp,fp
 8003f0c:	dfc00117 	ldw	ra,4(sp)
 8003f10:	df000017 	ldw	fp,0(sp)
 8003f14:	dec00204 	addi	sp,sp,8
 8003f18:	f800283a 	ret

08003f1c <UsbGetConfigDesc2>:


void UsbGetConfigDesc2()
{
 8003f1c:	defffe04 	addi	sp,sp,-8
 8003f20:	dfc00115 	stw	ra,4(sp)
 8003f24:	df000015 	stw	fp,0(sp)
 8003f28:	d839883a 	mov	fp,sp
	//the starting address
	IO_write(HPI_ADDR,0x0500); //the start address
 8003f2c:	01414004 	movi	r5,1280
 8003f30:	01000084 	movi	r4,2
 8003f34:	80011880 	call	8001188 <IO_write>
	IO_write(HPI_DATA,0x050C);
 8003f38:	01414304 	movi	r5,1292
 8003f3c:	0009883a 	mov	r4,zero
 8003f40:	80011880 	call	8001188 <IO_write>
	IO_write(HPI_DATA,0x0008); //4 port number
 8003f44:	01400204 	movi	r5,8
 8003f48:	0009883a 	mov	r4,zero
 8003f4c:	80011880 	call	8001188 <IO_write>
	IO_write(HPI_DATA,0x02D0); //device address
 8003f50:	0140b404 	movi	r5,720
 8003f54:	0009883a 	mov	r4,zero
 8003f58:	80011880 	call	8001188 <IO_write>
	IO_write(HPI_DATA,0x0001);
 8003f5c:	01400044 	movi	r5,1
 8003f60:	0009883a 	mov	r4,zero
 8003f64:	80011880 	call	8001188 <IO_write>
	IO_write(HPI_DATA,0x0013);
 8003f68:	014004c4 	movi	r5,19
 8003f6c:	0009883a 	mov	r4,zero
 8003f70:	80011880 	call	8001188 <IO_write>
	IO_write(HPI_DATA,0x0514);
 8003f74:	01414504 	movi	r5,1300
 8003f78:	0009883a 	mov	r4,zero
 8003f7c:	80011880 	call	8001188 <IO_write>

	//td content 4 bytes
	IO_write(HPI_DATA,0x0680);//c
 8003f80:	0141a004 	movi	r5,1664
 8003f84:	0009883a 	mov	r4,zero
 8003f88:	80011880 	call	8001188 <IO_write>
	IO_write(HPI_DATA,0x0200);//e //config 0x02
 8003f8c:	01408004 	movi	r5,512
 8003f90:	0009883a 	mov	r4,zero
 8003f94:	80011880 	call	8001188 <IO_write>
	IO_write(HPI_DATA,0x0000);//0
 8003f98:	000b883a 	mov	r5,zero
 8003f9c:	0009883a 	mov	r4,zero
 8003fa0:	80011880 	call	8001188 <IO_write>
	IO_write(HPI_DATA,0x00FF);//2
 8003fa4:	01403fc4 	movi	r5,255
 8003fa8:	0009883a 	mov	r4,zero
 8003fac:	80011880 	call	8001188 <IO_write>

	//data phase IN-1
	IO_write(HPI_DATA,0x055c); //514
 8003fb0:	01415704 	movi	r5,1372
 8003fb4:	0009883a 	mov	r4,zero
 8003fb8:	80011880 	call	8001188 <IO_write>
	IO_write(HPI_DATA,0x0008);//6
 8003fbc:	01400204 	movi	r5,8
 8003fc0:	0009883a 	mov	r4,zero
 8003fc4:	80011880 	call	8001188 <IO_write>
	IO_write(HPI_DATA,0x0290);//8
 8003fc8:	0140a404 	movi	r5,656
 8003fcc:	0009883a 	mov	r4,zero
 8003fd0:	80011880 	call	8001188 <IO_write>
	IO_write(HPI_DATA,0x0041);//a
 8003fd4:	01401044 	movi	r5,65
 8003fd8:	0009883a 	mov	r4,zero
 8003fdc:	80011880 	call	8001188 <IO_write>
	IO_write(HPI_DATA,0x0013);//c
 8003fe0:	014004c4 	movi	r5,19
 8003fe4:	0009883a 	mov	r4,zero
 8003fe8:	80011880 	call	8001188 <IO_write>
	IO_write(HPI_DATA,0x0520);//e
 8003fec:	01414804 	movi	r5,1312
 8003ff0:	0009883a 	mov	r4,zero
 8003ff4:	80011880 	call	8001188 <IO_write>

	//data phase IN-2
	IO_write(HPI_DATA,0x0564); //520
 8003ff8:	01415904 	movi	r5,1380
 8003ffc:	0009883a 	mov	r4,zero
 8004000:	80011880 	call	8001188 <IO_write>
	IO_write(HPI_DATA,0x0008);//2
 8004004:	01400204 	movi	r5,8
 8004008:	0009883a 	mov	r4,zero
 800400c:	80011880 	call	8001188 <IO_write>
	IO_write(HPI_DATA,0x0290);//4
 8004010:	0140a404 	movi	r5,656
 8004014:	0009883a 	mov	r4,zero
 8004018:	80011880 	call	8001188 <IO_write>
	IO_write(HPI_DATA,0x0001);//6 //data0
 800401c:	01400044 	movi	r5,1
 8004020:	0009883a 	mov	r4,zero
 8004024:	80011880 	call	8001188 <IO_write>
	IO_write(HPI_DATA,0x0013);//8
 8004028:	014004c4 	movi	r5,19
 800402c:	0009883a 	mov	r4,zero
 8004030:	80011880 	call	8001188 <IO_write>
	IO_write(HPI_DATA,0x052c);//a
 8004034:	01414b04 	movi	r5,1324
 8004038:	0009883a 	mov	r4,zero
 800403c:	80011880 	call	8001188 <IO_write>

	//data phase IN-3
	IO_write(HPI_DATA,0x056c); //52c
 8004040:	01415b04 	movi	r5,1388
 8004044:	0009883a 	mov	r4,zero
 8004048:	80011880 	call	8001188 <IO_write>
	IO_write(HPI_DATA,0x0008);//e
 800404c:	01400204 	movi	r5,8
 8004050:	0009883a 	mov	r4,zero
 8004054:	80011880 	call	8001188 <IO_write>
	IO_write(HPI_DATA,0x0290);//530
 8004058:	0140a404 	movi	r5,656
 800405c:	0009883a 	mov	r4,zero
 8004060:	80011880 	call	8001188 <IO_write>
	IO_write(HPI_DATA,0x0041);//2
 8004064:	01401044 	movi	r5,65
 8004068:	0009883a 	mov	r4,zero
 800406c:	80011880 	call	8001188 <IO_write>
	IO_write(HPI_DATA,0x0013);//4
 8004070:	014004c4 	movi	r5,19
 8004074:	0009883a 	mov	r4,zero
 8004078:	80011880 	call	8001188 <IO_write>
	IO_write(HPI_DATA,0x0538);//6
 800407c:	01414e04 	movi	r5,1336
 8004080:	0009883a 	mov	r4,zero
 8004084:	80011880 	call	8001188 <IO_write>

	//data phase IN-4
	IO_write(HPI_DATA,0x0574); //538
 8004088:	01415d04 	movi	r5,1396
 800408c:	0009883a 	mov	r4,zero
 8004090:	80011880 	call	8001188 <IO_write>
	IO_write(HPI_DATA,0x0008);//a
 8004094:	01400204 	movi	r5,8
 8004098:	0009883a 	mov	r4,zero
 800409c:	80011880 	call	8001188 <IO_write>
	IO_write(HPI_DATA,0x0290);//c
 80040a0:	0140a404 	movi	r5,656
 80040a4:	0009883a 	mov	r4,zero
 80040a8:	80011880 	call	8001188 <IO_write>
	IO_write(HPI_DATA,0x0001);//e //data0
 80040ac:	01400044 	movi	r5,1
 80040b0:	0009883a 	mov	r4,zero
 80040b4:	80011880 	call	8001188 <IO_write>
	IO_write(HPI_DATA,0x0013);//540
 80040b8:	014004c4 	movi	r5,19
 80040bc:	0009883a 	mov	r4,zero
 80040c0:	80011880 	call	8001188 <IO_write>
	IO_write(HPI_DATA,0x0544);//2
 80040c4:	01415104 	movi	r5,1348
 80040c8:	0009883a 	mov	r4,zero
 80040cc:	80011880 	call	8001188 <IO_write>

	//data phase IN-5
	IO_write(HPI_DATA,0x057c); //544
 80040d0:	01415f04 	movi	r5,1404
 80040d4:	0009883a 	mov	r4,zero
 80040d8:	80011880 	call	8001188 <IO_write>
	IO_write(HPI_DATA,0x0002);//6
 80040dc:	01400084 	movi	r5,2
 80040e0:	0009883a 	mov	r4,zero
 80040e4:	80011880 	call	8001188 <IO_write>
	IO_write(HPI_DATA,0x0290);//8
 80040e8:	0140a404 	movi	r5,656
 80040ec:	0009883a 	mov	r4,zero
 80040f0:	80011880 	call	8001188 <IO_write>
	IO_write(HPI_DATA,0x0041);//a //data1
 80040f4:	01401044 	movi	r5,65
 80040f8:	0009883a 	mov	r4,zero
 80040fc:	80011880 	call	8001188 <IO_write>
	IO_write(HPI_DATA,0x0013);//c
 8004100:	014004c4 	movi	r5,19
 8004104:	0009883a 	mov	r4,zero
 8004108:	80011880 	call	8001188 <IO_write>
	IO_write(HPI_DATA,0x0550);//e
 800410c:	01415404 	movi	r5,1360
 8004110:	0009883a 	mov	r4,zero
 8004114:	80011880 	call	8001188 <IO_write>

	//status phase
	IO_write(HPI_DATA,0x0000); //550
 8004118:	000b883a 	mov	r5,zero
 800411c:	0009883a 	mov	r4,zero
 8004120:	80011880 	call	8001188 <IO_write>
	IO_write(HPI_DATA,0x0000);//2
 8004124:	000b883a 	mov	r5,zero
 8004128:	0009883a 	mov	r4,zero
 800412c:	80011880 	call	8001188 <IO_write>
	IO_write(HPI_DATA,0x0210);//4
 8004130:	01408404 	movi	r5,528
 8004134:	0009883a 	mov	r4,zero
 8004138:	80011880 	call	8001188 <IO_write>
	IO_write(HPI_DATA,0x0041);//6
 800413c:	01401044 	movi	r5,65
 8004140:	0009883a 	mov	r4,zero
 8004144:	80011880 	call	8001188 <IO_write>
	IO_write(HPI_DATA,0x0013);//8
 8004148:	014004c4 	movi	r5,19
 800414c:	0009883a 	mov	r4,zero
 8004150:	80011880 	call	8001188 <IO_write>
	IO_write(HPI_DATA,0x0000);//a
 8004154:	000b883a 	mov	r5,zero
 8004158:	0009883a 	mov	r4,zero
 800415c:	80011880 	call	8001188 <IO_write>

	UsbWrite(HUSB_SIE1_pCurrentTDPtr,0x0500); //HUSB_SIE1_pCurrentTDPtr
 8004160:	01414004 	movi	r5,1280
 8004164:	01006c04 	movi	r4,432
 8004168:	800381c0 	call	800381c <UsbWrite>
}
 800416c:	0001883a 	nop
 8004170:	e037883a 	mov	sp,fp
 8004174:	dfc00117 	ldw	ra,4(sp)
 8004178:	df000017 	ldw	fp,0(sp)
 800417c:	dec00204 	addi	sp,sp,8
 8004180:	f800283a 	ret

08004184 <UsbSetConfig>:

void UsbSetConfig()
{
 8004184:	defffe04 	addi	sp,sp,-8
 8004188:	dfc00115 	stw	ra,4(sp)
 800418c:	df000015 	stw	fp,0(sp)
 8004190:	d839883a 	mov	fp,sp
	//the starting address
	IO_write(HPI_ADDR,0x0500); //the start address
 8004194:	01414004 	movi	r5,1280
 8004198:	01000084 	movi	r4,2
 800419c:	80011880 	call	8001188 <IO_write>
	IO_write(HPI_DATA,0x050C);
 80041a0:	01414304 	movi	r5,1292
 80041a4:	0009883a 	mov	r4,zero
 80041a8:	80011880 	call	8001188 <IO_write>
	IO_write(HPI_DATA,0x0008); //4 port number
 80041ac:	01400204 	movi	r5,8
 80041b0:	0009883a 	mov	r4,zero
 80041b4:	80011880 	call	8001188 <IO_write>
	IO_write(HPI_DATA,0x02D0); //port address
 80041b8:	0140b404 	movi	r5,720
 80041bc:	0009883a 	mov	r4,zero
 80041c0:	80011880 	call	8001188 <IO_write>
	IO_write(HPI_DATA,0x0001);
 80041c4:	01400044 	movi	r5,1
 80041c8:	0009883a 	mov	r4,zero
 80041cc:	80011880 	call	8001188 <IO_write>
	IO_write(HPI_DATA,0x0013);
 80041d0:	014004c4 	movi	r5,19
 80041d4:	0009883a 	mov	r4,zero
 80041d8:	80011880 	call	8001188 <IO_write>
	IO_write(HPI_DATA,0x0514);
 80041dc:	01414504 	movi	r5,1300
 80041e0:	0009883a 	mov	r4,zero
 80041e4:	80011880 	call	8001188 <IO_write>

	//td content 4 bytes
	IO_write(HPI_DATA,0x0900);
 80041e8:	01424004 	movi	r5,2304
 80041ec:	0009883a 	mov	r4,zero
 80041f0:	80011880 	call	8001188 <IO_write>
	IO_write(HPI_DATA,0x0001);//device address
 80041f4:	01400044 	movi	r5,1
 80041f8:	0009883a 	mov	r4,zero
 80041fc:	80011880 	call	8001188 <IO_write>
	IO_write(HPI_DATA,0x0000);
 8004200:	000b883a 	mov	r5,zero
 8004204:	0009883a 	mov	r4,zero
 8004208:	80011880 	call	8001188 <IO_write>
	IO_write(HPI_DATA,0x0000);
 800420c:	000b883a 	mov	r5,zero
 8004210:	0009883a 	mov	r4,zero
 8004214:	80011880 	call	8001188 <IO_write>
	//in packet
	IO_write(HPI_DATA,0x0000); //don't care
 8004218:	000b883a 	mov	r5,zero
 800421c:	0009883a 	mov	r4,zero
 8004220:	80011880 	call	8001188 <IO_write>
	IO_write(HPI_DATA,0x0000);//port number
 8004224:	000b883a 	mov	r5,zero
 8004228:	0009883a 	mov	r4,zero
 800422c:	80011880 	call	8001188 <IO_write>
	IO_write(HPI_DATA,0x0290);//device address
 8004230:	0140a404 	movi	r5,656
 8004234:	0009883a 	mov	r4,zero
 8004238:	80011880 	call	8001188 <IO_write>
	IO_write(HPI_DATA,0x0041); //data 1
 800423c:	01401044 	movi	r5,65
 8004240:	0009883a 	mov	r4,zero
 8004244:	80011880 	call	8001188 <IO_write>
	IO_write(HPI_DATA,0x0013);
 8004248:	014004c4 	movi	r5,19
 800424c:	0009883a 	mov	r4,zero
 8004250:	80011880 	call	8001188 <IO_write>
	IO_write(HPI_DATA,0x0000);
 8004254:	000b883a 	mov	r5,zero
 8004258:	0009883a 	mov	r4,zero
 800425c:	80011880 	call	8001188 <IO_write>

	UsbWrite(HUSB_SIE1_pCurrentTDPtr,0x0500); //HUSB_SIE1_pCurrentTDPtr
 8004260:	01414004 	movi	r5,1280
 8004264:	01006c04 	movi	r4,432
 8004268:	800381c0 	call	800381c <UsbWrite>

}
 800426c:	0001883a 	nop
 8004270:	e037883a 	mov	sp,fp
 8004274:	dfc00117 	ldw	ra,4(sp)
 8004278:	df000017 	ldw	fp,0(sp)
 800427c:	dec00204 	addi	sp,sp,8
 8004280:	f800283a 	ret

08004284 <UsbClassRequest>:

void UsbClassRequest()
{
 8004284:	defffe04 	addi	sp,sp,-8
 8004288:	dfc00115 	stw	ra,4(sp)
 800428c:	df000015 	stw	fp,0(sp)
 8004290:	d839883a 	mov	fp,sp
	//the starting address
	IO_write(HPI_ADDR,0x0500); //the start address
 8004294:	01414004 	movi	r5,1280
 8004298:	01000084 	movi	r4,2
 800429c:	80011880 	call	8001188 <IO_write>
	IO_write(HPI_DATA,0x050C);
 80042a0:	01414304 	movi	r5,1292
 80042a4:	0009883a 	mov	r4,zero
 80042a8:	80011880 	call	8001188 <IO_write>
	IO_write(HPI_DATA,0x0008); //4 port number
 80042ac:	01400204 	movi	r5,8
 80042b0:	0009883a 	mov	r4,zero
 80042b4:	80011880 	call	8001188 <IO_write>
	IO_write(HPI_DATA,0x02D0); //port address
 80042b8:	0140b404 	movi	r5,720
 80042bc:	0009883a 	mov	r4,zero
 80042c0:	80011880 	call	8001188 <IO_write>
	IO_write(HPI_DATA,0x0001);
 80042c4:	01400044 	movi	r5,1
 80042c8:	0009883a 	mov	r4,zero
 80042cc:	80011880 	call	8001188 <IO_write>
	IO_write(HPI_DATA,0x0013);
 80042d0:	014004c4 	movi	r5,19
 80042d4:	0009883a 	mov	r4,zero
 80042d8:	80011880 	call	8001188 <IO_write>
	IO_write(HPI_DATA,0x0514);
 80042dc:	01414504 	movi	r5,1300
 80042e0:	0009883a 	mov	r4,zero
 80042e4:	80011880 	call	8001188 <IO_write>

	//td content 4 bytes
	IO_write(HPI_DATA,0x0A21);
 80042e8:	01428844 	movi	r5,2593
 80042ec:	0009883a 	mov	r4,zero
 80042f0:	80011880 	call	8001188 <IO_write>
	IO_write(HPI_DATA,0x0000);//device address
 80042f4:	000b883a 	mov	r5,zero
 80042f8:	0009883a 	mov	r4,zero
 80042fc:	80011880 	call	8001188 <IO_write>
	IO_write(HPI_DATA,0x0000);
 8004300:	000b883a 	mov	r5,zero
 8004304:	0009883a 	mov	r4,zero
 8004308:	80011880 	call	8001188 <IO_write>
	IO_write(HPI_DATA,0x0000);
 800430c:	000b883a 	mov	r5,zero
 8004310:	0009883a 	mov	r4,zero
 8004314:	80011880 	call	8001188 <IO_write>
	//in packet
	IO_write(HPI_DATA,0x0000); //don't care
 8004318:	000b883a 	mov	r5,zero
 800431c:	0009883a 	mov	r4,zero
 8004320:	80011880 	call	8001188 <IO_write>
	IO_write(HPI_DATA,0x0000);//port number /data length
 8004324:	000b883a 	mov	r5,zero
 8004328:	0009883a 	mov	r4,zero
 800432c:	80011880 	call	8001188 <IO_write>
	IO_write(HPI_DATA,0x0290);//device address
 8004330:	0140a404 	movi	r5,656
 8004334:	0009883a 	mov	r4,zero
 8004338:	80011880 	call	8001188 <IO_write>
	IO_write(HPI_DATA,0x0041); //data 1
 800433c:	01401044 	movi	r5,65
 8004340:	0009883a 	mov	r4,zero
 8004344:	80011880 	call	8001188 <IO_write>
	IO_write(HPI_DATA,0x0013);
 8004348:	014004c4 	movi	r5,19
 800434c:	0009883a 	mov	r4,zero
 8004350:	80011880 	call	8001188 <IO_write>
	IO_write(HPI_DATA,0x0000);
 8004354:	000b883a 	mov	r5,zero
 8004358:	0009883a 	mov	r4,zero
 800435c:	80011880 	call	8001188 <IO_write>

	UsbWrite(HUSB_SIE1_pCurrentTDPtr,0x0500); //HUSB_SIE1_pCurrentTDPtr
 8004360:	01414004 	movi	r5,1280
 8004364:	01006c04 	movi	r4,432
 8004368:	800381c0 	call	800381c <UsbWrite>
}
 800436c:	0001883a 	nop
 8004370:	e037883a 	mov	sp,fp
 8004374:	dfc00117 	ldw	ra,4(sp)
 8004378:	df000017 	ldw	fp,0(sp)
 800437c:	dec00204 	addi	sp,sp,8
 8004380:	f800283a 	ret

08004384 <UsbGetHidDesc>:


void UsbGetHidDesc()
{
 8004384:	defffe04 	addi	sp,sp,-8
 8004388:	dfc00115 	stw	ra,4(sp)
 800438c:	df000015 	stw	fp,0(sp)
 8004390:	d839883a 	mov	fp,sp
	//the starting address
	IO_write(HPI_ADDR,0x0500); //the start address
 8004394:	01414004 	movi	r5,1280
 8004398:	01000084 	movi	r4,2
 800439c:	80011880 	call	8001188 <IO_write>
	IO_write(HPI_DATA,0x050C);
 80043a0:	01414304 	movi	r5,1292
 80043a4:	0009883a 	mov	r4,zero
 80043a8:	80011880 	call	8001188 <IO_write>
	IO_write(HPI_DATA,0x0008); //4 port number
 80043ac:	01400204 	movi	r5,8
 80043b0:	0009883a 	mov	r4,zero
 80043b4:	80011880 	call	8001188 <IO_write>
	IO_write(HPI_DATA,0x02D0); //port address
 80043b8:	0140b404 	movi	r5,720
 80043bc:	0009883a 	mov	r4,zero
 80043c0:	80011880 	call	8001188 <IO_write>
	IO_write(HPI_DATA,0x0001);
 80043c4:	01400044 	movi	r5,1
 80043c8:	0009883a 	mov	r4,zero
 80043cc:	80011880 	call	8001188 <IO_write>
	IO_write(HPI_DATA,0x0013);
 80043d0:	014004c4 	movi	r5,19
 80043d4:	0009883a 	mov	r4,zero
 80043d8:	80011880 	call	8001188 <IO_write>
	IO_write(HPI_DATA,0x0514);
 80043dc:	01414504 	movi	r5,1300
 80043e0:	0009883a 	mov	r4,zero
 80043e4:	80011880 	call	8001188 <IO_write>

	//td content 4 bytes
	IO_write(HPI_DATA,0x0681);//c
 80043e8:	0141a044 	movi	r5,1665
 80043ec:	0009883a 	mov	r4,zero
 80043f0:	80011880 	call	8001188 <IO_write>
	IO_write(HPI_DATA,0x2100);//e //HID 0x21
 80043f4:	01484004 	movi	r5,8448
 80043f8:	0009883a 	mov	r4,zero
 80043fc:	80011880 	call	8001188 <IO_write>
	IO_write(HPI_DATA,0x0000);//0
 8004400:	000b883a 	mov	r5,zero
 8004404:	0009883a 	mov	r4,zero
 8004408:	80011880 	call	8001188 <IO_write>
	IO_write(HPI_DATA,0x007B);//2
 800440c:	01401ec4 	movi	r5,123
 8004410:	0009883a 	mov	r4,zero
 8004414:	80011880 	call	8001188 <IO_write>

	//data phase IN-1
	IO_write(HPI_DATA,0x0544); //514
 8004418:	01415104 	movi	r5,1348
 800441c:	0009883a 	mov	r4,zero
 8004420:	80011880 	call	8001188 <IO_write>
	IO_write(HPI_DATA,0x0008);//6
 8004424:	01400204 	movi	r5,8
 8004428:	0009883a 	mov	r4,zero
 800442c:	80011880 	call	8001188 <IO_write>
	IO_write(HPI_DATA,0x0290);//8
 8004430:	0140a404 	movi	r5,656
 8004434:	0009883a 	mov	r4,zero
 8004438:	80011880 	call	8001188 <IO_write>
	IO_write(HPI_DATA,0x0041);//a
 800443c:	01401044 	movi	r5,65
 8004440:	0009883a 	mov	r4,zero
 8004444:	80011880 	call	8001188 <IO_write>
	IO_write(HPI_DATA,0x0013);//c
 8004448:	014004c4 	movi	r5,19
 800444c:	0009883a 	mov	r4,zero
 8004450:	80011880 	call	8001188 <IO_write>
	IO_write(HPI_DATA,0x0520);//e
 8004454:	01414804 	movi	r5,1312
 8004458:	0009883a 	mov	r4,zero
 800445c:	80011880 	call	8001188 <IO_write>

	//status phase
	IO_write(HPI_DATA,0x0000); //52c
 8004460:	000b883a 	mov	r5,zero
 8004464:	0009883a 	mov	r4,zero
 8004468:	80011880 	call	8001188 <IO_write>
	IO_write(HPI_DATA,0x0000);//e
 800446c:	000b883a 	mov	r5,zero
 8004470:	0009883a 	mov	r4,zero
 8004474:	80011880 	call	8001188 <IO_write>
	IO_write(HPI_DATA,0x0210);//530
 8004478:	01408404 	movi	r5,528
 800447c:	0009883a 	mov	r4,zero
 8004480:	80011880 	call	8001188 <IO_write>
	IO_write(HPI_DATA,0x0041);//2
 8004484:	01401044 	movi	r5,65
 8004488:	0009883a 	mov	r4,zero
 800448c:	80011880 	call	8001188 <IO_write>
	IO_write(HPI_DATA,0x0013);//4
 8004490:	014004c4 	movi	r5,19
 8004494:	0009883a 	mov	r4,zero
 8004498:	80011880 	call	8001188 <IO_write>
	IO_write(HPI_DATA,0x0000);//6
 800449c:	000b883a 	mov	r5,zero
 80044a0:	0009883a 	mov	r4,zero
 80044a4:	80011880 	call	8001188 <IO_write>

	UsbWrite(HUSB_SIE1_pCurrentTDPtr,0x0500); //HUSB_SIE1_pCurrentTDPtr
 80044a8:	01414004 	movi	r5,1280
 80044ac:	01006c04 	movi	r4,432
 80044b0:	800381c0 	call	800381c <UsbWrite>

}
 80044b4:	0001883a 	nop
 80044b8:	e037883a 	mov	sp,fp
 80044bc:	dfc00117 	ldw	ra,4(sp)
 80044c0:	df000017 	ldw	fp,0(sp)
 80044c4:	dec00204 	addi	sp,sp,8
 80044c8:	f800283a 	ret

080044cc <UsbGetReportDesc>:


void UsbGetReportDesc()
{
 80044cc:	defffe04 	addi	sp,sp,-8
 80044d0:	dfc00115 	stw	ra,4(sp)
 80044d4:	df000015 	stw	fp,0(sp)
 80044d8:	d839883a 	mov	fp,sp
	//the starting address
	IO_write(HPI_ADDR,0x0500); //the start address
 80044dc:	01414004 	movi	r5,1280
 80044e0:	01000084 	movi	r4,2
 80044e4:	80011880 	call	8001188 <IO_write>
	IO_write(HPI_DATA,0x050C);
 80044e8:	01414304 	movi	r5,1292
 80044ec:	0009883a 	mov	r4,zero
 80044f0:	80011880 	call	8001188 <IO_write>
	IO_write(HPI_DATA,0x0008); //4 port number
 80044f4:	01400204 	movi	r5,8
 80044f8:	0009883a 	mov	r4,zero
 80044fc:	80011880 	call	8001188 <IO_write>
	IO_write(HPI_DATA,0x02D0); //device address
 8004500:	0140b404 	movi	r5,720
 8004504:	0009883a 	mov	r4,zero
 8004508:	80011880 	call	8001188 <IO_write>
	IO_write(HPI_DATA,0x0001);
 800450c:	01400044 	movi	r5,1
 8004510:	0009883a 	mov	r4,zero
 8004514:	80011880 	call	8001188 <IO_write>
	IO_write(HPI_DATA,0x0013);
 8004518:	014004c4 	movi	r5,19
 800451c:	0009883a 	mov	r4,zero
 8004520:	80011880 	call	8001188 <IO_write>
	IO_write(HPI_DATA,0x0514);
 8004524:	01414504 	movi	r5,1300
 8004528:	0009883a 	mov	r4,zero
 800452c:	80011880 	call	8001188 <IO_write>

	//td content 4 bytes
	IO_write(HPI_DATA,0x0681);//c
 8004530:	0141a044 	movi	r5,1665
 8004534:	0009883a 	mov	r4,zero
 8004538:	80011880 	call	8001188 <IO_write>
	IO_write(HPI_DATA,0x2200);//e //report 0x22
 800453c:	01488004 	movi	r5,8704
 8004540:	0009883a 	mov	r4,zero
 8004544:	80011880 	call	8001188 <IO_write>
	IO_write(HPI_DATA,0x0000);//0
 8004548:	000b883a 	mov	r5,zero
 800454c:	0009883a 	mov	r4,zero
 8004550:	80011880 	call	8001188 <IO_write>
	IO_write(HPI_DATA,0x007B);//2
 8004554:	01401ec4 	movi	r5,123
 8004558:	0009883a 	mov	r4,zero
 800455c:	80011880 	call	8001188 <IO_write>

	//data phase IN-1
	IO_write(HPI_DATA,0x0580); //514
 8004560:	01416004 	movi	r5,1408
 8004564:	0009883a 	mov	r4,zero
 8004568:	80011880 	call	8001188 <IO_write>
	IO_write(HPI_DATA,0x0008);//6
 800456c:	01400204 	movi	r5,8
 8004570:	0009883a 	mov	r4,zero
 8004574:	80011880 	call	8001188 <IO_write>
	IO_write(HPI_DATA,0x0290);//8
 8004578:	0140a404 	movi	r5,656
 800457c:	0009883a 	mov	r4,zero
 8004580:	80011880 	call	8001188 <IO_write>
	IO_write(HPI_DATA,0x0041);//a
 8004584:	01401044 	movi	r5,65
 8004588:	0009883a 	mov	r4,zero
 800458c:	80011880 	call	8001188 <IO_write>
	IO_write(HPI_DATA,0x0013);//c
 8004590:	014004c4 	movi	r5,19
 8004594:	0009883a 	mov	r4,zero
 8004598:	80011880 	call	8001188 <IO_write>
	IO_write(HPI_DATA,0x0520);//e
 800459c:	01414804 	movi	r5,1312
 80045a0:	0009883a 	mov	r4,zero
 80045a4:	80011880 	call	8001188 <IO_write>

	//data phase IN-2
	IO_write(HPI_DATA,0x0588); //520
 80045a8:	01416204 	movi	r5,1416
 80045ac:	0009883a 	mov	r4,zero
 80045b0:	80011880 	call	8001188 <IO_write>
	IO_write(HPI_DATA,0x0008);//2
 80045b4:	01400204 	movi	r5,8
 80045b8:	0009883a 	mov	r4,zero
 80045bc:	80011880 	call	8001188 <IO_write>
	IO_write(HPI_DATA,0x0290);//4
 80045c0:	0140a404 	movi	r5,656
 80045c4:	0009883a 	mov	r4,zero
 80045c8:	80011880 	call	8001188 <IO_write>
	IO_write(HPI_DATA,0x0001);//6 //data0
 80045cc:	01400044 	movi	r5,1
 80045d0:	0009883a 	mov	r4,zero
 80045d4:	80011880 	call	8001188 <IO_write>
	IO_write(HPI_DATA,0x0013);//8
 80045d8:	014004c4 	movi	r5,19
 80045dc:	0009883a 	mov	r4,zero
 80045e0:	80011880 	call	8001188 <IO_write>
	IO_write(HPI_DATA,0x052c);//a
 80045e4:	01414b04 	movi	r5,1324
 80045e8:	0009883a 	mov	r4,zero
 80045ec:	80011880 	call	8001188 <IO_write>

	//data phase IN-3
	IO_write(HPI_DATA,0x0590); //52c
 80045f0:	01416404 	movi	r5,1424
 80045f4:	0009883a 	mov	r4,zero
 80045f8:	80011880 	call	8001188 <IO_write>
	IO_write(HPI_DATA,0x0008);//e
 80045fc:	01400204 	movi	r5,8
 8004600:	0009883a 	mov	r4,zero
 8004604:	80011880 	call	8001188 <IO_write>
	IO_write(HPI_DATA,0x0290);//530
 8004608:	0140a404 	movi	r5,656
 800460c:	0009883a 	mov	r4,zero
 8004610:	80011880 	call	8001188 <IO_write>
	IO_write(HPI_DATA,0x0041);//2
 8004614:	01401044 	movi	r5,65
 8004618:	0009883a 	mov	r4,zero
 800461c:	80011880 	call	8001188 <IO_write>
	IO_write(HPI_DATA,0x0013);//4
 8004620:	014004c4 	movi	r5,19
 8004624:	0009883a 	mov	r4,zero
 8004628:	80011880 	call	8001188 <IO_write>
	IO_write(HPI_DATA,0x0538);//6
 800462c:	01414e04 	movi	r5,1336
 8004630:	0009883a 	mov	r4,zero
 8004634:	80011880 	call	8001188 <IO_write>

	//data phase IN-4
	IO_write(HPI_DATA,0x0598); //538
 8004638:	01416604 	movi	r5,1432
 800463c:	0009883a 	mov	r4,zero
 8004640:	80011880 	call	8001188 <IO_write>
	IO_write(HPI_DATA,0x0008);//a
 8004644:	01400204 	movi	r5,8
 8004648:	0009883a 	mov	r4,zero
 800464c:	80011880 	call	8001188 <IO_write>
	IO_write(HPI_DATA,0x0290);//c
 8004650:	0140a404 	movi	r5,656
 8004654:	0009883a 	mov	r4,zero
 8004658:	80011880 	call	8001188 <IO_write>
	IO_write(HPI_DATA,0x0001);//e //data0
 800465c:	01400044 	movi	r5,1
 8004660:	0009883a 	mov	r4,zero
 8004664:	80011880 	call	8001188 <IO_write>
	IO_write(HPI_DATA,0x0013);//540
 8004668:	014004c4 	movi	r5,19
 800466c:	0009883a 	mov	r4,zero
 8004670:	80011880 	call	8001188 <IO_write>
	IO_write(HPI_DATA,0x0544);//2
 8004674:	01415104 	movi	r5,1348
 8004678:	0009883a 	mov	r4,zero
 800467c:	80011880 	call	8001188 <IO_write>

	//data phase IN-5
	IO_write(HPI_DATA,0x05a0); //544
 8004680:	01416804 	movi	r5,1440
 8004684:	0009883a 	mov	r4,zero
 8004688:	80011880 	call	8001188 <IO_write>
	IO_write(HPI_DATA,0x0008);//6
 800468c:	01400204 	movi	r5,8
 8004690:	0009883a 	mov	r4,zero
 8004694:	80011880 	call	8001188 <IO_write>
	IO_write(HPI_DATA,0x0290);//8
 8004698:	0140a404 	movi	r5,656
 800469c:	0009883a 	mov	r4,zero
 80046a0:	80011880 	call	8001188 <IO_write>
	IO_write(HPI_DATA,0x0041);//a //data1
 80046a4:	01401044 	movi	r5,65
 80046a8:	0009883a 	mov	r4,zero
 80046ac:	80011880 	call	8001188 <IO_write>
	IO_write(HPI_DATA,0x0013);//c
 80046b0:	014004c4 	movi	r5,19
 80046b4:	0009883a 	mov	r4,zero
 80046b8:	80011880 	call	8001188 <IO_write>
	IO_write(HPI_DATA,0x0550);//e
 80046bc:	01415404 	movi	r5,1360
 80046c0:	0009883a 	mov	r4,zero
 80046c4:	80011880 	call	8001188 <IO_write>

	//data phase IN-6
	IO_write(HPI_DATA,0x05a8); //550
 80046c8:	01416a04 	movi	r5,1448
 80046cc:	0009883a 	mov	r4,zero
 80046d0:	80011880 	call	8001188 <IO_write>
	IO_write(HPI_DATA,0x0008);//2
 80046d4:	01400204 	movi	r5,8
 80046d8:	0009883a 	mov	r4,zero
 80046dc:	80011880 	call	8001188 <IO_write>
	IO_write(HPI_DATA,0x0290);//4
 80046e0:	0140a404 	movi	r5,656
 80046e4:	0009883a 	mov	r4,zero
 80046e8:	80011880 	call	8001188 <IO_write>
	IO_write(HPI_DATA,0x0001);//6 //data0
 80046ec:	01400044 	movi	r5,1
 80046f0:	0009883a 	mov	r4,zero
 80046f4:	80011880 	call	8001188 <IO_write>
	IO_write(HPI_DATA,0x0013);//8
 80046f8:	014004c4 	movi	r5,19
 80046fc:	0009883a 	mov	r4,zero
 8004700:	80011880 	call	8001188 <IO_write>
	IO_write(HPI_DATA,0x055c);//a
 8004704:	01415704 	movi	r5,1372
 8004708:	0009883a 	mov	r4,zero
 800470c:	80011880 	call	8001188 <IO_write>

	//data phase IN-7
	IO_write(HPI_DATA,0x05b0); //c
 8004710:	01416c04 	movi	r5,1456
 8004714:	0009883a 	mov	r4,zero
 8004718:	80011880 	call	8001188 <IO_write>
	IO_write(HPI_DATA,0x0008);//e
 800471c:	01400204 	movi	r5,8
 8004720:	0009883a 	mov	r4,zero
 8004724:	80011880 	call	8001188 <IO_write>
	IO_write(HPI_DATA,0x0290);//560
 8004728:	0140a404 	movi	r5,656
 800472c:	0009883a 	mov	r4,zero
 8004730:	80011880 	call	8001188 <IO_write>
	IO_write(HPI_DATA,0x0041);//2 //data1
 8004734:	01401044 	movi	r5,65
 8004738:	0009883a 	mov	r4,zero
 800473c:	80011880 	call	8001188 <IO_write>
	IO_write(HPI_DATA,0x0013);//4
 8004740:	014004c4 	movi	r5,19
 8004744:	0009883a 	mov	r4,zero
 8004748:	80011880 	call	8001188 <IO_write>
	IO_write(HPI_DATA,0x0568);//6
 800474c:	01415a04 	movi	r5,1384
 8004750:	0009883a 	mov	r4,zero
 8004754:	80011880 	call	8001188 <IO_write>

	//data phase IN-8
	IO_write(HPI_DATA,0x05b8); //8
 8004758:	01416e04 	movi	r5,1464
 800475c:	0009883a 	mov	r4,zero
 8004760:	80011880 	call	8001188 <IO_write>
	IO_write(HPI_DATA,0x0003);//a
 8004764:	014000c4 	movi	r5,3
 8004768:	0009883a 	mov	r4,zero
 800476c:	80011880 	call	8001188 <IO_write>
	IO_write(HPI_DATA,0x0290);//c
 8004770:	0140a404 	movi	r5,656
 8004774:	0009883a 	mov	r4,zero
 8004778:	80011880 	call	8001188 <IO_write>
	IO_write(HPI_DATA,0x0001);//e //data0
 800477c:	01400044 	movi	r5,1
 8004780:	0009883a 	mov	r4,zero
 8004784:	80011880 	call	8001188 <IO_write>
	IO_write(HPI_DATA,0x0013);//570
 8004788:	014004c4 	movi	r5,19
 800478c:	0009883a 	mov	r4,zero
 8004790:	80011880 	call	8001188 <IO_write>
	IO_write(HPI_DATA,0x0574);//2
 8004794:	01415d04 	movi	r5,1396
 8004798:	0009883a 	mov	r4,zero
 800479c:	80011880 	call	8001188 <IO_write>

	//status phase
	IO_write(HPI_DATA,0x0000); //574
 80047a0:	000b883a 	mov	r5,zero
 80047a4:	0009883a 	mov	r4,zero
 80047a8:	80011880 	call	8001188 <IO_write>
	IO_write(HPI_DATA,0x0000);//6
 80047ac:	000b883a 	mov	r5,zero
 80047b0:	0009883a 	mov	r4,zero
 80047b4:	80011880 	call	8001188 <IO_write>
	IO_write(HPI_DATA,0x0210);//8
 80047b8:	01408404 	movi	r5,528
 80047bc:	0009883a 	mov	r4,zero
 80047c0:	80011880 	call	8001188 <IO_write>
	IO_write(HPI_DATA,0x0041);//a
 80047c4:	01401044 	movi	r5,65
 80047c8:	0009883a 	mov	r4,zero
 80047cc:	80011880 	call	8001188 <IO_write>
	IO_write(HPI_DATA,0x0013);//c
 80047d0:	014004c4 	movi	r5,19
 80047d4:	0009883a 	mov	r4,zero
 80047d8:	80011880 	call	8001188 <IO_write>
	IO_write(HPI_DATA,0x0000);//e
 80047dc:	000b883a 	mov	r5,zero
 80047e0:	0009883a 	mov	r4,zero
 80047e4:	80011880 	call	8001188 <IO_write>

	UsbWrite(HUSB_SIE1_pCurrentTDPtr,0x0500); //HUSB_SIE1_pCurrentTDPtr
 80047e8:	01414004 	movi	r5,1280
 80047ec:	01006c04 	movi	r4,432
 80047f0:	800381c0 	call	800381c <UsbWrite>

}
 80047f4:	0001883a 	nop
 80047f8:	e037883a 	mov	sp,fp
 80047fc:	dfc00117 	ldw	ra,4(sp)
 8004800:	df000017 	ldw	fp,0(sp)
 8004804:	dec00204 	addi	sp,sp,8
 8004808:	f800283a 	ret

0800480c <UsbWaitTDListDone>:


alt_u16 UsbWaitTDListDone()
{
 800480c:	defffd04 	addi	sp,sp,-12
 8004810:	dfc00215 	stw	ra,8(sp)
 8004814:	df000115 	stw	fp,4(sp)
 8004818:	df000104 	addi	fp,sp,4
	alt_u16 usb_ctl_val;

	usb_ctl_val = UsbRead(HPI_SIE1_MSG_ADR); // STEP 3 j
 800481c:	01005104 	movi	r4,324
 8004820:	80038740 	call	8003874 <UsbRead>
 8004824:	e0bfff0d 	sth	r2,-4(fp)
	UsbWrite(HPI_SIE1_MSG_ADR, 0);
 8004828:	000b883a 	mov	r5,zero
 800482c:	01005104 	movi	r4,324
 8004830:	800381c0 	call	800381c <UsbWrite>
	while (usb_ctl_val != HUSB_TDListDone)  // k, read sie1 msg register
 8004834:	00000d06 	br	800486c <UsbWaitTDListDone+0x60>
	{
		if(usb_ctl_val == 0x0000)
 8004838:	e0bfff0b 	ldhu	r2,-4(fp)
 800483c:	10000526 	beq	r2,zero,8004854 <UsbWaitTDListDone+0x48>
		{
		}
		else
		{
			printf("[SIE1 MSG]:SIE1 msg reg is %x\n",usb_ctl_val);
 8004840:	e0bfff0b 	ldhu	r2,-4(fp)
 8004844:	100b883a 	mov	r5,r2
 8004848:	01020074 	movhi	r4,2049
 800484c:	21136604 	addi	r4,r4,19864
 8004850:	800636c0 	call	800636c <printf>
		}
		usb_ctl_val = UsbRead(HPI_SIE1_MSG_ADR);
 8004854:	01005104 	movi	r4,324
 8004858:	80038740 	call	8003874 <UsbRead>
 800485c:	e0bfff0d 	sth	r2,-4(fp)
		UsbWrite(HPI_SIE1_MSG_ADR, 0);
 8004860:	000b883a 	mov	r5,zero
 8004864:	01005104 	movi	r4,324
 8004868:	800381c0 	call	800381c <UsbWrite>
{
	alt_u16 usb_ctl_val;

	usb_ctl_val = UsbRead(HPI_SIE1_MSG_ADR); // STEP 3 j
	UsbWrite(HPI_SIE1_MSG_ADR, 0);
	while (usb_ctl_val != HUSB_TDListDone)  // k, read sie1 msg register
 800486c:	e0bfff0b 	ldhu	r2,-4(fp)
 8004870:	10840018 	cmpnei	r2,r2,4096
 8004874:	103ff01e 	bne	r2,zero,8004838 <__alt_data_end+0xf8004838>
		}
		usb_ctl_val = UsbRead(HPI_SIE1_MSG_ADR);
		UsbWrite(HPI_SIE1_MSG_ADR, 0);
	}

	return usb_ctl_val;
 8004878:	e0bfff0b 	ldhu	r2,-4(fp)
}
 800487c:	e037883a 	mov	sp,fp
 8004880:	dfc00117 	ldw	ra,4(sp)
 8004884:	df000017 	ldw	fp,0(sp)
 8004888:	dec00204 	addi	sp,sp,8
 800488c:	f800283a 	ret

08004890 <UsbGetRetryCnt>:


alt_u16 UsbGetRetryCnt()
{
 8004890:	defffd04 	addi	sp,sp,-12
 8004894:	dfc00215 	stw	ra,8(sp)
 8004898:	df000115 	stw	fp,4(sp)
 800489c:	df000104 	addi	fp,sp,4
	alt_u16 usb_ctl_val;

	IO_read(HPI_STATUS);
 80048a0:	010000c4 	movi	r4,3
 80048a4:	80012100 	call	8001210 <IO_read>
	if(UsbRead(HPI_SIE1_MSG_ADR) == HUSB_TDListDone)
 80048a8:	01005104 	movi	r4,324
 80048ac:	80038740 	call	8003874 <UsbRead>
 80048b0:	10bfffcc 	andi	r2,r2,65535
 80048b4:	10840018 	cmpnei	r2,r2,4096
 80048b8:	1000091e 	bne	r2,zero,80048e0 <UsbGetRetryCnt+0x50>
	{
		UsbWrite(HPI_SIE1_MSG_ADR, 0);
 80048bc:	000b883a 	mov	r5,zero
 80048c0:	01005104 	movi	r4,324
 80048c4:	800381c0 	call	800381c <UsbWrite>

		while (!(IO_read(HPI_STATUS) & HPI_STATUS_SIE1msg_FLAG) )  //read sie1 msg register
 80048c8:	0001883a 	nop
 80048cc:	010000c4 	movi	r4,3
 80048d0:	80012100 	call	8001210 <IO_read>
 80048d4:	10bfffcc 	andi	r2,r2,65535
 80048d8:	1080040c 	andi	r2,r2,16
 80048dc:	103ffb26 	beq	r2,zero,80048cc <__alt_data_end+0xf80048cc>
		{
		}
	}
	//usleep(1000);
	IO_write(HPI_ADDR,0x0508);
 80048e0:	01414204 	movi	r5,1288
 80048e4:	01000084 	movi	r4,2
 80048e8:	80011880 	call	8001188 <IO_write>
	usb_ctl_val = IO_read(HPI_DATA);
 80048ec:	0009883a 	mov	r4,zero
 80048f0:	80012100 	call	8001210 <IO_read>
 80048f4:	e0bfff0d 	sth	r2,-4(fp)

	return usb_ctl_val;
 80048f8:	e0bfff0b 	ldhu	r2,-4(fp)
}
 80048fc:	e037883a 	mov	sp,fp
 8004900:	dfc00117 	ldw	ra,4(sp)
 8004904:	df000017 	ldw	fp,0(sp)
 8004908:	dec00204 	addi	sp,sp,8
 800490c:	f800283a 	ret

08004910 <UsbPrintMem>:


void UsbPrintMem()
{
 8004910:	defffc04 	addi	sp,sp,-16
 8004914:	dfc00315 	stw	ra,12(sp)
 8004918:	df000215 	stw	fp,8(sp)
 800491c:	df000204 	addi	fp,sp,8
	int i, code;
	IO_write(HPI_ADDR,0x0500); //the start address
 8004920:	01414004 	movi	r5,1280
 8004924:	01000084 	movi	r4,2
 8004928:	80011880 	call	8001188 <IO_write>
	for (i = 0; i <= 200; i += 2)
 800492c:	e03ffe15 	stw	zero,-8(fp)
 8004930:	00000e06 	br	800496c <UsbPrintMem+0x5c>
	{
		code = IO_read(HPI_DATA);
 8004934:	0009883a 	mov	r4,zero
 8004938:	80012100 	call	8001210 <IO_read>
 800493c:	10bfffcc 	andi	r2,r2,65535
 8004940:	e0bfff15 	stw	r2,-4(fp)
		printf("\naddr %x = %04x\n", 0x0500+i, code);
 8004944:	e0bffe17 	ldw	r2,-8(fp)
 8004948:	10814004 	addi	r2,r2,1280
 800494c:	e1bfff17 	ldw	r6,-4(fp)
 8004950:	100b883a 	mov	r5,r2
 8004954:	01020074 	movhi	r4,2049
 8004958:	21136e04 	addi	r4,r4,19896
 800495c:	800636c0 	call	800636c <printf>

void UsbPrintMem()
{
	int i, code;
	IO_write(HPI_ADDR,0x0500); //the start address
	for (i = 0; i <= 200; i += 2)
 8004960:	e0bffe17 	ldw	r2,-8(fp)
 8004964:	10800084 	addi	r2,r2,2
 8004968:	e0bffe15 	stw	r2,-8(fp)
 800496c:	e0bffe17 	ldw	r2,-8(fp)
 8004970:	10803250 	cmplti	r2,r2,201
 8004974:	103fef1e 	bne	r2,zero,8004934 <__alt_data_end+0xf8004934>
	{
		code = IO_read(HPI_DATA);
		printf("\naddr %x = %04x\n", 0x0500+i, code);
	}
}
 8004978:	0001883a 	nop
 800497c:	e037883a 	mov	sp,fp
 8004980:	dfc00117 	ldw	ra,4(sp)
 8004984:	df000017 	ldw	fp,0(sp)
 8004988:	dec00204 	addi	sp,sp,8
 800498c:	f800283a 	ret

08004990 <usb_init>:
alt_u8 toggle = 0;
alt_u8 data_size;
alt_u8 hot_plug_count;
alt_u16 code;
int usb_init(void)
{
 8004990:	defffe04 	addi	sp,sp,-8
 8004994:	dfc00115 	stw	ra,4(sp)
 8004998:	df000015 	stw	fp,0(sp)
 800499c:	d839883a 	mov	fp,sp
	IO_init();
 80049a0:	80010d80 	call	80010d8 <IO_init>

	//printf("USB keyboard setup...\n\n");

	//----------------------------------------SIE1 initial---------------------------------------------------//
	USB_HOT_PLUG:
	UsbSoftReset();
 80049a4:	80038b80 	call	80038b8 <UsbSoftReset>

	// STEP 1a:
	UsbWrite (HPI_SIE1_MSG_ADR, 0);
 80049a8:	000b883a 	mov	r5,zero
 80049ac:	01005104 	movi	r4,324
 80049b0:	800381c0 	call	800381c <UsbWrite>
	UsbWrite (HOST1_STAT_REG, 0xFFFF);
 80049b4:	017fffd4 	movui	r5,65535
 80049b8:	01302414 	movui	r4,49296
 80049bc:	800381c0 	call	800381c <UsbWrite>

	/* Set HUSB_pEOT time */
	UsbWrite(HUSB_pEOT, 600); // adjust the according to your USB device speed
 80049c0:	01409604 	movi	r5,600
 80049c4:	01006d04 	movi	r4,436
 80049c8:	800381c0 	call	800381c <UsbWrite>

	usb_ctl_val = SOFEOP1_TO_CPU_EN | RESUME1_TO_HPI_EN;// | SOFEOP1_TO_HPI_EN;
 80049cc:	00811004 	movi	r2,1088
 80049d0:	d0a7288d 	sth	r2,-25438(gp)
	UsbWrite(HPI_IRQ_ROUTING_REG, usb_ctl_val);
 80049d4:	d0a7288b 	ldhu	r2,-25438(gp)
 80049d8:	10bfffcc 	andi	r2,r2,65535
 80049dc:	100b883a 	mov	r5,r2
 80049e0:	01005084 	movi	r4,322
 80049e4:	800381c0 	call	800381c <UsbWrite>

	intStat = A_CHG_IRQ_EN | SOF_EOP_IRQ_EN ;
 80049e8:	00808404 	movi	r2,528
 80049ec:	d0a7298d 	sth	r2,-25434(gp)
	UsbWrite(HOST1_IRQ_EN_REG, intStat);
 80049f0:	d0a7298b 	ldhu	r2,-25434(gp)
 80049f4:	10bfffcc 	andi	r2,r2,65535
 80049f8:	100b883a 	mov	r5,r2
 80049fc:	01302314 	movui	r4,49292
 8004a00:	800381c0 	call	800381c <UsbWrite>
	// STEP 1a end

	// STEP 1b begin
	UsbWrite(COMM_R0,0x0000);//reset time
 8004a04:	000b883a 	mov	r5,zero
 8004a08:	01007104 	movi	r4,452
 8004a0c:	800381c0 	call	800381c <UsbWrite>
	UsbWrite(COMM_R1,0x0000);  //port number
 8004a10:	000b883a 	mov	r5,zero
 8004a14:	01007184 	movi	r4,454
 8004a18:	800381c0 	call	800381c <UsbWrite>
	UsbWrite(COMM_R2,0x0000);  //r1
 8004a1c:	000b883a 	mov	r5,zero
 8004a20:	01007204 	movi	r4,456
 8004a24:	800381c0 	call	800381c <UsbWrite>
	UsbWrite(COMM_R3,0x0000);  //r1
 8004a28:	000b883a 	mov	r5,zero
 8004a2c:	01007284 	movi	r4,458
 8004a30:	800381c0 	call	800381c <UsbWrite>
	UsbWrite(COMM_R4,0x0000);  //r1
 8004a34:	000b883a 	mov	r5,zero
 8004a38:	01007304 	movi	r4,460
 8004a3c:	800381c0 	call	800381c <UsbWrite>
	UsbWrite(COMM_R5,0x0000);  //r1
 8004a40:	000b883a 	mov	r5,zero
 8004a44:	01007384 	movi	r4,462
 8004a48:	800381c0 	call	800381c <UsbWrite>
	UsbWrite(COMM_R6,0x0000);  //r1
 8004a4c:	000b883a 	mov	r5,zero
 8004a50:	01007404 	movi	r4,464
 8004a54:	800381c0 	call	800381c <UsbWrite>
	UsbWrite(COMM_R7,0x0000);  //r1
 8004a58:	000b883a 	mov	r5,zero
 8004a5c:	01007484 	movi	r4,466
 8004a60:	800381c0 	call	800381c <UsbWrite>
	UsbWrite(COMM_R8,0x0000);  //r1
 8004a64:	000b883a 	mov	r5,zero
 8004a68:	01007504 	movi	r4,468
 8004a6c:	800381c0 	call	800381c <UsbWrite>
	UsbWrite(COMM_R9,0x0000);  //r1
 8004a70:	000b883a 	mov	r5,zero
 8004a74:	01007584 	movi	r4,470
 8004a78:	800381c0 	call	800381c <UsbWrite>
	UsbWrite(COMM_R10,0x0000);  //r1
 8004a7c:	000b883a 	mov	r5,zero
 8004a80:	01007604 	movi	r4,472
 8004a84:	800381c0 	call	800381c <UsbWrite>
	UsbWrite(COMM_R11,0x0000);  //r1
 8004a88:	000b883a 	mov	r5,zero
 8004a8c:	01007684 	movi	r4,474
 8004a90:	800381c0 	call	800381c <UsbWrite>
	UsbWrite(COMM_R12,0x0000);  //r1
 8004a94:	000b883a 	mov	r5,zero
 8004a98:	01007704 	movi	r4,476
 8004a9c:	800381c0 	call	800381c <UsbWrite>
	UsbWrite(COMM_R13,0x0000);  //r1
 8004aa0:	000b883a 	mov	r5,zero
 8004aa4:	01007784 	movi	r4,478
 8004aa8:	800381c0 	call	800381c <UsbWrite>
	UsbWrite(COMM_INT_NUM,HUSB_SIE1_INIT_INT); //HUSB_SIE1_INIT_INT
 8004aac:	01401c84 	movi	r5,114
 8004ab0:	01007084 	movi	r4,450
 8004ab4:	800381c0 	call	800381c <UsbWrite>
	IO_write(HPI_MAILBOX,COMM_EXEC_INT);
 8004ab8:	01738054 	movui	r5,52737
 8004abc:	01000044 	movi	r4,1
 8004ac0:	80011880 	call	8001188 <IO_write>

	while (!(IO_read(HPI_STATUS) & 0xFFFF) )  //read sie1 msg register
 8004ac4:	0001883a 	nop
 8004ac8:	010000c4 	movi	r4,3
 8004acc:	80012100 	call	8001210 <IO_read>
 8004ad0:	10bfffcc 	andi	r2,r2,65535
 8004ad4:	103ffc26 	beq	r2,zero,8004ac8 <__alt_data_end+0xf8004ac8>
	{
	}
	while (IO_read(HPI_MAILBOX) != COMM_ACK)
 8004ad8:	01000044 	movi	r4,1
 8004adc:	80012100 	call	8001210 <IO_read>
 8004ae0:	10bfffcc 	andi	r2,r2,65535
 8004ae4:	1083fb58 	cmpnei	r2,r2,4077
 8004ae8:	103fae1e 	bne	r2,zero,80049a4 <__alt_data_end+0xf80049a4>
	}
	// STEP 1b end

	//printf("STEP 1 Complete");
	// STEP 2 begin
	UsbWrite(COMM_INT_NUM,HUSB_RESET_INT); //husb reset
 8004aec:	01401d04 	movi	r5,116
 8004af0:	01007084 	movi	r4,450
 8004af4:	800381c0 	call	800381c <UsbWrite>
	UsbWrite(COMM_R0,0x003c);//reset time
 8004af8:	01400f04 	movi	r5,60
 8004afc:	01007104 	movi	r4,452
 8004b00:	800381c0 	call	800381c <UsbWrite>
	UsbWrite(COMM_R1,0x0000);  //port number
 8004b04:	000b883a 	mov	r5,zero
 8004b08:	01007184 	movi	r4,454
 8004b0c:	800381c0 	call	800381c <UsbWrite>
	UsbWrite(COMM_R2,0x0000);  //r1
 8004b10:	000b883a 	mov	r5,zero
 8004b14:	01007204 	movi	r4,456
 8004b18:	800381c0 	call	800381c <UsbWrite>
	UsbWrite(COMM_R3,0x0000);  //r1
 8004b1c:	000b883a 	mov	r5,zero
 8004b20:	01007284 	movi	r4,458
 8004b24:	800381c0 	call	800381c <UsbWrite>
	UsbWrite(COMM_R4,0x0000);  //r1
 8004b28:	000b883a 	mov	r5,zero
 8004b2c:	01007304 	movi	r4,460
 8004b30:	800381c0 	call	800381c <UsbWrite>
	UsbWrite(COMM_R5,0x0000);  //r1
 8004b34:	000b883a 	mov	r5,zero
 8004b38:	01007384 	movi	r4,462
 8004b3c:	800381c0 	call	800381c <UsbWrite>
	UsbWrite(COMM_R6,0x0000);  //r1
 8004b40:	000b883a 	mov	r5,zero
 8004b44:	01007404 	movi	r4,464
 8004b48:	800381c0 	call	800381c <UsbWrite>
	UsbWrite(COMM_R7,0x0000);  //r1
 8004b4c:	000b883a 	mov	r5,zero
 8004b50:	01007484 	movi	r4,466
 8004b54:	800381c0 	call	800381c <UsbWrite>
	UsbWrite(COMM_R8,0x0000);  //r1
 8004b58:	000b883a 	mov	r5,zero
 8004b5c:	01007504 	movi	r4,468
 8004b60:	800381c0 	call	800381c <UsbWrite>
	UsbWrite(COMM_R9,0x0000);  //r1
 8004b64:	000b883a 	mov	r5,zero
 8004b68:	01007584 	movi	r4,470
 8004b6c:	800381c0 	call	800381c <UsbWrite>
	UsbWrite(COMM_R10,0x0000);  //r1
 8004b70:	000b883a 	mov	r5,zero
 8004b74:	01007604 	movi	r4,472
 8004b78:	800381c0 	call	800381c <UsbWrite>
	UsbWrite(COMM_R11,0x0000);  //r1
 8004b7c:	000b883a 	mov	r5,zero
 8004b80:	01007684 	movi	r4,474
 8004b84:	800381c0 	call	800381c <UsbWrite>
	UsbWrite(COMM_R12,0x0000);  //r1
 8004b88:	000b883a 	mov	r5,zero
 8004b8c:	01007704 	movi	r4,476
 8004b90:	800381c0 	call	800381c <UsbWrite>
	UsbWrite(COMM_R13,0x0000);  //r1
 8004b94:	000b883a 	mov	r5,zero
 8004b98:	01007784 	movi	r4,478
 8004b9c:	800381c0 	call	800381c <UsbWrite>

	IO_write(HPI_MAILBOX,COMM_EXEC_INT);
 8004ba0:	01738054 	movui	r5,52737
 8004ba4:	01000044 	movi	r4,1
 8004ba8:	80011880 	call	8001188 <IO_write>

	while (IO_read(HPI_MAILBOX) != COMM_ACK)
 8004bac:	0001883a 	nop
 8004bb0:	01000044 	movi	r4,1
 8004bb4:	80012100 	call	8001210 <IO_read>
 8004bb8:	10bfffcc 	andi	r2,r2,65535
 8004bbc:	1083fb58 	cmpnei	r2,r2,4077
 8004bc0:	10000126 	beq	r2,zero,8004bc8 <usb_init+0x238>
	{
		//printf("[ERROR]:routine mailbox data is %x\n",IO_read(HPI_MAILBOX));
		goto USB_HOT_PLUG;
 8004bc4:	003f7706 	br	80049a4 <__alt_data_end+0xf80049a4>
	}
	// STEP 2 end

	ctl_reg = USB1_CTL_REG;
 8004bc8:	00b02284 	movi	r2,-16246
 8004bcc:	d0a7230d 	sth	r2,-25460(gp)
	no_device = (A_DP_STAT | A_DM_STAT);
 8004bd0:	008c0004 	movi	r2,12288
 8004bd4:	d0a7238d 	sth	r2,-25458(gp)
	fs_device = A_DP_STAT;
 8004bd8:	00880004 	movi	r2,8192
 8004bdc:	d0a7240d 	sth	r2,-25456(gp)
	usb_ctl_val = UsbRead(ctl_reg);
 8004be0:	d0a7230b 	ldhu	r2,-25460(gp)
 8004be4:	10bfffcc 	andi	r2,r2,65535
 8004be8:	1009883a 	mov	r4,r2
 8004bec:	80038740 	call	8003874 <UsbRead>
 8004bf0:	d0a7288d 	sth	r2,-25438(gp)

	if (!(usb_ctl_val & no_device))
 8004bf4:	d0e7288b 	ldhu	r3,-25438(gp)
 8004bf8:	d0a7238b 	ldhu	r2,-25458(gp)
 8004bfc:	1884703a 	and	r2,r3,r2
 8004c00:	10bfffcc 	andi	r2,r2,65535
 8004c04:	10002f1e 	bne	r2,zero,8004cc4 <usb_init+0x334>
	{
		for(hot_plug_count = 0 ; hot_plug_count < 5 ; hot_plug_count++)
 8004c08:	d0272a05 	stb	zero,-25432(gp)
 8004c0c:	00000f06 	br	8004c4c <usb_init+0x2bc>
		{
			usleep(5*1000);
 8004c10:	0104e204 	movi	r4,5000
 8004c14:	8012d080 	call	8012d08 <usleep>
			usb_ctl_val = UsbRead(ctl_reg);
 8004c18:	d0a7230b 	ldhu	r2,-25460(gp)
 8004c1c:	10bfffcc 	andi	r2,r2,65535
 8004c20:	1009883a 	mov	r4,r2
 8004c24:	80038740 	call	8003874 <UsbRead>
 8004c28:	d0a7288d 	sth	r2,-25438(gp)
			if(usb_ctl_val & no_device) break;
 8004c2c:	d0e7288b 	ldhu	r3,-25438(gp)
 8004c30:	d0a7238b 	ldhu	r2,-25458(gp)
 8004c34:	1884703a 	and	r2,r3,r2
 8004c38:	10bfffcc 	andi	r2,r2,65535
 8004c3c:	1000081e 	bne	r2,zero,8004c60 <usb_init+0x2d0>
	fs_device = A_DP_STAT;
	usb_ctl_val = UsbRead(ctl_reg);

	if (!(usb_ctl_val & no_device))
	{
		for(hot_plug_count = 0 ; hot_plug_count < 5 ; hot_plug_count++)
 8004c40:	d0a72a03 	ldbu	r2,-25432(gp)
 8004c44:	10800044 	addi	r2,r2,1
 8004c48:	d0a72a05 	stb	r2,-25432(gp)
 8004c4c:	d0a72a03 	ldbu	r2,-25432(gp)
 8004c50:	10803fcc 	andi	r2,r2,255
 8004c54:	10800170 	cmpltui	r2,r2,5
 8004c58:	103fed1e 	bne	r2,zero,8004c10 <__alt_data_end+0xf8004c10>
 8004c5c:	00000106 	br	8004c64 <usb_init+0x2d4>
		{
			usleep(5*1000);
			usb_ctl_val = UsbRead(ctl_reg);
			if(usb_ctl_val & no_device) break;
 8004c60:	0001883a 	nop
		}
		if(!(usb_ctl_val & no_device))
 8004c64:	d0e7288b 	ldhu	r3,-25438(gp)
 8004c68:	d0a7238b 	ldhu	r2,-25458(gp)
 8004c6c:	1884703a 	and	r2,r3,r2
 8004c70:	10bfffcc 	andi	r2,r2,65535
 8004c74:	1000131e 	bne	r2,zero,8004cc4 <usb_init+0x334>
		{
			//printf("\n[INFO]: no device is present in SIE1!\n");
			//printf("[INFO]: please insert a USB keyboard in SIE1!\n");
			while (!(usb_ctl_val & no_device))
 8004c78:	00000d06 	br	8004cb0 <usb_init+0x320>
			{
				usb_ctl_val = UsbRead(ctl_reg);
 8004c7c:	d0a7230b 	ldhu	r2,-25460(gp)
 8004c80:	10bfffcc 	andi	r2,r2,65535
 8004c84:	1009883a 	mov	r4,r2
 8004c88:	80038740 	call	8003874 <UsbRead>
 8004c8c:	d0a7288d 	sth	r2,-25438(gp)
				if(usb_ctl_val & no_device)
 8004c90:	d0e7288b 	ldhu	r3,-25438(gp)
 8004c94:	d0a7238b 	ldhu	r2,-25458(gp)
 8004c98:	1884703a 	and	r2,r3,r2
 8004c9c:	10bfffcc 	andi	r2,r2,65535
 8004ca0:	10000126 	beq	r2,zero,8004ca8 <usb_init+0x318>
					goto USB_HOT_PLUG;
 8004ca4:	003f3f06 	br	80049a4 <__alt_data_end+0xf80049a4>

				usleep(2000);
 8004ca8:	0101f404 	movi	r4,2000
 8004cac:	8012d080 	call	8012d08 <usleep>
		}
		if(!(usb_ctl_val & no_device))
		{
			//printf("\n[INFO]: no device is present in SIE1!\n");
			//printf("[INFO]: please insert a USB keyboard in SIE1!\n");
			while (!(usb_ctl_val & no_device))
 8004cb0:	d0e7288b 	ldhu	r3,-25438(gp)
 8004cb4:	d0a7238b 	ldhu	r2,-25458(gp)
 8004cb8:	1884703a 	and	r2,r3,r2
 8004cbc:	10bfffcc 	andi	r2,r2,65535
 8004cc0:	103fee26 	beq	r2,zero,8004c7c <__alt_data_end+0xf8004c7c>



	// STEP 3 begin
	//------------------------------------------------------set address -----------------------------------------------------------------
	UsbSetAddress();
 8004cc4:	800396c0 	call	800396c <UsbSetAddress>

	while (!(IO_read(HPI_STATUS) & HPI_STATUS_SIE1msg_FLAG) )  //read sie1 msg register
 8004cc8:	00000306 	br	8004cd8 <usb_init+0x348>
	{
		UsbSetAddress();
 8004ccc:	800396c0 	call	800396c <UsbSetAddress>
		usleep(10*1000);
 8004cd0:	0109c404 	movi	r4,10000
 8004cd4:	8012d080 	call	8012d08 <usleep>

	// STEP 3 begin
	//------------------------------------------------------set address -----------------------------------------------------------------
	UsbSetAddress();

	while (!(IO_read(HPI_STATUS) & HPI_STATUS_SIE1msg_FLAG) )  //read sie1 msg register
 8004cd8:	010000c4 	movi	r4,3
 8004cdc:	80012100 	call	8001210 <IO_read>
 8004ce0:	10bfffcc 	andi	r2,r2,65535
 8004ce4:	1080040c 	andi	r2,r2,16
 8004ce8:	103ff826 	beq	r2,zero,8004ccc <__alt_data_end+0xf8004ccc>
	{
		UsbSetAddress();
		usleep(10*1000);
	}

	UsbWaitTDListDone();
 8004cec:	800480c0 	call	800480c <UsbWaitTDListDone>

	IO_write(HPI_ADDR,0x0506); // i
 8004cf0:	01414184 	movi	r5,1286
 8004cf4:	01000084 	movi	r4,2
 8004cf8:	80011880 	call	8001188 <IO_write>
//	//printf("[ENUM PROCESS]:step 3 TD Status Byte is %x\n",IO_read(HPI_DATA));

	IO_write(HPI_ADDR,0x0508); // n
 8004cfc:	01414204 	movi	r5,1288
 8004d00:	01000084 	movi	r4,2
 8004d04:	80011880 	call	8001188 <IO_write>
	usb_ctl_val = IO_read(HPI_DATA);
 8004d08:	0009883a 	mov	r4,zero
 8004d0c:	80012100 	call	8001210 <IO_read>
 8004d10:	d0a7288d 	sth	r2,-25438(gp)
//	//printf("[ENUM PROCESS]:step 3 TD Control Byte is %x\n",usb_ctl_val);
	while (usb_ctl_val != 0x03) // retries occurred
 8004d14:	0001883a 	nop
 8004d18:	d0a7288b 	ldhu	r2,-25438(gp)
 8004d1c:	10bfffcc 	andi	r2,r2,65535
 8004d20:	108000d8 	cmpnei	r2,r2,3
 8004d24:	10000326 	beq	r2,zero,8004d34 <usb_init+0x3a4>
	{
		usb_ctl_val = UsbGetRetryCnt();
 8004d28:	80048900 	call	8004890 <UsbGetRetryCnt>
 8004d2c:	d0a7288d 	sth	r2,-25438(gp)

		goto USB_HOT_PLUG;
 8004d30:	003f1c06 	br	80049a4 <__alt_data_end+0xf80049a4>
	//printf("------------[ENUM PROCESS]:set address done!---------------\n");

	// STEP 4 begin
	//-------------------------------get device descriptor-1 -----------------------------------//
	// TASK: Call the appropriate function for this step.
	UsbGetDeviceDesc1(); 	// Get Device Descriptor -1
 8004d34:	8003a6c0 	call	8003a6c <UsbGetDeviceDesc1>

	//usleep(10*1000);
	while (!(IO_read(HPI_STATUS) & HPI_STATUS_SIE1msg_FLAG) )  //read sie1 msg register
 8004d38:	00000306 	br	8004d48 <usb_init+0x3b8>
	{
		// TASK: Call the appropriate function again if it wasn't processed successfully.
		UsbGetDeviceDesc1();
 8004d3c:	8003a6c0 	call	8003a6c <UsbGetDeviceDesc1>
		usleep(10*1000);
 8004d40:	0109c404 	movi	r4,10000
 8004d44:	8012d080 	call	8012d08 <usleep>
	//-------------------------------get device descriptor-1 -----------------------------------//
	// TASK: Call the appropriate function for this step.
	UsbGetDeviceDesc1(); 	// Get Device Descriptor -1

	//usleep(10*1000);
	while (!(IO_read(HPI_STATUS) & HPI_STATUS_SIE1msg_FLAG) )  //read sie1 msg register
 8004d48:	010000c4 	movi	r4,3
 8004d4c:	80012100 	call	8001210 <IO_read>
 8004d50:	10bfffcc 	andi	r2,r2,65535
 8004d54:	1080040c 	andi	r2,r2,16
 8004d58:	103ff826 	beq	r2,zero,8004d3c <__alt_data_end+0xf8004d3c>
		// TASK: Call the appropriate function again if it wasn't processed successfully.
		UsbGetDeviceDesc1();
		usleep(10*1000);
	}

	UsbWaitTDListDone();
 8004d5c:	800480c0 	call	800480c <UsbWaitTDListDone>

	IO_write(HPI_ADDR,0x0506);
 8004d60:	01414184 	movi	r5,1286
 8004d64:	01000084 	movi	r4,2
 8004d68:	80011880 	call	8001188 <IO_write>
//	//printf("[ENUM PROCESS]:step 4 TD Status Byte is %x\n",IO_read(HPI_DATA));

	IO_write(HPI_ADDR,0x0508);
 8004d6c:	01414204 	movi	r5,1288
 8004d70:	01000084 	movi	r4,2
 8004d74:	80011880 	call	8001188 <IO_write>
	usb_ctl_val = IO_read(HPI_DATA);
 8004d78:	0009883a 	mov	r4,zero
 8004d7c:	80012100 	call	8001210 <IO_read>
 8004d80:	d0a7288d 	sth	r2,-25438(gp)
//	//printf("[ENUM PROCESS]:step 4 TD Control Byte is %x\n",usb_ctl_val);
	while (usb_ctl_val != 0x03)
 8004d84:	00000206 	br	8004d90 <usb_init+0x400>
	{
		usb_ctl_val = UsbGetRetryCnt();
 8004d88:	80048900 	call	8004890 <UsbGetRetryCnt>
 8004d8c:	d0a7288d 	sth	r2,-25438(gp)
//	//printf("[ENUM PROCESS]:step 4 TD Status Byte is %x\n",IO_read(HPI_DATA));

	IO_write(HPI_ADDR,0x0508);
	usb_ctl_val = IO_read(HPI_DATA);
//	//printf("[ENUM PROCESS]:step 4 TD Control Byte is %x\n",usb_ctl_val);
	while (usb_ctl_val != 0x03)
 8004d90:	d0a7288b 	ldhu	r2,-25438(gp)
 8004d94:	10bfffcc 	andi	r2,r2,65535
 8004d98:	108000d8 	cmpnei	r2,r2,3
 8004d9c:	103ffa1e 	bne	r2,zero,8004d88 <__alt_data_end+0xf8004d88>


	//--------------------------------get device descriptor-2---------------------------------------------//
	//get device descriptor
	// TASK: Call the appropriate function for this step.
	UsbGetDeviceDesc2(); 	// Get Device Descriptor -2
 8004da0:	8003bb40 	call	8003bb4 <UsbGetDeviceDesc2>

	//if no message
	while (!(IO_read(HPI_STATUS) & HPI_STATUS_SIE1msg_FLAG) )  //read sie1 msg register
 8004da4:	00000306 	br	8004db4 <usb_init+0x424>
	{
		//resend the get device descriptor
		//get device descriptor
		// TASK: Call the appropriate function again if it wasn't processed successfully.
		UsbGetDeviceDesc2();
 8004da8:	8003bb40 	call	8003bb4 <UsbGetDeviceDesc2>
		usleep(10*1000);
 8004dac:	0109c404 	movi	r4,10000
 8004db0:	8012d080 	call	8012d08 <usleep>
	//get device descriptor
	// TASK: Call the appropriate function for this step.
	UsbGetDeviceDesc2(); 	// Get Device Descriptor -2

	//if no message
	while (!(IO_read(HPI_STATUS) & HPI_STATUS_SIE1msg_FLAG) )  //read sie1 msg register
 8004db4:	010000c4 	movi	r4,3
 8004db8:	80012100 	call	8001210 <IO_read>
 8004dbc:	10bfffcc 	andi	r2,r2,65535
 8004dc0:	1080040c 	andi	r2,r2,16
 8004dc4:	103ff826 	beq	r2,zero,8004da8 <__alt_data_end+0xf8004da8>
		// TASK: Call the appropriate function again if it wasn't processed successfully.
		UsbGetDeviceDesc2();
		usleep(10*1000);
	}

	UsbWaitTDListDone();
 8004dc8:	800480c0 	call	800480c <UsbWaitTDListDone>

	IO_write(HPI_ADDR,0x0506);
 8004dcc:	01414184 	movi	r5,1286
 8004dd0:	01000084 	movi	r4,2
 8004dd4:	80011880 	call	8001188 <IO_write>
//	//printf("[ENUM PROCESS]:step 4 TD Status Byte is %x\n",IO_read(HPI_DATA));

	IO_write(HPI_ADDR,0x0508);
 8004dd8:	01414204 	movi	r5,1288
 8004ddc:	01000084 	movi	r4,2
 8004de0:	80011880 	call	8001188 <IO_write>
	usb_ctl_val = IO_read(HPI_DATA);
 8004de4:	0009883a 	mov	r4,zero
 8004de8:	80012100 	call	8001210 <IO_read>
 8004dec:	d0a7288d 	sth	r2,-25438(gp)
//	//printf("[ENUM PROCESS]:step 4 TD Control Byte is %x\n",usb_ctl_val);
	while (usb_ctl_val != 0x03)
 8004df0:	00000206 	br	8004dfc <usb_init+0x46c>
	{
		usb_ctl_val = UsbGetRetryCnt();
 8004df4:	80048900 	call	8004890 <UsbGetRetryCnt>
 8004df8:	d0a7288d 	sth	r2,-25438(gp)
//	//printf("[ENUM PROCESS]:step 4 TD Status Byte is %x\n",IO_read(HPI_DATA));

	IO_write(HPI_ADDR,0x0508);
	usb_ctl_val = IO_read(HPI_DATA);
//	//printf("[ENUM PROCESS]:step 4 TD Control Byte is %x\n",usb_ctl_val);
	while (usb_ctl_val != 0x03)
 8004dfc:	d0a7288b 	ldhu	r2,-25438(gp)
 8004e00:	10bfffcc 	andi	r2,r2,65535
 8004e04:	108000d8 	cmpnei	r2,r2,3
 8004e08:	103ffa1e 	bne	r2,zero,8004df4 <__alt_data_end+0xf8004df4>


	// STEP 5 begin
	//-----------------------------------get configuration descriptor -1 ----------------------------------//
	// TASK: Call the appropriate function for this step.
	UsbGetConfigDesc1(); 	// Get Configuration Descriptor -1
 8004e0c:	8003d8c0 	call	8003d8c <UsbGetConfigDesc1>

	//if no message
	while (!(IO_read(HPI_STATUS) & HPI_STATUS_SIE1msg_FLAG) )  //read sie1 msg register
 8004e10:	00000306 	br	8004e20 <usb_init+0x490>
	{
		//resend the get device descriptor
		//get device descriptor

		// TASK: Call the appropriate function again if it wasn't processed successfully.
		UsbGetConfigDesc1();
 8004e14:	8003d8c0 	call	8003d8c <UsbGetConfigDesc1>
		usleep(10*1000);
 8004e18:	0109c404 	movi	r4,10000
 8004e1c:	8012d080 	call	8012d08 <usleep>
	//-----------------------------------get configuration descriptor -1 ----------------------------------//
	// TASK: Call the appropriate function for this step.
	UsbGetConfigDesc1(); 	// Get Configuration Descriptor -1

	//if no message
	while (!(IO_read(HPI_STATUS) & HPI_STATUS_SIE1msg_FLAG) )  //read sie1 msg register
 8004e20:	010000c4 	movi	r4,3
 8004e24:	80012100 	call	8001210 <IO_read>
 8004e28:	10bfffcc 	andi	r2,r2,65535
 8004e2c:	1080040c 	andi	r2,r2,16
 8004e30:	103ff826 	beq	r2,zero,8004e14 <__alt_data_end+0xf8004e14>
		// TASK: Call the appropriate function again if it wasn't processed successfully.
		UsbGetConfigDesc1();
		usleep(10*1000);
	}

	UsbWaitTDListDone();
 8004e34:	800480c0 	call	800480c <UsbWaitTDListDone>

	IO_write(HPI_ADDR,0x0506);
 8004e38:	01414184 	movi	r5,1286
 8004e3c:	01000084 	movi	r4,2
 8004e40:	80011880 	call	8001188 <IO_write>
//	//printf("[ENUM PROCESS]:step 5 TD Status Byte is %x\n",IO_read(HPI_DATA));

	IO_write(HPI_ADDR,0x0508);
 8004e44:	01414204 	movi	r5,1288
 8004e48:	01000084 	movi	r4,2
 8004e4c:	80011880 	call	8001188 <IO_write>
	usb_ctl_val = IO_read(HPI_DATA);
 8004e50:	0009883a 	mov	r4,zero
 8004e54:	80012100 	call	8001210 <IO_read>
 8004e58:	d0a7288d 	sth	r2,-25438(gp)
//	//printf("[ENUM PROCESS]:step 5 TD Control Byte is %x\n",usb_ctl_val);
	while (usb_ctl_val != 0x03)
 8004e5c:	00000206 	br	8004e68 <usb_init+0x4d8>
	{
		usb_ctl_val = UsbGetRetryCnt();
 8004e60:	80048900 	call	8004890 <UsbGetRetryCnt>
 8004e64:	d0a7288d 	sth	r2,-25438(gp)
//	//printf("[ENUM PROCESS]:step 5 TD Status Byte is %x\n",IO_read(HPI_DATA));

	IO_write(HPI_ADDR,0x0508);
	usb_ctl_val = IO_read(HPI_DATA);
//	//printf("[ENUM PROCESS]:step 5 TD Control Byte is %x\n",usb_ctl_val);
	while (usb_ctl_val != 0x03)
 8004e68:	d0a7288b 	ldhu	r2,-25438(gp)
 8004e6c:	10bfffcc 	andi	r2,r2,65535
 8004e70:	108000d8 	cmpnei	r2,r2,3
 8004e74:	103ffa1e 	bne	r2,zero,8004e60 <__alt_data_end+0xf8004e60>

	// STEP 6 begin
	//-----------------------------------get configuration descriptor-2------------------------------------//
	//get device descriptor
	// TASK: Call the appropriate function for this step.
	UsbGetConfigDesc2(); 	// Get Configuration Descriptor -2
 8004e78:	8003f1c0 	call	8003f1c <UsbGetConfigDesc2>

	usleep(100*1000);
 8004e7c:	010000b4 	movhi	r4,2
 8004e80:	2121a804 	addi	r4,r4,-31072
 8004e84:	8012d080 	call	8012d08 <usleep>
	//if no message
	while (!(IO_read(HPI_STATUS) & HPI_STATUS_SIE1msg_FLAG) )  //read sie1 msg register
 8004e88:	00000306 	br	8004e98 <usb_init+0x508>
	{
		// TASK: Call the appropriate function again if it wasn't processed successfully.
		UsbGetConfigDesc2();
 8004e8c:	8003f1c0 	call	8003f1c <UsbGetConfigDesc2>
		usleep(10*1000);
 8004e90:	0109c404 	movi	r4,10000
 8004e94:	8012d080 	call	8012d08 <usleep>
	// TASK: Call the appropriate function for this step.
	UsbGetConfigDesc2(); 	// Get Configuration Descriptor -2

	usleep(100*1000);
	//if no message
	while (!(IO_read(HPI_STATUS) & HPI_STATUS_SIE1msg_FLAG) )  //read sie1 msg register
 8004e98:	010000c4 	movi	r4,3
 8004e9c:	80012100 	call	8001210 <IO_read>
 8004ea0:	10bfffcc 	andi	r2,r2,65535
 8004ea4:	1080040c 	andi	r2,r2,16
 8004ea8:	103ff826 	beq	r2,zero,8004e8c <__alt_data_end+0xf8004e8c>
		// TASK: Call the appropriate function again if it wasn't processed successfully.
		UsbGetConfigDesc2();
		usleep(10*1000);
	}

	UsbWaitTDListDone();
 8004eac:	800480c0 	call	800480c <UsbWaitTDListDone>

	IO_write(HPI_ADDR,0x0506);
 8004eb0:	01414184 	movi	r5,1286
 8004eb4:	01000084 	movi	r4,2
 8004eb8:	80011880 	call	8001188 <IO_write>
//	//printf("[ENUM PROCESS]:step 6 TD Status Byte is %x\n",IO_read(HPI_DATA));

	IO_write(HPI_ADDR,0x0508);
 8004ebc:	01414204 	movi	r5,1288
 8004ec0:	01000084 	movi	r4,2
 8004ec4:	80011880 	call	8001188 <IO_write>
	usb_ctl_val = IO_read(HPI_DATA);
 8004ec8:	0009883a 	mov	r4,zero
 8004ecc:	80012100 	call	8001210 <IO_read>
 8004ed0:	d0a7288d 	sth	r2,-25438(gp)
//	//printf("[ENUM PROCESS]:step 6 TD Control Byte is %x\n",usb_ctl_val);
	while (usb_ctl_val != 0x03)
 8004ed4:	00000206 	br	8004ee0 <usb_init+0x550>
	{
		usb_ctl_val = UsbGetRetryCnt();
 8004ed8:	80048900 	call	8004890 <UsbGetRetryCnt>
 8004edc:	d0a7288d 	sth	r2,-25438(gp)
//	//printf("[ENUM PROCESS]:step 6 TD Status Byte is %x\n",IO_read(HPI_DATA));

	IO_write(HPI_ADDR,0x0508);
	usb_ctl_val = IO_read(HPI_DATA);
//	//printf("[ENUM PROCESS]:step 6 TD Control Byte is %x\n",usb_ctl_val);
	while (usb_ctl_val != 0x03)
 8004ee0:	d0a7288b 	ldhu	r2,-25438(gp)
 8004ee4:	10bfffcc 	andi	r2,r2,65535
 8004ee8:	108000d8 	cmpnei	r2,r2,3
 8004eec:	103ffa1e 	bne	r2,zero,8004ed8 <__alt_data_end+0xf8004ed8>


	// ---------------------------------get device info---------------------------------------------//

	// TASK: Write the address to read from the memory for byte 7 of the interface descriptor to HPI_ADDR.
	IO_write(HPI_ADDR,0x056c);
 8004ef0:	01415b04 	movi	r5,1388
 8004ef4:	01000084 	movi	r4,2
 8004ef8:	80011880 	call	8001188 <IO_write>
	code = IO_read(HPI_DATA);
 8004efc:	0009883a 	mov	r4,zero
 8004f00:	80012100 	call	8001210 <IO_read>
 8004f04:	d0a72a8d 	sth	r2,-25430(gp)
	code = code & 0x003;
 8004f08:	d0a72a8b 	ldhu	r2,-25430(gp)
 8004f0c:	108000cc 	andi	r2,r2,3
 8004f10:	d0a72a8d 	sth	r2,-25430(gp)
//		//printf("\n[INFO]:Keyboard Not Detected!!! \n\n");
	}

	// TASK: Write the address to read from the memory for the endpoint descriptor to HPI_ADDR.

	IO_write(HPI_ADDR,0x0576);
 8004f14:	01415d84 	movi	r5,1398
 8004f18:	01000084 	movi	r4,2
 8004f1c:	80011880 	call	8001188 <IO_write>
	IO_write(HPI_DATA,0x073F);
 8004f20:	0141cfc4 	movi	r5,1855
 8004f24:	0009883a 	mov	r4,zero
 8004f28:	80011880 	call	8001188 <IO_write>
	IO_write(HPI_DATA,0x8105);
 8004f2c:	01604154 	movui	r5,33029
 8004f30:	0009883a 	mov	r4,zero
 8004f34:	80011880 	call	8001188 <IO_write>
	IO_write(HPI_DATA,0x0003);
 8004f38:	014000c4 	movi	r5,3
 8004f3c:	0009883a 	mov	r4,zero
 8004f40:	80011880 	call	8001188 <IO_write>
	IO_write(HPI_DATA,0x0008);
 8004f44:	01400204 	movi	r5,8
 8004f48:	0009883a 	mov	r4,zero
 8004f4c:	80011880 	call	8001188 <IO_write>
	IO_write(HPI_DATA,0xAC0A);
 8004f50:	016b0294 	movui	r5,44042
 8004f54:	0009883a 	mov	r4,zero
 8004f58:	80011880 	call	8001188 <IO_write>
	UsbWrite(HUSB_SIE1_pCurrentTDPtr,0x0576); //HUSB_SIE1_pCurrentTDPtr
 8004f5c:	01415d84 	movi	r5,1398
 8004f60:	01006c04 	movi	r4,432
 8004f64:	800381c0 	call	800381c <UsbWrite>

	//data_size = (IO_read(HPI_DATA)>>8)&0x0ff;
	//data_size = 0x08;//(IO_read(HPI_DATA))&0x0ff;
	//UsbPrintMem();
	IO_write(HPI_ADDR,0x057c);
 8004f68:	01415f04 	movi	r5,1404
 8004f6c:	01000084 	movi	r4,2
 8004f70:	80011880 	call	8001188 <IO_write>
	data_size = (IO_read(HPI_DATA))&0x0ff;
 8004f74:	0009883a 	mov	r4,zero
 8004f78:	80012100 	call	8001210 <IO_read>
 8004f7c:	d0a72905 	stb	r2,-25436(gp)
//	//printf("[ENUM PROCESS]:data packet size is %d\n",data_size);
	// STEP 7 begin
	//------------------------------------set configuration -----------------------------------------//
	// TASK: Call the appropriate function for this step.
	UsbSetConfig();		// Set Configuration
 8004f80:	80041840 	call	8004184 <UsbSetConfig>

	while (!(IO_read(HPI_STATUS) & HPI_STATUS_SIE1msg_FLAG) )  //read sie1 msg register
 8004f84:	00000306 	br	8004f94 <usb_init+0x604>
	{
		// TASK: Call the appropriate function again if it wasn't processed successfully.
		UsbSetConfig();		// Set Configuration
 8004f88:	80041840 	call	8004184 <UsbSetConfig>
		usleep(10*1000);
 8004f8c:	0109c404 	movi	r4,10000
 8004f90:	8012d080 	call	8012d08 <usleep>
	// STEP 7 begin
	//------------------------------------set configuration -----------------------------------------//
	// TASK: Call the appropriate function for this step.
	UsbSetConfig();		// Set Configuration

	while (!(IO_read(HPI_STATUS) & HPI_STATUS_SIE1msg_FLAG) )  //read sie1 msg register
 8004f94:	010000c4 	movi	r4,3
 8004f98:	80012100 	call	8001210 <IO_read>
 8004f9c:	10bfffcc 	andi	r2,r2,65535
 8004fa0:	1080040c 	andi	r2,r2,16
 8004fa4:	103ff826 	beq	r2,zero,8004f88 <__alt_data_end+0xf8004f88>
		// TASK: Call the appropriate function again if it wasn't processed successfully.
		UsbSetConfig();		// Set Configuration
		usleep(10*1000);
	}

	UsbWaitTDListDone();
 8004fa8:	800480c0 	call	800480c <UsbWaitTDListDone>

	IO_write(HPI_ADDR,0x0506);
 8004fac:	01414184 	movi	r5,1286
 8004fb0:	01000084 	movi	r4,2
 8004fb4:	80011880 	call	8001188 <IO_write>
//	//printf("[ENUM PROCESS]:step 7 TD Status Byte is %x\n",IO_read(HPI_DATA));

	IO_write(HPI_ADDR,0x0508);
 8004fb8:	01414204 	movi	r5,1288
 8004fbc:	01000084 	movi	r4,2
 8004fc0:	80011880 	call	8001188 <IO_write>
	usb_ctl_val = IO_read(HPI_DATA);
 8004fc4:	0009883a 	mov	r4,zero
 8004fc8:	80012100 	call	8001210 <IO_read>
 8004fcc:	d0a7288d 	sth	r2,-25438(gp)
	//printf("[ENUM PROCESS]:step 7 TD Control Byte is %x\n",usb_ctl_val);
	while (usb_ctl_val != 0x03)
 8004fd0:	00000206 	br	8004fdc <usb_init+0x64c>
	{
		usb_ctl_val = UsbGetRetryCnt();
 8004fd4:	80048900 	call	8004890 <UsbGetRetryCnt>
 8004fd8:	d0a7288d 	sth	r2,-25438(gp)
//	//printf("[ENUM PROCESS]:step 7 TD Status Byte is %x\n",IO_read(HPI_DATA));

	IO_write(HPI_ADDR,0x0508);
	usb_ctl_val = IO_read(HPI_DATA);
	//printf("[ENUM PROCESS]:step 7 TD Control Byte is %x\n",usb_ctl_val);
	while (usb_ctl_val != 0x03)
 8004fdc:	d0a7288b 	ldhu	r2,-25438(gp)
 8004fe0:	10bfffcc 	andi	r2,r2,65535
 8004fe4:	108000d8 	cmpnei	r2,r2,3
 8004fe8:	103ffa1e 	bne	r2,zero,8004fd4 <__alt_data_end+0xf8004fd4>

	//printf("------------[ENUM PROCESS]:set configuration done!-------------------\n");

	//----------------------------------------------class request out ------------------------------------------//
	// TASK: Call the appropriate function for this step.
	UsbClassRequest();
 8004fec:	80042840 	call	8004284 <UsbClassRequest>

	while (!(IO_read(HPI_STATUS) & HPI_STATUS_SIE1msg_FLAG) )  //read sie1 msg register
 8004ff0:	00000306 	br	8005000 <usb_init+0x670>
	{
		// TASK: Call the appropriate function again if it wasn't processed successfully.
		UsbClassRequest();
 8004ff4:	80042840 	call	8004284 <UsbClassRequest>
		usleep(10*1000);
 8004ff8:	0109c404 	movi	r4,10000
 8004ffc:	8012d080 	call	8012d08 <usleep>

	//----------------------------------------------class request out ------------------------------------------//
	// TASK: Call the appropriate function for this step.
	UsbClassRequest();

	while (!(IO_read(HPI_STATUS) & HPI_STATUS_SIE1msg_FLAG) )  //read sie1 msg register
 8005000:	010000c4 	movi	r4,3
 8005004:	80012100 	call	8001210 <IO_read>
 8005008:	10bfffcc 	andi	r2,r2,65535
 800500c:	1080040c 	andi	r2,r2,16
 8005010:	103ff826 	beq	r2,zero,8004ff4 <__alt_data_end+0xf8004ff4>
		// TASK: Call the appropriate function again if it wasn't processed successfully.
		UsbClassRequest();
		usleep(10*1000);
	}

	UsbWaitTDListDone();
 8005014:	800480c0 	call	800480c <UsbWaitTDListDone>

	IO_write(HPI_ADDR,0x0506);
 8005018:	01414184 	movi	r5,1286
 800501c:	01000084 	movi	r4,2
 8005020:	80011880 	call	8001188 <IO_write>
	//printf("[ENUM PROCESS]:step 8 TD Status Byte is %x\n",IO_read(HPI_DATA));

	IO_write(HPI_ADDR,0x0508);
 8005024:	01414204 	movi	r5,1288
 8005028:	01000084 	movi	r4,2
 800502c:	80011880 	call	8001188 <IO_write>
	usb_ctl_val = IO_read(HPI_DATA);
 8005030:	0009883a 	mov	r4,zero
 8005034:	80012100 	call	8001210 <IO_read>
 8005038:	d0a7288d 	sth	r2,-25438(gp)
	//printf("[ENUM PROCESS]:step 8 TD Control Byte is %x\n",usb_ctl_val);
	while (usb_ctl_val != 0x03)
 800503c:	00000206 	br	8005048 <usb_init+0x6b8>
	{
		usb_ctl_val = UsbGetRetryCnt();
 8005040:	80048900 	call	8004890 <UsbGetRetryCnt>
 8005044:	d0a7288d 	sth	r2,-25438(gp)
	//printf("[ENUM PROCESS]:step 8 TD Status Byte is %x\n",IO_read(HPI_DATA));

	IO_write(HPI_ADDR,0x0508);
	usb_ctl_val = IO_read(HPI_DATA);
	//printf("[ENUM PROCESS]:step 8 TD Control Byte is %x\n",usb_ctl_val);
	while (usb_ctl_val != 0x03)
 8005048:	d0a7288b 	ldhu	r2,-25438(gp)
 800504c:	10bfffcc 	andi	r2,r2,65535
 8005050:	108000d8 	cmpnei	r2,r2,3
 8005054:	103ffa1e 	bne	r2,zero,8005040 <__alt_data_end+0xf8005040>
	//printf("------------[ENUM PROCESS]:class request out done!-------------------\n");

	// STEP 8 begin
	//----------------------------------get descriptor(class 0x21 = HID) request out --------------------------------//
	// TASK: Call the appropriate function for this step.
	UsbGetHidDesc();
 8005058:	80043840 	call	8004384 <UsbGetHidDesc>

	while (!(IO_read(HPI_STATUS) & HPI_STATUS_SIE1msg_FLAG) )  //read sie1 msg register
 800505c:	00000306 	br	800506c <usb_init+0x6dc>
	{
		// TASK: Call the appropriate function again if it wasn't processed successfully.
		UsbGetHidDesc();
 8005060:	80043840 	call	8004384 <UsbGetHidDesc>
		usleep(10*1000);
 8005064:	0109c404 	movi	r4,10000
 8005068:	8012d080 	call	8012d08 <usleep>
	// STEP 8 begin
	//----------------------------------get descriptor(class 0x21 = HID) request out --------------------------------//
	// TASK: Call the appropriate function for this step.
	UsbGetHidDesc();

	while (!(IO_read(HPI_STATUS) & HPI_STATUS_SIE1msg_FLAG) )  //read sie1 msg register
 800506c:	010000c4 	movi	r4,3
 8005070:	80012100 	call	8001210 <IO_read>
 8005074:	10bfffcc 	andi	r2,r2,65535
 8005078:	1080040c 	andi	r2,r2,16
 800507c:	103ff826 	beq	r2,zero,8005060 <__alt_data_end+0xf8005060>
		// TASK: Call the appropriate function again if it wasn't processed successfully.
		UsbGetHidDesc();
		usleep(10*1000);
	}

	UsbWaitTDListDone();
 8005080:	800480c0 	call	800480c <UsbWaitTDListDone>

	IO_write(HPI_ADDR,0x0506);
 8005084:	01414184 	movi	r5,1286
 8005088:	01000084 	movi	r4,2
 800508c:	80011880 	call	8001188 <IO_write>
	//printf("[ENUM PROCESS]:step 8 TD Status Byte is %x\n",IO_read(HPI_DATA));

	IO_write(HPI_ADDR,0x0508);
 8005090:	01414204 	movi	r5,1288
 8005094:	01000084 	movi	r4,2
 8005098:	80011880 	call	8001188 <IO_write>
	usb_ctl_val = IO_read(HPI_DATA);
 800509c:	0009883a 	mov	r4,zero
 80050a0:	80012100 	call	8001210 <IO_read>
 80050a4:	d0a7288d 	sth	r2,-25438(gp)
	//printf("[ENUM PROCESS]:step 8 TD Control Byte is %x\n",usb_ctl_val);
	while (usb_ctl_val != 0x03)
 80050a8:	00000206 	br	80050b4 <usb_init+0x724>
	{
		usb_ctl_val = UsbGetRetryCnt();
 80050ac:	80048900 	call	8004890 <UsbGetRetryCnt>
 80050b0:	d0a7288d 	sth	r2,-25438(gp)
	//printf("[ENUM PROCESS]:step 8 TD Status Byte is %x\n",IO_read(HPI_DATA));

	IO_write(HPI_ADDR,0x0508);
	usb_ctl_val = IO_read(HPI_DATA);
	//printf("[ENUM PROCESS]:step 8 TD Control Byte is %x\n",usb_ctl_val);
	while (usb_ctl_val != 0x03)
 80050b4:	d0a7288b 	ldhu	r2,-25438(gp)
 80050b8:	10bfffcc 	andi	r2,r2,65535
 80050bc:	108000d8 	cmpnei	r2,r2,3
 80050c0:	103ffa1e 	bne	r2,zero,80050ac <__alt_data_end+0xf80050ac>
	//printf("------------[ENUM PROCESS]:get descriptor (class 0x21) done!-------------------\n");

	// STEP 9 begin
	//-------------------------------get descriptor (class 0x22 = report)-------------------------------------------//
	// TASK: Call the appropriate function for this step.
	UsbGetReportDesc();
 80050c4:	80044cc0 	call	80044cc <UsbGetReportDesc>
	//if no message
	while (!(IO_read(HPI_STATUS) & HPI_STATUS_SIE1msg_FLAG) )  //read sie1 msg register
 80050c8:	00000306 	br	80050d8 <usb_init+0x748>
	{
		// TASK: Call the appropriate function again if it wasn't processed successfully.
		UsbGetReportDesc();
 80050cc:	80044cc0 	call	80044cc <UsbGetReportDesc>
		usleep(10*1000);
 80050d0:	0109c404 	movi	r4,10000
 80050d4:	8012d080 	call	8012d08 <usleep>
	// STEP 9 begin
	//-------------------------------get descriptor (class 0x22 = report)-------------------------------------------//
	// TASK: Call the appropriate function for this step.
	UsbGetReportDesc();
	//if no message
	while (!(IO_read(HPI_STATUS) & HPI_STATUS_SIE1msg_FLAG) )  //read sie1 msg register
 80050d8:	010000c4 	movi	r4,3
 80050dc:	80012100 	call	8001210 <IO_read>
 80050e0:	10bfffcc 	andi	r2,r2,65535
 80050e4:	1080040c 	andi	r2,r2,16
 80050e8:	103ff826 	beq	r2,zero,80050cc <__alt_data_end+0xf80050cc>
		// TASK: Call the appropriate function again if it wasn't processed successfully.
		UsbGetReportDesc();
		usleep(10*1000);
	}

	UsbWaitTDListDone();
 80050ec:	800480c0 	call	800480c <UsbWaitTDListDone>

	IO_write(HPI_ADDR,0x0506);
 80050f0:	01414184 	movi	r5,1286
 80050f4:	01000084 	movi	r4,2
 80050f8:	80011880 	call	8001188 <IO_write>
	//printf("[ENUM PROCESS]: step 9 TD Status Byte is %x\n",IO_read(HPI_DATA));

	IO_write(HPI_ADDR,0x0508);
 80050fc:	01414204 	movi	r5,1288
 8005100:	01000084 	movi	r4,2
 8005104:	80011880 	call	8001188 <IO_write>
	usb_ctl_val = IO_read(HPI_DATA);
 8005108:	0009883a 	mov	r4,zero
 800510c:	80012100 	call	8001210 <IO_read>
 8005110:	d0a7288d 	sth	r2,-25438(gp)
	//printf("[ENUM PROCESS]: step 9 TD Control Byte is %x\n",usb_ctl_val);
	while (usb_ctl_val != 0x03)
 8005114:	00000206 	br	8005120 <usb_init+0x790>
	{
		usb_ctl_val = UsbGetRetryCnt();
 8005118:	80048900 	call	8004890 <UsbGetRetryCnt>
 800511c:	d0a7288d 	sth	r2,-25438(gp)
	//printf("[ENUM PROCESS]: step 9 TD Status Byte is %x\n",IO_read(HPI_DATA));

	IO_write(HPI_ADDR,0x0508);
	usb_ctl_val = IO_read(HPI_DATA);
	//printf("[ENUM PROCESS]: step 9 TD Control Byte is %x\n",usb_ctl_val);
	while (usb_ctl_val != 0x03)
 8005120:	d0a7288b 	ldhu	r2,-25438(gp)
 8005124:	10bfffcc 	andi	r2,r2,65535
 8005128:	108000d8 	cmpnei	r2,r2,3
 800512c:	103ffa1e 	bne	r2,zero,8005118 <__alt_data_end+0xf8005118>
	{
		usb_ctl_val = UsbGetRetryCnt();
	}

	//printf("---------------[ENUM PROCESS]:get descriptor (class 0x22) done!----------------\n");
	usleep(10000);
 8005130:	0109c404 	movi	r4,10000
 8005134:	8012d080 	call	8012d08 <usleep>
	return 0;
 8005138:	0005883a 	mov	r2,zero
}
 800513c:	e037883a 	mov	sp,fp
 8005140:	dfc00117 	ldw	ra,4(sp)
 8005144:	df000017 	ldw	fp,0(sp)
 8005148:	dec00204 	addi	sp,sp,8
 800514c:	f800283a 	ret

08005150 <get_keycode>:

	//-----------------------------------get keycode value------------------------------------------------//
void get_keycode(unsigned long* key0, unsigned long* key1, unsigned long* key2){
 8005150:	defff404 	addi	sp,sp,-48
 8005154:	dfc00b15 	stw	ra,44(sp)
 8005158:	df000a15 	stw	fp,40(sp)
 800515c:	df000a04 	addi	fp,sp,40
 8005160:	e13ffd15 	stw	r4,-12(fp)
 8005164:	e17ffe15 	stw	r5,-8(fp)
 8005168:	e1bfff15 	stw	r6,-4(fp)
	unsigned long keycode = 0; // return value: 4 key codes
 800516c:	e03ff615 	stw	zero,-40(fp)
	int keycode1 = 0; // first two key codes
 8005170:	e03ff715 	stw	zero,-36(fp)
	int keycode2 = 0; // second two key codes
 8005174:	e03ff815 	stw	zero,-32(fp)
	int keycode3 = 0;
 8005178:	e03ff915 	stw	zero,-28(fp)
	int keycode4 = 0;
 800517c:	e03ffa15 	stw	zero,-24(fp)
	int keycode5 = 0;
 8005180:	e03ffb15 	stw	zero,-20(fp)
	int keycode6 = 0;
 8005184:	e03ffc15 	stw	zero,-16(fp)
	toggle++;
 8005188:	d0a72803 	ldbu	r2,-25440(gp)
 800518c:	10800044 	addi	r2,r2,1
 8005190:	d0a72805 	stb	r2,-25440(gp)
	IO_write(HPI_ADDR,0x0500); //the start address
 8005194:	01414004 	movi	r5,1280
 8005198:	01000084 	movi	r4,2
 800519c:	80011880 	call	8001188 <IO_write>
	//data phase IN-1
	IO_write(HPI_DATA,0x051c); //500
 80051a0:	01414704 	movi	r5,1308
 80051a4:	0009883a 	mov	r4,zero
 80051a8:	80011880 	call	8001188 <IO_write>

	IO_write(HPI_DATA,0x000f & data_size);//2 data length
 80051ac:	d0a72903 	ldbu	r2,-25436(gp)
 80051b0:	10803fcc 	andi	r2,r2,255
 80051b4:	108003cc 	andi	r2,r2,15
 80051b8:	100b883a 	mov	r5,r2
 80051bc:	0009883a 	mov	r4,zero
 80051c0:	80011880 	call	8001188 <IO_write>

	IO_write(HPI_DATA,0x0291);//4 //endpoint 1
 80051c4:	0140a444 	movi	r5,657
 80051c8:	0009883a 	mov	r4,zero
 80051cc:	80011880 	call	8001188 <IO_write>
	if(toggle%2)
 80051d0:	d0a72803 	ldbu	r2,-25440(gp)
 80051d4:	1080004c 	andi	r2,r2,1
 80051d8:	10803fcc 	andi	r2,r2,255
 80051dc:	10000426 	beq	r2,zero,80051f0 <get_keycode+0xa0>
	{
		IO_write(HPI_DATA,0x0001);//6 //data 1
 80051e0:	01400044 	movi	r5,1
 80051e4:	0009883a 	mov	r4,zero
 80051e8:	80011880 	call	8001188 <IO_write>
 80051ec:	00000306 	br	80051fc <get_keycode+0xac>
	}
	else
	{
		IO_write(HPI_DATA,0x0041);//6 //data 1
 80051f0:	01401044 	movi	r5,65
 80051f4:	0009883a 	mov	r4,zero
 80051f8:	80011880 	call	8001188 <IO_write>
	}
	IO_write(HPI_DATA,0x0013);//8
 80051fc:	014004c4 	movi	r5,19
 8005200:	0009883a 	mov	r4,zero
 8005204:	80011880 	call	8001188 <IO_write>
	IO_write(HPI_DATA,0x0000);//a
 8005208:	000b883a 	mov	r5,zero
 800520c:	0009883a 	mov	r4,zero
 8005210:	80011880 	call	8001188 <IO_write>
	UsbWrite(HUSB_SIE1_pCurrentTDPtr,0x0500); //HUSB_SIE1_pCurrentTDPtr
 8005214:	01414004 	movi	r5,1280
 8005218:	01006c04 	movi	r4,432
 800521c:	800381c0 	call	800381c <UsbWrite>

	while (!(IO_read(HPI_STATUS) & HPI_STATUS_SIE1msg_FLAG) )  //read sie1 msg register
 8005220:	00002506 	br	80052b8 <get_keycode+0x168>
	{
		IO_write(HPI_ADDR,0x0500); //the start address
 8005224:	01414004 	movi	r5,1280
 8005228:	01000084 	movi	r4,2
 800522c:	80011880 	call	8001188 <IO_write>
		//data phase IN-1
		IO_write(HPI_DATA,0x051c); //500
 8005230:	01414704 	movi	r5,1308
 8005234:	0009883a 	mov	r4,zero
 8005238:	80011880 	call	8001188 <IO_write>

		IO_write(HPI_DATA,0x000f & data_size);//2 data length
 800523c:	d0a72903 	ldbu	r2,-25436(gp)
 8005240:	10803fcc 	andi	r2,r2,255
 8005244:	108003cc 	andi	r2,r2,15
 8005248:	100b883a 	mov	r5,r2
 800524c:	0009883a 	mov	r4,zero
 8005250:	80011880 	call	8001188 <IO_write>

		IO_write(HPI_DATA,0x0291);//4 //endpoint 1
 8005254:	0140a444 	movi	r5,657
 8005258:	0009883a 	mov	r4,zero
 800525c:	80011880 	call	8001188 <IO_write>
		if(toggle%2)
 8005260:	d0a72803 	ldbu	r2,-25440(gp)
 8005264:	1080004c 	andi	r2,r2,1
 8005268:	10803fcc 	andi	r2,r2,255
 800526c:	10000426 	beq	r2,zero,8005280 <get_keycode+0x130>
		{
			IO_write(HPI_DATA,0x0001);//6 //data 1
 8005270:	01400044 	movi	r5,1
 8005274:	0009883a 	mov	r4,zero
 8005278:	80011880 	call	8001188 <IO_write>
 800527c:	00000306 	br	800528c <get_keycode+0x13c>
		}
		else
		{
			IO_write(HPI_DATA,0x0041);//6 //data 1
 8005280:	01401044 	movi	r5,65
 8005284:	0009883a 	mov	r4,zero
 8005288:	80011880 	call	8001188 <IO_write>
		}
		IO_write(HPI_DATA,0x0013);//8
 800528c:	014004c4 	movi	r5,19
 8005290:	0009883a 	mov	r4,zero
 8005294:	80011880 	call	8001188 <IO_write>
		IO_write(HPI_DATA,0x0000);//
 8005298:	000b883a 	mov	r5,zero
 800529c:	0009883a 	mov	r4,zero
 80052a0:	80011880 	call	8001188 <IO_write>
		UsbWrite(HUSB_SIE1_pCurrentTDPtr,0x0500); //HUSB_SIE1_pCurrentTDPtr
 80052a4:	01414004 	movi	r5,1280
 80052a8:	01006c04 	movi	r4,432
 80052ac:	800381c0 	call	800381c <UsbWrite>
		usleep(10*1000);
 80052b0:	0109c404 	movi	r4,10000
 80052b4:	8012d080 	call	8012d08 <usleep>
	}
	IO_write(HPI_DATA,0x0013);//8
	IO_write(HPI_DATA,0x0000);//a
	UsbWrite(HUSB_SIE1_pCurrentTDPtr,0x0500); //HUSB_SIE1_pCurrentTDPtr

	while (!(IO_read(HPI_STATUS) & HPI_STATUS_SIE1msg_FLAG) )  //read sie1 msg register
 80052b8:	010000c4 	movi	r4,3
 80052bc:	80012100 	call	8001210 <IO_read>
 80052c0:	10bfffcc 	andi	r2,r2,65535
 80052c4:	1080040c 	andi	r2,r2,16
 80052c8:	103fd626 	beq	r2,zero,8005224 <__alt_data_end+0xf8005224>
		IO_write(HPI_DATA,0x0000);//
		UsbWrite(HUSB_SIE1_pCurrentTDPtr,0x0500); //HUSB_SIE1_pCurrentTDPtr
		usleep(10*1000);
	}//end while

	usb_ctl_val = UsbWaitTDListDone();
 80052cc:	800480c0 	call	800480c <UsbWaitTDListDone>
 80052d0:	d0a7288d 	sth	r2,-25438(gp)

	// The first two keycodes are stored in 0x051E. Other keycodes are in
	// subsequent addresses.
	keycode1 = UsbRead(0x051e);
 80052d4:	01014784 	movi	r4,1310
 80052d8:	80038740 	call	8003874 <UsbRead>
 80052dc:	10bfffcc 	andi	r2,r2,65535
 80052e0:	e0bff715 	stw	r2,-36(fp)
	keycode2 = UsbRead(0x0520);
 80052e4:	01014804 	movi	r4,1312
 80052e8:	80038740 	call	8003874 <UsbRead>
 80052ec:	10bfffcc 	andi	r2,r2,65535
 80052f0:	e0bff815 	stw	r2,-32(fp)
	keycode3 = UsbRead(0x0522);
 80052f4:	01014884 	movi	r4,1314
 80052f8:	80038740 	call	8003874 <UsbRead>
 80052fc:	10bfffcc 	andi	r2,r2,65535
 8005300:	e0bff915 	stw	r2,-28(fp)
//	//printf("second two keycode values are %04x\n",keycode2);
	// We only need the first keycode, which is at the lower byte of keycode.
	// Send the keycode to hardware via PIO.
//	*keycode_base = keycode1 & 0xff;

	usleep(200);//usleep(5000);
 8005304:	01003204 	movi	r4,200
 8005308:	8012d080 	call	8012d08 <usleep>
	usb_ctl_val = UsbRead(ctl_reg);
 800530c:	d0a7230b 	ldhu	r2,-25460(gp)
 8005310:	10bfffcc 	andi	r2,r2,65535
 8005314:	1009883a 	mov	r4,r2
 8005318:	80038740 	call	8003874 <UsbRead>
 800531c:	d0a7288d 	sth	r2,-25438(gp)

	if(!(usb_ctl_val & no_device))
 8005320:	d0e7288b 	ldhu	r3,-25438(gp)
 8005324:	d0a7238b 	ldhu	r2,-25458(gp)
 8005328:	1884703a 	and	r2,r3,r2
 800532c:	10bfffcc 	andi	r2,r2,65535
 8005330:	1000351e 	bne	r2,zero,8005408 <get_keycode+0x2b8>
	{
		//USB hot plug routine
		for(hot_plug_count = 0 ; hot_plug_count < 7 ; hot_plug_count++)
 8005334:	d0272a05 	stb	zero,-25432(gp)
 8005338:	00000f06 	br	8005378 <get_keycode+0x228>
		{
			usleep(5*1000);
 800533c:	0104e204 	movi	r4,5000
 8005340:	8012d080 	call	8012d08 <usleep>
			usb_ctl_val = UsbRead(ctl_reg);
 8005344:	d0a7230b 	ldhu	r2,-25460(gp)
 8005348:	10bfffcc 	andi	r2,r2,65535
 800534c:	1009883a 	mov	r4,r2
 8005350:	80038740 	call	8003874 <UsbRead>
 8005354:	d0a7288d 	sth	r2,-25438(gp)
			if(usb_ctl_val & no_device) break;
 8005358:	d0e7288b 	ldhu	r3,-25438(gp)
 800535c:	d0a7238b 	ldhu	r2,-25458(gp)
 8005360:	1884703a 	and	r2,r3,r2
 8005364:	10bfffcc 	andi	r2,r2,65535
 8005368:	1000081e 	bne	r2,zero,800538c <get_keycode+0x23c>
	usb_ctl_val = UsbRead(ctl_reg);

	if(!(usb_ctl_val & no_device))
	{
		//USB hot plug routine
		for(hot_plug_count = 0 ; hot_plug_count < 7 ; hot_plug_count++)
 800536c:	d0a72a03 	ldbu	r2,-25432(gp)
 8005370:	10800044 	addi	r2,r2,1
 8005374:	d0a72a05 	stb	r2,-25432(gp)
 8005378:	d0a72a03 	ldbu	r2,-25432(gp)
 800537c:	10803fcc 	andi	r2,r2,255
 8005380:	108001f0 	cmpltui	r2,r2,7
 8005384:	103fed1e 	bne	r2,zero,800533c <__alt_data_end+0xf800533c>
 8005388:	00001f06 	br	8005408 <get_keycode+0x2b8>
		{
			usleep(5*1000);
			usb_ctl_val = UsbRead(ctl_reg);
			if(usb_ctl_val & no_device) break;
 800538c:	0001883a 	nop
			//printf("\n[INFO]: the keyboard has been removed!!! \n");
			//printf("[INFO]: please insert again!!! \n");
		}
	}

	while (!(usb_ctl_val & no_device))
 8005390:	00001d06 	br	8005408 <get_keycode+0x2b8>
	{

		usb_ctl_val = UsbRead(ctl_reg);
 8005394:	d0a7230b 	ldhu	r2,-25460(gp)
 8005398:	10bfffcc 	andi	r2,r2,65535
 800539c:	1009883a 	mov	r4,r2
 80053a0:	80038740 	call	8003874 <UsbRead>
 80053a4:	d0a7288d 	sth	r2,-25438(gp)
		usleep(5*1000);
 80053a8:	0104e204 	movi	r4,5000
 80053ac:	8012d080 	call	8012d08 <usleep>
		usb_ctl_val = UsbRead(ctl_reg);
 80053b0:	d0a7230b 	ldhu	r2,-25460(gp)
 80053b4:	10bfffcc 	andi	r2,r2,65535
 80053b8:	1009883a 	mov	r4,r2
 80053bc:	80038740 	call	8003874 <UsbRead>
 80053c0:	d0a7288d 	sth	r2,-25438(gp)
		usleep(5*1000);
 80053c4:	0104e204 	movi	r4,5000
 80053c8:	8012d080 	call	8012d08 <usleep>
		usb_ctl_val = UsbRead(ctl_reg);
 80053cc:	d0a7230b 	ldhu	r2,-25460(gp)
 80053d0:	10bfffcc 	andi	r2,r2,65535
 80053d4:	1009883a 	mov	r4,r2
 80053d8:	80038740 	call	8003874 <UsbRead>
 80053dc:	d0a7288d 	sth	r2,-25438(gp)
		usleep(5*1000);
 80053e0:	0104e204 	movi	r4,5000
 80053e4:	8012d080 	call	8012d08 <usleep>

		if(usb_ctl_val & no_device)
 80053e8:	d0e7288b 	ldhu	r3,-25438(gp)
 80053ec:	d0a7238b 	ldhu	r2,-25458(gp)
 80053f0:	1884703a 	and	r2,r3,r2
 80053f4:	10bfffcc 	andi	r2,r2,65535
 80053f8:	10000126 	beq	r2,zero,8005400 <get_keycode+0x2b0>
			usb_init();
 80053fc:	80049900 	call	8004990 <usb_init>
//			goto USB_HOT_PLUG;

		usleep(200);
 8005400:	01003204 	movi	r4,200
 8005404:	8012d080 	call	8012d08 <usleep>
			//printf("\n[INFO]: the keyboard has been removed!!! \n");
			//printf("[INFO]: please insert again!!! \n");
		}
	}

	while (!(usb_ctl_val & no_device))
 8005408:	d0e7288b 	ldhu	r3,-25438(gp)
 800540c:	d0a7238b 	ldhu	r2,-25458(gp)
 8005410:	1884703a 	and	r2,r3,r2
 8005414:	10bfffcc 	andi	r2,r2,65535
 8005418:	103fde26 	beq	r2,zero,8005394 <__alt_data_end+0xf8005394>
//			goto USB_HOT_PLUG;

		usleep(200);
	}

	*key0 = (unsigned long)(keycode1<<16) + (unsigned long)(keycode2<<8);
 800541c:	e0bff717 	ldw	r2,-36(fp)
 8005420:	1004943a 	slli	r2,r2,16
 8005424:	1007883a 	mov	r3,r2
 8005428:	e0bff817 	ldw	r2,-32(fp)
 800542c:	1004923a 	slli	r2,r2,8
 8005430:	1887883a 	add	r3,r3,r2
 8005434:	e0bffd17 	ldw	r2,-12(fp)
 8005438:	10c00015 	stw	r3,0(r2)
	*key1 = (unsigned long)(keycode3<<16);
 800543c:	e0bff917 	ldw	r2,-28(fp)
 8005440:	1004943a 	slli	r2,r2,16
 8005444:	1007883a 	mov	r3,r2
 8005448:	e0bffe17 	ldw	r2,-8(fp)
 800544c:	10c00015 	stw	r3,0(r2)
}
 8005450:	0001883a 	nop
 8005454:	e037883a 	mov	sp,fp
 8005458:	dfc00117 	ldw	ra,4(sp)
 800545c:	df000017 	ldw	fp,0(sp)
 8005460:	dec00204 	addi	sp,sp,8
 8005464:	f800283a 	ret

08005468 <__mulsi3>:
 8005468:	0005883a 	mov	r2,zero
 800546c:	20000726 	beq	r4,zero,800548c <__mulsi3+0x24>
 8005470:	20c0004c 	andi	r3,r4,1
 8005474:	2008d07a 	srli	r4,r4,1
 8005478:	18000126 	beq	r3,zero,8005480 <__mulsi3+0x18>
 800547c:	1145883a 	add	r2,r2,r5
 8005480:	294b883a 	add	r5,r5,r5
 8005484:	203ffa1e 	bne	r4,zero,8005470 <__alt_data_end+0xf8005470>
 8005488:	f800283a 	ret
 800548c:	f800283a 	ret

08005490 <__divdf3>:
 8005490:	defff004 	addi	sp,sp,-64
 8005494:	dc800815 	stw	r18,32(sp)
 8005498:	2824d53a 	srli	r18,r5,20
 800549c:	dd800c15 	stw	r22,48(sp)
 80054a0:	282cd7fa 	srli	r22,r5,31
 80054a4:	dc000615 	stw	r16,24(sp)
 80054a8:	04000434 	movhi	r16,16
 80054ac:	843fffc4 	addi	r16,r16,-1
 80054b0:	dfc00f15 	stw	ra,60(sp)
 80054b4:	df000e15 	stw	fp,56(sp)
 80054b8:	ddc00d15 	stw	r23,52(sp)
 80054bc:	dd400b15 	stw	r21,44(sp)
 80054c0:	dd000a15 	stw	r20,40(sp)
 80054c4:	dcc00915 	stw	r19,36(sp)
 80054c8:	dc400715 	stw	r17,28(sp)
 80054cc:	9481ffcc 	andi	r18,r18,2047
 80054d0:	2c20703a 	and	r16,r5,r16
 80054d4:	b2003fcc 	andi	r8,r22,255
 80054d8:	90006126 	beq	r18,zero,8005660 <__divdf3+0x1d0>
 80054dc:	0081ffc4 	movi	r2,2047
 80054e0:	202b883a 	mov	r21,r4
 80054e4:	90803726 	beq	r18,r2,80055c4 <__divdf3+0x134>
 80054e8:	80800434 	orhi	r2,r16,16
 80054ec:	100490fa 	slli	r2,r2,3
 80054f0:	2020d77a 	srli	r16,r4,29
 80054f4:	202a90fa 	slli	r21,r4,3
 80054f8:	94bf0044 	addi	r18,r18,-1023
 80054fc:	80a0b03a 	or	r16,r16,r2
 8005500:	0013883a 	mov	r9,zero
 8005504:	000b883a 	mov	r5,zero
 8005508:	3806d53a 	srli	r3,r7,20
 800550c:	382ed7fa 	srli	r23,r7,31
 8005510:	04400434 	movhi	r17,16
 8005514:	8c7fffc4 	addi	r17,r17,-1
 8005518:	18c1ffcc 	andi	r3,r3,2047
 800551c:	3029883a 	mov	r20,r6
 8005520:	3c62703a 	and	r17,r7,r17
 8005524:	bf003fcc 	andi	fp,r23,255
 8005528:	18006e26 	beq	r3,zero,80056e4 <__divdf3+0x254>
 800552c:	0081ffc4 	movi	r2,2047
 8005530:	18806626 	beq	r3,r2,80056cc <__divdf3+0x23c>
 8005534:	88800434 	orhi	r2,r17,16
 8005538:	100490fa 	slli	r2,r2,3
 800553c:	3022d77a 	srli	r17,r6,29
 8005540:	302890fa 	slli	r20,r6,3
 8005544:	18ff0044 	addi	r3,r3,-1023
 8005548:	88a2b03a 	or	r17,r17,r2
 800554c:	000f883a 	mov	r7,zero
 8005550:	b5e6f03a 	xor	r19,r22,r23
 8005554:	3a4cb03a 	or	r6,r7,r9
 8005558:	008003c4 	movi	r2,15
 800555c:	9809883a 	mov	r4,r19
 8005560:	90c7c83a 	sub	r3,r18,r3
 8005564:	9cc03fcc 	andi	r19,r19,255
 8005568:	11809636 	bltu	r2,r6,80057c4 <__divdf3+0x334>
 800556c:	300c90ba 	slli	r6,r6,2
 8005570:	00820034 	movhi	r2,2048
 8005574:	10956104 	addi	r2,r2,21892
 8005578:	308d883a 	add	r6,r6,r2
 800557c:	30800017 	ldw	r2,0(r6)
 8005580:	1000683a 	jmp	r2
 8005584:	080057c4 	addi	zero,at,351
 8005588:	080055fc 	xorhi	zero,at,343
 800558c:	080057b4 	orhi	zero,at,350
 8005590:	080055f0 	cmpltui	zero,at,343
 8005594:	080057b4 	orhi	zero,at,350
 8005598:	08005788 	cmpgei	zero,at,350
 800559c:	080057b4 	orhi	zero,at,350
 80055a0:	080055f0 	cmpltui	zero,at,343
 80055a4:	080055fc 	xorhi	zero,at,343
 80055a8:	080055fc 	xorhi	zero,at,343
 80055ac:	08005788 	cmpgei	zero,at,350
 80055b0:	080055f0 	cmpltui	zero,at,343
 80055b4:	080055e0 	cmpeqi	zero,at,343
 80055b8:	080055e0 	cmpeqi	zero,at,343
 80055bc:	080055e0 	cmpeqi	zero,at,343
 80055c0:	08005b4c 	andi	zero,at,365
 80055c4:	2404b03a 	or	r2,r4,r16
 80055c8:	10006c1e 	bne	r2,zero,800577c <__divdf3+0x2ec>
 80055cc:	02400204 	movi	r9,8
 80055d0:	0021883a 	mov	r16,zero
 80055d4:	002b883a 	mov	r21,zero
 80055d8:	01400084 	movi	r5,2
 80055dc:	003fca06 	br	8005508 <__alt_data_end+0xf8005508>
 80055e0:	8023883a 	mov	r17,r16
 80055e4:	a829883a 	mov	r20,r21
 80055e8:	4039883a 	mov	fp,r8
 80055ec:	280f883a 	mov	r7,r5
 80055f0:	00800084 	movi	r2,2
 80055f4:	3881601e 	bne	r7,r2,8005b78 <__divdf3+0x6e8>
 80055f8:	e027883a 	mov	r19,fp
 80055fc:	9900004c 	andi	r4,r19,1
 8005600:	0081ffc4 	movi	r2,2047
 8005604:	0021883a 	mov	r16,zero
 8005608:	002b883a 	mov	r21,zero
 800560c:	1004953a 	slli	r2,r2,20
 8005610:	20c03fcc 	andi	r3,r4,255
 8005614:	01400434 	movhi	r5,16
 8005618:	297fffc4 	addi	r5,r5,-1
 800561c:	180697fa 	slli	r3,r3,31
 8005620:	8160703a 	and	r16,r16,r5
 8005624:	80a0b03a 	or	r16,r16,r2
 8005628:	80c6b03a 	or	r3,r16,r3
 800562c:	a805883a 	mov	r2,r21
 8005630:	dfc00f17 	ldw	ra,60(sp)
 8005634:	df000e17 	ldw	fp,56(sp)
 8005638:	ddc00d17 	ldw	r23,52(sp)
 800563c:	dd800c17 	ldw	r22,48(sp)
 8005640:	dd400b17 	ldw	r21,44(sp)
 8005644:	dd000a17 	ldw	r20,40(sp)
 8005648:	dcc00917 	ldw	r19,36(sp)
 800564c:	dc800817 	ldw	r18,32(sp)
 8005650:	dc400717 	ldw	r17,28(sp)
 8005654:	dc000617 	ldw	r16,24(sp)
 8005658:	dec01004 	addi	sp,sp,64
 800565c:	f800283a 	ret
 8005660:	2404b03a 	or	r2,r4,r16
 8005664:	2023883a 	mov	r17,r4
 8005668:	10003f26 	beq	r2,zero,8005768 <__divdf3+0x2d8>
 800566c:	80015e26 	beq	r16,zero,8005be8 <__divdf3+0x758>
 8005670:	8009883a 	mov	r4,r16
 8005674:	d9800215 	stw	r6,8(sp)
 8005678:	d9c00515 	stw	r7,20(sp)
 800567c:	da000415 	stw	r8,16(sp)
 8005680:	80060d80 	call	80060d8 <__clzsi2>
 8005684:	d9800217 	ldw	r6,8(sp)
 8005688:	d9c00517 	ldw	r7,20(sp)
 800568c:	da000417 	ldw	r8,16(sp)
 8005690:	113ffd44 	addi	r4,r2,-11
 8005694:	00c00704 	movi	r3,28
 8005698:	19014f16 	blt	r3,r4,8005bd8 <__divdf3+0x748>
 800569c:	00c00744 	movi	r3,29
 80056a0:	157ffe04 	addi	r21,r2,-8
 80056a4:	1907c83a 	sub	r3,r3,r4
 80056a8:	8560983a 	sll	r16,r16,r21
 80056ac:	88c6d83a 	srl	r3,r17,r3
 80056b0:	8d6a983a 	sll	r21,r17,r21
 80056b4:	1c20b03a 	or	r16,r3,r16
 80056b8:	1080fcc4 	addi	r2,r2,1011
 80056bc:	00a5c83a 	sub	r18,zero,r2
 80056c0:	0013883a 	mov	r9,zero
 80056c4:	000b883a 	mov	r5,zero
 80056c8:	003f8f06 	br	8005508 <__alt_data_end+0xf8005508>
 80056cc:	3444b03a 	or	r2,r6,r17
 80056d0:	1000231e 	bne	r2,zero,8005760 <__divdf3+0x2d0>
 80056d4:	0023883a 	mov	r17,zero
 80056d8:	0029883a 	mov	r20,zero
 80056dc:	01c00084 	movi	r7,2
 80056e0:	003f9b06 	br	8005550 <__alt_data_end+0xf8005550>
 80056e4:	3444b03a 	or	r2,r6,r17
 80056e8:	10001926 	beq	r2,zero,8005750 <__divdf3+0x2c0>
 80056ec:	88014b26 	beq	r17,zero,8005c1c <__divdf3+0x78c>
 80056f0:	8809883a 	mov	r4,r17
 80056f4:	d9400115 	stw	r5,4(sp)
 80056f8:	d9800215 	stw	r6,8(sp)
 80056fc:	da000415 	stw	r8,16(sp)
 8005700:	da400315 	stw	r9,12(sp)
 8005704:	80060d80 	call	80060d8 <__clzsi2>
 8005708:	d9400117 	ldw	r5,4(sp)
 800570c:	d9800217 	ldw	r6,8(sp)
 8005710:	da000417 	ldw	r8,16(sp)
 8005714:	da400317 	ldw	r9,12(sp)
 8005718:	113ffd44 	addi	r4,r2,-11
 800571c:	00c00704 	movi	r3,28
 8005720:	19013a16 	blt	r3,r4,8005c0c <__divdf3+0x77c>
 8005724:	00c00744 	movi	r3,29
 8005728:	153ffe04 	addi	r20,r2,-8
 800572c:	1907c83a 	sub	r3,r3,r4
 8005730:	8d22983a 	sll	r17,r17,r20
 8005734:	30c6d83a 	srl	r3,r6,r3
 8005738:	3528983a 	sll	r20,r6,r20
 800573c:	1c62b03a 	or	r17,r3,r17
 8005740:	1080fcc4 	addi	r2,r2,1011
 8005744:	0087c83a 	sub	r3,zero,r2
 8005748:	000f883a 	mov	r7,zero
 800574c:	003f8006 	br	8005550 <__alt_data_end+0xf8005550>
 8005750:	0023883a 	mov	r17,zero
 8005754:	0029883a 	mov	r20,zero
 8005758:	01c00044 	movi	r7,1
 800575c:	003f7c06 	br	8005550 <__alt_data_end+0xf8005550>
 8005760:	01c000c4 	movi	r7,3
 8005764:	003f7a06 	br	8005550 <__alt_data_end+0xf8005550>
 8005768:	02400104 	movi	r9,4
 800576c:	0021883a 	mov	r16,zero
 8005770:	002b883a 	mov	r21,zero
 8005774:	01400044 	movi	r5,1
 8005778:	003f6306 	br	8005508 <__alt_data_end+0xf8005508>
 800577c:	02400304 	movi	r9,12
 8005780:	014000c4 	movi	r5,3
 8005784:	003f6006 	br	8005508 <__alt_data_end+0xf8005508>
 8005788:	04000434 	movhi	r16,16
 800578c:	0009883a 	mov	r4,zero
 8005790:	843fffc4 	addi	r16,r16,-1
 8005794:	057fffc4 	movi	r21,-1
 8005798:	0081ffc4 	movi	r2,2047
 800579c:	003f9b06 	br	800560c <__alt_data_end+0xf800560c>
 80057a0:	00c00044 	movi	r3,1
 80057a4:	1887c83a 	sub	r3,r3,r2
 80057a8:	01000e04 	movi	r4,56
 80057ac:	20c1530e 	bge	r4,r3,8005cfc <__divdf3+0x86c>
 80057b0:	9900004c 	andi	r4,r19,1
 80057b4:	0005883a 	mov	r2,zero
 80057b8:	0021883a 	mov	r16,zero
 80057bc:	002b883a 	mov	r21,zero
 80057c0:	003f9206 	br	800560c <__alt_data_end+0xf800560c>
 80057c4:	8c012e36 	bltu	r17,r16,8005c80 <__divdf3+0x7f0>
 80057c8:	84412c26 	beq	r16,r17,8005c7c <__divdf3+0x7ec>
 80057cc:	a82f883a 	mov	r23,r21
 80057d0:	18ffffc4 	addi	r3,r3,-1
 80057d4:	002b883a 	mov	r21,zero
 80057d8:	a004d63a 	srli	r2,r20,24
 80057dc:	8822923a 	slli	r17,r17,8
 80057e0:	a028923a 	slli	r20,r20,8
 80057e4:	8009883a 	mov	r4,r16
 80057e8:	88acb03a 	or	r22,r17,r2
 80057ec:	dd000015 	stw	r20,0(sp)
 80057f0:	b028d43a 	srli	r20,r22,16
 80057f4:	d8c00215 	stw	r3,8(sp)
 80057f8:	b4bfffcc 	andi	r18,r22,65535
 80057fc:	a00b883a 	mov	r5,r20
 8005800:	80062340 	call	8006234 <__udivsi3>
 8005804:	100b883a 	mov	r5,r2
 8005808:	9009883a 	mov	r4,r18
 800580c:	1023883a 	mov	r17,r2
 8005810:	80054680 	call	8005468 <__mulsi3>
 8005814:	8009883a 	mov	r4,r16
 8005818:	a00b883a 	mov	r5,r20
 800581c:	1039883a 	mov	fp,r2
 8005820:	80062980 	call	8006298 <__umodsi3>
 8005824:	1004943a 	slli	r2,r2,16
 8005828:	b808d43a 	srli	r4,r23,16
 800582c:	d8c00217 	ldw	r3,8(sp)
 8005830:	2084b03a 	or	r2,r4,r2
 8005834:	1700062e 	bgeu	r2,fp,8005850 <__divdf3+0x3c0>
 8005838:	1585883a 	add	r2,r2,r22
 800583c:	893fffc4 	addi	r4,r17,-1
 8005840:	15811d36 	bltu	r2,r22,8005cb8 <__divdf3+0x828>
 8005844:	17011c2e 	bgeu	r2,fp,8005cb8 <__divdf3+0x828>
 8005848:	8c7fff84 	addi	r17,r17,-2
 800584c:	1585883a 	add	r2,r2,r22
 8005850:	1739c83a 	sub	fp,r2,fp
 8005854:	a00b883a 	mov	r5,r20
 8005858:	e009883a 	mov	r4,fp
 800585c:	d8c00215 	stw	r3,8(sp)
 8005860:	80062340 	call	8006234 <__udivsi3>
 8005864:	100b883a 	mov	r5,r2
 8005868:	9009883a 	mov	r4,r18
 800586c:	1021883a 	mov	r16,r2
 8005870:	80054680 	call	8005468 <__mulsi3>
 8005874:	a00b883a 	mov	r5,r20
 8005878:	e009883a 	mov	r4,fp
 800587c:	d8800415 	stw	r2,16(sp)
 8005880:	80062980 	call	8006298 <__umodsi3>
 8005884:	1004943a 	slli	r2,r2,16
 8005888:	da000417 	ldw	r8,16(sp)
 800588c:	bdffffcc 	andi	r23,r23,65535
 8005890:	b884b03a 	or	r2,r23,r2
 8005894:	d8c00217 	ldw	r3,8(sp)
 8005898:	1200062e 	bgeu	r2,r8,80058b4 <__divdf3+0x424>
 800589c:	1585883a 	add	r2,r2,r22
 80058a0:	813fffc4 	addi	r4,r16,-1
 80058a4:	15810236 	bltu	r2,r22,8005cb0 <__divdf3+0x820>
 80058a8:	1201012e 	bgeu	r2,r8,8005cb0 <__divdf3+0x820>
 80058ac:	843fff84 	addi	r16,r16,-2
 80058b0:	1585883a 	add	r2,r2,r22
 80058b4:	8822943a 	slli	r17,r17,16
 80058b8:	d9800017 	ldw	r6,0(sp)
 80058bc:	1211c83a 	sub	r8,r2,r8
 80058c0:	8c22b03a 	or	r17,r17,r16
 80058c4:	373fffcc 	andi	fp,r6,65535
 80058c8:	8abfffcc 	andi	r10,r17,65535
 80058cc:	8820d43a 	srli	r16,r17,16
 80058d0:	5009883a 	mov	r4,r10
 80058d4:	e00b883a 	mov	r5,fp
 80058d8:	302ed43a 	srli	r23,r6,16
 80058dc:	d8c00215 	stw	r3,8(sp)
 80058e0:	da000415 	stw	r8,16(sp)
 80058e4:	da800115 	stw	r10,4(sp)
 80058e8:	80054680 	call	8005468 <__mulsi3>
 80058ec:	800b883a 	mov	r5,r16
 80058f0:	e009883a 	mov	r4,fp
 80058f4:	d8800515 	stw	r2,20(sp)
 80058f8:	80054680 	call	8005468 <__mulsi3>
 80058fc:	8009883a 	mov	r4,r16
 8005900:	b80b883a 	mov	r5,r23
 8005904:	d8800315 	stw	r2,12(sp)
 8005908:	80054680 	call	8005468 <__mulsi3>
 800590c:	da800117 	ldw	r10,4(sp)
 8005910:	b80b883a 	mov	r5,r23
 8005914:	1021883a 	mov	r16,r2
 8005918:	5009883a 	mov	r4,r10
 800591c:	80054680 	call	8005468 <__mulsi3>
 8005920:	d9c00517 	ldw	r7,20(sp)
 8005924:	da400317 	ldw	r9,12(sp)
 8005928:	d8c00217 	ldw	r3,8(sp)
 800592c:	3808d43a 	srli	r4,r7,16
 8005930:	1245883a 	add	r2,r2,r9
 8005934:	da000417 	ldw	r8,16(sp)
 8005938:	2085883a 	add	r2,r4,r2
 800593c:	1240022e 	bgeu	r2,r9,8005948 <__divdf3+0x4b8>
 8005940:	01000074 	movhi	r4,1
 8005944:	8121883a 	add	r16,r16,r4
 8005948:	1008d43a 	srli	r4,r2,16
 800594c:	1004943a 	slli	r2,r2,16
 8005950:	39ffffcc 	andi	r7,r7,65535
 8005954:	2409883a 	add	r4,r4,r16
 8005958:	11c5883a 	add	r2,r2,r7
 800595c:	4100bb36 	bltu	r8,r4,8005c4c <__divdf3+0x7bc>
 8005960:	4100d726 	beq	r8,r4,8005cc0 <__divdf3+0x830>
 8005964:	4109c83a 	sub	r4,r8,r4
 8005968:	a8a1c83a 	sub	r16,r21,r2
 800596c:	ac2b803a 	cmpltu	r21,r21,r16
 8005970:	256bc83a 	sub	r21,r4,r21
 8005974:	b540d926 	beq	r22,r21,8005cdc <__divdf3+0x84c>
 8005978:	a00b883a 	mov	r5,r20
 800597c:	a809883a 	mov	r4,r21
 8005980:	d8c00215 	stw	r3,8(sp)
 8005984:	80062340 	call	8006234 <__udivsi3>
 8005988:	100b883a 	mov	r5,r2
 800598c:	9009883a 	mov	r4,r18
 8005990:	d8800515 	stw	r2,20(sp)
 8005994:	80054680 	call	8005468 <__mulsi3>
 8005998:	a809883a 	mov	r4,r21
 800599c:	a00b883a 	mov	r5,r20
 80059a0:	d8800415 	stw	r2,16(sp)
 80059a4:	80062980 	call	8006298 <__umodsi3>
 80059a8:	1004943a 	slli	r2,r2,16
 80059ac:	8008d43a 	srli	r4,r16,16
 80059b0:	da000417 	ldw	r8,16(sp)
 80059b4:	d8c00217 	ldw	r3,8(sp)
 80059b8:	2084b03a 	or	r2,r4,r2
 80059bc:	d9c00517 	ldw	r7,20(sp)
 80059c0:	1200062e 	bgeu	r2,r8,80059dc <__divdf3+0x54c>
 80059c4:	1585883a 	add	r2,r2,r22
 80059c8:	393fffc4 	addi	r4,r7,-1
 80059cc:	1580c536 	bltu	r2,r22,8005ce4 <__divdf3+0x854>
 80059d0:	1200c42e 	bgeu	r2,r8,8005ce4 <__divdf3+0x854>
 80059d4:	39ffff84 	addi	r7,r7,-2
 80059d8:	1585883a 	add	r2,r2,r22
 80059dc:	122bc83a 	sub	r21,r2,r8
 80059e0:	a00b883a 	mov	r5,r20
 80059e4:	a809883a 	mov	r4,r21
 80059e8:	d8c00215 	stw	r3,8(sp)
 80059ec:	d9c00515 	stw	r7,20(sp)
 80059f0:	80062340 	call	8006234 <__udivsi3>
 80059f4:	9009883a 	mov	r4,r18
 80059f8:	100b883a 	mov	r5,r2
 80059fc:	d8800415 	stw	r2,16(sp)
 8005a00:	80054680 	call	8005468 <__mulsi3>
 8005a04:	a809883a 	mov	r4,r21
 8005a08:	a00b883a 	mov	r5,r20
 8005a0c:	1025883a 	mov	r18,r2
 8005a10:	80062980 	call	8006298 <__umodsi3>
 8005a14:	1004943a 	slli	r2,r2,16
 8005a18:	813fffcc 	andi	r4,r16,65535
 8005a1c:	d8c00217 	ldw	r3,8(sp)
 8005a20:	20a0b03a 	or	r16,r4,r2
 8005a24:	d9c00517 	ldw	r7,20(sp)
 8005a28:	da000417 	ldw	r8,16(sp)
 8005a2c:	8480062e 	bgeu	r16,r18,8005a48 <__divdf3+0x5b8>
 8005a30:	85a1883a 	add	r16,r16,r22
 8005a34:	40bfffc4 	addi	r2,r8,-1
 8005a38:	8580ac36 	bltu	r16,r22,8005cec <__divdf3+0x85c>
 8005a3c:	8480ab2e 	bgeu	r16,r18,8005cec <__divdf3+0x85c>
 8005a40:	423fff84 	addi	r8,r8,-2
 8005a44:	85a1883a 	add	r16,r16,r22
 8005a48:	3804943a 	slli	r2,r7,16
 8005a4c:	84a1c83a 	sub	r16,r16,r18
 8005a50:	e009883a 	mov	r4,fp
 8005a54:	1228b03a 	or	r20,r2,r8
 8005a58:	a1ffffcc 	andi	r7,r20,65535
 8005a5c:	a024d43a 	srli	r18,r20,16
 8005a60:	380b883a 	mov	r5,r7
 8005a64:	d8c00215 	stw	r3,8(sp)
 8005a68:	d9c00515 	stw	r7,20(sp)
 8005a6c:	80054680 	call	8005468 <__mulsi3>
 8005a70:	900b883a 	mov	r5,r18
 8005a74:	e009883a 	mov	r4,fp
 8005a78:	102b883a 	mov	r21,r2
 8005a7c:	80054680 	call	8005468 <__mulsi3>
 8005a80:	900b883a 	mov	r5,r18
 8005a84:	b809883a 	mov	r4,r23
 8005a88:	1039883a 	mov	fp,r2
 8005a8c:	80054680 	call	8005468 <__mulsi3>
 8005a90:	d9c00517 	ldw	r7,20(sp)
 8005a94:	b80b883a 	mov	r5,r23
 8005a98:	1025883a 	mov	r18,r2
 8005a9c:	3809883a 	mov	r4,r7
 8005aa0:	80054680 	call	8005468 <__mulsi3>
 8005aa4:	a808d43a 	srli	r4,r21,16
 8005aa8:	1705883a 	add	r2,r2,fp
 8005aac:	d8c00217 	ldw	r3,8(sp)
 8005ab0:	2085883a 	add	r2,r4,r2
 8005ab4:	1700022e 	bgeu	r2,fp,8005ac0 <__divdf3+0x630>
 8005ab8:	01000074 	movhi	r4,1
 8005abc:	9125883a 	add	r18,r18,r4
 8005ac0:	1008d43a 	srli	r4,r2,16
 8005ac4:	1004943a 	slli	r2,r2,16
 8005ac8:	ad7fffcc 	andi	r21,r21,65535
 8005acc:	2489883a 	add	r4,r4,r18
 8005ad0:	1545883a 	add	r2,r2,r21
 8005ad4:	81003836 	bltu	r16,r4,8005bb8 <__divdf3+0x728>
 8005ad8:	81003626 	beq	r16,r4,8005bb4 <__divdf3+0x724>
 8005adc:	a5000054 	ori	r20,r20,1
 8005ae0:	1880ffc4 	addi	r2,r3,1023
 8005ae4:	00bf2e0e 	bge	zero,r2,80057a0 <__alt_data_end+0xf80057a0>
 8005ae8:	a10001cc 	andi	r4,r20,7
 8005aec:	20000726 	beq	r4,zero,8005b0c <__divdf3+0x67c>
 8005af0:	a10003cc 	andi	r4,r20,15
 8005af4:	01400104 	movi	r5,4
 8005af8:	21400426 	beq	r4,r5,8005b0c <__divdf3+0x67c>
 8005afc:	a149883a 	add	r4,r20,r5
 8005b00:	2529803a 	cmpltu	r20,r4,r20
 8005b04:	8d23883a 	add	r17,r17,r20
 8005b08:	2029883a 	mov	r20,r4
 8005b0c:	8900402c 	andhi	r4,r17,256
 8005b10:	20000426 	beq	r4,zero,8005b24 <__divdf3+0x694>
 8005b14:	18810004 	addi	r2,r3,1024
 8005b18:	00ffc034 	movhi	r3,65280
 8005b1c:	18ffffc4 	addi	r3,r3,-1
 8005b20:	88e2703a 	and	r17,r17,r3
 8005b24:	00c1ff84 	movi	r3,2046
 8005b28:	18beb416 	blt	r3,r2,80055fc <__alt_data_end+0xf80055fc>
 8005b2c:	a028d0fa 	srli	r20,r20,3
 8005b30:	882a977a 	slli	r21,r17,29
 8005b34:	8820927a 	slli	r16,r17,9
 8005b38:	1081ffcc 	andi	r2,r2,2047
 8005b3c:	ad2ab03a 	or	r21,r21,r20
 8005b40:	8020d33a 	srli	r16,r16,12
 8005b44:	9900004c 	andi	r4,r19,1
 8005b48:	003eb006 	br	800560c <__alt_data_end+0xf800560c>
 8005b4c:	8080022c 	andhi	r2,r16,8
 8005b50:	10001226 	beq	r2,zero,8005b9c <__divdf3+0x70c>
 8005b54:	8880022c 	andhi	r2,r17,8
 8005b58:	1000101e 	bne	r2,zero,8005b9c <__divdf3+0x70c>
 8005b5c:	00800434 	movhi	r2,16
 8005b60:	8c000234 	orhi	r16,r17,8
 8005b64:	10bfffc4 	addi	r2,r2,-1
 8005b68:	b809883a 	mov	r4,r23
 8005b6c:	80a0703a 	and	r16,r16,r2
 8005b70:	a02b883a 	mov	r21,r20
 8005b74:	003f0806 	br	8005798 <__alt_data_end+0xf8005798>
 8005b78:	008000c4 	movi	r2,3
 8005b7c:	3880b126 	beq	r7,r2,8005e44 <__divdf3+0x9b4>
 8005b80:	00800044 	movi	r2,1
 8005b84:	38805b1e 	bne	r7,r2,8005cf4 <__divdf3+0x864>
 8005b88:	e009883a 	mov	r4,fp
 8005b8c:	0005883a 	mov	r2,zero
 8005b90:	0021883a 	mov	r16,zero
 8005b94:	002b883a 	mov	r21,zero
 8005b98:	003e9c06 	br	800560c <__alt_data_end+0xf800560c>
 8005b9c:	00800434 	movhi	r2,16
 8005ba0:	84000234 	orhi	r16,r16,8
 8005ba4:	10bfffc4 	addi	r2,r2,-1
 8005ba8:	b009883a 	mov	r4,r22
 8005bac:	80a0703a 	and	r16,r16,r2
 8005bb0:	003ef906 	br	8005798 <__alt_data_end+0xf8005798>
 8005bb4:	103fca26 	beq	r2,zero,8005ae0 <__alt_data_end+0xf8005ae0>
 8005bb8:	b421883a 	add	r16,r22,r16
 8005bbc:	a17fffc4 	addi	r5,r20,-1
 8005bc0:	8580422e 	bgeu	r16,r22,8005ccc <__divdf3+0x83c>
 8005bc4:	2829883a 	mov	r20,r5
 8005bc8:	813fc41e 	bne	r16,r4,8005adc <__alt_data_end+0xf8005adc>
 8005bcc:	d9800017 	ldw	r6,0(sp)
 8005bd0:	30bfc21e 	bne	r6,r2,8005adc <__alt_data_end+0xf8005adc>
 8005bd4:	003fc206 	br	8005ae0 <__alt_data_end+0xf8005ae0>
 8005bd8:	143ff604 	addi	r16,r2,-40
 8005bdc:	8c20983a 	sll	r16,r17,r16
 8005be0:	002b883a 	mov	r21,zero
 8005be4:	003eb406 	br	80056b8 <__alt_data_end+0xf80056b8>
 8005be8:	d9800215 	stw	r6,8(sp)
 8005bec:	d9c00515 	stw	r7,20(sp)
 8005bf0:	da000415 	stw	r8,16(sp)
 8005bf4:	80060d80 	call	80060d8 <__clzsi2>
 8005bf8:	10800804 	addi	r2,r2,32
 8005bfc:	da000417 	ldw	r8,16(sp)
 8005c00:	d9c00517 	ldw	r7,20(sp)
 8005c04:	d9800217 	ldw	r6,8(sp)
 8005c08:	003ea106 	br	8005690 <__alt_data_end+0xf8005690>
 8005c0c:	147ff604 	addi	r17,r2,-40
 8005c10:	3462983a 	sll	r17,r6,r17
 8005c14:	0029883a 	mov	r20,zero
 8005c18:	003ec906 	br	8005740 <__alt_data_end+0xf8005740>
 8005c1c:	3009883a 	mov	r4,r6
 8005c20:	d9400115 	stw	r5,4(sp)
 8005c24:	d9800215 	stw	r6,8(sp)
 8005c28:	da000415 	stw	r8,16(sp)
 8005c2c:	da400315 	stw	r9,12(sp)
 8005c30:	80060d80 	call	80060d8 <__clzsi2>
 8005c34:	10800804 	addi	r2,r2,32
 8005c38:	da400317 	ldw	r9,12(sp)
 8005c3c:	da000417 	ldw	r8,16(sp)
 8005c40:	d9800217 	ldw	r6,8(sp)
 8005c44:	d9400117 	ldw	r5,4(sp)
 8005c48:	003eb306 	br	8005718 <__alt_data_end+0xf8005718>
 8005c4c:	d9800017 	ldw	r6,0(sp)
 8005c50:	a9ab883a 	add	r21,r21,r6
 8005c54:	a98b803a 	cmpltu	r5,r21,r6
 8005c58:	2d8b883a 	add	r5,r5,r22
 8005c5c:	2a11883a 	add	r8,r5,r8
 8005c60:	897fffc4 	addi	r5,r17,-1
 8005c64:	b2000c2e 	bgeu	r22,r8,8005c98 <__divdf3+0x808>
 8005c68:	41003f36 	bltu	r8,r4,8005d68 <__divdf3+0x8d8>
 8005c6c:	22006c26 	beq	r4,r8,8005e20 <__divdf3+0x990>
 8005c70:	4109c83a 	sub	r4,r8,r4
 8005c74:	2823883a 	mov	r17,r5
 8005c78:	003f3b06 	br	8005968 <__alt_data_end+0xf8005968>
 8005c7c:	ad3ed336 	bltu	r21,r20,80057cc <__alt_data_end+0xf80057cc>
 8005c80:	a804d07a 	srli	r2,r21,1
 8005c84:	802e97fa 	slli	r23,r16,31
 8005c88:	a82a97fa 	slli	r21,r21,31
 8005c8c:	8020d07a 	srli	r16,r16,1
 8005c90:	b8aeb03a 	or	r23,r23,r2
 8005c94:	003ed006 	br	80057d8 <__alt_data_end+0xf80057d8>
 8005c98:	b23ff51e 	bne	r22,r8,8005c70 <__alt_data_end+0xf8005c70>
 8005c9c:	d9800017 	ldw	r6,0(sp)
 8005ca0:	a9bff12e 	bgeu	r21,r6,8005c68 <__alt_data_end+0xf8005c68>
 8005ca4:	b109c83a 	sub	r4,r22,r4
 8005ca8:	2823883a 	mov	r17,r5
 8005cac:	003f2e06 	br	8005968 <__alt_data_end+0xf8005968>
 8005cb0:	2021883a 	mov	r16,r4
 8005cb4:	003eff06 	br	80058b4 <__alt_data_end+0xf80058b4>
 8005cb8:	2023883a 	mov	r17,r4
 8005cbc:	003ee406 	br	8005850 <__alt_data_end+0xf8005850>
 8005cc0:	a8bfe236 	bltu	r21,r2,8005c4c <__alt_data_end+0xf8005c4c>
 8005cc4:	0009883a 	mov	r4,zero
 8005cc8:	003f2706 	br	8005968 <__alt_data_end+0xf8005968>
 8005ccc:	81002d36 	bltu	r16,r4,8005d84 <__divdf3+0x8f4>
 8005cd0:	24005626 	beq	r4,r16,8005e2c <__divdf3+0x99c>
 8005cd4:	2829883a 	mov	r20,r5
 8005cd8:	003f8006 	br	8005adc <__alt_data_end+0xf8005adc>
 8005cdc:	053fffc4 	movi	r20,-1
 8005ce0:	003f7f06 	br	8005ae0 <__alt_data_end+0xf8005ae0>
 8005ce4:	200f883a 	mov	r7,r4
 8005ce8:	003f3c06 	br	80059dc <__alt_data_end+0xf80059dc>
 8005cec:	1011883a 	mov	r8,r2
 8005cf0:	003f5506 	br	8005a48 <__alt_data_end+0xf8005a48>
 8005cf4:	e027883a 	mov	r19,fp
 8005cf8:	003f7906 	br	8005ae0 <__alt_data_end+0xf8005ae0>
 8005cfc:	010007c4 	movi	r4,31
 8005d00:	20c02816 	blt	r4,r3,8005da4 <__divdf3+0x914>
 8005d04:	00800804 	movi	r2,32
 8005d08:	10c5c83a 	sub	r2,r2,r3
 8005d0c:	888a983a 	sll	r5,r17,r2
 8005d10:	a0c8d83a 	srl	r4,r20,r3
 8005d14:	a084983a 	sll	r2,r20,r2
 8005d18:	88e2d83a 	srl	r17,r17,r3
 8005d1c:	2906b03a 	or	r3,r5,r4
 8005d20:	1004c03a 	cmpne	r2,r2,zero
 8005d24:	1886b03a 	or	r3,r3,r2
 8005d28:	188001cc 	andi	r2,r3,7
 8005d2c:	10000726 	beq	r2,zero,8005d4c <__divdf3+0x8bc>
 8005d30:	188003cc 	andi	r2,r3,15
 8005d34:	01000104 	movi	r4,4
 8005d38:	11000426 	beq	r2,r4,8005d4c <__divdf3+0x8bc>
 8005d3c:	1805883a 	mov	r2,r3
 8005d40:	10c00104 	addi	r3,r2,4
 8005d44:	1885803a 	cmpltu	r2,r3,r2
 8005d48:	88a3883a 	add	r17,r17,r2
 8005d4c:	8880202c 	andhi	r2,r17,128
 8005d50:	10002926 	beq	r2,zero,8005df8 <__divdf3+0x968>
 8005d54:	9900004c 	andi	r4,r19,1
 8005d58:	00800044 	movi	r2,1
 8005d5c:	0021883a 	mov	r16,zero
 8005d60:	002b883a 	mov	r21,zero
 8005d64:	003e2906 	br	800560c <__alt_data_end+0xf800560c>
 8005d68:	d9800017 	ldw	r6,0(sp)
 8005d6c:	8c7fff84 	addi	r17,r17,-2
 8005d70:	a9ab883a 	add	r21,r21,r6
 8005d74:	a98b803a 	cmpltu	r5,r21,r6
 8005d78:	2d8b883a 	add	r5,r5,r22
 8005d7c:	2a11883a 	add	r8,r5,r8
 8005d80:	003ef806 	br	8005964 <__alt_data_end+0xf8005964>
 8005d84:	d9800017 	ldw	r6,0(sp)
 8005d88:	318f883a 	add	r7,r6,r6
 8005d8c:	398b803a 	cmpltu	r5,r7,r6
 8005d90:	2d8d883a 	add	r6,r5,r22
 8005d94:	81a1883a 	add	r16,r16,r6
 8005d98:	a17fff84 	addi	r5,r20,-2
 8005d9c:	d9c00015 	stw	r7,0(sp)
 8005da0:	003f8806 	br	8005bc4 <__alt_data_end+0xf8005bc4>
 8005da4:	013ff844 	movi	r4,-31
 8005da8:	2085c83a 	sub	r2,r4,r2
 8005dac:	8888d83a 	srl	r4,r17,r2
 8005db0:	00800804 	movi	r2,32
 8005db4:	18802126 	beq	r3,r2,8005e3c <__divdf3+0x9ac>
 8005db8:	04001004 	movi	r16,64
 8005dbc:	80c7c83a 	sub	r3,r16,r3
 8005dc0:	88e0983a 	sll	r16,r17,r3
 8005dc4:	8504b03a 	or	r2,r16,r20
 8005dc8:	1004c03a 	cmpne	r2,r2,zero
 8005dcc:	2084b03a 	or	r2,r4,r2
 8005dd0:	144001cc 	andi	r17,r2,7
 8005dd4:	88000d1e 	bne	r17,zero,8005e0c <__divdf3+0x97c>
 8005dd8:	0021883a 	mov	r16,zero
 8005ddc:	102ad0fa 	srli	r21,r2,3
 8005de0:	9900004c 	andi	r4,r19,1
 8005de4:	0005883a 	mov	r2,zero
 8005de8:	ac6ab03a 	or	r21,r21,r17
 8005dec:	003e0706 	br	800560c <__alt_data_end+0xf800560c>
 8005df0:	1007883a 	mov	r3,r2
 8005df4:	0023883a 	mov	r17,zero
 8005df8:	8820927a 	slli	r16,r17,9
 8005dfc:	1805883a 	mov	r2,r3
 8005e00:	8822977a 	slli	r17,r17,29
 8005e04:	8020d33a 	srli	r16,r16,12
 8005e08:	003ff406 	br	8005ddc <__alt_data_end+0xf8005ddc>
 8005e0c:	10c003cc 	andi	r3,r2,15
 8005e10:	01000104 	movi	r4,4
 8005e14:	193ff626 	beq	r3,r4,8005df0 <__alt_data_end+0xf8005df0>
 8005e18:	0023883a 	mov	r17,zero
 8005e1c:	003fc806 	br	8005d40 <__alt_data_end+0xf8005d40>
 8005e20:	a8bfd136 	bltu	r21,r2,8005d68 <__alt_data_end+0xf8005d68>
 8005e24:	2823883a 	mov	r17,r5
 8005e28:	003fa606 	br	8005cc4 <__alt_data_end+0xf8005cc4>
 8005e2c:	d9800017 	ldw	r6,0(sp)
 8005e30:	30bfd436 	bltu	r6,r2,8005d84 <__alt_data_end+0xf8005d84>
 8005e34:	2829883a 	mov	r20,r5
 8005e38:	003f6406 	br	8005bcc <__alt_data_end+0xf8005bcc>
 8005e3c:	0021883a 	mov	r16,zero
 8005e40:	003fe006 	br	8005dc4 <__alt_data_end+0xf8005dc4>
 8005e44:	00800434 	movhi	r2,16
 8005e48:	8c000234 	orhi	r16,r17,8
 8005e4c:	10bfffc4 	addi	r2,r2,-1
 8005e50:	e009883a 	mov	r4,fp
 8005e54:	80a0703a 	and	r16,r16,r2
 8005e58:	a02b883a 	mov	r21,r20
 8005e5c:	003e4e06 	br	8005798 <__alt_data_end+0xf8005798>

08005e60 <__ledf2>:
 8005e60:	2804d53a 	srli	r2,r5,20
 8005e64:	3810d53a 	srli	r8,r7,20
 8005e68:	00c00434 	movhi	r3,16
 8005e6c:	18ffffc4 	addi	r3,r3,-1
 8005e70:	1081ffcc 	andi	r2,r2,2047
 8005e74:	0241ffc4 	movi	r9,2047
 8005e78:	28d4703a 	and	r10,r5,r3
 8005e7c:	4201ffcc 	andi	r8,r8,2047
 8005e80:	38c6703a 	and	r3,r7,r3
 8005e84:	280ad7fa 	srli	r5,r5,31
 8005e88:	380ed7fa 	srli	r7,r7,31
 8005e8c:	12401f26 	beq	r2,r9,8005f0c <__ledf2+0xac>
 8005e90:	0241ffc4 	movi	r9,2047
 8005e94:	42401426 	beq	r8,r9,8005ee8 <__ledf2+0x88>
 8005e98:	1000091e 	bne	r2,zero,8005ec0 <__ledf2+0x60>
 8005e9c:	2296b03a 	or	r11,r4,r10
 8005ea0:	5813003a 	cmpeq	r9,r11,zero
 8005ea4:	29403fcc 	andi	r5,r5,255
 8005ea8:	40000a1e 	bne	r8,zero,8005ed4 <__ledf2+0x74>
 8005eac:	30d8b03a 	or	r12,r6,r3
 8005eb0:	6000081e 	bne	r12,zero,8005ed4 <__ledf2+0x74>
 8005eb4:	0005883a 	mov	r2,zero
 8005eb8:	5800111e 	bne	r11,zero,8005f00 <__ledf2+0xa0>
 8005ebc:	f800283a 	ret
 8005ec0:	29403fcc 	andi	r5,r5,255
 8005ec4:	40000c1e 	bne	r8,zero,8005ef8 <__ledf2+0x98>
 8005ec8:	30d2b03a 	or	r9,r6,r3
 8005ecc:	48000c26 	beq	r9,zero,8005f00 <__ledf2+0xa0>
 8005ed0:	0013883a 	mov	r9,zero
 8005ed4:	39c03fcc 	andi	r7,r7,255
 8005ed8:	48000826 	beq	r9,zero,8005efc <__ledf2+0x9c>
 8005edc:	38001126 	beq	r7,zero,8005f24 <__ledf2+0xc4>
 8005ee0:	00800044 	movi	r2,1
 8005ee4:	f800283a 	ret
 8005ee8:	30d2b03a 	or	r9,r6,r3
 8005eec:	483fea26 	beq	r9,zero,8005e98 <__alt_data_end+0xf8005e98>
 8005ef0:	00800084 	movi	r2,2
 8005ef4:	f800283a 	ret
 8005ef8:	39c03fcc 	andi	r7,r7,255
 8005efc:	39400726 	beq	r7,r5,8005f1c <__ledf2+0xbc>
 8005f00:	2800081e 	bne	r5,zero,8005f24 <__ledf2+0xc4>
 8005f04:	00800044 	movi	r2,1
 8005f08:	f800283a 	ret
 8005f0c:	2292b03a 	or	r9,r4,r10
 8005f10:	483fdf26 	beq	r9,zero,8005e90 <__alt_data_end+0xf8005e90>
 8005f14:	00800084 	movi	r2,2
 8005f18:	f800283a 	ret
 8005f1c:	4080030e 	bge	r8,r2,8005f2c <__ledf2+0xcc>
 8005f20:	383fef26 	beq	r7,zero,8005ee0 <__alt_data_end+0xf8005ee0>
 8005f24:	00bfffc4 	movi	r2,-1
 8005f28:	f800283a 	ret
 8005f2c:	123feb16 	blt	r2,r8,8005edc <__alt_data_end+0xf8005edc>
 8005f30:	1abff336 	bltu	r3,r10,8005f00 <__alt_data_end+0xf8005f00>
 8005f34:	50c00326 	beq	r10,r3,8005f44 <__ledf2+0xe4>
 8005f38:	50c0042e 	bgeu	r10,r3,8005f4c <__ledf2+0xec>
 8005f3c:	283fe81e 	bne	r5,zero,8005ee0 <__alt_data_end+0xf8005ee0>
 8005f40:	003ff806 	br	8005f24 <__alt_data_end+0xf8005f24>
 8005f44:	313fee36 	bltu	r6,r4,8005f00 <__alt_data_end+0xf8005f00>
 8005f48:	21bffc36 	bltu	r4,r6,8005f3c <__alt_data_end+0xf8005f3c>
 8005f4c:	0005883a 	mov	r2,zero
 8005f50:	f800283a 	ret

08005f54 <__floatsidf>:
 8005f54:	defffd04 	addi	sp,sp,-12
 8005f58:	dfc00215 	stw	ra,8(sp)
 8005f5c:	dc400115 	stw	r17,4(sp)
 8005f60:	dc000015 	stw	r16,0(sp)
 8005f64:	20002b26 	beq	r4,zero,8006014 <__floatsidf+0xc0>
 8005f68:	2023883a 	mov	r17,r4
 8005f6c:	2020d7fa 	srli	r16,r4,31
 8005f70:	20002d16 	blt	r4,zero,8006028 <__floatsidf+0xd4>
 8005f74:	8809883a 	mov	r4,r17
 8005f78:	80060d80 	call	80060d8 <__clzsi2>
 8005f7c:	01410784 	movi	r5,1054
 8005f80:	288bc83a 	sub	r5,r5,r2
 8005f84:	01010cc4 	movi	r4,1075
 8005f88:	2149c83a 	sub	r4,r4,r5
 8005f8c:	00c007c4 	movi	r3,31
 8005f90:	1900160e 	bge	r3,r4,8005fec <__floatsidf+0x98>
 8005f94:	00c104c4 	movi	r3,1043
 8005f98:	1947c83a 	sub	r3,r3,r5
 8005f9c:	88c6983a 	sll	r3,r17,r3
 8005fa0:	00800434 	movhi	r2,16
 8005fa4:	10bfffc4 	addi	r2,r2,-1
 8005fa8:	1886703a 	and	r3,r3,r2
 8005fac:	2941ffcc 	andi	r5,r5,2047
 8005fb0:	800d883a 	mov	r6,r16
 8005fb4:	0005883a 	mov	r2,zero
 8005fb8:	280a953a 	slli	r5,r5,20
 8005fbc:	31803fcc 	andi	r6,r6,255
 8005fc0:	01000434 	movhi	r4,16
 8005fc4:	300c97fa 	slli	r6,r6,31
 8005fc8:	213fffc4 	addi	r4,r4,-1
 8005fcc:	1906703a 	and	r3,r3,r4
 8005fd0:	1946b03a 	or	r3,r3,r5
 8005fd4:	1986b03a 	or	r3,r3,r6
 8005fd8:	dfc00217 	ldw	ra,8(sp)
 8005fdc:	dc400117 	ldw	r17,4(sp)
 8005fe0:	dc000017 	ldw	r16,0(sp)
 8005fe4:	dec00304 	addi	sp,sp,12
 8005fe8:	f800283a 	ret
 8005fec:	00c002c4 	movi	r3,11
 8005ff0:	1887c83a 	sub	r3,r3,r2
 8005ff4:	88c6d83a 	srl	r3,r17,r3
 8005ff8:	8904983a 	sll	r2,r17,r4
 8005ffc:	01000434 	movhi	r4,16
 8006000:	213fffc4 	addi	r4,r4,-1
 8006004:	2941ffcc 	andi	r5,r5,2047
 8006008:	1906703a 	and	r3,r3,r4
 800600c:	800d883a 	mov	r6,r16
 8006010:	003fe906 	br	8005fb8 <__alt_data_end+0xf8005fb8>
 8006014:	000d883a 	mov	r6,zero
 8006018:	000b883a 	mov	r5,zero
 800601c:	0007883a 	mov	r3,zero
 8006020:	0005883a 	mov	r2,zero
 8006024:	003fe406 	br	8005fb8 <__alt_data_end+0xf8005fb8>
 8006028:	0123c83a 	sub	r17,zero,r4
 800602c:	003fd106 	br	8005f74 <__alt_data_end+0xf8005f74>

08006030 <__floatunsidf>:
 8006030:	defffe04 	addi	sp,sp,-8
 8006034:	dc000015 	stw	r16,0(sp)
 8006038:	dfc00115 	stw	ra,4(sp)
 800603c:	2021883a 	mov	r16,r4
 8006040:	20002226 	beq	r4,zero,80060cc <__floatunsidf+0x9c>
 8006044:	80060d80 	call	80060d8 <__clzsi2>
 8006048:	01010784 	movi	r4,1054
 800604c:	2089c83a 	sub	r4,r4,r2
 8006050:	01810cc4 	movi	r6,1075
 8006054:	310dc83a 	sub	r6,r6,r4
 8006058:	00c007c4 	movi	r3,31
 800605c:	1980120e 	bge	r3,r6,80060a8 <__floatunsidf+0x78>
 8006060:	00c104c4 	movi	r3,1043
 8006064:	1907c83a 	sub	r3,r3,r4
 8006068:	80ca983a 	sll	r5,r16,r3
 800606c:	00800434 	movhi	r2,16
 8006070:	10bfffc4 	addi	r2,r2,-1
 8006074:	2101ffcc 	andi	r4,r4,2047
 8006078:	0021883a 	mov	r16,zero
 800607c:	288a703a 	and	r5,r5,r2
 8006080:	2008953a 	slli	r4,r4,20
 8006084:	00c00434 	movhi	r3,16
 8006088:	18ffffc4 	addi	r3,r3,-1
 800608c:	28c6703a 	and	r3,r5,r3
 8006090:	8005883a 	mov	r2,r16
 8006094:	1906b03a 	or	r3,r3,r4
 8006098:	dfc00117 	ldw	ra,4(sp)
 800609c:	dc000017 	ldw	r16,0(sp)
 80060a0:	dec00204 	addi	sp,sp,8
 80060a4:	f800283a 	ret
 80060a8:	00c002c4 	movi	r3,11
 80060ac:	188bc83a 	sub	r5,r3,r2
 80060b0:	814ad83a 	srl	r5,r16,r5
 80060b4:	00c00434 	movhi	r3,16
 80060b8:	18ffffc4 	addi	r3,r3,-1
 80060bc:	81a0983a 	sll	r16,r16,r6
 80060c0:	2101ffcc 	andi	r4,r4,2047
 80060c4:	28ca703a 	and	r5,r5,r3
 80060c8:	003fed06 	br	8006080 <__alt_data_end+0xf8006080>
 80060cc:	0009883a 	mov	r4,zero
 80060d0:	000b883a 	mov	r5,zero
 80060d4:	003fea06 	br	8006080 <__alt_data_end+0xf8006080>

080060d8 <__clzsi2>:
 80060d8:	00bfffd4 	movui	r2,65535
 80060dc:	11000536 	bltu	r2,r4,80060f4 <__clzsi2+0x1c>
 80060e0:	00803fc4 	movi	r2,255
 80060e4:	11000f36 	bltu	r2,r4,8006124 <__clzsi2+0x4c>
 80060e8:	00800804 	movi	r2,32
 80060ec:	0007883a 	mov	r3,zero
 80060f0:	00000506 	br	8006108 <__clzsi2+0x30>
 80060f4:	00804034 	movhi	r2,256
 80060f8:	10bfffc4 	addi	r2,r2,-1
 80060fc:	11000c2e 	bgeu	r2,r4,8006130 <__clzsi2+0x58>
 8006100:	00800204 	movi	r2,8
 8006104:	00c00604 	movi	r3,24
 8006108:	20c8d83a 	srl	r4,r4,r3
 800610c:	00c20074 	movhi	r3,2049
 8006110:	18d37244 	addi	r3,r3,19913
 8006114:	1909883a 	add	r4,r3,r4
 8006118:	20c00003 	ldbu	r3,0(r4)
 800611c:	10c5c83a 	sub	r2,r2,r3
 8006120:	f800283a 	ret
 8006124:	00800604 	movi	r2,24
 8006128:	00c00204 	movi	r3,8
 800612c:	003ff606 	br	8006108 <__alt_data_end+0xf8006108>
 8006130:	00800404 	movi	r2,16
 8006134:	1007883a 	mov	r3,r2
 8006138:	003ff306 	br	8006108 <__alt_data_end+0xf8006108>

0800613c <__divsi3>:
 800613c:	20001b16 	blt	r4,zero,80061ac <__divsi3+0x70>
 8006140:	000f883a 	mov	r7,zero
 8006144:	28001616 	blt	r5,zero,80061a0 <__divsi3+0x64>
 8006148:	200d883a 	mov	r6,r4
 800614c:	29001a2e 	bgeu	r5,r4,80061b8 <__divsi3+0x7c>
 8006150:	00800804 	movi	r2,32
 8006154:	00c00044 	movi	r3,1
 8006158:	00000106 	br	8006160 <__divsi3+0x24>
 800615c:	10000d26 	beq	r2,zero,8006194 <__divsi3+0x58>
 8006160:	294b883a 	add	r5,r5,r5
 8006164:	10bfffc4 	addi	r2,r2,-1
 8006168:	18c7883a 	add	r3,r3,r3
 800616c:	293ffb36 	bltu	r5,r4,800615c <__alt_data_end+0xf800615c>
 8006170:	0005883a 	mov	r2,zero
 8006174:	18000726 	beq	r3,zero,8006194 <__divsi3+0x58>
 8006178:	0005883a 	mov	r2,zero
 800617c:	31400236 	bltu	r6,r5,8006188 <__divsi3+0x4c>
 8006180:	314dc83a 	sub	r6,r6,r5
 8006184:	10c4b03a 	or	r2,r2,r3
 8006188:	1806d07a 	srli	r3,r3,1
 800618c:	280ad07a 	srli	r5,r5,1
 8006190:	183ffa1e 	bne	r3,zero,800617c <__alt_data_end+0xf800617c>
 8006194:	38000126 	beq	r7,zero,800619c <__divsi3+0x60>
 8006198:	0085c83a 	sub	r2,zero,r2
 800619c:	f800283a 	ret
 80061a0:	014bc83a 	sub	r5,zero,r5
 80061a4:	39c0005c 	xori	r7,r7,1
 80061a8:	003fe706 	br	8006148 <__alt_data_end+0xf8006148>
 80061ac:	0109c83a 	sub	r4,zero,r4
 80061b0:	01c00044 	movi	r7,1
 80061b4:	003fe306 	br	8006144 <__alt_data_end+0xf8006144>
 80061b8:	00c00044 	movi	r3,1
 80061bc:	003fee06 	br	8006178 <__alt_data_end+0xf8006178>

080061c0 <__modsi3>:
 80061c0:	20001716 	blt	r4,zero,8006220 <__modsi3+0x60>
 80061c4:	000f883a 	mov	r7,zero
 80061c8:	2005883a 	mov	r2,r4
 80061cc:	28001216 	blt	r5,zero,8006218 <__modsi3+0x58>
 80061d0:	2900162e 	bgeu	r5,r4,800622c <__modsi3+0x6c>
 80061d4:	01800804 	movi	r6,32
 80061d8:	00c00044 	movi	r3,1
 80061dc:	00000106 	br	80061e4 <__modsi3+0x24>
 80061e0:	30000a26 	beq	r6,zero,800620c <__modsi3+0x4c>
 80061e4:	294b883a 	add	r5,r5,r5
 80061e8:	31bfffc4 	addi	r6,r6,-1
 80061ec:	18c7883a 	add	r3,r3,r3
 80061f0:	293ffb36 	bltu	r5,r4,80061e0 <__alt_data_end+0xf80061e0>
 80061f4:	18000526 	beq	r3,zero,800620c <__modsi3+0x4c>
 80061f8:	1806d07a 	srli	r3,r3,1
 80061fc:	11400136 	bltu	r2,r5,8006204 <__modsi3+0x44>
 8006200:	1145c83a 	sub	r2,r2,r5
 8006204:	280ad07a 	srli	r5,r5,1
 8006208:	183ffb1e 	bne	r3,zero,80061f8 <__alt_data_end+0xf80061f8>
 800620c:	38000126 	beq	r7,zero,8006214 <__modsi3+0x54>
 8006210:	0085c83a 	sub	r2,zero,r2
 8006214:	f800283a 	ret
 8006218:	014bc83a 	sub	r5,zero,r5
 800621c:	003fec06 	br	80061d0 <__alt_data_end+0xf80061d0>
 8006220:	0109c83a 	sub	r4,zero,r4
 8006224:	01c00044 	movi	r7,1
 8006228:	003fe706 	br	80061c8 <__alt_data_end+0xf80061c8>
 800622c:	00c00044 	movi	r3,1
 8006230:	003ff106 	br	80061f8 <__alt_data_end+0xf80061f8>

08006234 <__udivsi3>:
 8006234:	200d883a 	mov	r6,r4
 8006238:	2900152e 	bgeu	r5,r4,8006290 <__udivsi3+0x5c>
 800623c:	28001416 	blt	r5,zero,8006290 <__udivsi3+0x5c>
 8006240:	00800804 	movi	r2,32
 8006244:	00c00044 	movi	r3,1
 8006248:	00000206 	br	8006254 <__udivsi3+0x20>
 800624c:	10000e26 	beq	r2,zero,8006288 <__udivsi3+0x54>
 8006250:	28000516 	blt	r5,zero,8006268 <__udivsi3+0x34>
 8006254:	294b883a 	add	r5,r5,r5
 8006258:	10bfffc4 	addi	r2,r2,-1
 800625c:	18c7883a 	add	r3,r3,r3
 8006260:	293ffa36 	bltu	r5,r4,800624c <__alt_data_end+0xf800624c>
 8006264:	18000826 	beq	r3,zero,8006288 <__udivsi3+0x54>
 8006268:	0005883a 	mov	r2,zero
 800626c:	31400236 	bltu	r6,r5,8006278 <__udivsi3+0x44>
 8006270:	314dc83a 	sub	r6,r6,r5
 8006274:	10c4b03a 	or	r2,r2,r3
 8006278:	1806d07a 	srli	r3,r3,1
 800627c:	280ad07a 	srli	r5,r5,1
 8006280:	183ffa1e 	bne	r3,zero,800626c <__alt_data_end+0xf800626c>
 8006284:	f800283a 	ret
 8006288:	0005883a 	mov	r2,zero
 800628c:	f800283a 	ret
 8006290:	00c00044 	movi	r3,1
 8006294:	003ff406 	br	8006268 <__alt_data_end+0xf8006268>

08006298 <__umodsi3>:
 8006298:	2005883a 	mov	r2,r4
 800629c:	2900122e 	bgeu	r5,r4,80062e8 <__umodsi3+0x50>
 80062a0:	28001116 	blt	r5,zero,80062e8 <__umodsi3+0x50>
 80062a4:	01800804 	movi	r6,32
 80062a8:	00c00044 	movi	r3,1
 80062ac:	00000206 	br	80062b8 <__umodsi3+0x20>
 80062b0:	30000c26 	beq	r6,zero,80062e4 <__umodsi3+0x4c>
 80062b4:	28000516 	blt	r5,zero,80062cc <__umodsi3+0x34>
 80062b8:	294b883a 	add	r5,r5,r5
 80062bc:	31bfffc4 	addi	r6,r6,-1
 80062c0:	18c7883a 	add	r3,r3,r3
 80062c4:	293ffa36 	bltu	r5,r4,80062b0 <__alt_data_end+0xf80062b0>
 80062c8:	18000626 	beq	r3,zero,80062e4 <__umodsi3+0x4c>
 80062cc:	1806d07a 	srli	r3,r3,1
 80062d0:	11400136 	bltu	r2,r5,80062d8 <__umodsi3+0x40>
 80062d4:	1145c83a 	sub	r2,r2,r5
 80062d8:	280ad07a 	srli	r5,r5,1
 80062dc:	183ffb1e 	bne	r3,zero,80062cc <__alt_data_end+0xf80062cc>
 80062e0:	f800283a 	ret
 80062e4:	f800283a 	ret
 80062e8:	00c00044 	movi	r3,1
 80062ec:	003ff706 	br	80062cc <__alt_data_end+0xf80062cc>

080062f0 <clock>:
 80062f0:	00820074 	movhi	r2,2049
 80062f4:	109b0804 	addi	r2,r2,27680
 80062f8:	11000017 	ldw	r4,0(r2)
 80062fc:	defffb04 	addi	sp,sp,-20
 8006300:	d80b883a 	mov	r5,sp
 8006304:	dfc00415 	stw	ra,16(sp)
 8006308:	80065140 	call	8006514 <_times_r>
 800630c:	00ffffc4 	movi	r3,-1
 8006310:	10c00726 	beq	r2,r3,8006330 <clock+0x40>
 8006314:	d8c00017 	ldw	r3,0(sp)
 8006318:	d8800117 	ldw	r2,4(sp)
 800631c:	1885883a 	add	r2,r3,r2
 8006320:	d8c00217 	ldw	r3,8(sp)
 8006324:	10c7883a 	add	r3,r2,r3
 8006328:	d8800317 	ldw	r2,12(sp)
 800632c:	1885883a 	add	r2,r3,r2
 8006330:	dfc00417 	ldw	ra,16(sp)
 8006334:	dec00504 	addi	sp,sp,20
 8006338:	f800283a 	ret

0800633c <_printf_r>:
 800633c:	defffd04 	addi	sp,sp,-12
 8006340:	2805883a 	mov	r2,r5
 8006344:	dfc00015 	stw	ra,0(sp)
 8006348:	d9800115 	stw	r6,4(sp)
 800634c:	d9c00215 	stw	r7,8(sp)
 8006350:	21400217 	ldw	r5,8(r4)
 8006354:	d9c00104 	addi	r7,sp,4
 8006358:	100d883a 	mov	r6,r2
 800635c:	800651c0 	call	800651c <___vfprintf_internal_r>
 8006360:	dfc00017 	ldw	ra,0(sp)
 8006364:	dec00304 	addi	sp,sp,12
 8006368:	f800283a 	ret

0800636c <printf>:
 800636c:	defffc04 	addi	sp,sp,-16
 8006370:	dfc00015 	stw	ra,0(sp)
 8006374:	d9400115 	stw	r5,4(sp)
 8006378:	d9800215 	stw	r6,8(sp)
 800637c:	d9c00315 	stw	r7,12(sp)
 8006380:	00820074 	movhi	r2,2049
 8006384:	109b0804 	addi	r2,r2,27680
 8006388:	10800017 	ldw	r2,0(r2)
 800638c:	200b883a 	mov	r5,r4
 8006390:	d9800104 	addi	r6,sp,4
 8006394:	11000217 	ldw	r4,8(r2)
 8006398:	80087f80 	call	80087f8 <__vfprintf_internal>
 800639c:	dfc00017 	ldw	ra,0(sp)
 80063a0:	dec00404 	addi	sp,sp,16
 80063a4:	f800283a 	ret

080063a8 <_puts_r>:
 80063a8:	defff604 	addi	sp,sp,-40
 80063ac:	dc000715 	stw	r16,28(sp)
 80063b0:	2021883a 	mov	r16,r4
 80063b4:	2809883a 	mov	r4,r5
 80063b8:	dc400815 	stw	r17,32(sp)
 80063bc:	dfc00915 	stw	ra,36(sp)
 80063c0:	2823883a 	mov	r17,r5
 80063c4:	800647c0 	call	800647c <strlen>
 80063c8:	10c00044 	addi	r3,r2,1
 80063cc:	d8800115 	stw	r2,4(sp)
 80063d0:	00820074 	movhi	r2,2049
 80063d4:	1093b404 	addi	r2,r2,20176
 80063d8:	d8800215 	stw	r2,8(sp)
 80063dc:	00800044 	movi	r2,1
 80063e0:	d8800315 	stw	r2,12(sp)
 80063e4:	00800084 	movi	r2,2
 80063e8:	dc400015 	stw	r17,0(sp)
 80063ec:	d8c00615 	stw	r3,24(sp)
 80063f0:	dec00415 	stw	sp,16(sp)
 80063f4:	d8800515 	stw	r2,20(sp)
 80063f8:	80000226 	beq	r16,zero,8006404 <_puts_r+0x5c>
 80063fc:	80800e17 	ldw	r2,56(r16)
 8006400:	10001426 	beq	r2,zero,8006454 <_puts_r+0xac>
 8006404:	81400217 	ldw	r5,8(r16)
 8006408:	2880030b 	ldhu	r2,12(r5)
 800640c:	10c8000c 	andi	r3,r2,8192
 8006410:	1800061e 	bne	r3,zero,800642c <_puts_r+0x84>
 8006414:	29001917 	ldw	r4,100(r5)
 8006418:	00f7ffc4 	movi	r3,-8193
 800641c:	10880014 	ori	r2,r2,8192
 8006420:	20c6703a 	and	r3,r4,r3
 8006424:	2880030d 	sth	r2,12(r5)
 8006428:	28c01915 	stw	r3,100(r5)
 800642c:	d9800404 	addi	r6,sp,16
 8006430:	8009883a 	mov	r4,r16
 8006434:	800ad600 	call	800ad60 <__sfvwrite_r>
 8006438:	1000091e 	bne	r2,zero,8006460 <_puts_r+0xb8>
 800643c:	00800284 	movi	r2,10
 8006440:	dfc00917 	ldw	ra,36(sp)
 8006444:	dc400817 	ldw	r17,32(sp)
 8006448:	dc000717 	ldw	r16,28(sp)
 800644c:	dec00a04 	addi	sp,sp,40
 8006450:	f800283a 	ret
 8006454:	8009883a 	mov	r4,r16
 8006458:	800a8dc0 	call	800a8dc <__sinit>
 800645c:	003fe906 	br	8006404 <__alt_data_end+0xf8006404>
 8006460:	00bfffc4 	movi	r2,-1
 8006464:	003ff606 	br	8006440 <__alt_data_end+0xf8006440>

08006468 <puts>:
 8006468:	00820074 	movhi	r2,2049
 800646c:	109b0804 	addi	r2,r2,27680
 8006470:	200b883a 	mov	r5,r4
 8006474:	11000017 	ldw	r4,0(r2)
 8006478:	80063a81 	jmpi	80063a8 <_puts_r>

0800647c <strlen>:
 800647c:	208000cc 	andi	r2,r4,3
 8006480:	10002026 	beq	r2,zero,8006504 <strlen+0x88>
 8006484:	20800007 	ldb	r2,0(r4)
 8006488:	10002026 	beq	r2,zero,800650c <strlen+0x90>
 800648c:	2005883a 	mov	r2,r4
 8006490:	00000206 	br	800649c <strlen+0x20>
 8006494:	10c00007 	ldb	r3,0(r2)
 8006498:	18001826 	beq	r3,zero,80064fc <strlen+0x80>
 800649c:	10800044 	addi	r2,r2,1
 80064a0:	10c000cc 	andi	r3,r2,3
 80064a4:	183ffb1e 	bne	r3,zero,8006494 <__alt_data_end+0xf8006494>
 80064a8:	10c00017 	ldw	r3,0(r2)
 80064ac:	01ffbff4 	movhi	r7,65279
 80064b0:	39ffbfc4 	addi	r7,r7,-257
 80064b4:	00ca303a 	nor	r5,zero,r3
 80064b8:	01a02074 	movhi	r6,32897
 80064bc:	19c7883a 	add	r3,r3,r7
 80064c0:	31a02004 	addi	r6,r6,-32640
 80064c4:	1946703a 	and	r3,r3,r5
 80064c8:	1986703a 	and	r3,r3,r6
 80064cc:	1800091e 	bne	r3,zero,80064f4 <strlen+0x78>
 80064d0:	10800104 	addi	r2,r2,4
 80064d4:	10c00017 	ldw	r3,0(r2)
 80064d8:	19cb883a 	add	r5,r3,r7
 80064dc:	00c6303a 	nor	r3,zero,r3
 80064e0:	28c6703a 	and	r3,r5,r3
 80064e4:	1986703a 	and	r3,r3,r6
 80064e8:	183ff926 	beq	r3,zero,80064d0 <__alt_data_end+0xf80064d0>
 80064ec:	00000106 	br	80064f4 <strlen+0x78>
 80064f0:	10800044 	addi	r2,r2,1
 80064f4:	10c00007 	ldb	r3,0(r2)
 80064f8:	183ffd1e 	bne	r3,zero,80064f0 <__alt_data_end+0xf80064f0>
 80064fc:	1105c83a 	sub	r2,r2,r4
 8006500:	f800283a 	ret
 8006504:	2005883a 	mov	r2,r4
 8006508:	003fe706 	br	80064a8 <__alt_data_end+0xf80064a8>
 800650c:	0005883a 	mov	r2,zero
 8006510:	f800283a 	ret

08006514 <_times_r>:
 8006514:	2809883a 	mov	r4,r5
 8006518:	8012c901 	jmpi	8012c90 <times>

0800651c <___vfprintf_internal_r>:
 800651c:	deffb804 	addi	sp,sp,-288
 8006520:	dfc04715 	stw	ra,284(sp)
 8006524:	ddc04515 	stw	r23,276(sp)
 8006528:	dd404315 	stw	r21,268(sp)
 800652c:	d9002d15 	stw	r4,180(sp)
 8006530:	282f883a 	mov	r23,r5
 8006534:	302b883a 	mov	r21,r6
 8006538:	d9c02e15 	stw	r7,184(sp)
 800653c:	df004615 	stw	fp,280(sp)
 8006540:	dd804415 	stw	r22,272(sp)
 8006544:	dd004215 	stw	r20,264(sp)
 8006548:	dcc04115 	stw	r19,260(sp)
 800654c:	dc804015 	stw	r18,256(sp)
 8006550:	dc403f15 	stw	r17,252(sp)
 8006554:	dc003e15 	stw	r16,248(sp)
 8006558:	800b45c0 	call	800b45c <_localeconv_r>
 800655c:	10800017 	ldw	r2,0(r2)
 8006560:	1009883a 	mov	r4,r2
 8006564:	d8803415 	stw	r2,208(sp)
 8006568:	800647c0 	call	800647c <strlen>
 800656c:	d8803715 	stw	r2,220(sp)
 8006570:	d8802d17 	ldw	r2,180(sp)
 8006574:	10000226 	beq	r2,zero,8006580 <___vfprintf_internal_r+0x64>
 8006578:	10800e17 	ldw	r2,56(r2)
 800657c:	1000fb26 	beq	r2,zero,800696c <___vfprintf_internal_r+0x450>
 8006580:	b880030b 	ldhu	r2,12(r23)
 8006584:	10c8000c 	andi	r3,r2,8192
 8006588:	1800061e 	bne	r3,zero,80065a4 <___vfprintf_internal_r+0x88>
 800658c:	b9001917 	ldw	r4,100(r23)
 8006590:	00f7ffc4 	movi	r3,-8193
 8006594:	10880014 	ori	r2,r2,8192
 8006598:	20c6703a 	and	r3,r4,r3
 800659c:	b880030d 	sth	r2,12(r23)
 80065a0:	b8c01915 	stw	r3,100(r23)
 80065a4:	10c0020c 	andi	r3,r2,8
 80065a8:	1800c326 	beq	r3,zero,80068b8 <___vfprintf_internal_r+0x39c>
 80065ac:	b8c00417 	ldw	r3,16(r23)
 80065b0:	1800c126 	beq	r3,zero,80068b8 <___vfprintf_internal_r+0x39c>
 80065b4:	1080068c 	andi	r2,r2,26
 80065b8:	00c00284 	movi	r3,10
 80065bc:	10c0c626 	beq	r2,r3,80068d8 <___vfprintf_internal_r+0x3bc>
 80065c0:	d8c00404 	addi	r3,sp,16
 80065c4:	05020074 	movhi	r20,2049
 80065c8:	d9001e04 	addi	r4,sp,120
 80065cc:	a513c584 	addi	r20,r20,20246
 80065d0:	d8c01e15 	stw	r3,120(sp)
 80065d4:	d8002015 	stw	zero,128(sp)
 80065d8:	d8001f15 	stw	zero,124(sp)
 80065dc:	d8003315 	stw	zero,204(sp)
 80065e0:	d8003615 	stw	zero,216(sp)
 80065e4:	d8003815 	stw	zero,224(sp)
 80065e8:	1811883a 	mov	r8,r3
 80065ec:	d8003915 	stw	zero,228(sp)
 80065f0:	d8003a15 	stw	zero,232(sp)
 80065f4:	d8002f15 	stw	zero,188(sp)
 80065f8:	d9002815 	stw	r4,160(sp)
 80065fc:	a8800007 	ldb	r2,0(r21)
 8006600:	10028b26 	beq	r2,zero,8007030 <___vfprintf_internal_r+0xb14>
 8006604:	00c00944 	movi	r3,37
 8006608:	a823883a 	mov	r17,r21
 800660c:	10c0021e 	bne	r2,r3,8006618 <___vfprintf_internal_r+0xfc>
 8006610:	00001406 	br	8006664 <___vfprintf_internal_r+0x148>
 8006614:	10c00326 	beq	r2,r3,8006624 <___vfprintf_internal_r+0x108>
 8006618:	8c400044 	addi	r17,r17,1
 800661c:	88800007 	ldb	r2,0(r17)
 8006620:	103ffc1e 	bne	r2,zero,8006614 <__alt_data_end+0xf8006614>
 8006624:	8d61c83a 	sub	r16,r17,r21
 8006628:	80000e26 	beq	r16,zero,8006664 <___vfprintf_internal_r+0x148>
 800662c:	d8c02017 	ldw	r3,128(sp)
 8006630:	d8801f17 	ldw	r2,124(sp)
 8006634:	45400015 	stw	r21,0(r8)
 8006638:	1c07883a 	add	r3,r3,r16
 800663c:	10800044 	addi	r2,r2,1
 8006640:	d8c02015 	stw	r3,128(sp)
 8006644:	44000115 	stw	r16,4(r8)
 8006648:	d8801f15 	stw	r2,124(sp)
 800664c:	00c001c4 	movi	r3,7
 8006650:	1880a916 	blt	r3,r2,80068f8 <___vfprintf_internal_r+0x3dc>
 8006654:	42000204 	addi	r8,r8,8
 8006658:	d9402f17 	ldw	r5,188(sp)
 800665c:	2c0b883a 	add	r5,r5,r16
 8006660:	d9402f15 	stw	r5,188(sp)
 8006664:	88800007 	ldb	r2,0(r17)
 8006668:	1000aa26 	beq	r2,zero,8006914 <___vfprintf_internal_r+0x3f8>
 800666c:	8d400044 	addi	r21,r17,1
 8006670:	8c400047 	ldb	r17,1(r17)
 8006674:	0021883a 	mov	r16,zero
 8006678:	00bfffc4 	movi	r2,-1
 800667c:	0025883a 	mov	r18,zero
 8006680:	dc002905 	stb	r16,164(sp)
 8006684:	d8002785 	stb	zero,158(sp)
 8006688:	d8002b05 	stb	zero,172(sp)
 800668c:	d8802a15 	stw	r2,168(sp)
 8006690:	d8003115 	stw	zero,196(sp)
 8006694:	04c01604 	movi	r19,88
 8006698:	05800244 	movi	r22,9
 800669c:	9021883a 	mov	r16,r18
 80066a0:	4039883a 	mov	fp,r8
 80066a4:	ad400044 	addi	r21,r21,1
 80066a8:	88bff804 	addi	r2,r17,-32
 80066ac:	98833236 	bltu	r19,r2,8007378 <___vfprintf_internal_r+0xe5c>
 80066b0:	100490ba 	slli	r2,r2,2
 80066b4:	00c20034 	movhi	r3,2048
 80066b8:	18d9b204 	addi	r3,r3,26312
 80066bc:	10c5883a 	add	r2,r2,r3
 80066c0:	10800017 	ldw	r2,0(r2)
 80066c4:	1000683a 	jmp	r2
 80066c8:	08007270 	cmpltui	zero,at,457
 80066cc:	08007378 	rdprs	zero,at,461
 80066d0:	08007378 	rdprs	zero,at,461
 80066d4:	08007290 	cmplti	zero,at,458
 80066d8:	08007378 	rdprs	zero,at,461
 80066dc:	08007378 	rdprs	zero,at,461
 80066e0:	08007378 	rdprs	zero,at,461
 80066e4:	08007378 	rdprs	zero,at,461
 80066e8:	08007378 	rdprs	zero,at,461
 80066ec:	08007378 	rdprs	zero,at,461
 80066f0:	08006978 	rdprs	zero,at,421
 80066f4:	08007180 	call	800718 <__alt_mem_SDRAM-0x77ff8e8>
 80066f8:	08007378 	rdprs	zero,at,461
 80066fc:	0800683c 	xorhi	zero,at,416
 8006700:	0800699c 	xori	zero,at,422
 8006704:	08007378 	rdprs	zero,at,461
 8006708:	080069ec 	andhi	zero,at,423
 800670c:	080069f8 	rdprs	zero,at,423
 8006710:	080069f8 	rdprs	zero,at,423
 8006714:	080069f8 	rdprs	zero,at,423
 8006718:	080069f8 	rdprs	zero,at,423
 800671c:	080069f8 	rdprs	zero,at,423
 8006720:	080069f8 	rdprs	zero,at,423
 8006724:	080069f8 	rdprs	zero,at,423
 8006728:	080069f8 	rdprs	zero,at,423
 800672c:	080069f8 	rdprs	zero,at,423
 8006730:	08007378 	rdprs	zero,at,461
 8006734:	08007378 	rdprs	zero,at,461
 8006738:	08007378 	rdprs	zero,at,461
 800673c:	08007378 	rdprs	zero,at,461
 8006740:	08007378 	rdprs	zero,at,461
 8006744:	08007378 	rdprs	zero,at,461
 8006748:	08007378 	rdprs	zero,at,461
 800674c:	08007378 	rdprs	zero,at,461
 8006750:	08007378 	rdprs	zero,at,461
 8006754:	08007378 	rdprs	zero,at,461
 8006758:	08006a34 	orhi	zero,at,424
 800675c:	08006afc 	xorhi	zero,at,427
 8006760:	08007378 	rdprs	zero,at,461
 8006764:	08006afc 	xorhi	zero,at,427
 8006768:	08007378 	rdprs	zero,at,461
 800676c:	08007378 	rdprs	zero,at,461
 8006770:	08007378 	rdprs	zero,at,461
 8006774:	08007378 	rdprs	zero,at,461
 8006778:	08006ba8 	cmpgeui	zero,at,430
 800677c:	08007378 	rdprs	zero,at,461
 8006780:	08007378 	rdprs	zero,at,461
 8006784:	08006bb4 	orhi	zero,at,430
 8006788:	08007378 	rdprs	zero,at,461
 800678c:	08007378 	rdprs	zero,at,461
 8006790:	08007378 	rdprs	zero,at,461
 8006794:	08007378 	rdprs	zero,at,461
 8006798:	08007378 	rdprs	zero,at,461
 800679c:	08007038 	rdprs	zero,at,448
 80067a0:	08007378 	rdprs	zero,at,461
 80067a4:	08007378 	rdprs	zero,at,461
 80067a8:	080070a4 	muli	zero,at,450
 80067ac:	08007378 	rdprs	zero,at,461
 80067b0:	08007378 	rdprs	zero,at,461
 80067b4:	08007378 	rdprs	zero,at,461
 80067b8:	08007378 	rdprs	zero,at,461
 80067bc:	08007378 	rdprs	zero,at,461
 80067c0:	08007378 	rdprs	zero,at,461
 80067c4:	08007378 	rdprs	zero,at,461
 80067c8:	08007378 	rdprs	zero,at,461
 80067cc:	08007378 	rdprs	zero,at,461
 80067d0:	08007378 	rdprs	zero,at,461
 80067d4:	0800731c 	xori	zero,at,460
 80067d8:	0800729c 	xori	zero,at,458
 80067dc:	08006afc 	xorhi	zero,at,427
 80067e0:	08006afc 	xorhi	zero,at,427
 80067e4:	08006afc 	xorhi	zero,at,427
 80067e8:	080072bc 	xorhi	zero,at,458
 80067ec:	0800729c 	xori	zero,at,458
 80067f0:	08007378 	rdprs	zero,at,461
 80067f4:	08007378 	rdprs	zero,at,461
 80067f8:	080072c8 	cmpgei	zero,at,459
 80067fc:	08007378 	rdprs	zero,at,461
 8006800:	080072dc 	xori	zero,at,459
 8006804:	08007160 	cmpeqi	zero,at,453
 8006808:	08006848 	cmpgei	zero,at,417
 800680c:	08007198 	cmpnei	zero,at,454
 8006810:	08007378 	rdprs	zero,at,461
 8006814:	080071a4 	muli	zero,at,454
 8006818:	08007378 	rdprs	zero,at,461
 800681c:	08007208 	cmpgei	zero,at,456
 8006820:	08007378 	rdprs	zero,at,461
 8006824:	08007378 	rdprs	zero,at,461
 8006828:	08007228 	cmpgeui	zero,at,456
 800682c:	d8c03117 	ldw	r3,196(sp)
 8006830:	d8802e15 	stw	r2,184(sp)
 8006834:	00c7c83a 	sub	r3,zero,r3
 8006838:	d8c03115 	stw	r3,196(sp)
 800683c:	84000114 	ori	r16,r16,4
 8006840:	ac400007 	ldb	r17,0(r21)
 8006844:	003f9706 	br	80066a4 <__alt_data_end+0xf80066a4>
 8006848:	00800c04 	movi	r2,48
 800684c:	d8802705 	stb	r2,156(sp)
 8006850:	00801e04 	movi	r2,120
 8006854:	d8802745 	stb	r2,157(sp)
 8006858:	d9002a17 	ldw	r4,168(sp)
 800685c:	d8802e17 	ldw	r2,184(sp)
 8006860:	d8002785 	stb	zero,158(sp)
 8006864:	e011883a 	mov	r8,fp
 8006868:	10c00104 	addi	r3,r2,4
 800686c:	14c00017 	ldw	r19,0(r2)
 8006870:	002d883a 	mov	r22,zero
 8006874:	80800094 	ori	r2,r16,2
 8006878:	2002ca16 	blt	r4,zero,80073a4 <___vfprintf_internal_r+0xe88>
 800687c:	00bfdfc4 	movi	r2,-129
 8006880:	80a4703a 	and	r18,r16,r2
 8006884:	d8c02e15 	stw	r3,184(sp)
 8006888:	94800094 	ori	r18,r18,2
 800688c:	9802b41e 	bne	r19,zero,8007360 <___vfprintf_internal_r+0xe44>
 8006890:	01420074 	movhi	r5,2049
 8006894:	2953be04 	addi	r5,r5,20216
 8006898:	d9403915 	stw	r5,228(sp)
 800689c:	04401e04 	movi	r17,120
 80068a0:	d8802a17 	ldw	r2,168(sp)
 80068a4:	0039883a 	mov	fp,zero
 80068a8:	1001fa26 	beq	r2,zero,8007094 <___vfprintf_internal_r+0xb78>
 80068ac:	0027883a 	mov	r19,zero
 80068b0:	002d883a 	mov	r22,zero
 80068b4:	00021906 	br	800711c <___vfprintf_internal_r+0xc00>
 80068b8:	d9002d17 	ldw	r4,180(sp)
 80068bc:	b80b883a 	mov	r5,r23
 80068c0:	80088d00 	call	80088d0 <__swsetup_r>
 80068c4:	1005dc1e 	bne	r2,zero,8008038 <___vfprintf_internal_r+0x1b1c>
 80068c8:	b880030b 	ldhu	r2,12(r23)
 80068cc:	00c00284 	movi	r3,10
 80068d0:	1080068c 	andi	r2,r2,26
 80068d4:	10ff3a1e 	bne	r2,r3,80065c0 <__alt_data_end+0xf80065c0>
 80068d8:	b880038f 	ldh	r2,14(r23)
 80068dc:	103f3816 	blt	r2,zero,80065c0 <__alt_data_end+0xf80065c0>
 80068e0:	d9c02e17 	ldw	r7,184(sp)
 80068e4:	d9002d17 	ldw	r4,180(sp)
 80068e8:	a80d883a 	mov	r6,r21
 80068ec:	b80b883a 	mov	r5,r23
 80068f0:	80088140 	call	8008814 <__sbprintf>
 80068f4:	00001106 	br	800693c <___vfprintf_internal_r+0x420>
 80068f8:	d9002d17 	ldw	r4,180(sp)
 80068fc:	d9801e04 	addi	r6,sp,120
 8006900:	b80b883a 	mov	r5,r23
 8006904:	800dcfc0 	call	800dcfc <__sprint_r>
 8006908:	1000081e 	bne	r2,zero,800692c <___vfprintf_internal_r+0x410>
 800690c:	da000404 	addi	r8,sp,16
 8006910:	003f5106 	br	8006658 <__alt_data_end+0xf8006658>
 8006914:	d8802017 	ldw	r2,128(sp)
 8006918:	10000426 	beq	r2,zero,800692c <___vfprintf_internal_r+0x410>
 800691c:	d9002d17 	ldw	r4,180(sp)
 8006920:	d9801e04 	addi	r6,sp,120
 8006924:	b80b883a 	mov	r5,r23
 8006928:	800dcfc0 	call	800dcfc <__sprint_r>
 800692c:	b880030b 	ldhu	r2,12(r23)
 8006930:	1080100c 	andi	r2,r2,64
 8006934:	1005c01e 	bne	r2,zero,8008038 <___vfprintf_internal_r+0x1b1c>
 8006938:	d8802f17 	ldw	r2,188(sp)
 800693c:	dfc04717 	ldw	ra,284(sp)
 8006940:	df004617 	ldw	fp,280(sp)
 8006944:	ddc04517 	ldw	r23,276(sp)
 8006948:	dd804417 	ldw	r22,272(sp)
 800694c:	dd404317 	ldw	r21,268(sp)
 8006950:	dd004217 	ldw	r20,264(sp)
 8006954:	dcc04117 	ldw	r19,260(sp)
 8006958:	dc804017 	ldw	r18,256(sp)
 800695c:	dc403f17 	ldw	r17,252(sp)
 8006960:	dc003e17 	ldw	r16,248(sp)
 8006964:	dec04804 	addi	sp,sp,288
 8006968:	f800283a 	ret
 800696c:	d9002d17 	ldw	r4,180(sp)
 8006970:	800a8dc0 	call	800a8dc <__sinit>
 8006974:	003f0206 	br	8006580 <__alt_data_end+0xf8006580>
 8006978:	d9002e17 	ldw	r4,184(sp)
 800697c:	d9402e17 	ldw	r5,184(sp)
 8006980:	21000017 	ldw	r4,0(r4)
 8006984:	28800104 	addi	r2,r5,4
 8006988:	d9003115 	stw	r4,196(sp)
 800698c:	203fa716 	blt	r4,zero,800682c <__alt_data_end+0xf800682c>
 8006990:	d8802e15 	stw	r2,184(sp)
 8006994:	ac400007 	ldb	r17,0(r21)
 8006998:	003f4206 	br	80066a4 <__alt_data_end+0xf80066a4>
 800699c:	ac400007 	ldb	r17,0(r21)
 80069a0:	01000a84 	movi	r4,42
 80069a4:	a8c00044 	addi	r3,r21,1
 80069a8:	89075826 	beq	r17,r4,800870c <___vfprintf_internal_r+0x21f0>
 80069ac:	8cbff404 	addi	r18,r17,-48
 80069b0:	b486ae36 	bltu	r22,r18,800846c <___vfprintf_internal_r+0x1f50>
 80069b4:	0009883a 	mov	r4,zero
 80069b8:	1823883a 	mov	r17,r3
 80069bc:	01400284 	movi	r5,10
 80069c0:	80054680 	call	8005468 <__mulsi3>
 80069c4:	88c00007 	ldb	r3,0(r17)
 80069c8:	1489883a 	add	r4,r2,r18
 80069cc:	8d400044 	addi	r21,r17,1
 80069d0:	1cbff404 	addi	r18,r3,-48
 80069d4:	a823883a 	mov	r17,r21
 80069d8:	b4bff82e 	bgeu	r22,r18,80069bc <__alt_data_end+0xf80069bc>
 80069dc:	1823883a 	mov	r17,r3
 80069e0:	2005f616 	blt	r4,zero,80081bc <___vfprintf_internal_r+0x1ca0>
 80069e4:	d9002a15 	stw	r4,168(sp)
 80069e8:	003f2f06 	br	80066a8 <__alt_data_end+0xf80066a8>
 80069ec:	84002014 	ori	r16,r16,128
 80069f0:	ac400007 	ldb	r17,0(r21)
 80069f4:	003f2b06 	br	80066a4 <__alt_data_end+0xf80066a4>
 80069f8:	8cbff404 	addi	r18,r17,-48
 80069fc:	d8003115 	stw	zero,196(sp)
 8006a00:	0009883a 	mov	r4,zero
 8006a04:	a823883a 	mov	r17,r21
 8006a08:	01400284 	movi	r5,10
 8006a0c:	80054680 	call	8005468 <__mulsi3>
 8006a10:	88c00007 	ldb	r3,0(r17)
 8006a14:	9089883a 	add	r4,r18,r2
 8006a18:	ad400044 	addi	r21,r21,1
 8006a1c:	1cbff404 	addi	r18,r3,-48
 8006a20:	a823883a 	mov	r17,r21
 8006a24:	b4bff82e 	bgeu	r22,r18,8006a08 <__alt_data_end+0xf8006a08>
 8006a28:	1823883a 	mov	r17,r3
 8006a2c:	d9003115 	stw	r4,196(sp)
 8006a30:	003f1d06 	br	80066a8 <__alt_data_end+0xf80066a8>
 8006a34:	8025883a 	mov	r18,r16
 8006a38:	dc002903 	ldbu	r16,164(sp)
 8006a3c:	e011883a 	mov	r8,fp
 8006a40:	84003fcc 	andi	r16,r16,255
 8006a44:	8007531e 	bne	r16,zero,8008794 <___vfprintf_internal_r+0x2278>
 8006a48:	94800414 	ori	r18,r18,16
 8006a4c:	9080080c 	andi	r2,r18,32
 8006a50:	1003a326 	beq	r2,zero,80078e0 <___vfprintf_internal_r+0x13c4>
 8006a54:	d9002e17 	ldw	r4,184(sp)
 8006a58:	20800117 	ldw	r2,4(r4)
 8006a5c:	24c00017 	ldw	r19,0(r4)
 8006a60:	21000204 	addi	r4,r4,8
 8006a64:	d9002e15 	stw	r4,184(sp)
 8006a68:	102d883a 	mov	r22,r2
 8006a6c:	10047316 	blt	r2,zero,8007c3c <___vfprintf_internal_r+0x1720>
 8006a70:	d9002a17 	ldw	r4,168(sp)
 8006a74:	df002783 	ldbu	fp,158(sp)
 8006a78:	2003e416 	blt	r4,zero,8007a0c <___vfprintf_internal_r+0x14f0>
 8006a7c:	00ffdfc4 	movi	r3,-129
 8006a80:	9d84b03a 	or	r2,r19,r22
 8006a84:	90e4703a 	and	r18,r18,r3
 8006a88:	10018026 	beq	r2,zero,800708c <___vfprintf_internal_r+0xb70>
 8006a8c:	b003ab26 	beq	r22,zero,800793c <___vfprintf_internal_r+0x1420>
 8006a90:	dc402915 	stw	r17,164(sp)
 8006a94:	dc001e04 	addi	r16,sp,120
 8006a98:	b023883a 	mov	r17,r22
 8006a9c:	402d883a 	mov	r22,r8
 8006aa0:	9809883a 	mov	r4,r19
 8006aa4:	880b883a 	mov	r5,r17
 8006aa8:	01800284 	movi	r6,10
 8006aac:	000f883a 	mov	r7,zero
 8006ab0:	80102400 	call	8010240 <__umoddi3>
 8006ab4:	10800c04 	addi	r2,r2,48
 8006ab8:	843fffc4 	addi	r16,r16,-1
 8006abc:	9809883a 	mov	r4,r19
 8006ac0:	880b883a 	mov	r5,r17
 8006ac4:	80800005 	stb	r2,0(r16)
 8006ac8:	01800284 	movi	r6,10
 8006acc:	000f883a 	mov	r7,zero
 8006ad0:	800fc440 	call	800fc44 <__udivdi3>
 8006ad4:	1027883a 	mov	r19,r2
 8006ad8:	10c4b03a 	or	r2,r2,r3
 8006adc:	1823883a 	mov	r17,r3
 8006ae0:	103fef1e 	bne	r2,zero,8006aa0 <__alt_data_end+0xf8006aa0>
 8006ae4:	d8c02817 	ldw	r3,160(sp)
 8006ae8:	dc402917 	ldw	r17,164(sp)
 8006aec:	b011883a 	mov	r8,r22
 8006af0:	1c07c83a 	sub	r3,r3,r16
 8006af4:	d8c02b15 	stw	r3,172(sp)
 8006af8:	00005f06 	br	8006c78 <___vfprintf_internal_r+0x75c>
 8006afc:	8025883a 	mov	r18,r16
 8006b00:	dc002903 	ldbu	r16,164(sp)
 8006b04:	e011883a 	mov	r8,fp
 8006b08:	84003fcc 	andi	r16,r16,255
 8006b0c:	80071e1e 	bne	r16,zero,8008788 <___vfprintf_internal_r+0x226c>
 8006b10:	9080020c 	andi	r2,r18,8
 8006b14:	1004af26 	beq	r2,zero,8007dd4 <___vfprintf_internal_r+0x18b8>
 8006b18:	d9002e17 	ldw	r4,184(sp)
 8006b1c:	d9402e17 	ldw	r5,184(sp)
 8006b20:	d8802e17 	ldw	r2,184(sp)
 8006b24:	21000017 	ldw	r4,0(r4)
 8006b28:	29400117 	ldw	r5,4(r5)
 8006b2c:	10800204 	addi	r2,r2,8
 8006b30:	d9003615 	stw	r4,216(sp)
 8006b34:	d9403815 	stw	r5,224(sp)
 8006b38:	d8802e15 	stw	r2,184(sp)
 8006b3c:	d9003617 	ldw	r4,216(sp)
 8006b40:	d9403817 	ldw	r5,224(sp)
 8006b44:	da003d15 	stw	r8,244(sp)
 8006b48:	04000044 	movi	r16,1
 8006b4c:	800d9200 	call	800d920 <__fpclassifyd>
 8006b50:	da003d17 	ldw	r8,244(sp)
 8006b54:	1404441e 	bne	r2,r16,8007c68 <___vfprintf_internal_r+0x174c>
 8006b58:	d9003617 	ldw	r4,216(sp)
 8006b5c:	d9403817 	ldw	r5,224(sp)
 8006b60:	000d883a 	mov	r6,zero
 8006b64:	000f883a 	mov	r7,zero
 8006b68:	8005e600 	call	8005e60 <__ledf2>
 8006b6c:	da003d17 	ldw	r8,244(sp)
 8006b70:	1005e316 	blt	r2,zero,8008300 <___vfprintf_internal_r+0x1de4>
 8006b74:	df002783 	ldbu	fp,158(sp)
 8006b78:	008011c4 	movi	r2,71
 8006b7c:	1445580e 	bge	r2,r17,80080e0 <___vfprintf_internal_r+0x1bc4>
 8006b80:	04020074 	movhi	r16,2049
 8006b84:	8413b604 	addi	r16,r16,20184
 8006b88:	00c000c4 	movi	r3,3
 8006b8c:	00bfdfc4 	movi	r2,-129
 8006b90:	d8c02915 	stw	r3,164(sp)
 8006b94:	90a4703a 	and	r18,r18,r2
 8006b98:	d8c02b15 	stw	r3,172(sp)
 8006b9c:	d8002a15 	stw	zero,168(sp)
 8006ba0:	d8003215 	stw	zero,200(sp)
 8006ba4:	00003a06 	br	8006c90 <___vfprintf_internal_r+0x774>
 8006ba8:	84000214 	ori	r16,r16,8
 8006bac:	ac400007 	ldb	r17,0(r21)
 8006bb0:	003ebc06 	br	80066a4 <__alt_data_end+0xf80066a4>
 8006bb4:	8025883a 	mov	r18,r16
 8006bb8:	dc002903 	ldbu	r16,164(sp)
 8006bbc:	e011883a 	mov	r8,fp
 8006bc0:	84003fcc 	andi	r16,r16,255
 8006bc4:	8007001e 	bne	r16,zero,80087c8 <___vfprintf_internal_r+0x22ac>
 8006bc8:	94800414 	ori	r18,r18,16
 8006bcc:	9080080c 	andi	r2,r18,32
 8006bd0:	1002fa26 	beq	r2,zero,80077bc <___vfprintf_internal_r+0x12a0>
 8006bd4:	d9002e17 	ldw	r4,184(sp)
 8006bd8:	d9402a17 	ldw	r5,168(sp)
 8006bdc:	d8002785 	stb	zero,158(sp)
 8006be0:	20800204 	addi	r2,r4,8
 8006be4:	24c00017 	ldw	r19,0(r4)
 8006be8:	25800117 	ldw	r22,4(r4)
 8006bec:	2804b116 	blt	r5,zero,8007eb4 <___vfprintf_internal_r+0x1998>
 8006bf0:	013fdfc4 	movi	r4,-129
 8006bf4:	9d86b03a 	or	r3,r19,r22
 8006bf8:	d8802e15 	stw	r2,184(sp)
 8006bfc:	9124703a 	and	r18,r18,r4
 8006c00:	1802fb1e 	bne	r3,zero,80077f0 <___vfprintf_internal_r+0x12d4>
 8006c04:	d8c02a17 	ldw	r3,168(sp)
 8006c08:	0039883a 	mov	fp,zero
 8006c0c:	1805e526 	beq	r3,zero,80083a4 <___vfprintf_internal_r+0x1e88>
 8006c10:	0027883a 	mov	r19,zero
 8006c14:	002d883a 	mov	r22,zero
 8006c18:	dc001e04 	addi	r16,sp,120
 8006c1c:	9806d0fa 	srli	r3,r19,3
 8006c20:	b008977a 	slli	r4,r22,29
 8006c24:	b02cd0fa 	srli	r22,r22,3
 8006c28:	9cc001cc 	andi	r19,r19,7
 8006c2c:	98800c04 	addi	r2,r19,48
 8006c30:	843fffc4 	addi	r16,r16,-1
 8006c34:	20e6b03a 	or	r19,r4,r3
 8006c38:	80800005 	stb	r2,0(r16)
 8006c3c:	9d86b03a 	or	r3,r19,r22
 8006c40:	183ff61e 	bne	r3,zero,8006c1c <__alt_data_end+0xf8006c1c>
 8006c44:	90c0004c 	andi	r3,r18,1
 8006c48:	18014126 	beq	r3,zero,8007150 <___vfprintf_internal_r+0xc34>
 8006c4c:	10803fcc 	andi	r2,r2,255
 8006c50:	1080201c 	xori	r2,r2,128
 8006c54:	10bfe004 	addi	r2,r2,-128
 8006c58:	00c00c04 	movi	r3,48
 8006c5c:	10c13c26 	beq	r2,r3,8007150 <___vfprintf_internal_r+0xc34>
 8006c60:	80ffffc5 	stb	r3,-1(r16)
 8006c64:	d8c02817 	ldw	r3,160(sp)
 8006c68:	80bfffc4 	addi	r2,r16,-1
 8006c6c:	1021883a 	mov	r16,r2
 8006c70:	1887c83a 	sub	r3,r3,r2
 8006c74:	d8c02b15 	stw	r3,172(sp)
 8006c78:	d8802b17 	ldw	r2,172(sp)
 8006c7c:	d9002a17 	ldw	r4,168(sp)
 8006c80:	1100010e 	bge	r2,r4,8006c88 <___vfprintf_internal_r+0x76c>
 8006c84:	2005883a 	mov	r2,r4
 8006c88:	d8802915 	stw	r2,164(sp)
 8006c8c:	d8003215 	stw	zero,200(sp)
 8006c90:	e7003fcc 	andi	fp,fp,255
 8006c94:	e700201c 	xori	fp,fp,128
 8006c98:	e73fe004 	addi	fp,fp,-128
 8006c9c:	e0000326 	beq	fp,zero,8006cac <___vfprintf_internal_r+0x790>
 8006ca0:	d8c02917 	ldw	r3,164(sp)
 8006ca4:	18c00044 	addi	r3,r3,1
 8006ca8:	d8c02915 	stw	r3,164(sp)
 8006cac:	90c0008c 	andi	r3,r18,2
 8006cb0:	d8c02c15 	stw	r3,176(sp)
 8006cb4:	18000326 	beq	r3,zero,8006cc4 <___vfprintf_internal_r+0x7a8>
 8006cb8:	d8c02917 	ldw	r3,164(sp)
 8006cbc:	18c00084 	addi	r3,r3,2
 8006cc0:	d8c02915 	stw	r3,164(sp)
 8006cc4:	90c0210c 	andi	r3,r18,132
 8006cc8:	d8c03015 	stw	r3,192(sp)
 8006ccc:	1801c51e 	bne	r3,zero,80073e4 <___vfprintf_internal_r+0xec8>
 8006cd0:	d9003117 	ldw	r4,196(sp)
 8006cd4:	d8c02917 	ldw	r3,164(sp)
 8006cd8:	20e7c83a 	sub	r19,r4,r3
 8006cdc:	04c1c10e 	bge	zero,r19,80073e4 <___vfprintf_internal_r+0xec8>
 8006ce0:	02400404 	movi	r9,16
 8006ce4:	d8c02017 	ldw	r3,128(sp)
 8006ce8:	d8801f17 	ldw	r2,124(sp)
 8006cec:	4cc52f0e 	bge	r9,r19,80081ac <___vfprintf_internal_r+0x1c90>
 8006cf0:	01420074 	movhi	r5,2049
 8006cf4:	2953c984 	addi	r5,r5,20262
 8006cf8:	dc403b15 	stw	r17,236(sp)
 8006cfc:	d9403515 	stw	r5,212(sp)
 8006d00:	9823883a 	mov	r17,r19
 8006d04:	482d883a 	mov	r22,r9
 8006d08:	9027883a 	mov	r19,r18
 8006d0c:	070001c4 	movi	fp,7
 8006d10:	8025883a 	mov	r18,r16
 8006d14:	dc002d17 	ldw	r16,180(sp)
 8006d18:	00000306 	br	8006d28 <___vfprintf_internal_r+0x80c>
 8006d1c:	8c7ffc04 	addi	r17,r17,-16
 8006d20:	42000204 	addi	r8,r8,8
 8006d24:	b440130e 	bge	r22,r17,8006d74 <___vfprintf_internal_r+0x858>
 8006d28:	01020074 	movhi	r4,2049
 8006d2c:	18c00404 	addi	r3,r3,16
 8006d30:	10800044 	addi	r2,r2,1
 8006d34:	2113c984 	addi	r4,r4,20262
 8006d38:	41000015 	stw	r4,0(r8)
 8006d3c:	45800115 	stw	r22,4(r8)
 8006d40:	d8c02015 	stw	r3,128(sp)
 8006d44:	d8801f15 	stw	r2,124(sp)
 8006d48:	e0bff40e 	bge	fp,r2,8006d1c <__alt_data_end+0xf8006d1c>
 8006d4c:	d9801e04 	addi	r6,sp,120
 8006d50:	b80b883a 	mov	r5,r23
 8006d54:	8009883a 	mov	r4,r16
 8006d58:	800dcfc0 	call	800dcfc <__sprint_r>
 8006d5c:	103ef31e 	bne	r2,zero,800692c <__alt_data_end+0xf800692c>
 8006d60:	8c7ffc04 	addi	r17,r17,-16
 8006d64:	d8c02017 	ldw	r3,128(sp)
 8006d68:	d8801f17 	ldw	r2,124(sp)
 8006d6c:	da000404 	addi	r8,sp,16
 8006d70:	b47fed16 	blt	r22,r17,8006d28 <__alt_data_end+0xf8006d28>
 8006d74:	9021883a 	mov	r16,r18
 8006d78:	9825883a 	mov	r18,r19
 8006d7c:	8827883a 	mov	r19,r17
 8006d80:	dc403b17 	ldw	r17,236(sp)
 8006d84:	d9403517 	ldw	r5,212(sp)
 8006d88:	98c7883a 	add	r3,r19,r3
 8006d8c:	10800044 	addi	r2,r2,1
 8006d90:	41400015 	stw	r5,0(r8)
 8006d94:	44c00115 	stw	r19,4(r8)
 8006d98:	d8c02015 	stw	r3,128(sp)
 8006d9c:	d8801f15 	stw	r2,124(sp)
 8006da0:	010001c4 	movi	r4,7
 8006da4:	2082c516 	blt	r4,r2,80078bc <___vfprintf_internal_r+0x13a0>
 8006da8:	df002787 	ldb	fp,158(sp)
 8006dac:	42000204 	addi	r8,r8,8
 8006db0:	e0000c26 	beq	fp,zero,8006de4 <___vfprintf_internal_r+0x8c8>
 8006db4:	d8801f17 	ldw	r2,124(sp)
 8006db8:	d9002784 	addi	r4,sp,158
 8006dbc:	18c00044 	addi	r3,r3,1
 8006dc0:	10800044 	addi	r2,r2,1
 8006dc4:	41000015 	stw	r4,0(r8)
 8006dc8:	01000044 	movi	r4,1
 8006dcc:	41000115 	stw	r4,4(r8)
 8006dd0:	d8c02015 	stw	r3,128(sp)
 8006dd4:	d8801f15 	stw	r2,124(sp)
 8006dd8:	010001c4 	movi	r4,7
 8006ddc:	20825e16 	blt	r4,r2,8007758 <___vfprintf_internal_r+0x123c>
 8006de0:	42000204 	addi	r8,r8,8
 8006de4:	d8802c17 	ldw	r2,176(sp)
 8006de8:	10000c26 	beq	r2,zero,8006e1c <___vfprintf_internal_r+0x900>
 8006dec:	d8801f17 	ldw	r2,124(sp)
 8006df0:	d9002704 	addi	r4,sp,156
 8006df4:	18c00084 	addi	r3,r3,2
 8006df8:	10800044 	addi	r2,r2,1
 8006dfc:	41000015 	stw	r4,0(r8)
 8006e00:	01000084 	movi	r4,2
 8006e04:	41000115 	stw	r4,4(r8)
 8006e08:	d8c02015 	stw	r3,128(sp)
 8006e0c:	d8801f15 	stw	r2,124(sp)
 8006e10:	010001c4 	movi	r4,7
 8006e14:	20825816 	blt	r4,r2,8007778 <___vfprintf_internal_r+0x125c>
 8006e18:	42000204 	addi	r8,r8,8
 8006e1c:	d9003017 	ldw	r4,192(sp)
 8006e20:	00802004 	movi	r2,128
 8006e24:	2081bb26 	beq	r4,r2,8007514 <___vfprintf_internal_r+0xff8>
 8006e28:	d9402a17 	ldw	r5,168(sp)
 8006e2c:	d8802b17 	ldw	r2,172(sp)
 8006e30:	28adc83a 	sub	r22,r5,r2
 8006e34:	0580310e 	bge	zero,r22,8006efc <___vfprintf_internal_r+0x9e0>
 8006e38:	07000404 	movi	fp,16
 8006e3c:	d8801f17 	ldw	r2,124(sp)
 8006e40:	e584360e 	bge	fp,r22,8007f1c <___vfprintf_internal_r+0x1a00>
 8006e44:	01420074 	movhi	r5,2049
 8006e48:	2953c584 	addi	r5,r5,20246
 8006e4c:	dc402a15 	stw	r17,168(sp)
 8006e50:	d9402c15 	stw	r5,176(sp)
 8006e54:	b023883a 	mov	r17,r22
 8006e58:	04c001c4 	movi	r19,7
 8006e5c:	a82d883a 	mov	r22,r21
 8006e60:	902b883a 	mov	r21,r18
 8006e64:	8025883a 	mov	r18,r16
 8006e68:	dc002d17 	ldw	r16,180(sp)
 8006e6c:	00000306 	br	8006e7c <___vfprintf_internal_r+0x960>
 8006e70:	8c7ffc04 	addi	r17,r17,-16
 8006e74:	42000204 	addi	r8,r8,8
 8006e78:	e440110e 	bge	fp,r17,8006ec0 <___vfprintf_internal_r+0x9a4>
 8006e7c:	18c00404 	addi	r3,r3,16
 8006e80:	10800044 	addi	r2,r2,1
 8006e84:	45000015 	stw	r20,0(r8)
 8006e88:	47000115 	stw	fp,4(r8)
 8006e8c:	d8c02015 	stw	r3,128(sp)
 8006e90:	d8801f15 	stw	r2,124(sp)
 8006e94:	98bff60e 	bge	r19,r2,8006e70 <__alt_data_end+0xf8006e70>
 8006e98:	d9801e04 	addi	r6,sp,120
 8006e9c:	b80b883a 	mov	r5,r23
 8006ea0:	8009883a 	mov	r4,r16
 8006ea4:	800dcfc0 	call	800dcfc <__sprint_r>
 8006ea8:	103ea01e 	bne	r2,zero,800692c <__alt_data_end+0xf800692c>
 8006eac:	8c7ffc04 	addi	r17,r17,-16
 8006eb0:	d8c02017 	ldw	r3,128(sp)
 8006eb4:	d8801f17 	ldw	r2,124(sp)
 8006eb8:	da000404 	addi	r8,sp,16
 8006ebc:	e47fef16 	blt	fp,r17,8006e7c <__alt_data_end+0xf8006e7c>
 8006ec0:	9021883a 	mov	r16,r18
 8006ec4:	a825883a 	mov	r18,r21
 8006ec8:	b02b883a 	mov	r21,r22
 8006ecc:	882d883a 	mov	r22,r17
 8006ed0:	dc402a17 	ldw	r17,168(sp)
 8006ed4:	d9002c17 	ldw	r4,176(sp)
 8006ed8:	1d87883a 	add	r3,r3,r22
 8006edc:	10800044 	addi	r2,r2,1
 8006ee0:	41000015 	stw	r4,0(r8)
 8006ee4:	45800115 	stw	r22,4(r8)
 8006ee8:	d8c02015 	stw	r3,128(sp)
 8006eec:	d8801f15 	stw	r2,124(sp)
 8006ef0:	010001c4 	movi	r4,7
 8006ef4:	20821016 	blt	r4,r2,8007738 <___vfprintf_internal_r+0x121c>
 8006ef8:	42000204 	addi	r8,r8,8
 8006efc:	9080400c 	andi	r2,r18,256
 8006f00:	10013a1e 	bne	r2,zero,80073ec <___vfprintf_internal_r+0xed0>
 8006f04:	d9402b17 	ldw	r5,172(sp)
 8006f08:	d8801f17 	ldw	r2,124(sp)
 8006f0c:	44000015 	stw	r16,0(r8)
 8006f10:	1947883a 	add	r3,r3,r5
 8006f14:	10800044 	addi	r2,r2,1
 8006f18:	41400115 	stw	r5,4(r8)
 8006f1c:	d8c02015 	stw	r3,128(sp)
 8006f20:	d8801f15 	stw	r2,124(sp)
 8006f24:	010001c4 	movi	r4,7
 8006f28:	2081f516 	blt	r4,r2,8007700 <___vfprintf_internal_r+0x11e4>
 8006f2c:	42000204 	addi	r8,r8,8
 8006f30:	9480010c 	andi	r18,r18,4
 8006f34:	90003226 	beq	r18,zero,8007000 <___vfprintf_internal_r+0xae4>
 8006f38:	d9403117 	ldw	r5,196(sp)
 8006f3c:	d8802917 	ldw	r2,164(sp)
 8006f40:	28a1c83a 	sub	r16,r5,r2
 8006f44:	04002e0e 	bge	zero,r16,8007000 <___vfprintf_internal_r+0xae4>
 8006f48:	04400404 	movi	r17,16
 8006f4c:	d8801f17 	ldw	r2,124(sp)
 8006f50:	8c04c40e 	bge	r17,r16,8008264 <___vfprintf_internal_r+0x1d48>
 8006f54:	01420074 	movhi	r5,2049
 8006f58:	2953c984 	addi	r5,r5,20262
 8006f5c:	d9403515 	stw	r5,212(sp)
 8006f60:	048001c4 	movi	r18,7
 8006f64:	dcc02d17 	ldw	r19,180(sp)
 8006f68:	00000306 	br	8006f78 <___vfprintf_internal_r+0xa5c>
 8006f6c:	843ffc04 	addi	r16,r16,-16
 8006f70:	42000204 	addi	r8,r8,8
 8006f74:	8c00130e 	bge	r17,r16,8006fc4 <___vfprintf_internal_r+0xaa8>
 8006f78:	01020074 	movhi	r4,2049
 8006f7c:	18c00404 	addi	r3,r3,16
 8006f80:	10800044 	addi	r2,r2,1
 8006f84:	2113c984 	addi	r4,r4,20262
 8006f88:	41000015 	stw	r4,0(r8)
 8006f8c:	44400115 	stw	r17,4(r8)
 8006f90:	d8c02015 	stw	r3,128(sp)
 8006f94:	d8801f15 	stw	r2,124(sp)
 8006f98:	90bff40e 	bge	r18,r2,8006f6c <__alt_data_end+0xf8006f6c>
 8006f9c:	d9801e04 	addi	r6,sp,120
 8006fa0:	b80b883a 	mov	r5,r23
 8006fa4:	9809883a 	mov	r4,r19
 8006fa8:	800dcfc0 	call	800dcfc <__sprint_r>
 8006fac:	103e5f1e 	bne	r2,zero,800692c <__alt_data_end+0xf800692c>
 8006fb0:	843ffc04 	addi	r16,r16,-16
 8006fb4:	d8c02017 	ldw	r3,128(sp)
 8006fb8:	d8801f17 	ldw	r2,124(sp)
 8006fbc:	da000404 	addi	r8,sp,16
 8006fc0:	8c3fed16 	blt	r17,r16,8006f78 <__alt_data_end+0xf8006f78>
 8006fc4:	d9403517 	ldw	r5,212(sp)
 8006fc8:	1c07883a 	add	r3,r3,r16
 8006fcc:	10800044 	addi	r2,r2,1
 8006fd0:	41400015 	stw	r5,0(r8)
 8006fd4:	44000115 	stw	r16,4(r8)
 8006fd8:	d8c02015 	stw	r3,128(sp)
 8006fdc:	d8801f15 	stw	r2,124(sp)
 8006fe0:	010001c4 	movi	r4,7
 8006fe4:	2080060e 	bge	r4,r2,8007000 <___vfprintf_internal_r+0xae4>
 8006fe8:	d9002d17 	ldw	r4,180(sp)
 8006fec:	d9801e04 	addi	r6,sp,120
 8006ff0:	b80b883a 	mov	r5,r23
 8006ff4:	800dcfc0 	call	800dcfc <__sprint_r>
 8006ff8:	103e4c1e 	bne	r2,zero,800692c <__alt_data_end+0xf800692c>
 8006ffc:	d8c02017 	ldw	r3,128(sp)
 8007000:	d8803117 	ldw	r2,196(sp)
 8007004:	d9002917 	ldw	r4,164(sp)
 8007008:	1100010e 	bge	r2,r4,8007010 <___vfprintf_internal_r+0xaf4>
 800700c:	2005883a 	mov	r2,r4
 8007010:	d9402f17 	ldw	r5,188(sp)
 8007014:	288b883a 	add	r5,r5,r2
 8007018:	d9402f15 	stw	r5,188(sp)
 800701c:	1801c01e 	bne	r3,zero,8007720 <___vfprintf_internal_r+0x1204>
 8007020:	a8800007 	ldb	r2,0(r21)
 8007024:	d8001f15 	stw	zero,124(sp)
 8007028:	da000404 	addi	r8,sp,16
 800702c:	103d751e 	bne	r2,zero,8006604 <__alt_data_end+0xf8006604>
 8007030:	a823883a 	mov	r17,r21
 8007034:	003d8b06 	br	8006664 <__alt_data_end+0xf8006664>
 8007038:	8025883a 	mov	r18,r16
 800703c:	dc002903 	ldbu	r16,164(sp)
 8007040:	e011883a 	mov	r8,fp
 8007044:	84003fcc 	andi	r16,r16,255
 8007048:	8005e51e 	bne	r16,zero,80087e0 <___vfprintf_internal_r+0x22c4>
 800704c:	94800414 	ori	r18,r18,16
 8007050:	9080080c 	andi	r2,r18,32
 8007054:	10022b26 	beq	r2,zero,8007904 <___vfprintf_internal_r+0x13e8>
 8007058:	d9002e17 	ldw	r4,184(sp)
 800705c:	d9402a17 	ldw	r5,168(sp)
 8007060:	d8002785 	stb	zero,158(sp)
 8007064:	20c00204 	addi	r3,r4,8
 8007068:	24c00017 	ldw	r19,0(r4)
 800706c:	25800117 	ldw	r22,4(r4)
 8007070:	28042e16 	blt	r5,zero,800812c <___vfprintf_internal_r+0x1c10>
 8007074:	013fdfc4 	movi	r4,-129
 8007078:	9d84b03a 	or	r2,r19,r22
 800707c:	d8c02e15 	stw	r3,184(sp)
 8007080:	9124703a 	and	r18,r18,r4
 8007084:	0039883a 	mov	fp,zero
 8007088:	103e801e 	bne	r2,zero,8006a8c <__alt_data_end+0xf8006a8c>
 800708c:	d9002a17 	ldw	r4,168(sp)
 8007090:	2002e01e 	bne	r4,zero,8007c14 <___vfprintf_internal_r+0x16f8>
 8007094:	d8002a15 	stw	zero,168(sp)
 8007098:	d8002b15 	stw	zero,172(sp)
 800709c:	dc001e04 	addi	r16,sp,120
 80070a0:	003ef506 	br	8006c78 <__alt_data_end+0xf8006c78>
 80070a4:	8025883a 	mov	r18,r16
 80070a8:	dc002903 	ldbu	r16,164(sp)
 80070ac:	e011883a 	mov	r8,fp
 80070b0:	84003fcc 	andi	r16,r16,255
 80070b4:	8005ba1e 	bne	r16,zero,80087a0 <___vfprintf_internal_r+0x2284>
 80070b8:	01020074 	movhi	r4,2049
 80070bc:	2113b904 	addi	r4,r4,20196
 80070c0:	d9003915 	stw	r4,228(sp)
 80070c4:	9080080c 	andi	r2,r18,32
 80070c8:	10006126 	beq	r2,zero,8007250 <___vfprintf_internal_r+0xd34>
 80070cc:	d9402e17 	ldw	r5,184(sp)
 80070d0:	2cc00017 	ldw	r19,0(r5)
 80070d4:	2d800117 	ldw	r22,4(r5)
 80070d8:	29400204 	addi	r5,r5,8
 80070dc:	d9402e15 	stw	r5,184(sp)
 80070e0:	9080004c 	andi	r2,r18,1
 80070e4:	1001ac26 	beq	r2,zero,8007798 <___vfprintf_internal_r+0x127c>
 80070e8:	9d84b03a 	or	r2,r19,r22
 80070ec:	10038526 	beq	r2,zero,8007f04 <___vfprintf_internal_r+0x19e8>
 80070f0:	d8c02a17 	ldw	r3,168(sp)
 80070f4:	00800c04 	movi	r2,48
 80070f8:	d8802705 	stb	r2,156(sp)
 80070fc:	dc402745 	stb	r17,157(sp)
 8007100:	d8002785 	stb	zero,158(sp)
 8007104:	90800094 	ori	r2,r18,2
 8007108:	18047916 	blt	r3,zero,80082f0 <___vfprintf_internal_r+0x1dd4>
 800710c:	00bfdfc4 	movi	r2,-129
 8007110:	90a4703a 	and	r18,r18,r2
 8007114:	94800094 	ori	r18,r18,2
 8007118:	0039883a 	mov	fp,zero
 800711c:	d9003917 	ldw	r4,228(sp)
 8007120:	dc001e04 	addi	r16,sp,120
 8007124:	988003cc 	andi	r2,r19,15
 8007128:	b006973a 	slli	r3,r22,28
 800712c:	2085883a 	add	r2,r4,r2
 8007130:	9826d13a 	srli	r19,r19,4
 8007134:	10800003 	ldbu	r2,0(r2)
 8007138:	b02cd13a 	srli	r22,r22,4
 800713c:	843fffc4 	addi	r16,r16,-1
 8007140:	1ce6b03a 	or	r19,r3,r19
 8007144:	80800005 	stb	r2,0(r16)
 8007148:	9d84b03a 	or	r2,r19,r22
 800714c:	103ff51e 	bne	r2,zero,8007124 <__alt_data_end+0xf8007124>
 8007150:	d8c02817 	ldw	r3,160(sp)
 8007154:	1c07c83a 	sub	r3,r3,r16
 8007158:	d8c02b15 	stw	r3,172(sp)
 800715c:	003ec606 	br	8006c78 <__alt_data_end+0xf8006c78>
 8007160:	8025883a 	mov	r18,r16
 8007164:	dc002903 	ldbu	r16,164(sp)
 8007168:	e011883a 	mov	r8,fp
 800716c:	84003fcc 	andi	r16,r16,255
 8007170:	803e9626 	beq	r16,zero,8006bcc <__alt_data_end+0xf8006bcc>
 8007174:	d8c02b03 	ldbu	r3,172(sp)
 8007178:	d8c02785 	stb	r3,158(sp)
 800717c:	003e9306 	br	8006bcc <__alt_data_end+0xf8006bcc>
 8007180:	00c00044 	movi	r3,1
 8007184:	d8c02905 	stb	r3,164(sp)
 8007188:	00c00ac4 	movi	r3,43
 800718c:	d8c02b05 	stb	r3,172(sp)
 8007190:	ac400007 	ldb	r17,0(r21)
 8007194:	003d4306 	br	80066a4 <__alt_data_end+0xf80066a4>
 8007198:	84000814 	ori	r16,r16,32
 800719c:	ac400007 	ldb	r17,0(r21)
 80071a0:	003d4006 	br	80066a4 <__alt_data_end+0xf80066a4>
 80071a4:	d8802e17 	ldw	r2,184(sp)
 80071a8:	8025883a 	mov	r18,r16
 80071ac:	d8002785 	stb	zero,158(sp)
 80071b0:	14000017 	ldw	r16,0(r2)
 80071b4:	e011883a 	mov	r8,fp
 80071b8:	14c00104 	addi	r19,r2,4
 80071bc:	80042d26 	beq	r16,zero,8008274 <___vfprintf_internal_r+0x1d58>
 80071c0:	d8c02a17 	ldw	r3,168(sp)
 80071c4:	1803e416 	blt	r3,zero,8008158 <___vfprintf_internal_r+0x1c3c>
 80071c8:	180d883a 	mov	r6,r3
 80071cc:	000b883a 	mov	r5,zero
 80071d0:	8009883a 	mov	r4,r16
 80071d4:	df003d15 	stw	fp,244(sp)
 80071d8:	800be540 	call	800be54 <memchr>
 80071dc:	da003d17 	ldw	r8,244(sp)
 80071e0:	10046826 	beq	r2,zero,8008384 <___vfprintf_internal_r+0x1e68>
 80071e4:	1405c83a 	sub	r2,r2,r16
 80071e8:	d8802b15 	stw	r2,172(sp)
 80071ec:	1003e016 	blt	r2,zero,8008170 <___vfprintf_internal_r+0x1c54>
 80071f0:	df002783 	ldbu	fp,158(sp)
 80071f4:	d8802915 	stw	r2,164(sp)
 80071f8:	dcc02e15 	stw	r19,184(sp)
 80071fc:	d8002a15 	stw	zero,168(sp)
 8007200:	d8003215 	stw	zero,200(sp)
 8007204:	003ea206 	br	8006c90 <__alt_data_end+0xf8006c90>
 8007208:	8025883a 	mov	r18,r16
 800720c:	dc002903 	ldbu	r16,164(sp)
 8007210:	e011883a 	mov	r8,fp
 8007214:	84003fcc 	andi	r16,r16,255
 8007218:	803f8d26 	beq	r16,zero,8007050 <__alt_data_end+0xf8007050>
 800721c:	d8c02b03 	ldbu	r3,172(sp)
 8007220:	d8c02785 	stb	r3,158(sp)
 8007224:	003f8a06 	br	8007050 <__alt_data_end+0xf8007050>
 8007228:	8025883a 	mov	r18,r16
 800722c:	dc002903 	ldbu	r16,164(sp)
 8007230:	e011883a 	mov	r8,fp
 8007234:	84003fcc 	andi	r16,r16,255
 8007238:	8005661e 	bne	r16,zero,80087d4 <___vfprintf_internal_r+0x22b8>
 800723c:	01020074 	movhi	r4,2049
 8007240:	2113be04 	addi	r4,r4,20216
 8007244:	d9003915 	stw	r4,228(sp)
 8007248:	9080080c 	andi	r2,r18,32
 800724c:	103f9f1e 	bne	r2,zero,80070cc <__alt_data_end+0xf80070cc>
 8007250:	9080040c 	andi	r2,r18,16
 8007254:	1002eb26 	beq	r2,zero,8007e04 <___vfprintf_internal_r+0x18e8>
 8007258:	d8802e17 	ldw	r2,184(sp)
 800725c:	002d883a 	mov	r22,zero
 8007260:	14c00017 	ldw	r19,0(r2)
 8007264:	10800104 	addi	r2,r2,4
 8007268:	d8802e15 	stw	r2,184(sp)
 800726c:	003f9c06 	br	80070e0 <__alt_data_end+0xf80070e0>
 8007270:	d8802b07 	ldb	r2,172(sp)
 8007274:	1002e11e 	bne	r2,zero,8007dfc <___vfprintf_internal_r+0x18e0>
 8007278:	00c00044 	movi	r3,1
 800727c:	d8c02905 	stb	r3,164(sp)
 8007280:	00c00804 	movi	r3,32
 8007284:	d8c02b05 	stb	r3,172(sp)
 8007288:	ac400007 	ldb	r17,0(r21)
 800728c:	003d0506 	br	80066a4 <__alt_data_end+0xf80066a4>
 8007290:	84000054 	ori	r16,r16,1
 8007294:	ac400007 	ldb	r17,0(r21)
 8007298:	003d0206 	br	80066a4 <__alt_data_end+0xf80066a4>
 800729c:	8025883a 	mov	r18,r16
 80072a0:	dc002903 	ldbu	r16,164(sp)
 80072a4:	e011883a 	mov	r8,fp
 80072a8:	84003fcc 	andi	r16,r16,255
 80072ac:	803de726 	beq	r16,zero,8006a4c <__alt_data_end+0xf8006a4c>
 80072b0:	d8c02b03 	ldbu	r3,172(sp)
 80072b4:	d8c02785 	stb	r3,158(sp)
 80072b8:	003de406 	br	8006a4c <__alt_data_end+0xf8006a4c>
 80072bc:	84001014 	ori	r16,r16,64
 80072c0:	ac400007 	ldb	r17,0(r21)
 80072c4:	003cf706 	br	80066a4 <__alt_data_end+0xf80066a4>
 80072c8:	ac400007 	ldb	r17,0(r21)
 80072cc:	00801b04 	movi	r2,108
 80072d0:	88838f26 	beq	r17,r2,8008110 <___vfprintf_internal_r+0x1bf4>
 80072d4:	84000414 	ori	r16,r16,16
 80072d8:	003cf206 	br	80066a4 <__alt_data_end+0xf80066a4>
 80072dc:	8025883a 	mov	r18,r16
 80072e0:	dc002903 	ldbu	r16,164(sp)
 80072e4:	e011883a 	mov	r8,fp
 80072e8:	84003fcc 	andi	r16,r16,255
 80072ec:	80053f1e 	bne	r16,zero,80087ec <___vfprintf_internal_r+0x22d0>
 80072f0:	9080080c 	andi	r2,r18,32
 80072f4:	1002d226 	beq	r2,zero,8007e40 <___vfprintf_internal_r+0x1924>
 80072f8:	d9002e17 	ldw	r4,184(sp)
 80072fc:	d9402f17 	ldw	r5,188(sp)
 8007300:	20800017 	ldw	r2,0(r4)
 8007304:	2807d7fa 	srai	r3,r5,31
 8007308:	21000104 	addi	r4,r4,4
 800730c:	d9002e15 	stw	r4,184(sp)
 8007310:	11400015 	stw	r5,0(r2)
 8007314:	10c00115 	stw	r3,4(r2)
 8007318:	003cb806 	br	80065fc <__alt_data_end+0xf80065fc>
 800731c:	d8c02e17 	ldw	r3,184(sp)
 8007320:	d9002e17 	ldw	r4,184(sp)
 8007324:	8025883a 	mov	r18,r16
 8007328:	18800017 	ldw	r2,0(r3)
 800732c:	21000104 	addi	r4,r4,4
 8007330:	00c00044 	movi	r3,1
 8007334:	e011883a 	mov	r8,fp
 8007338:	d8c02915 	stw	r3,164(sp)
 800733c:	d8002785 	stb	zero,158(sp)
 8007340:	d8801405 	stb	r2,80(sp)
 8007344:	d9002e15 	stw	r4,184(sp)
 8007348:	d8c02b15 	stw	r3,172(sp)
 800734c:	d8002a15 	stw	zero,168(sp)
 8007350:	d8003215 	stw	zero,200(sp)
 8007354:	dc001404 	addi	r16,sp,80
 8007358:	0039883a 	mov	fp,zero
 800735c:	003e5306 	br	8006cac <__alt_data_end+0xf8006cac>
 8007360:	01020074 	movhi	r4,2049
 8007364:	2113be04 	addi	r4,r4,20216
 8007368:	0039883a 	mov	fp,zero
 800736c:	d9003915 	stw	r4,228(sp)
 8007370:	04401e04 	movi	r17,120
 8007374:	003f6906 	br	800711c <__alt_data_end+0xf800711c>
 8007378:	8025883a 	mov	r18,r16
 800737c:	dc002903 	ldbu	r16,164(sp)
 8007380:	e011883a 	mov	r8,fp
 8007384:	84003fcc 	andi	r16,r16,255
 8007388:	8005081e 	bne	r16,zero,80087ac <___vfprintf_internal_r+0x2290>
 800738c:	883d6126 	beq	r17,zero,8006914 <__alt_data_end+0xf8006914>
 8007390:	00c00044 	movi	r3,1
 8007394:	d8c02915 	stw	r3,164(sp)
 8007398:	dc401405 	stb	r17,80(sp)
 800739c:	d8002785 	stb	zero,158(sp)
 80073a0:	003fe906 	br	8007348 <__alt_data_end+0xf8007348>
 80073a4:	01420074 	movhi	r5,2049
 80073a8:	2953be04 	addi	r5,r5,20216
 80073ac:	d9403915 	stw	r5,228(sp)
 80073b0:	d8c02e15 	stw	r3,184(sp)
 80073b4:	1025883a 	mov	r18,r2
 80073b8:	04401e04 	movi	r17,120
 80073bc:	9d84b03a 	or	r2,r19,r22
 80073c0:	1000fc1e 	bne	r2,zero,80077b4 <___vfprintf_internal_r+0x1298>
 80073c4:	0039883a 	mov	fp,zero
 80073c8:	00800084 	movi	r2,2
 80073cc:	10803fcc 	andi	r2,r2,255
 80073d0:	00c00044 	movi	r3,1
 80073d4:	10c20f26 	beq	r2,r3,8007c14 <___vfprintf_internal_r+0x16f8>
 80073d8:	00c00084 	movi	r3,2
 80073dc:	10fd3326 	beq	r2,r3,80068ac <__alt_data_end+0xf80068ac>
 80073e0:	003e0b06 	br	8006c10 <__alt_data_end+0xf8006c10>
 80073e4:	d8c02017 	ldw	r3,128(sp)
 80073e8:	003e7106 	br	8006db0 <__alt_data_end+0xf8006db0>
 80073ec:	00801944 	movi	r2,101
 80073f0:	14407e0e 	bge	r2,r17,80075ec <___vfprintf_internal_r+0x10d0>
 80073f4:	d9003617 	ldw	r4,216(sp)
 80073f8:	d9403817 	ldw	r5,224(sp)
 80073fc:	000d883a 	mov	r6,zero
 8007400:	000f883a 	mov	r7,zero
 8007404:	d8c03c15 	stw	r3,240(sp)
 8007408:	da003d15 	stw	r8,244(sp)
 800740c:	80110b00 	call	80110b0 <__eqdf2>
 8007410:	d8c03c17 	ldw	r3,240(sp)
 8007414:	da003d17 	ldw	r8,244(sp)
 8007418:	1000f71e 	bne	r2,zero,80077f8 <___vfprintf_internal_r+0x12dc>
 800741c:	d8801f17 	ldw	r2,124(sp)
 8007420:	01020074 	movhi	r4,2049
 8007424:	2113c504 	addi	r4,r4,20244
 8007428:	18c00044 	addi	r3,r3,1
 800742c:	10800044 	addi	r2,r2,1
 8007430:	41000015 	stw	r4,0(r8)
 8007434:	01000044 	movi	r4,1
 8007438:	41000115 	stw	r4,4(r8)
 800743c:	d8c02015 	stw	r3,128(sp)
 8007440:	d8801f15 	stw	r2,124(sp)
 8007444:	010001c4 	movi	r4,7
 8007448:	2082b816 	blt	r4,r2,8007f2c <___vfprintf_internal_r+0x1a10>
 800744c:	42000204 	addi	r8,r8,8
 8007450:	d8802617 	ldw	r2,152(sp)
 8007454:	d9403317 	ldw	r5,204(sp)
 8007458:	11400216 	blt	r2,r5,8007464 <___vfprintf_internal_r+0xf48>
 800745c:	9080004c 	andi	r2,r18,1
 8007460:	103eb326 	beq	r2,zero,8006f30 <__alt_data_end+0xf8006f30>
 8007464:	d8803717 	ldw	r2,220(sp)
 8007468:	d9003417 	ldw	r4,208(sp)
 800746c:	d9403717 	ldw	r5,220(sp)
 8007470:	1887883a 	add	r3,r3,r2
 8007474:	d8801f17 	ldw	r2,124(sp)
 8007478:	41000015 	stw	r4,0(r8)
 800747c:	41400115 	stw	r5,4(r8)
 8007480:	10800044 	addi	r2,r2,1
 8007484:	d8c02015 	stw	r3,128(sp)
 8007488:	d8801f15 	stw	r2,124(sp)
 800748c:	010001c4 	movi	r4,7
 8007490:	20832916 	blt	r4,r2,8008138 <___vfprintf_internal_r+0x1c1c>
 8007494:	42000204 	addi	r8,r8,8
 8007498:	d8803317 	ldw	r2,204(sp)
 800749c:	143fffc4 	addi	r16,r2,-1
 80074a0:	043ea30e 	bge	zero,r16,8006f30 <__alt_data_end+0xf8006f30>
 80074a4:	04400404 	movi	r17,16
 80074a8:	d8801f17 	ldw	r2,124(sp)
 80074ac:	8c00880e 	bge	r17,r16,80076d0 <___vfprintf_internal_r+0x11b4>
 80074b0:	01420074 	movhi	r5,2049
 80074b4:	2953c584 	addi	r5,r5,20246
 80074b8:	d9402c15 	stw	r5,176(sp)
 80074bc:	058001c4 	movi	r22,7
 80074c0:	dcc02d17 	ldw	r19,180(sp)
 80074c4:	00000306 	br	80074d4 <___vfprintf_internal_r+0xfb8>
 80074c8:	42000204 	addi	r8,r8,8
 80074cc:	843ffc04 	addi	r16,r16,-16
 80074d0:	8c00820e 	bge	r17,r16,80076dc <___vfprintf_internal_r+0x11c0>
 80074d4:	18c00404 	addi	r3,r3,16
 80074d8:	10800044 	addi	r2,r2,1
 80074dc:	45000015 	stw	r20,0(r8)
 80074e0:	44400115 	stw	r17,4(r8)
 80074e4:	d8c02015 	stw	r3,128(sp)
 80074e8:	d8801f15 	stw	r2,124(sp)
 80074ec:	b0bff60e 	bge	r22,r2,80074c8 <__alt_data_end+0xf80074c8>
 80074f0:	d9801e04 	addi	r6,sp,120
 80074f4:	b80b883a 	mov	r5,r23
 80074f8:	9809883a 	mov	r4,r19
 80074fc:	800dcfc0 	call	800dcfc <__sprint_r>
 8007500:	103d0a1e 	bne	r2,zero,800692c <__alt_data_end+0xf800692c>
 8007504:	d8c02017 	ldw	r3,128(sp)
 8007508:	d8801f17 	ldw	r2,124(sp)
 800750c:	da000404 	addi	r8,sp,16
 8007510:	003fee06 	br	80074cc <__alt_data_end+0xf80074cc>
 8007514:	d9403117 	ldw	r5,196(sp)
 8007518:	d8802917 	ldw	r2,164(sp)
 800751c:	28adc83a 	sub	r22,r5,r2
 8007520:	05be410e 	bge	zero,r22,8006e28 <__alt_data_end+0xf8006e28>
 8007524:	07000404 	movi	fp,16
 8007528:	d8801f17 	ldw	r2,124(sp)
 800752c:	e5838f0e 	bge	fp,r22,800836c <___vfprintf_internal_r+0x1e50>
 8007530:	01420074 	movhi	r5,2049
 8007534:	2953c584 	addi	r5,r5,20246
 8007538:	dc403015 	stw	r17,192(sp)
 800753c:	d9402c15 	stw	r5,176(sp)
 8007540:	b023883a 	mov	r17,r22
 8007544:	04c001c4 	movi	r19,7
 8007548:	a82d883a 	mov	r22,r21
 800754c:	902b883a 	mov	r21,r18
 8007550:	8025883a 	mov	r18,r16
 8007554:	dc002d17 	ldw	r16,180(sp)
 8007558:	00000306 	br	8007568 <___vfprintf_internal_r+0x104c>
 800755c:	8c7ffc04 	addi	r17,r17,-16
 8007560:	42000204 	addi	r8,r8,8
 8007564:	e440110e 	bge	fp,r17,80075ac <___vfprintf_internal_r+0x1090>
 8007568:	18c00404 	addi	r3,r3,16
 800756c:	10800044 	addi	r2,r2,1
 8007570:	45000015 	stw	r20,0(r8)
 8007574:	47000115 	stw	fp,4(r8)
 8007578:	d8c02015 	stw	r3,128(sp)
 800757c:	d8801f15 	stw	r2,124(sp)
 8007580:	98bff60e 	bge	r19,r2,800755c <__alt_data_end+0xf800755c>
 8007584:	d9801e04 	addi	r6,sp,120
 8007588:	b80b883a 	mov	r5,r23
 800758c:	8009883a 	mov	r4,r16
 8007590:	800dcfc0 	call	800dcfc <__sprint_r>
 8007594:	103ce51e 	bne	r2,zero,800692c <__alt_data_end+0xf800692c>
 8007598:	8c7ffc04 	addi	r17,r17,-16
 800759c:	d8c02017 	ldw	r3,128(sp)
 80075a0:	d8801f17 	ldw	r2,124(sp)
 80075a4:	da000404 	addi	r8,sp,16
 80075a8:	e47fef16 	blt	fp,r17,8007568 <__alt_data_end+0xf8007568>
 80075ac:	9021883a 	mov	r16,r18
 80075b0:	a825883a 	mov	r18,r21
 80075b4:	b02b883a 	mov	r21,r22
 80075b8:	882d883a 	mov	r22,r17
 80075bc:	dc403017 	ldw	r17,192(sp)
 80075c0:	d9002c17 	ldw	r4,176(sp)
 80075c4:	1d87883a 	add	r3,r3,r22
 80075c8:	10800044 	addi	r2,r2,1
 80075cc:	41000015 	stw	r4,0(r8)
 80075d0:	45800115 	stw	r22,4(r8)
 80075d4:	d8c02015 	stw	r3,128(sp)
 80075d8:	d8801f15 	stw	r2,124(sp)
 80075dc:	010001c4 	movi	r4,7
 80075e0:	20818e16 	blt	r4,r2,8007c1c <___vfprintf_internal_r+0x1700>
 80075e4:	42000204 	addi	r8,r8,8
 80075e8:	003e0f06 	br	8006e28 <__alt_data_end+0xf8006e28>
 80075ec:	d9403317 	ldw	r5,204(sp)
 80075f0:	00800044 	movi	r2,1
 80075f4:	18c00044 	addi	r3,r3,1
 80075f8:	1141530e 	bge	r2,r5,8007b48 <___vfprintf_internal_r+0x162c>
 80075fc:	dc401f17 	ldw	r17,124(sp)
 8007600:	00800044 	movi	r2,1
 8007604:	40800115 	stw	r2,4(r8)
 8007608:	8c400044 	addi	r17,r17,1
 800760c:	44000015 	stw	r16,0(r8)
 8007610:	d8c02015 	stw	r3,128(sp)
 8007614:	dc401f15 	stw	r17,124(sp)
 8007618:	008001c4 	movi	r2,7
 800761c:	14416b16 	blt	r2,r17,8007bcc <___vfprintf_internal_r+0x16b0>
 8007620:	42000204 	addi	r8,r8,8
 8007624:	d8803717 	ldw	r2,220(sp)
 8007628:	d9003417 	ldw	r4,208(sp)
 800762c:	8c400044 	addi	r17,r17,1
 8007630:	10c7883a 	add	r3,r2,r3
 8007634:	40800115 	stw	r2,4(r8)
 8007638:	41000015 	stw	r4,0(r8)
 800763c:	d8c02015 	stw	r3,128(sp)
 8007640:	dc401f15 	stw	r17,124(sp)
 8007644:	008001c4 	movi	r2,7
 8007648:	14416916 	blt	r2,r17,8007bf0 <___vfprintf_internal_r+0x16d4>
 800764c:	45800204 	addi	r22,r8,8
 8007650:	d9003617 	ldw	r4,216(sp)
 8007654:	d9403817 	ldw	r5,224(sp)
 8007658:	000d883a 	mov	r6,zero
 800765c:	000f883a 	mov	r7,zero
 8007660:	d8c03c15 	stw	r3,240(sp)
 8007664:	80110b00 	call	80110b0 <__eqdf2>
 8007668:	d8c03c17 	ldw	r3,240(sp)
 800766c:	1000bc26 	beq	r2,zero,8007960 <___vfprintf_internal_r+0x1444>
 8007670:	d9403317 	ldw	r5,204(sp)
 8007674:	84000044 	addi	r16,r16,1
 8007678:	8c400044 	addi	r17,r17,1
 800767c:	28bfffc4 	addi	r2,r5,-1
 8007680:	1887883a 	add	r3,r3,r2
 8007684:	b0800115 	stw	r2,4(r22)
 8007688:	b4000015 	stw	r16,0(r22)
 800768c:	d8c02015 	stw	r3,128(sp)
 8007690:	dc401f15 	stw	r17,124(sp)
 8007694:	008001c4 	movi	r2,7
 8007698:	14414316 	blt	r2,r17,8007ba8 <___vfprintf_internal_r+0x168c>
 800769c:	b5800204 	addi	r22,r22,8
 80076a0:	d9003a17 	ldw	r4,232(sp)
 80076a4:	df0022c4 	addi	fp,sp,139
 80076a8:	8c400044 	addi	r17,r17,1
 80076ac:	20c7883a 	add	r3,r4,r3
 80076b0:	b7000015 	stw	fp,0(r22)
 80076b4:	b1000115 	stw	r4,4(r22)
 80076b8:	d8c02015 	stw	r3,128(sp)
 80076bc:	dc401f15 	stw	r17,124(sp)
 80076c0:	008001c4 	movi	r2,7
 80076c4:	14400e16 	blt	r2,r17,8007700 <___vfprintf_internal_r+0x11e4>
 80076c8:	b2000204 	addi	r8,r22,8
 80076cc:	003e1806 	br	8006f30 <__alt_data_end+0xf8006f30>
 80076d0:	01020074 	movhi	r4,2049
 80076d4:	2113c584 	addi	r4,r4,20246
 80076d8:	d9002c15 	stw	r4,176(sp)
 80076dc:	d9002c17 	ldw	r4,176(sp)
 80076e0:	1c07883a 	add	r3,r3,r16
 80076e4:	44000115 	stw	r16,4(r8)
 80076e8:	41000015 	stw	r4,0(r8)
 80076ec:	10800044 	addi	r2,r2,1
 80076f0:	d8c02015 	stw	r3,128(sp)
 80076f4:	d8801f15 	stw	r2,124(sp)
 80076f8:	010001c4 	movi	r4,7
 80076fc:	20be0b0e 	bge	r4,r2,8006f2c <__alt_data_end+0xf8006f2c>
 8007700:	d9002d17 	ldw	r4,180(sp)
 8007704:	d9801e04 	addi	r6,sp,120
 8007708:	b80b883a 	mov	r5,r23
 800770c:	800dcfc0 	call	800dcfc <__sprint_r>
 8007710:	103c861e 	bne	r2,zero,800692c <__alt_data_end+0xf800692c>
 8007714:	d8c02017 	ldw	r3,128(sp)
 8007718:	da000404 	addi	r8,sp,16
 800771c:	003e0406 	br	8006f30 <__alt_data_end+0xf8006f30>
 8007720:	d9002d17 	ldw	r4,180(sp)
 8007724:	d9801e04 	addi	r6,sp,120
 8007728:	b80b883a 	mov	r5,r23
 800772c:	800dcfc0 	call	800dcfc <__sprint_r>
 8007730:	103e3b26 	beq	r2,zero,8007020 <__alt_data_end+0xf8007020>
 8007734:	003c7d06 	br	800692c <__alt_data_end+0xf800692c>
 8007738:	d9002d17 	ldw	r4,180(sp)
 800773c:	d9801e04 	addi	r6,sp,120
 8007740:	b80b883a 	mov	r5,r23
 8007744:	800dcfc0 	call	800dcfc <__sprint_r>
 8007748:	103c781e 	bne	r2,zero,800692c <__alt_data_end+0xf800692c>
 800774c:	d8c02017 	ldw	r3,128(sp)
 8007750:	da000404 	addi	r8,sp,16
 8007754:	003de906 	br	8006efc <__alt_data_end+0xf8006efc>
 8007758:	d9002d17 	ldw	r4,180(sp)
 800775c:	d9801e04 	addi	r6,sp,120
 8007760:	b80b883a 	mov	r5,r23
 8007764:	800dcfc0 	call	800dcfc <__sprint_r>
 8007768:	103c701e 	bne	r2,zero,800692c <__alt_data_end+0xf800692c>
 800776c:	d8c02017 	ldw	r3,128(sp)
 8007770:	da000404 	addi	r8,sp,16
 8007774:	003d9b06 	br	8006de4 <__alt_data_end+0xf8006de4>
 8007778:	d9002d17 	ldw	r4,180(sp)
 800777c:	d9801e04 	addi	r6,sp,120
 8007780:	b80b883a 	mov	r5,r23
 8007784:	800dcfc0 	call	800dcfc <__sprint_r>
 8007788:	103c681e 	bne	r2,zero,800692c <__alt_data_end+0xf800692c>
 800778c:	d8c02017 	ldw	r3,128(sp)
 8007790:	da000404 	addi	r8,sp,16
 8007794:	003da106 	br	8006e1c <__alt_data_end+0xf8006e1c>
 8007798:	d9402a17 	ldw	r5,168(sp)
 800779c:	d8002785 	stb	zero,158(sp)
 80077a0:	283f0616 	blt	r5,zero,80073bc <__alt_data_end+0xf80073bc>
 80077a4:	00ffdfc4 	movi	r3,-129
 80077a8:	9d84b03a 	or	r2,r19,r22
 80077ac:	90e4703a 	and	r18,r18,r3
 80077b0:	103c3b26 	beq	r2,zero,80068a0 <__alt_data_end+0xf80068a0>
 80077b4:	0039883a 	mov	fp,zero
 80077b8:	003e5806 	br	800711c <__alt_data_end+0xf800711c>
 80077bc:	9080040c 	andi	r2,r18,16
 80077c0:	1001b326 	beq	r2,zero,8007e90 <___vfprintf_internal_r+0x1974>
 80077c4:	d8c02e17 	ldw	r3,184(sp)
 80077c8:	d9002a17 	ldw	r4,168(sp)
 80077cc:	d8002785 	stb	zero,158(sp)
 80077d0:	18800104 	addi	r2,r3,4
 80077d4:	1cc00017 	ldw	r19,0(r3)
 80077d8:	002d883a 	mov	r22,zero
 80077dc:	2001b516 	blt	r4,zero,8007eb4 <___vfprintf_internal_r+0x1998>
 80077e0:	00ffdfc4 	movi	r3,-129
 80077e4:	d8802e15 	stw	r2,184(sp)
 80077e8:	90e4703a 	and	r18,r18,r3
 80077ec:	983d0526 	beq	r19,zero,8006c04 <__alt_data_end+0xf8006c04>
 80077f0:	0039883a 	mov	fp,zero
 80077f4:	003d0806 	br	8006c18 <__alt_data_end+0xf8006c18>
 80077f8:	dc402617 	ldw	r17,152(sp)
 80077fc:	0441d30e 	bge	zero,r17,8007f4c <___vfprintf_internal_r+0x1a30>
 8007800:	dc403217 	ldw	r17,200(sp)
 8007804:	d8803317 	ldw	r2,204(sp)
 8007808:	1440010e 	bge	r2,r17,8007810 <___vfprintf_internal_r+0x12f4>
 800780c:	1023883a 	mov	r17,r2
 8007810:	04400a0e 	bge	zero,r17,800783c <___vfprintf_internal_r+0x1320>
 8007814:	d8801f17 	ldw	r2,124(sp)
 8007818:	1c47883a 	add	r3,r3,r17
 800781c:	44000015 	stw	r16,0(r8)
 8007820:	10800044 	addi	r2,r2,1
 8007824:	44400115 	stw	r17,4(r8)
 8007828:	d8c02015 	stw	r3,128(sp)
 800782c:	d8801f15 	stw	r2,124(sp)
 8007830:	010001c4 	movi	r4,7
 8007834:	20826516 	blt	r4,r2,80081cc <___vfprintf_internal_r+0x1cb0>
 8007838:	42000204 	addi	r8,r8,8
 800783c:	88026116 	blt	r17,zero,80081c4 <___vfprintf_internal_r+0x1ca8>
 8007840:	d9003217 	ldw	r4,200(sp)
 8007844:	2463c83a 	sub	r17,r4,r17
 8007848:	04407b0e 	bge	zero,r17,8007a38 <___vfprintf_internal_r+0x151c>
 800784c:	05800404 	movi	r22,16
 8007850:	d8801f17 	ldw	r2,124(sp)
 8007854:	b4419d0e 	bge	r22,r17,8007ecc <___vfprintf_internal_r+0x19b0>
 8007858:	01020074 	movhi	r4,2049
 800785c:	2113c584 	addi	r4,r4,20246
 8007860:	d9002c15 	stw	r4,176(sp)
 8007864:	070001c4 	movi	fp,7
 8007868:	dcc02d17 	ldw	r19,180(sp)
 800786c:	00000306 	br	800787c <___vfprintf_internal_r+0x1360>
 8007870:	42000204 	addi	r8,r8,8
 8007874:	8c7ffc04 	addi	r17,r17,-16
 8007878:	b441970e 	bge	r22,r17,8007ed8 <___vfprintf_internal_r+0x19bc>
 800787c:	18c00404 	addi	r3,r3,16
 8007880:	10800044 	addi	r2,r2,1
 8007884:	45000015 	stw	r20,0(r8)
 8007888:	45800115 	stw	r22,4(r8)
 800788c:	d8c02015 	stw	r3,128(sp)
 8007890:	d8801f15 	stw	r2,124(sp)
 8007894:	e0bff60e 	bge	fp,r2,8007870 <__alt_data_end+0xf8007870>
 8007898:	d9801e04 	addi	r6,sp,120
 800789c:	b80b883a 	mov	r5,r23
 80078a0:	9809883a 	mov	r4,r19
 80078a4:	800dcfc0 	call	800dcfc <__sprint_r>
 80078a8:	103c201e 	bne	r2,zero,800692c <__alt_data_end+0xf800692c>
 80078ac:	d8c02017 	ldw	r3,128(sp)
 80078b0:	d8801f17 	ldw	r2,124(sp)
 80078b4:	da000404 	addi	r8,sp,16
 80078b8:	003fee06 	br	8007874 <__alt_data_end+0xf8007874>
 80078bc:	d9002d17 	ldw	r4,180(sp)
 80078c0:	d9801e04 	addi	r6,sp,120
 80078c4:	b80b883a 	mov	r5,r23
 80078c8:	800dcfc0 	call	800dcfc <__sprint_r>
 80078cc:	103c171e 	bne	r2,zero,800692c <__alt_data_end+0xf800692c>
 80078d0:	d8c02017 	ldw	r3,128(sp)
 80078d4:	df002787 	ldb	fp,158(sp)
 80078d8:	da000404 	addi	r8,sp,16
 80078dc:	003d3406 	br	8006db0 <__alt_data_end+0xf8006db0>
 80078e0:	9080040c 	andi	r2,r18,16
 80078e4:	10016126 	beq	r2,zero,8007e6c <___vfprintf_internal_r+0x1950>
 80078e8:	d9402e17 	ldw	r5,184(sp)
 80078ec:	2cc00017 	ldw	r19,0(r5)
 80078f0:	29400104 	addi	r5,r5,4
 80078f4:	d9402e15 	stw	r5,184(sp)
 80078f8:	982dd7fa 	srai	r22,r19,31
 80078fc:	b005883a 	mov	r2,r22
 8007900:	003c5a06 	br	8006a6c <__alt_data_end+0xf8006a6c>
 8007904:	9080040c 	andi	r2,r18,16
 8007908:	10003526 	beq	r2,zero,80079e0 <___vfprintf_internal_r+0x14c4>
 800790c:	d8c02e17 	ldw	r3,184(sp)
 8007910:	d9002a17 	ldw	r4,168(sp)
 8007914:	d8002785 	stb	zero,158(sp)
 8007918:	18800104 	addi	r2,r3,4
 800791c:	1cc00017 	ldw	r19,0(r3)
 8007920:	002d883a 	mov	r22,zero
 8007924:	20003716 	blt	r4,zero,8007a04 <___vfprintf_internal_r+0x14e8>
 8007928:	00ffdfc4 	movi	r3,-129
 800792c:	d8802e15 	stw	r2,184(sp)
 8007930:	90e4703a 	and	r18,r18,r3
 8007934:	0039883a 	mov	fp,zero
 8007938:	983dd426 	beq	r19,zero,800708c <__alt_data_end+0xf800708c>
 800793c:	00800244 	movi	r2,9
 8007940:	14fc5336 	bltu	r2,r19,8006a90 <__alt_data_end+0xf8006a90>
 8007944:	d8c02817 	ldw	r3,160(sp)
 8007948:	dc001dc4 	addi	r16,sp,119
 800794c:	9cc00c04 	addi	r19,r19,48
 8007950:	1c07c83a 	sub	r3,r3,r16
 8007954:	dcc01dc5 	stb	r19,119(sp)
 8007958:	d8c02b15 	stw	r3,172(sp)
 800795c:	003cc606 	br	8006c78 <__alt_data_end+0xf8006c78>
 8007960:	d8803317 	ldw	r2,204(sp)
 8007964:	143fffc4 	addi	r16,r2,-1
 8007968:	043f4d0e 	bge	zero,r16,80076a0 <__alt_data_end+0xf80076a0>
 800796c:	07000404 	movi	fp,16
 8007970:	e400810e 	bge	fp,r16,8007b78 <___vfprintf_internal_r+0x165c>
 8007974:	01420074 	movhi	r5,2049
 8007978:	2953c584 	addi	r5,r5,20246
 800797c:	d9402c15 	stw	r5,176(sp)
 8007980:	01c001c4 	movi	r7,7
 8007984:	dcc02d17 	ldw	r19,180(sp)
 8007988:	00000306 	br	8007998 <___vfprintf_internal_r+0x147c>
 800798c:	b5800204 	addi	r22,r22,8
 8007990:	843ffc04 	addi	r16,r16,-16
 8007994:	e4007b0e 	bge	fp,r16,8007b84 <___vfprintf_internal_r+0x1668>
 8007998:	18c00404 	addi	r3,r3,16
 800799c:	8c400044 	addi	r17,r17,1
 80079a0:	b5000015 	stw	r20,0(r22)
 80079a4:	b7000115 	stw	fp,4(r22)
 80079a8:	d8c02015 	stw	r3,128(sp)
 80079ac:	dc401f15 	stw	r17,124(sp)
 80079b0:	3c7ff60e 	bge	r7,r17,800798c <__alt_data_end+0xf800798c>
 80079b4:	d9801e04 	addi	r6,sp,120
 80079b8:	b80b883a 	mov	r5,r23
 80079bc:	9809883a 	mov	r4,r19
 80079c0:	d9c03c15 	stw	r7,240(sp)
 80079c4:	800dcfc0 	call	800dcfc <__sprint_r>
 80079c8:	d9c03c17 	ldw	r7,240(sp)
 80079cc:	103bd71e 	bne	r2,zero,800692c <__alt_data_end+0xf800692c>
 80079d0:	d8c02017 	ldw	r3,128(sp)
 80079d4:	dc401f17 	ldw	r17,124(sp)
 80079d8:	dd800404 	addi	r22,sp,16
 80079dc:	003fec06 	br	8007990 <__alt_data_end+0xf8007990>
 80079e0:	9080100c 	andi	r2,r18,64
 80079e4:	d8002785 	stb	zero,158(sp)
 80079e8:	10010e26 	beq	r2,zero,8007e24 <___vfprintf_internal_r+0x1908>
 80079ec:	d9402e17 	ldw	r5,184(sp)
 80079f0:	d8c02a17 	ldw	r3,168(sp)
 80079f4:	002d883a 	mov	r22,zero
 80079f8:	28800104 	addi	r2,r5,4
 80079fc:	2cc0000b 	ldhu	r19,0(r5)
 8007a00:	183fc90e 	bge	r3,zero,8007928 <__alt_data_end+0xf8007928>
 8007a04:	d8802e15 	stw	r2,184(sp)
 8007a08:	0039883a 	mov	fp,zero
 8007a0c:	9d84b03a 	or	r2,r19,r22
 8007a10:	103c1e1e 	bne	r2,zero,8006a8c <__alt_data_end+0xf8006a8c>
 8007a14:	00800044 	movi	r2,1
 8007a18:	003e6c06 	br	80073cc <__alt_data_end+0xf80073cc>
 8007a1c:	d9002d17 	ldw	r4,180(sp)
 8007a20:	d9801e04 	addi	r6,sp,120
 8007a24:	b80b883a 	mov	r5,r23
 8007a28:	800dcfc0 	call	800dcfc <__sprint_r>
 8007a2c:	103bbf1e 	bne	r2,zero,800692c <__alt_data_end+0xf800692c>
 8007a30:	d8c02017 	ldw	r3,128(sp)
 8007a34:	da000404 	addi	r8,sp,16
 8007a38:	d9003217 	ldw	r4,200(sp)
 8007a3c:	d8802617 	ldw	r2,152(sp)
 8007a40:	d9403317 	ldw	r5,204(sp)
 8007a44:	8123883a 	add	r17,r16,r4
 8007a48:	11400216 	blt	r2,r5,8007a54 <___vfprintf_internal_r+0x1538>
 8007a4c:	9100004c 	andi	r4,r18,1
 8007a50:	20000d26 	beq	r4,zero,8007a88 <___vfprintf_internal_r+0x156c>
 8007a54:	d9003717 	ldw	r4,220(sp)
 8007a58:	d9403417 	ldw	r5,208(sp)
 8007a5c:	1907883a 	add	r3,r3,r4
 8007a60:	d9001f17 	ldw	r4,124(sp)
 8007a64:	41400015 	stw	r5,0(r8)
 8007a68:	d9403717 	ldw	r5,220(sp)
 8007a6c:	21000044 	addi	r4,r4,1
 8007a70:	d8c02015 	stw	r3,128(sp)
 8007a74:	41400115 	stw	r5,4(r8)
 8007a78:	d9001f15 	stw	r4,124(sp)
 8007a7c:	014001c4 	movi	r5,7
 8007a80:	2901e816 	blt	r5,r4,8008224 <___vfprintf_internal_r+0x1d08>
 8007a84:	42000204 	addi	r8,r8,8
 8007a88:	d9003317 	ldw	r4,204(sp)
 8007a8c:	8121883a 	add	r16,r16,r4
 8007a90:	2085c83a 	sub	r2,r4,r2
 8007a94:	8461c83a 	sub	r16,r16,r17
 8007a98:	1400010e 	bge	r2,r16,8007aa0 <___vfprintf_internal_r+0x1584>
 8007a9c:	1021883a 	mov	r16,r2
 8007aa0:	04000a0e 	bge	zero,r16,8007acc <___vfprintf_internal_r+0x15b0>
 8007aa4:	d9001f17 	ldw	r4,124(sp)
 8007aa8:	1c07883a 	add	r3,r3,r16
 8007aac:	44400015 	stw	r17,0(r8)
 8007ab0:	21000044 	addi	r4,r4,1
 8007ab4:	44000115 	stw	r16,4(r8)
 8007ab8:	d8c02015 	stw	r3,128(sp)
 8007abc:	d9001f15 	stw	r4,124(sp)
 8007ac0:	014001c4 	movi	r5,7
 8007ac4:	2901fb16 	blt	r5,r4,80082b4 <___vfprintf_internal_r+0x1d98>
 8007ac8:	42000204 	addi	r8,r8,8
 8007acc:	8001f716 	blt	r16,zero,80082ac <___vfprintf_internal_r+0x1d90>
 8007ad0:	1421c83a 	sub	r16,r2,r16
 8007ad4:	043d160e 	bge	zero,r16,8006f30 <__alt_data_end+0xf8006f30>
 8007ad8:	04400404 	movi	r17,16
 8007adc:	d8801f17 	ldw	r2,124(sp)
 8007ae0:	8c3efb0e 	bge	r17,r16,80076d0 <__alt_data_end+0xf80076d0>
 8007ae4:	01420074 	movhi	r5,2049
 8007ae8:	2953c584 	addi	r5,r5,20246
 8007aec:	d9402c15 	stw	r5,176(sp)
 8007af0:	058001c4 	movi	r22,7
 8007af4:	dcc02d17 	ldw	r19,180(sp)
 8007af8:	00000306 	br	8007b08 <___vfprintf_internal_r+0x15ec>
 8007afc:	42000204 	addi	r8,r8,8
 8007b00:	843ffc04 	addi	r16,r16,-16
 8007b04:	8c3ef50e 	bge	r17,r16,80076dc <__alt_data_end+0xf80076dc>
 8007b08:	18c00404 	addi	r3,r3,16
 8007b0c:	10800044 	addi	r2,r2,1
 8007b10:	45000015 	stw	r20,0(r8)
 8007b14:	44400115 	stw	r17,4(r8)
 8007b18:	d8c02015 	stw	r3,128(sp)
 8007b1c:	d8801f15 	stw	r2,124(sp)
 8007b20:	b0bff60e 	bge	r22,r2,8007afc <__alt_data_end+0xf8007afc>
 8007b24:	d9801e04 	addi	r6,sp,120
 8007b28:	b80b883a 	mov	r5,r23
 8007b2c:	9809883a 	mov	r4,r19
 8007b30:	800dcfc0 	call	800dcfc <__sprint_r>
 8007b34:	103b7d1e 	bne	r2,zero,800692c <__alt_data_end+0xf800692c>
 8007b38:	d8c02017 	ldw	r3,128(sp)
 8007b3c:	d8801f17 	ldw	r2,124(sp)
 8007b40:	da000404 	addi	r8,sp,16
 8007b44:	003fee06 	br	8007b00 <__alt_data_end+0xf8007b00>
 8007b48:	9088703a 	and	r4,r18,r2
 8007b4c:	203eab1e 	bne	r4,zero,80075fc <__alt_data_end+0xf80075fc>
 8007b50:	dc401f17 	ldw	r17,124(sp)
 8007b54:	40800115 	stw	r2,4(r8)
 8007b58:	44000015 	stw	r16,0(r8)
 8007b5c:	8c400044 	addi	r17,r17,1
 8007b60:	d8c02015 	stw	r3,128(sp)
 8007b64:	dc401f15 	stw	r17,124(sp)
 8007b68:	008001c4 	movi	r2,7
 8007b6c:	14400e16 	blt	r2,r17,8007ba8 <___vfprintf_internal_r+0x168c>
 8007b70:	45800204 	addi	r22,r8,8
 8007b74:	003eca06 	br	80076a0 <__alt_data_end+0xf80076a0>
 8007b78:	01020074 	movhi	r4,2049
 8007b7c:	2113c584 	addi	r4,r4,20246
 8007b80:	d9002c15 	stw	r4,176(sp)
 8007b84:	d8802c17 	ldw	r2,176(sp)
 8007b88:	1c07883a 	add	r3,r3,r16
 8007b8c:	8c400044 	addi	r17,r17,1
 8007b90:	b0800015 	stw	r2,0(r22)
 8007b94:	b4000115 	stw	r16,4(r22)
 8007b98:	d8c02015 	stw	r3,128(sp)
 8007b9c:	dc401f15 	stw	r17,124(sp)
 8007ba0:	008001c4 	movi	r2,7
 8007ba4:	147ebd0e 	bge	r2,r17,800769c <__alt_data_end+0xf800769c>
 8007ba8:	d9002d17 	ldw	r4,180(sp)
 8007bac:	d9801e04 	addi	r6,sp,120
 8007bb0:	b80b883a 	mov	r5,r23
 8007bb4:	800dcfc0 	call	800dcfc <__sprint_r>
 8007bb8:	103b5c1e 	bne	r2,zero,800692c <__alt_data_end+0xf800692c>
 8007bbc:	d8c02017 	ldw	r3,128(sp)
 8007bc0:	dc401f17 	ldw	r17,124(sp)
 8007bc4:	dd800404 	addi	r22,sp,16
 8007bc8:	003eb506 	br	80076a0 <__alt_data_end+0xf80076a0>
 8007bcc:	d9002d17 	ldw	r4,180(sp)
 8007bd0:	d9801e04 	addi	r6,sp,120
 8007bd4:	b80b883a 	mov	r5,r23
 8007bd8:	800dcfc0 	call	800dcfc <__sprint_r>
 8007bdc:	103b531e 	bne	r2,zero,800692c <__alt_data_end+0xf800692c>
 8007be0:	d8c02017 	ldw	r3,128(sp)
 8007be4:	dc401f17 	ldw	r17,124(sp)
 8007be8:	da000404 	addi	r8,sp,16
 8007bec:	003e8d06 	br	8007624 <__alt_data_end+0xf8007624>
 8007bf0:	d9002d17 	ldw	r4,180(sp)
 8007bf4:	d9801e04 	addi	r6,sp,120
 8007bf8:	b80b883a 	mov	r5,r23
 8007bfc:	800dcfc0 	call	800dcfc <__sprint_r>
 8007c00:	103b4a1e 	bne	r2,zero,800692c <__alt_data_end+0xf800692c>
 8007c04:	d8c02017 	ldw	r3,128(sp)
 8007c08:	dc401f17 	ldw	r17,124(sp)
 8007c0c:	dd800404 	addi	r22,sp,16
 8007c10:	003e8f06 	br	8007650 <__alt_data_end+0xf8007650>
 8007c14:	0027883a 	mov	r19,zero
 8007c18:	003f4a06 	br	8007944 <__alt_data_end+0xf8007944>
 8007c1c:	d9002d17 	ldw	r4,180(sp)
 8007c20:	d9801e04 	addi	r6,sp,120
 8007c24:	b80b883a 	mov	r5,r23
 8007c28:	800dcfc0 	call	800dcfc <__sprint_r>
 8007c2c:	103b3f1e 	bne	r2,zero,800692c <__alt_data_end+0xf800692c>
 8007c30:	d8c02017 	ldw	r3,128(sp)
 8007c34:	da000404 	addi	r8,sp,16
 8007c38:	003c7b06 	br	8006e28 <__alt_data_end+0xf8006e28>
 8007c3c:	d9402a17 	ldw	r5,168(sp)
 8007c40:	04e7c83a 	sub	r19,zero,r19
 8007c44:	07000b44 	movi	fp,45
 8007c48:	9804c03a 	cmpne	r2,r19,zero
 8007c4c:	05adc83a 	sub	r22,zero,r22
 8007c50:	df002785 	stb	fp,158(sp)
 8007c54:	b0adc83a 	sub	r22,r22,r2
 8007c58:	28017b16 	blt	r5,zero,8008248 <___vfprintf_internal_r+0x1d2c>
 8007c5c:	00bfdfc4 	movi	r2,-129
 8007c60:	90a4703a 	and	r18,r18,r2
 8007c64:	003b8906 	br	8006a8c <__alt_data_end+0xf8006a8c>
 8007c68:	d9003617 	ldw	r4,216(sp)
 8007c6c:	d9403817 	ldw	r5,224(sp)
 8007c70:	da003d15 	stw	r8,244(sp)
 8007c74:	800d9200 	call	800d920 <__fpclassifyd>
 8007c78:	da003d17 	ldw	r8,244(sp)
 8007c7c:	1000f026 	beq	r2,zero,8008040 <___vfprintf_internal_r+0x1b24>
 8007c80:	d9002a17 	ldw	r4,168(sp)
 8007c84:	05bff7c4 	movi	r22,-33
 8007c88:	00bfffc4 	movi	r2,-1
 8007c8c:	8dac703a 	and	r22,r17,r22
 8007c90:	20820026 	beq	r4,r2,8008494 <___vfprintf_internal_r+0x1f78>
 8007c94:	008011c4 	movi	r2,71
 8007c98:	b081f726 	beq	r22,r2,8008478 <___vfprintf_internal_r+0x1f5c>
 8007c9c:	d9003817 	ldw	r4,224(sp)
 8007ca0:	90c04014 	ori	r3,r18,256
 8007ca4:	d8c02c15 	stw	r3,176(sp)
 8007ca8:	20021516 	blt	r4,zero,8008500 <___vfprintf_internal_r+0x1fe4>
 8007cac:	dcc03817 	ldw	r19,224(sp)
 8007cb0:	d8002905 	stb	zero,164(sp)
 8007cb4:	00801984 	movi	r2,102
 8007cb8:	8881f926 	beq	r17,r2,80084a0 <___vfprintf_internal_r+0x1f84>
 8007cbc:	00801184 	movi	r2,70
 8007cc0:	88821c26 	beq	r17,r2,8008534 <___vfprintf_internal_r+0x2018>
 8007cc4:	00801144 	movi	r2,69
 8007cc8:	b081ef26 	beq	r22,r2,8008488 <___vfprintf_internal_r+0x1f6c>
 8007ccc:	d8c02a17 	ldw	r3,168(sp)
 8007cd0:	d8802104 	addi	r2,sp,132
 8007cd4:	d8800315 	stw	r2,12(sp)
 8007cd8:	d9403617 	ldw	r5,216(sp)
 8007cdc:	d8802504 	addi	r2,sp,148
 8007ce0:	d9002d17 	ldw	r4,180(sp)
 8007ce4:	d8800215 	stw	r2,8(sp)
 8007ce8:	d8802604 	addi	r2,sp,152
 8007cec:	d8c00015 	stw	r3,0(sp)
 8007cf0:	d8800115 	stw	r2,4(sp)
 8007cf4:	01c00084 	movi	r7,2
 8007cf8:	980d883a 	mov	r6,r19
 8007cfc:	d8c03c15 	stw	r3,240(sp)
 8007d00:	da003d15 	stw	r8,244(sp)
 8007d04:	8008c4c0 	call	8008c4c <_dtoa_r>
 8007d08:	1021883a 	mov	r16,r2
 8007d0c:	008019c4 	movi	r2,103
 8007d10:	d8c03c17 	ldw	r3,240(sp)
 8007d14:	da003d17 	ldw	r8,244(sp)
 8007d18:	88817126 	beq	r17,r2,80082e0 <___vfprintf_internal_r+0x1dc4>
 8007d1c:	008011c4 	movi	r2,71
 8007d20:	88829126 	beq	r17,r2,8008768 <___vfprintf_internal_r+0x224c>
 8007d24:	80f9883a 	add	fp,r16,r3
 8007d28:	d9003617 	ldw	r4,216(sp)
 8007d2c:	000d883a 	mov	r6,zero
 8007d30:	000f883a 	mov	r7,zero
 8007d34:	980b883a 	mov	r5,r19
 8007d38:	da003d15 	stw	r8,244(sp)
 8007d3c:	80110b00 	call	80110b0 <__eqdf2>
 8007d40:	da003d17 	ldw	r8,244(sp)
 8007d44:	10018d26 	beq	r2,zero,800837c <___vfprintf_internal_r+0x1e60>
 8007d48:	d8802117 	ldw	r2,132(sp)
 8007d4c:	1700062e 	bgeu	r2,fp,8007d68 <___vfprintf_internal_r+0x184c>
 8007d50:	01000c04 	movi	r4,48
 8007d54:	10c00044 	addi	r3,r2,1
 8007d58:	d8c02115 	stw	r3,132(sp)
 8007d5c:	11000005 	stb	r4,0(r2)
 8007d60:	d8802117 	ldw	r2,132(sp)
 8007d64:	173ffb36 	bltu	r2,fp,8007d54 <__alt_data_end+0xf8007d54>
 8007d68:	1405c83a 	sub	r2,r2,r16
 8007d6c:	d8803315 	stw	r2,204(sp)
 8007d70:	008011c4 	movi	r2,71
 8007d74:	b0817626 	beq	r22,r2,8008350 <___vfprintf_internal_r+0x1e34>
 8007d78:	00801944 	movi	r2,101
 8007d7c:	1442800e 	bge	r2,r17,8008780 <___vfprintf_internal_r+0x2264>
 8007d80:	d8c02617 	ldw	r3,152(sp)
 8007d84:	00801984 	movi	r2,102
 8007d88:	d8c03215 	stw	r3,200(sp)
 8007d8c:	8881fe26 	beq	r17,r2,8008588 <___vfprintf_internal_r+0x206c>
 8007d90:	d8c03217 	ldw	r3,200(sp)
 8007d94:	d9003317 	ldw	r4,204(sp)
 8007d98:	1901dd16 	blt	r3,r4,8008510 <___vfprintf_internal_r+0x1ff4>
 8007d9c:	9480004c 	andi	r18,r18,1
 8007da0:	90022b1e 	bne	r18,zero,8008650 <___vfprintf_internal_r+0x2134>
 8007da4:	1805883a 	mov	r2,r3
 8007da8:	18028316 	blt	r3,zero,80087b8 <___vfprintf_internal_r+0x229c>
 8007dac:	d8c03217 	ldw	r3,200(sp)
 8007db0:	044019c4 	movi	r17,103
 8007db4:	d8c02b15 	stw	r3,172(sp)
 8007db8:	df002907 	ldb	fp,164(sp)
 8007dbc:	e001531e 	bne	fp,zero,800830c <___vfprintf_internal_r+0x1df0>
 8007dc0:	df002783 	ldbu	fp,158(sp)
 8007dc4:	d8802915 	stw	r2,164(sp)
 8007dc8:	dc802c17 	ldw	r18,176(sp)
 8007dcc:	d8002a15 	stw	zero,168(sp)
 8007dd0:	003baf06 	br	8006c90 <__alt_data_end+0xf8006c90>
 8007dd4:	d8c02e17 	ldw	r3,184(sp)
 8007dd8:	d9002e17 	ldw	r4,184(sp)
 8007ddc:	d9402e17 	ldw	r5,184(sp)
 8007de0:	18c00017 	ldw	r3,0(r3)
 8007de4:	21000117 	ldw	r4,4(r4)
 8007de8:	29400204 	addi	r5,r5,8
 8007dec:	d8c03615 	stw	r3,216(sp)
 8007df0:	d9003815 	stw	r4,224(sp)
 8007df4:	d9402e15 	stw	r5,184(sp)
 8007df8:	003b5006 	br	8006b3c <__alt_data_end+0xf8006b3c>
 8007dfc:	ac400007 	ldb	r17,0(r21)
 8007e00:	003a2806 	br	80066a4 <__alt_data_end+0xf80066a4>
 8007e04:	9080100c 	andi	r2,r18,64
 8007e08:	1000a826 	beq	r2,zero,80080ac <___vfprintf_internal_r+0x1b90>
 8007e0c:	d8c02e17 	ldw	r3,184(sp)
 8007e10:	002d883a 	mov	r22,zero
 8007e14:	1cc0000b 	ldhu	r19,0(r3)
 8007e18:	18c00104 	addi	r3,r3,4
 8007e1c:	d8c02e15 	stw	r3,184(sp)
 8007e20:	003caf06 	br	80070e0 <__alt_data_end+0xf80070e0>
 8007e24:	d9002e17 	ldw	r4,184(sp)
 8007e28:	d9402a17 	ldw	r5,168(sp)
 8007e2c:	002d883a 	mov	r22,zero
 8007e30:	20800104 	addi	r2,r4,4
 8007e34:	24c00017 	ldw	r19,0(r4)
 8007e38:	283ebb0e 	bge	r5,zero,8007928 <__alt_data_end+0xf8007928>
 8007e3c:	003ef106 	br	8007a04 <__alt_data_end+0xf8007a04>
 8007e40:	9080040c 	andi	r2,r18,16
 8007e44:	1000921e 	bne	r2,zero,8008090 <___vfprintf_internal_r+0x1b74>
 8007e48:	9480100c 	andi	r18,r18,64
 8007e4c:	90013926 	beq	r18,zero,8008334 <___vfprintf_internal_r+0x1e18>
 8007e50:	d9402e17 	ldw	r5,184(sp)
 8007e54:	d8c02f17 	ldw	r3,188(sp)
 8007e58:	28800017 	ldw	r2,0(r5)
 8007e5c:	29400104 	addi	r5,r5,4
 8007e60:	d9402e15 	stw	r5,184(sp)
 8007e64:	10c0000d 	sth	r3,0(r2)
 8007e68:	0039e406 	br	80065fc <__alt_data_end+0xf80065fc>
 8007e6c:	9080100c 	andi	r2,r18,64
 8007e70:	10008026 	beq	r2,zero,8008074 <___vfprintf_internal_r+0x1b58>
 8007e74:	d8802e17 	ldw	r2,184(sp)
 8007e78:	14c0000f 	ldh	r19,0(r2)
 8007e7c:	10800104 	addi	r2,r2,4
 8007e80:	d8802e15 	stw	r2,184(sp)
 8007e84:	982dd7fa 	srai	r22,r19,31
 8007e88:	b005883a 	mov	r2,r22
 8007e8c:	003af706 	br	8006a6c <__alt_data_end+0xf8006a6c>
 8007e90:	9080100c 	andi	r2,r18,64
 8007e94:	d8002785 	stb	zero,158(sp)
 8007e98:	10008a1e 	bne	r2,zero,80080c4 <___vfprintf_internal_r+0x1ba8>
 8007e9c:	d9002e17 	ldw	r4,184(sp)
 8007ea0:	d9402a17 	ldw	r5,168(sp)
 8007ea4:	002d883a 	mov	r22,zero
 8007ea8:	20800104 	addi	r2,r4,4
 8007eac:	24c00017 	ldw	r19,0(r4)
 8007eb0:	283e4b0e 	bge	r5,zero,80077e0 <__alt_data_end+0xf80077e0>
 8007eb4:	9d86b03a 	or	r3,r19,r22
 8007eb8:	d8802e15 	stw	r2,184(sp)
 8007ebc:	183e4c1e 	bne	r3,zero,80077f0 <__alt_data_end+0xf80077f0>
 8007ec0:	0039883a 	mov	fp,zero
 8007ec4:	0005883a 	mov	r2,zero
 8007ec8:	003d4006 	br	80073cc <__alt_data_end+0xf80073cc>
 8007ecc:	01420074 	movhi	r5,2049
 8007ed0:	2953c584 	addi	r5,r5,20246
 8007ed4:	d9402c15 	stw	r5,176(sp)
 8007ed8:	d9402c17 	ldw	r5,176(sp)
 8007edc:	1c47883a 	add	r3,r3,r17
 8007ee0:	10800044 	addi	r2,r2,1
 8007ee4:	41400015 	stw	r5,0(r8)
 8007ee8:	44400115 	stw	r17,4(r8)
 8007eec:	d8c02015 	stw	r3,128(sp)
 8007ef0:	d8801f15 	stw	r2,124(sp)
 8007ef4:	010001c4 	movi	r4,7
 8007ef8:	20bec816 	blt	r4,r2,8007a1c <__alt_data_end+0xf8007a1c>
 8007efc:	42000204 	addi	r8,r8,8
 8007f00:	003ecd06 	br	8007a38 <__alt_data_end+0xf8007a38>
 8007f04:	d9002a17 	ldw	r4,168(sp)
 8007f08:	d8002785 	stb	zero,158(sp)
 8007f0c:	203d2d16 	blt	r4,zero,80073c4 <__alt_data_end+0xf80073c4>
 8007f10:	00bfdfc4 	movi	r2,-129
 8007f14:	90a4703a 	and	r18,r18,r2
 8007f18:	003a6106 	br	80068a0 <__alt_data_end+0xf80068a0>
 8007f1c:	01020074 	movhi	r4,2049
 8007f20:	2113c584 	addi	r4,r4,20246
 8007f24:	d9002c15 	stw	r4,176(sp)
 8007f28:	003bea06 	br	8006ed4 <__alt_data_end+0xf8006ed4>
 8007f2c:	d9002d17 	ldw	r4,180(sp)
 8007f30:	d9801e04 	addi	r6,sp,120
 8007f34:	b80b883a 	mov	r5,r23
 8007f38:	800dcfc0 	call	800dcfc <__sprint_r>
 8007f3c:	103a7b1e 	bne	r2,zero,800692c <__alt_data_end+0xf800692c>
 8007f40:	d8c02017 	ldw	r3,128(sp)
 8007f44:	da000404 	addi	r8,sp,16
 8007f48:	003d4106 	br	8007450 <__alt_data_end+0xf8007450>
 8007f4c:	d8801f17 	ldw	r2,124(sp)
 8007f50:	01420074 	movhi	r5,2049
 8007f54:	01000044 	movi	r4,1
 8007f58:	18c00044 	addi	r3,r3,1
 8007f5c:	10800044 	addi	r2,r2,1
 8007f60:	2953c504 	addi	r5,r5,20244
 8007f64:	41000115 	stw	r4,4(r8)
 8007f68:	41400015 	stw	r5,0(r8)
 8007f6c:	d8c02015 	stw	r3,128(sp)
 8007f70:	d8801f15 	stw	r2,124(sp)
 8007f74:	010001c4 	movi	r4,7
 8007f78:	20805c16 	blt	r4,r2,80080ec <___vfprintf_internal_r+0x1bd0>
 8007f7c:	42000204 	addi	r8,r8,8
 8007f80:	8800041e 	bne	r17,zero,8007f94 <___vfprintf_internal_r+0x1a78>
 8007f84:	d8803317 	ldw	r2,204(sp)
 8007f88:	1000021e 	bne	r2,zero,8007f94 <___vfprintf_internal_r+0x1a78>
 8007f8c:	9080004c 	andi	r2,r18,1
 8007f90:	103be726 	beq	r2,zero,8006f30 <__alt_data_end+0xf8006f30>
 8007f94:	d9003717 	ldw	r4,220(sp)
 8007f98:	d8801f17 	ldw	r2,124(sp)
 8007f9c:	d9403417 	ldw	r5,208(sp)
 8007fa0:	20c7883a 	add	r3,r4,r3
 8007fa4:	10800044 	addi	r2,r2,1
 8007fa8:	41000115 	stw	r4,4(r8)
 8007fac:	41400015 	stw	r5,0(r8)
 8007fb0:	d8c02015 	stw	r3,128(sp)
 8007fb4:	d8801f15 	stw	r2,124(sp)
 8007fb8:	010001c4 	movi	r4,7
 8007fbc:	20812116 	blt	r4,r2,8008444 <___vfprintf_internal_r+0x1f28>
 8007fc0:	42000204 	addi	r8,r8,8
 8007fc4:	0463c83a 	sub	r17,zero,r17
 8007fc8:	0440730e 	bge	zero,r17,8008198 <___vfprintf_internal_r+0x1c7c>
 8007fcc:	05800404 	movi	r22,16
 8007fd0:	b440860e 	bge	r22,r17,80081ec <___vfprintf_internal_r+0x1cd0>
 8007fd4:	01420074 	movhi	r5,2049
 8007fd8:	2953c584 	addi	r5,r5,20246
 8007fdc:	d9402c15 	stw	r5,176(sp)
 8007fe0:	070001c4 	movi	fp,7
 8007fe4:	dcc02d17 	ldw	r19,180(sp)
 8007fe8:	00000306 	br	8007ff8 <___vfprintf_internal_r+0x1adc>
 8007fec:	42000204 	addi	r8,r8,8
 8007ff0:	8c7ffc04 	addi	r17,r17,-16
 8007ff4:	b440800e 	bge	r22,r17,80081f8 <___vfprintf_internal_r+0x1cdc>
 8007ff8:	18c00404 	addi	r3,r3,16
 8007ffc:	10800044 	addi	r2,r2,1
 8008000:	45000015 	stw	r20,0(r8)
 8008004:	45800115 	stw	r22,4(r8)
 8008008:	d8c02015 	stw	r3,128(sp)
 800800c:	d8801f15 	stw	r2,124(sp)
 8008010:	e0bff60e 	bge	fp,r2,8007fec <__alt_data_end+0xf8007fec>
 8008014:	d9801e04 	addi	r6,sp,120
 8008018:	b80b883a 	mov	r5,r23
 800801c:	9809883a 	mov	r4,r19
 8008020:	800dcfc0 	call	800dcfc <__sprint_r>
 8008024:	103a411e 	bne	r2,zero,800692c <__alt_data_end+0xf800692c>
 8008028:	d8c02017 	ldw	r3,128(sp)
 800802c:	d8801f17 	ldw	r2,124(sp)
 8008030:	da000404 	addi	r8,sp,16
 8008034:	003fee06 	br	8007ff0 <__alt_data_end+0xf8007ff0>
 8008038:	00bfffc4 	movi	r2,-1
 800803c:	003a3f06 	br	800693c <__alt_data_end+0xf800693c>
 8008040:	008011c4 	movi	r2,71
 8008044:	1440b816 	blt	r2,r17,8008328 <___vfprintf_internal_r+0x1e0c>
 8008048:	04020074 	movhi	r16,2049
 800804c:	8413b704 	addi	r16,r16,20188
 8008050:	00c000c4 	movi	r3,3
 8008054:	00bfdfc4 	movi	r2,-129
 8008058:	d8c02915 	stw	r3,164(sp)
 800805c:	90a4703a 	and	r18,r18,r2
 8008060:	df002783 	ldbu	fp,158(sp)
 8008064:	d8c02b15 	stw	r3,172(sp)
 8008068:	d8002a15 	stw	zero,168(sp)
 800806c:	d8003215 	stw	zero,200(sp)
 8008070:	003b0706 	br	8006c90 <__alt_data_end+0xf8006c90>
 8008074:	d8c02e17 	ldw	r3,184(sp)
 8008078:	1cc00017 	ldw	r19,0(r3)
 800807c:	18c00104 	addi	r3,r3,4
 8008080:	d8c02e15 	stw	r3,184(sp)
 8008084:	982dd7fa 	srai	r22,r19,31
 8008088:	b005883a 	mov	r2,r22
 800808c:	003a7706 	br	8006a6c <__alt_data_end+0xf8006a6c>
 8008090:	d8c02e17 	ldw	r3,184(sp)
 8008094:	d9002f17 	ldw	r4,188(sp)
 8008098:	18800017 	ldw	r2,0(r3)
 800809c:	18c00104 	addi	r3,r3,4
 80080a0:	d8c02e15 	stw	r3,184(sp)
 80080a4:	11000015 	stw	r4,0(r2)
 80080a8:	00395406 	br	80065fc <__alt_data_end+0xf80065fc>
 80080ac:	d9002e17 	ldw	r4,184(sp)
 80080b0:	002d883a 	mov	r22,zero
 80080b4:	24c00017 	ldw	r19,0(r4)
 80080b8:	21000104 	addi	r4,r4,4
 80080bc:	d9002e15 	stw	r4,184(sp)
 80080c0:	003c0706 	br	80070e0 <__alt_data_end+0xf80070e0>
 80080c4:	d9402e17 	ldw	r5,184(sp)
 80080c8:	d8c02a17 	ldw	r3,168(sp)
 80080cc:	002d883a 	mov	r22,zero
 80080d0:	28800104 	addi	r2,r5,4
 80080d4:	2cc0000b 	ldhu	r19,0(r5)
 80080d8:	183dc10e 	bge	r3,zero,80077e0 <__alt_data_end+0xf80077e0>
 80080dc:	003f7506 	br	8007eb4 <__alt_data_end+0xf8007eb4>
 80080e0:	04020074 	movhi	r16,2049
 80080e4:	8413b504 	addi	r16,r16,20180
 80080e8:	003aa706 	br	8006b88 <__alt_data_end+0xf8006b88>
 80080ec:	d9002d17 	ldw	r4,180(sp)
 80080f0:	d9801e04 	addi	r6,sp,120
 80080f4:	b80b883a 	mov	r5,r23
 80080f8:	800dcfc0 	call	800dcfc <__sprint_r>
 80080fc:	103a0b1e 	bne	r2,zero,800692c <__alt_data_end+0xf800692c>
 8008100:	dc402617 	ldw	r17,152(sp)
 8008104:	d8c02017 	ldw	r3,128(sp)
 8008108:	da000404 	addi	r8,sp,16
 800810c:	003f9c06 	br	8007f80 <__alt_data_end+0xf8007f80>
 8008110:	ac400043 	ldbu	r17,1(r21)
 8008114:	84000814 	ori	r16,r16,32
 8008118:	ad400044 	addi	r21,r21,1
 800811c:	8c403fcc 	andi	r17,r17,255
 8008120:	8c40201c 	xori	r17,r17,128
 8008124:	8c7fe004 	addi	r17,r17,-128
 8008128:	00395e06 	br	80066a4 <__alt_data_end+0xf80066a4>
 800812c:	d8c02e15 	stw	r3,184(sp)
 8008130:	0039883a 	mov	fp,zero
 8008134:	003e3506 	br	8007a0c <__alt_data_end+0xf8007a0c>
 8008138:	d9002d17 	ldw	r4,180(sp)
 800813c:	d9801e04 	addi	r6,sp,120
 8008140:	b80b883a 	mov	r5,r23
 8008144:	800dcfc0 	call	800dcfc <__sprint_r>
 8008148:	1039f81e 	bne	r2,zero,800692c <__alt_data_end+0xf800692c>
 800814c:	d8c02017 	ldw	r3,128(sp)
 8008150:	da000404 	addi	r8,sp,16
 8008154:	003cd006 	br	8007498 <__alt_data_end+0xf8007498>
 8008158:	8009883a 	mov	r4,r16
 800815c:	df003d15 	stw	fp,244(sp)
 8008160:	800647c0 	call	800647c <strlen>
 8008164:	d8802b15 	stw	r2,172(sp)
 8008168:	da003d17 	ldw	r8,244(sp)
 800816c:	103c200e 	bge	r2,zero,80071f0 <__alt_data_end+0xf80071f0>
 8008170:	0005883a 	mov	r2,zero
 8008174:	003c1e06 	br	80071f0 <__alt_data_end+0xf80071f0>
 8008178:	d9002d17 	ldw	r4,180(sp)
 800817c:	d9801e04 	addi	r6,sp,120
 8008180:	b80b883a 	mov	r5,r23
 8008184:	800dcfc0 	call	800dcfc <__sprint_r>
 8008188:	1039e81e 	bne	r2,zero,800692c <__alt_data_end+0xf800692c>
 800818c:	d8c02017 	ldw	r3,128(sp)
 8008190:	d8801f17 	ldw	r2,124(sp)
 8008194:	da000404 	addi	r8,sp,16
 8008198:	d9403317 	ldw	r5,204(sp)
 800819c:	10800044 	addi	r2,r2,1
 80081a0:	44000015 	stw	r16,0(r8)
 80081a4:	28c7883a 	add	r3,r5,r3
 80081a8:	003b5b06 	br	8006f18 <__alt_data_end+0xf8006f18>
 80081ac:	01020074 	movhi	r4,2049
 80081b0:	2113c984 	addi	r4,r4,20262
 80081b4:	d9003515 	stw	r4,212(sp)
 80081b8:	003af206 	br	8006d84 <__alt_data_end+0xf8006d84>
 80081bc:	013fffc4 	movi	r4,-1
 80081c0:	003a0806 	br	80069e4 <__alt_data_end+0xf80069e4>
 80081c4:	0023883a 	mov	r17,zero
 80081c8:	003d9d06 	br	8007840 <__alt_data_end+0xf8007840>
 80081cc:	d9002d17 	ldw	r4,180(sp)
 80081d0:	d9801e04 	addi	r6,sp,120
 80081d4:	b80b883a 	mov	r5,r23
 80081d8:	800dcfc0 	call	800dcfc <__sprint_r>
 80081dc:	1039d31e 	bne	r2,zero,800692c <__alt_data_end+0xf800692c>
 80081e0:	d8c02017 	ldw	r3,128(sp)
 80081e4:	da000404 	addi	r8,sp,16
 80081e8:	003d9406 	br	800783c <__alt_data_end+0xf800783c>
 80081ec:	01020074 	movhi	r4,2049
 80081f0:	2113c584 	addi	r4,r4,20246
 80081f4:	d9002c15 	stw	r4,176(sp)
 80081f8:	d9002c17 	ldw	r4,176(sp)
 80081fc:	1c47883a 	add	r3,r3,r17
 8008200:	10800044 	addi	r2,r2,1
 8008204:	41000015 	stw	r4,0(r8)
 8008208:	44400115 	stw	r17,4(r8)
 800820c:	d8c02015 	stw	r3,128(sp)
 8008210:	d8801f15 	stw	r2,124(sp)
 8008214:	010001c4 	movi	r4,7
 8008218:	20bfd716 	blt	r4,r2,8008178 <__alt_data_end+0xf8008178>
 800821c:	42000204 	addi	r8,r8,8
 8008220:	003fdd06 	br	8008198 <__alt_data_end+0xf8008198>
 8008224:	d9002d17 	ldw	r4,180(sp)
 8008228:	d9801e04 	addi	r6,sp,120
 800822c:	b80b883a 	mov	r5,r23
 8008230:	800dcfc0 	call	800dcfc <__sprint_r>
 8008234:	1039bd1e 	bne	r2,zero,800692c <__alt_data_end+0xf800692c>
 8008238:	d8802617 	ldw	r2,152(sp)
 800823c:	d8c02017 	ldw	r3,128(sp)
 8008240:	da000404 	addi	r8,sp,16
 8008244:	003e1006 	br	8007a88 <__alt_data_end+0xf8007a88>
 8008248:	00800044 	movi	r2,1
 800824c:	10803fcc 	andi	r2,r2,255
 8008250:	00c00044 	movi	r3,1
 8008254:	10fa0d26 	beq	r2,r3,8006a8c <__alt_data_end+0xf8006a8c>
 8008258:	00c00084 	movi	r3,2
 800825c:	10fbaf26 	beq	r2,r3,800711c <__alt_data_end+0xf800711c>
 8008260:	003a6d06 	br	8006c18 <__alt_data_end+0xf8006c18>
 8008264:	01020074 	movhi	r4,2049
 8008268:	2113c984 	addi	r4,r4,20262
 800826c:	d9003515 	stw	r4,212(sp)
 8008270:	003b5406 	br	8006fc4 <__alt_data_end+0xf8006fc4>
 8008274:	d8802a17 	ldw	r2,168(sp)
 8008278:	00c00184 	movi	r3,6
 800827c:	1880012e 	bgeu	r3,r2,8008284 <___vfprintf_internal_r+0x1d68>
 8008280:	1805883a 	mov	r2,r3
 8008284:	d8802b15 	stw	r2,172(sp)
 8008288:	1000ef16 	blt	r2,zero,8008648 <___vfprintf_internal_r+0x212c>
 800828c:	04020074 	movhi	r16,2049
 8008290:	d8802915 	stw	r2,164(sp)
 8008294:	dcc02e15 	stw	r19,184(sp)
 8008298:	d8002a15 	stw	zero,168(sp)
 800829c:	d8003215 	stw	zero,200(sp)
 80082a0:	8413c304 	addi	r16,r16,20236
 80082a4:	0039883a 	mov	fp,zero
 80082a8:	003a8006 	br	8006cac <__alt_data_end+0xf8006cac>
 80082ac:	0021883a 	mov	r16,zero
 80082b0:	003e0706 	br	8007ad0 <__alt_data_end+0xf8007ad0>
 80082b4:	d9002d17 	ldw	r4,180(sp)
 80082b8:	d9801e04 	addi	r6,sp,120
 80082bc:	b80b883a 	mov	r5,r23
 80082c0:	800dcfc0 	call	800dcfc <__sprint_r>
 80082c4:	1039991e 	bne	r2,zero,800692c <__alt_data_end+0xf800692c>
 80082c8:	d8802617 	ldw	r2,152(sp)
 80082cc:	d9403317 	ldw	r5,204(sp)
 80082d0:	d8c02017 	ldw	r3,128(sp)
 80082d4:	da000404 	addi	r8,sp,16
 80082d8:	2885c83a 	sub	r2,r5,r2
 80082dc:	003dfb06 	br	8007acc <__alt_data_end+0xf8007acc>
 80082e0:	9080004c 	andi	r2,r18,1
 80082e4:	103e8f1e 	bne	r2,zero,8007d24 <__alt_data_end+0xf8007d24>
 80082e8:	d8802117 	ldw	r2,132(sp)
 80082ec:	003e9e06 	br	8007d68 <__alt_data_end+0xf8007d68>
 80082f0:	1025883a 	mov	r18,r2
 80082f4:	0039883a 	mov	fp,zero
 80082f8:	00800084 	movi	r2,2
 80082fc:	003fd306 	br	800824c <__alt_data_end+0xf800824c>
 8008300:	07000b44 	movi	fp,45
 8008304:	df002785 	stb	fp,158(sp)
 8008308:	003a1b06 	br	8006b78 <__alt_data_end+0xf8006b78>
 800830c:	00c00b44 	movi	r3,45
 8008310:	d8c02785 	stb	r3,158(sp)
 8008314:	d8802915 	stw	r2,164(sp)
 8008318:	dc802c17 	ldw	r18,176(sp)
 800831c:	d8002a15 	stw	zero,168(sp)
 8008320:	07000b44 	movi	fp,45
 8008324:	003a5e06 	br	8006ca0 <__alt_data_end+0xf8006ca0>
 8008328:	04020074 	movhi	r16,2049
 800832c:	8413b804 	addi	r16,r16,20192
 8008330:	003f4706 	br	8008050 <__alt_data_end+0xf8008050>
 8008334:	d9002e17 	ldw	r4,184(sp)
 8008338:	d9402f17 	ldw	r5,188(sp)
 800833c:	20800017 	ldw	r2,0(r4)
 8008340:	21000104 	addi	r4,r4,4
 8008344:	d9002e15 	stw	r4,184(sp)
 8008348:	11400015 	stw	r5,0(r2)
 800834c:	0038ab06 	br	80065fc <__alt_data_end+0xf80065fc>
 8008350:	dd802617 	ldw	r22,152(sp)
 8008354:	00bfff44 	movi	r2,-3
 8008358:	b0801c16 	blt	r22,r2,80083cc <___vfprintf_internal_r+0x1eb0>
 800835c:	d9402a17 	ldw	r5,168(sp)
 8008360:	2d801a16 	blt	r5,r22,80083cc <___vfprintf_internal_r+0x1eb0>
 8008364:	dd803215 	stw	r22,200(sp)
 8008368:	003e8906 	br	8007d90 <__alt_data_end+0xf8007d90>
 800836c:	01020074 	movhi	r4,2049
 8008370:	2113c584 	addi	r4,r4,20246
 8008374:	d9002c15 	stw	r4,176(sp)
 8008378:	003c9106 	br	80075c0 <__alt_data_end+0xf80075c0>
 800837c:	e005883a 	mov	r2,fp
 8008380:	003e7906 	br	8007d68 <__alt_data_end+0xf8007d68>
 8008384:	d9002a17 	ldw	r4,168(sp)
 8008388:	df002783 	ldbu	fp,158(sp)
 800838c:	dcc02e15 	stw	r19,184(sp)
 8008390:	d9002915 	stw	r4,164(sp)
 8008394:	d9002b15 	stw	r4,172(sp)
 8008398:	d8002a15 	stw	zero,168(sp)
 800839c:	d8003215 	stw	zero,200(sp)
 80083a0:	003a3b06 	br	8006c90 <__alt_data_end+0xf8006c90>
 80083a4:	9080004c 	andi	r2,r18,1
 80083a8:	0039883a 	mov	fp,zero
 80083ac:	10000426 	beq	r2,zero,80083c0 <___vfprintf_internal_r+0x1ea4>
 80083b0:	00800c04 	movi	r2,48
 80083b4:	dc001dc4 	addi	r16,sp,119
 80083b8:	d8801dc5 	stb	r2,119(sp)
 80083bc:	003b6406 	br	8007150 <__alt_data_end+0xf8007150>
 80083c0:	d8002b15 	stw	zero,172(sp)
 80083c4:	dc001e04 	addi	r16,sp,120
 80083c8:	003a2b06 	br	8006c78 <__alt_data_end+0xf8006c78>
 80083cc:	8c7fff84 	addi	r17,r17,-2
 80083d0:	b5bfffc4 	addi	r22,r22,-1
 80083d4:	dd802615 	stw	r22,152(sp)
 80083d8:	dc4022c5 	stb	r17,139(sp)
 80083dc:	b000bf16 	blt	r22,zero,80086dc <___vfprintf_internal_r+0x21c0>
 80083e0:	00800ac4 	movi	r2,43
 80083e4:	d8802305 	stb	r2,140(sp)
 80083e8:	00800244 	movi	r2,9
 80083ec:	15807016 	blt	r2,r22,80085b0 <___vfprintf_internal_r+0x2094>
 80083f0:	00800c04 	movi	r2,48
 80083f4:	b5800c04 	addi	r22,r22,48
 80083f8:	d8802345 	stb	r2,141(sp)
 80083fc:	dd802385 	stb	r22,142(sp)
 8008400:	d88023c4 	addi	r2,sp,143
 8008404:	df0022c4 	addi	fp,sp,139
 8008408:	d8c03317 	ldw	r3,204(sp)
 800840c:	1739c83a 	sub	fp,r2,fp
 8008410:	d9003317 	ldw	r4,204(sp)
 8008414:	e0c7883a 	add	r3,fp,r3
 8008418:	df003a15 	stw	fp,232(sp)
 800841c:	d8c02b15 	stw	r3,172(sp)
 8008420:	00800044 	movi	r2,1
 8008424:	1100b30e 	bge	r2,r4,80086f4 <___vfprintf_internal_r+0x21d8>
 8008428:	d8c02b17 	ldw	r3,172(sp)
 800842c:	18c00044 	addi	r3,r3,1
 8008430:	d8c02b15 	stw	r3,172(sp)
 8008434:	1805883a 	mov	r2,r3
 8008438:	1800ac16 	blt	r3,zero,80086ec <___vfprintf_internal_r+0x21d0>
 800843c:	d8003215 	stw	zero,200(sp)
 8008440:	003e5d06 	br	8007db8 <__alt_data_end+0xf8007db8>
 8008444:	d9002d17 	ldw	r4,180(sp)
 8008448:	d9801e04 	addi	r6,sp,120
 800844c:	b80b883a 	mov	r5,r23
 8008450:	800dcfc0 	call	800dcfc <__sprint_r>
 8008454:	1039351e 	bne	r2,zero,800692c <__alt_data_end+0xf800692c>
 8008458:	dc402617 	ldw	r17,152(sp)
 800845c:	d8c02017 	ldw	r3,128(sp)
 8008460:	d8801f17 	ldw	r2,124(sp)
 8008464:	da000404 	addi	r8,sp,16
 8008468:	003ed606 	br	8007fc4 <__alt_data_end+0xf8007fc4>
 800846c:	182b883a 	mov	r21,r3
 8008470:	d8002a15 	stw	zero,168(sp)
 8008474:	00388c06 	br	80066a8 <__alt_data_end+0xf80066a8>
 8008478:	d8802a17 	ldw	r2,168(sp)
 800847c:	103e071e 	bne	r2,zero,8007c9c <__alt_data_end+0xf8007c9c>
 8008480:	dc002a15 	stw	r16,168(sp)
 8008484:	003e0506 	br	8007c9c <__alt_data_end+0xf8007c9c>
 8008488:	d9002a17 	ldw	r4,168(sp)
 800848c:	20c00044 	addi	r3,r4,1
 8008490:	003e0f06 	br	8007cd0 <__alt_data_end+0xf8007cd0>
 8008494:	01400184 	movi	r5,6
 8008498:	d9402a15 	stw	r5,168(sp)
 800849c:	003dff06 	br	8007c9c <__alt_data_end+0xf8007c9c>
 80084a0:	d8802104 	addi	r2,sp,132
 80084a4:	d8800315 	stw	r2,12(sp)
 80084a8:	d8802504 	addi	r2,sp,148
 80084ac:	d8800215 	stw	r2,8(sp)
 80084b0:	d8802604 	addi	r2,sp,152
 80084b4:	d8800115 	stw	r2,4(sp)
 80084b8:	d8802a17 	ldw	r2,168(sp)
 80084bc:	d9403617 	ldw	r5,216(sp)
 80084c0:	d9002d17 	ldw	r4,180(sp)
 80084c4:	d8800015 	stw	r2,0(sp)
 80084c8:	01c000c4 	movi	r7,3
 80084cc:	980d883a 	mov	r6,r19
 80084d0:	da003d15 	stw	r8,244(sp)
 80084d4:	8008c4c0 	call	8008c4c <_dtoa_r>
 80084d8:	d8c02a17 	ldw	r3,168(sp)
 80084dc:	da003d17 	ldw	r8,244(sp)
 80084e0:	1021883a 	mov	r16,r2
 80084e4:	10f9883a 	add	fp,r2,r3
 80084e8:	81000007 	ldb	r4,0(r16)
 80084ec:	00800c04 	movi	r2,48
 80084f0:	20805e26 	beq	r4,r2,800866c <___vfprintf_internal_r+0x2150>
 80084f4:	d8c02617 	ldw	r3,152(sp)
 80084f8:	e0f9883a 	add	fp,fp,r3
 80084fc:	003e0a06 	br	8007d28 <__alt_data_end+0xf8007d28>
 8008500:	00c00b44 	movi	r3,45
 8008504:	24e0003c 	xorhi	r19,r4,32768
 8008508:	d8c02905 	stb	r3,164(sp)
 800850c:	003de906 	br	8007cb4 <__alt_data_end+0xf8007cb4>
 8008510:	d8c03217 	ldw	r3,200(sp)
 8008514:	00c07a0e 	bge	zero,r3,8008700 <___vfprintf_internal_r+0x21e4>
 8008518:	00800044 	movi	r2,1
 800851c:	d9003317 	ldw	r4,204(sp)
 8008520:	1105883a 	add	r2,r2,r4
 8008524:	d8802b15 	stw	r2,172(sp)
 8008528:	10004e16 	blt	r2,zero,8008664 <___vfprintf_internal_r+0x2148>
 800852c:	044019c4 	movi	r17,103
 8008530:	003e2106 	br	8007db8 <__alt_data_end+0xf8007db8>
 8008534:	d9002a17 	ldw	r4,168(sp)
 8008538:	d8802104 	addi	r2,sp,132
 800853c:	d8800315 	stw	r2,12(sp)
 8008540:	d9000015 	stw	r4,0(sp)
 8008544:	d8802504 	addi	r2,sp,148
 8008548:	d9403617 	ldw	r5,216(sp)
 800854c:	d9002d17 	ldw	r4,180(sp)
 8008550:	d8800215 	stw	r2,8(sp)
 8008554:	d8802604 	addi	r2,sp,152
 8008558:	d8800115 	stw	r2,4(sp)
 800855c:	01c000c4 	movi	r7,3
 8008560:	980d883a 	mov	r6,r19
 8008564:	da003d15 	stw	r8,244(sp)
 8008568:	8008c4c0 	call	8008c4c <_dtoa_r>
 800856c:	d8c02a17 	ldw	r3,168(sp)
 8008570:	da003d17 	ldw	r8,244(sp)
 8008574:	1021883a 	mov	r16,r2
 8008578:	00801184 	movi	r2,70
 800857c:	80f9883a 	add	fp,r16,r3
 8008580:	88bfd926 	beq	r17,r2,80084e8 <__alt_data_end+0xf80084e8>
 8008584:	003de806 	br	8007d28 <__alt_data_end+0xf8007d28>
 8008588:	d9002a17 	ldw	r4,168(sp)
 800858c:	00c04d0e 	bge	zero,r3,80086c4 <___vfprintf_internal_r+0x21a8>
 8008590:	2000441e 	bne	r4,zero,80086a4 <___vfprintf_internal_r+0x2188>
 8008594:	9480004c 	andi	r18,r18,1
 8008598:	9000421e 	bne	r18,zero,80086a4 <___vfprintf_internal_r+0x2188>
 800859c:	1805883a 	mov	r2,r3
 80085a0:	18006f16 	blt	r3,zero,8008760 <___vfprintf_internal_r+0x2244>
 80085a4:	d8c03217 	ldw	r3,200(sp)
 80085a8:	d8c02b15 	stw	r3,172(sp)
 80085ac:	003e0206 	br	8007db8 <__alt_data_end+0xf8007db8>
 80085b0:	df0022c4 	addi	fp,sp,139
 80085b4:	dc002a15 	stw	r16,168(sp)
 80085b8:	4027883a 	mov	r19,r8
 80085bc:	e021883a 	mov	r16,fp
 80085c0:	b009883a 	mov	r4,r22
 80085c4:	01400284 	movi	r5,10
 80085c8:	80061c00 	call	80061c0 <__modsi3>
 80085cc:	10800c04 	addi	r2,r2,48
 80085d0:	843fffc4 	addi	r16,r16,-1
 80085d4:	b009883a 	mov	r4,r22
 80085d8:	01400284 	movi	r5,10
 80085dc:	80800005 	stb	r2,0(r16)
 80085e0:	800613c0 	call	800613c <__divsi3>
 80085e4:	102d883a 	mov	r22,r2
 80085e8:	00800244 	movi	r2,9
 80085ec:	15bff416 	blt	r2,r22,80085c0 <__alt_data_end+0xf80085c0>
 80085f0:	9811883a 	mov	r8,r19
 80085f4:	b0800c04 	addi	r2,r22,48
 80085f8:	8027883a 	mov	r19,r16
 80085fc:	997fffc4 	addi	r5,r19,-1
 8008600:	98bfffc5 	stb	r2,-1(r19)
 8008604:	dc002a17 	ldw	r16,168(sp)
 8008608:	2f006d2e 	bgeu	r5,fp,80087c0 <___vfprintf_internal_r+0x22a4>
 800860c:	d9c02384 	addi	r7,sp,142
 8008610:	3ccfc83a 	sub	r7,r7,r19
 8008614:	d9002344 	addi	r4,sp,141
 8008618:	e1cf883a 	add	r7,fp,r7
 800861c:	00000106 	br	8008624 <___vfprintf_internal_r+0x2108>
 8008620:	28800003 	ldbu	r2,0(r5)
 8008624:	20800005 	stb	r2,0(r4)
 8008628:	21000044 	addi	r4,r4,1
 800862c:	29400044 	addi	r5,r5,1
 8008630:	393ffb1e 	bne	r7,r4,8008620 <__alt_data_end+0xf8008620>
 8008634:	d8802304 	addi	r2,sp,140
 8008638:	14c5c83a 	sub	r2,r2,r19
 800863c:	d8c02344 	addi	r3,sp,141
 8008640:	1885883a 	add	r2,r3,r2
 8008644:	003f7006 	br	8008408 <__alt_data_end+0xf8008408>
 8008648:	0005883a 	mov	r2,zero
 800864c:	003f0f06 	br	800828c <__alt_data_end+0xf800828c>
 8008650:	d8c03217 	ldw	r3,200(sp)
 8008654:	18c00044 	addi	r3,r3,1
 8008658:	d8c02b15 	stw	r3,172(sp)
 800865c:	1805883a 	mov	r2,r3
 8008660:	183fb20e 	bge	r3,zero,800852c <__alt_data_end+0xf800852c>
 8008664:	0005883a 	mov	r2,zero
 8008668:	003fb006 	br	800852c <__alt_data_end+0xf800852c>
 800866c:	d9003617 	ldw	r4,216(sp)
 8008670:	000d883a 	mov	r6,zero
 8008674:	000f883a 	mov	r7,zero
 8008678:	980b883a 	mov	r5,r19
 800867c:	d8c03c15 	stw	r3,240(sp)
 8008680:	da003d15 	stw	r8,244(sp)
 8008684:	80110b00 	call	80110b0 <__eqdf2>
 8008688:	d8c03c17 	ldw	r3,240(sp)
 800868c:	da003d17 	ldw	r8,244(sp)
 8008690:	103f9826 	beq	r2,zero,80084f4 <__alt_data_end+0xf80084f4>
 8008694:	00800044 	movi	r2,1
 8008698:	10c7c83a 	sub	r3,r2,r3
 800869c:	d8c02615 	stw	r3,152(sp)
 80086a0:	003f9506 	br	80084f8 <__alt_data_end+0xf80084f8>
 80086a4:	d9002a17 	ldw	r4,168(sp)
 80086a8:	d8c03217 	ldw	r3,200(sp)
 80086ac:	20800044 	addi	r2,r4,1
 80086b0:	1885883a 	add	r2,r3,r2
 80086b4:	d8802b15 	stw	r2,172(sp)
 80086b8:	103dbf0e 	bge	r2,zero,8007db8 <__alt_data_end+0xf8007db8>
 80086bc:	0005883a 	mov	r2,zero
 80086c0:	003dbd06 	br	8007db8 <__alt_data_end+0xf8007db8>
 80086c4:	2000201e 	bne	r4,zero,8008748 <___vfprintf_internal_r+0x222c>
 80086c8:	9480004c 	andi	r18,r18,1
 80086cc:	90001e1e 	bne	r18,zero,8008748 <___vfprintf_internal_r+0x222c>
 80086d0:	00800044 	movi	r2,1
 80086d4:	d8802b15 	stw	r2,172(sp)
 80086d8:	003db706 	br	8007db8 <__alt_data_end+0xf8007db8>
 80086dc:	00800b44 	movi	r2,45
 80086e0:	05adc83a 	sub	r22,zero,r22
 80086e4:	d8802305 	stb	r2,140(sp)
 80086e8:	003f3f06 	br	80083e8 <__alt_data_end+0xf80083e8>
 80086ec:	0005883a 	mov	r2,zero
 80086f0:	003f5206 	br	800843c <__alt_data_end+0xf800843c>
 80086f4:	90a4703a 	and	r18,r18,r2
 80086f8:	903f4e26 	beq	r18,zero,8008434 <__alt_data_end+0xf8008434>
 80086fc:	003f4a06 	br	8008428 <__alt_data_end+0xf8008428>
 8008700:	00800084 	movi	r2,2
 8008704:	10c5c83a 	sub	r2,r2,r3
 8008708:	003f8406 	br	800851c <__alt_data_end+0xf800851c>
 800870c:	d9402e17 	ldw	r5,184(sp)
 8008710:	d9002e17 	ldw	r4,184(sp)
 8008714:	ac400043 	ldbu	r17,1(r21)
 8008718:	29400017 	ldw	r5,0(r5)
 800871c:	20800104 	addi	r2,r4,4
 8008720:	d8802e15 	stw	r2,184(sp)
 8008724:	d9402a15 	stw	r5,168(sp)
 8008728:	182b883a 	mov	r21,r3
 800872c:	283e7b0e 	bge	r5,zero,800811c <__alt_data_end+0xf800811c>
 8008730:	8c403fcc 	andi	r17,r17,255
 8008734:	017fffc4 	movi	r5,-1
 8008738:	8c40201c 	xori	r17,r17,128
 800873c:	d9402a15 	stw	r5,168(sp)
 8008740:	8c7fe004 	addi	r17,r17,-128
 8008744:	0037d706 	br	80066a4 <__alt_data_end+0xf80066a4>
 8008748:	d8c02a17 	ldw	r3,168(sp)
 800874c:	18c00084 	addi	r3,r3,2
 8008750:	d8c02b15 	stw	r3,172(sp)
 8008754:	1805883a 	mov	r2,r3
 8008758:	183d970e 	bge	r3,zero,8007db8 <__alt_data_end+0xf8007db8>
 800875c:	003fd706 	br	80086bc <__alt_data_end+0xf80086bc>
 8008760:	0005883a 	mov	r2,zero
 8008764:	003f8f06 	br	80085a4 <__alt_data_end+0xf80085a4>
 8008768:	9080004c 	andi	r2,r18,1
 800876c:	103f821e 	bne	r2,zero,8008578 <__alt_data_end+0xf8008578>
 8008770:	d8802117 	ldw	r2,132(sp)
 8008774:	1405c83a 	sub	r2,r2,r16
 8008778:	d8803315 	stw	r2,204(sp)
 800877c:	b47ef426 	beq	r22,r17,8008350 <__alt_data_end+0xf8008350>
 8008780:	dd802617 	ldw	r22,152(sp)
 8008784:	003f1206 	br	80083d0 <__alt_data_end+0xf80083d0>
 8008788:	d8c02b03 	ldbu	r3,172(sp)
 800878c:	d8c02785 	stb	r3,158(sp)
 8008790:	0038df06 	br	8006b10 <__alt_data_end+0xf8006b10>
 8008794:	d8c02b03 	ldbu	r3,172(sp)
 8008798:	d8c02785 	stb	r3,158(sp)
 800879c:	0038aa06 	br	8006a48 <__alt_data_end+0xf8006a48>
 80087a0:	d8c02b03 	ldbu	r3,172(sp)
 80087a4:	d8c02785 	stb	r3,158(sp)
 80087a8:	003a4306 	br	80070b8 <__alt_data_end+0xf80070b8>
 80087ac:	d8c02b03 	ldbu	r3,172(sp)
 80087b0:	d8c02785 	stb	r3,158(sp)
 80087b4:	003af506 	br	800738c <__alt_data_end+0xf800738c>
 80087b8:	0005883a 	mov	r2,zero
 80087bc:	003d7b06 	br	8007dac <__alt_data_end+0xf8007dac>
 80087c0:	d8802344 	addi	r2,sp,141
 80087c4:	003f1006 	br	8008408 <__alt_data_end+0xf8008408>
 80087c8:	d8c02b03 	ldbu	r3,172(sp)
 80087cc:	d8c02785 	stb	r3,158(sp)
 80087d0:	0038fd06 	br	8006bc8 <__alt_data_end+0xf8006bc8>
 80087d4:	d8c02b03 	ldbu	r3,172(sp)
 80087d8:	d8c02785 	stb	r3,158(sp)
 80087dc:	003a9706 	br	800723c <__alt_data_end+0xf800723c>
 80087e0:	d8c02b03 	ldbu	r3,172(sp)
 80087e4:	d8c02785 	stb	r3,158(sp)
 80087e8:	003a1806 	br	800704c <__alt_data_end+0xf800704c>
 80087ec:	d8c02b03 	ldbu	r3,172(sp)
 80087f0:	d8c02785 	stb	r3,158(sp)
 80087f4:	003abe06 	br	80072f0 <__alt_data_end+0xf80072f0>

080087f8 <__vfprintf_internal>:
 80087f8:	00820074 	movhi	r2,2049
 80087fc:	109b0804 	addi	r2,r2,27680
 8008800:	300f883a 	mov	r7,r6
 8008804:	280d883a 	mov	r6,r5
 8008808:	200b883a 	mov	r5,r4
 800880c:	11000017 	ldw	r4,0(r2)
 8008810:	800651c1 	jmpi	800651c <___vfprintf_internal_r>

08008814 <__sbprintf>:
 8008814:	2880030b 	ldhu	r2,12(r5)
 8008818:	2ac01917 	ldw	r11,100(r5)
 800881c:	2a80038b 	ldhu	r10,14(r5)
 8008820:	2a400717 	ldw	r9,28(r5)
 8008824:	2a000917 	ldw	r8,36(r5)
 8008828:	defee204 	addi	sp,sp,-1144
 800882c:	00c10004 	movi	r3,1024
 8008830:	dc011a15 	stw	r16,1128(sp)
 8008834:	10bfff4c 	andi	r2,r2,65533
 8008838:	2821883a 	mov	r16,r5
 800883c:	d8cb883a 	add	r5,sp,r3
 8008840:	dc811c15 	stw	r18,1136(sp)
 8008844:	dc411b15 	stw	r17,1132(sp)
 8008848:	dfc11d15 	stw	ra,1140(sp)
 800884c:	2025883a 	mov	r18,r4
 8008850:	d881030d 	sth	r2,1036(sp)
 8008854:	dac11915 	stw	r11,1124(sp)
 8008858:	da81038d 	sth	r10,1038(sp)
 800885c:	da410715 	stw	r9,1052(sp)
 8008860:	da010915 	stw	r8,1060(sp)
 8008864:	dec10015 	stw	sp,1024(sp)
 8008868:	dec10415 	stw	sp,1040(sp)
 800886c:	d8c10215 	stw	r3,1032(sp)
 8008870:	d8c10515 	stw	r3,1044(sp)
 8008874:	d8010615 	stw	zero,1048(sp)
 8008878:	800651c0 	call	800651c <___vfprintf_internal_r>
 800887c:	1023883a 	mov	r17,r2
 8008880:	10000416 	blt	r2,zero,8008894 <__sbprintf+0x80>
 8008884:	d9410004 	addi	r5,sp,1024
 8008888:	9009883a 	mov	r4,r18
 800888c:	800a4f00 	call	800a4f0 <_fflush_r>
 8008890:	10000d1e 	bne	r2,zero,80088c8 <__sbprintf+0xb4>
 8008894:	d881030b 	ldhu	r2,1036(sp)
 8008898:	1080100c 	andi	r2,r2,64
 800889c:	10000326 	beq	r2,zero,80088ac <__sbprintf+0x98>
 80088a0:	8080030b 	ldhu	r2,12(r16)
 80088a4:	10801014 	ori	r2,r2,64
 80088a8:	8080030d 	sth	r2,12(r16)
 80088ac:	8805883a 	mov	r2,r17
 80088b0:	dfc11d17 	ldw	ra,1140(sp)
 80088b4:	dc811c17 	ldw	r18,1136(sp)
 80088b8:	dc411b17 	ldw	r17,1132(sp)
 80088bc:	dc011a17 	ldw	r16,1128(sp)
 80088c0:	dec11e04 	addi	sp,sp,1144
 80088c4:	f800283a 	ret
 80088c8:	047fffc4 	movi	r17,-1
 80088cc:	003ff106 	br	8008894 <__alt_data_end+0xf8008894>

080088d0 <__swsetup_r>:
 80088d0:	00820074 	movhi	r2,2049
 80088d4:	defffd04 	addi	sp,sp,-12
 80088d8:	109b0804 	addi	r2,r2,27680
 80088dc:	dc400115 	stw	r17,4(sp)
 80088e0:	2023883a 	mov	r17,r4
 80088e4:	11000017 	ldw	r4,0(r2)
 80088e8:	dc000015 	stw	r16,0(sp)
 80088ec:	dfc00215 	stw	ra,8(sp)
 80088f0:	2821883a 	mov	r16,r5
 80088f4:	20000226 	beq	r4,zero,8008900 <__swsetup_r+0x30>
 80088f8:	20800e17 	ldw	r2,56(r4)
 80088fc:	10003126 	beq	r2,zero,80089c4 <__swsetup_r+0xf4>
 8008900:	8080030b 	ldhu	r2,12(r16)
 8008904:	10c0020c 	andi	r3,r2,8
 8008908:	1009883a 	mov	r4,r2
 800890c:	18000f26 	beq	r3,zero,800894c <__swsetup_r+0x7c>
 8008910:	80c00417 	ldw	r3,16(r16)
 8008914:	18001526 	beq	r3,zero,800896c <__swsetup_r+0x9c>
 8008918:	1100004c 	andi	r4,r2,1
 800891c:	20001c1e 	bne	r4,zero,8008990 <__swsetup_r+0xc0>
 8008920:	1080008c 	andi	r2,r2,2
 8008924:	1000291e 	bne	r2,zero,80089cc <__swsetup_r+0xfc>
 8008928:	80800517 	ldw	r2,20(r16)
 800892c:	80800215 	stw	r2,8(r16)
 8008930:	18001c26 	beq	r3,zero,80089a4 <__swsetup_r+0xd4>
 8008934:	0005883a 	mov	r2,zero
 8008938:	dfc00217 	ldw	ra,8(sp)
 800893c:	dc400117 	ldw	r17,4(sp)
 8008940:	dc000017 	ldw	r16,0(sp)
 8008944:	dec00304 	addi	sp,sp,12
 8008948:	f800283a 	ret
 800894c:	2080040c 	andi	r2,r4,16
 8008950:	10002e26 	beq	r2,zero,8008a0c <__swsetup_r+0x13c>
 8008954:	2080010c 	andi	r2,r4,4
 8008958:	10001e1e 	bne	r2,zero,80089d4 <__swsetup_r+0x104>
 800895c:	80c00417 	ldw	r3,16(r16)
 8008960:	20800214 	ori	r2,r4,8
 8008964:	8080030d 	sth	r2,12(r16)
 8008968:	183feb1e 	bne	r3,zero,8008918 <__alt_data_end+0xf8008918>
 800896c:	1100a00c 	andi	r4,r2,640
 8008970:	01408004 	movi	r5,512
 8008974:	217fe826 	beq	r4,r5,8008918 <__alt_data_end+0xf8008918>
 8008978:	800b883a 	mov	r5,r16
 800897c:	8809883a 	mov	r4,r17
 8008980:	800b48c0 	call	800b48c <__smakebuf_r>
 8008984:	8080030b 	ldhu	r2,12(r16)
 8008988:	80c00417 	ldw	r3,16(r16)
 800898c:	003fe206 	br	8008918 <__alt_data_end+0xf8008918>
 8008990:	80800517 	ldw	r2,20(r16)
 8008994:	80000215 	stw	zero,8(r16)
 8008998:	0085c83a 	sub	r2,zero,r2
 800899c:	80800615 	stw	r2,24(r16)
 80089a0:	183fe41e 	bne	r3,zero,8008934 <__alt_data_end+0xf8008934>
 80089a4:	80c0030b 	ldhu	r3,12(r16)
 80089a8:	0005883a 	mov	r2,zero
 80089ac:	1900200c 	andi	r4,r3,128
 80089b0:	203fe126 	beq	r4,zero,8008938 <__alt_data_end+0xf8008938>
 80089b4:	18c01014 	ori	r3,r3,64
 80089b8:	80c0030d 	sth	r3,12(r16)
 80089bc:	00bfffc4 	movi	r2,-1
 80089c0:	003fdd06 	br	8008938 <__alt_data_end+0xf8008938>
 80089c4:	800a8dc0 	call	800a8dc <__sinit>
 80089c8:	003fcd06 	br	8008900 <__alt_data_end+0xf8008900>
 80089cc:	0005883a 	mov	r2,zero
 80089d0:	003fd606 	br	800892c <__alt_data_end+0xf800892c>
 80089d4:	81400c17 	ldw	r5,48(r16)
 80089d8:	28000626 	beq	r5,zero,80089f4 <__swsetup_r+0x124>
 80089dc:	80801004 	addi	r2,r16,64
 80089e0:	28800326 	beq	r5,r2,80089f0 <__swsetup_r+0x120>
 80089e4:	8809883a 	mov	r4,r17
 80089e8:	800aa500 	call	800aa50 <_free_r>
 80089ec:	8100030b 	ldhu	r4,12(r16)
 80089f0:	80000c15 	stw	zero,48(r16)
 80089f4:	80c00417 	ldw	r3,16(r16)
 80089f8:	00bff6c4 	movi	r2,-37
 80089fc:	1108703a 	and	r4,r2,r4
 8008a00:	80000115 	stw	zero,4(r16)
 8008a04:	80c00015 	stw	r3,0(r16)
 8008a08:	003fd506 	br	8008960 <__alt_data_end+0xf8008960>
 8008a0c:	00800244 	movi	r2,9
 8008a10:	88800015 	stw	r2,0(r17)
 8008a14:	20801014 	ori	r2,r4,64
 8008a18:	8080030d 	sth	r2,12(r16)
 8008a1c:	00bfffc4 	movi	r2,-1
 8008a20:	003fc506 	br	8008938 <__alt_data_end+0xf8008938>

08008a24 <quorem>:
 8008a24:	defff204 	addi	sp,sp,-56
 8008a28:	ddc00b15 	stw	r23,44(sp)
 8008a2c:	20800417 	ldw	r2,16(r4)
 8008a30:	2dc00417 	ldw	r23,16(r5)
 8008a34:	dfc00d15 	stw	ra,52(sp)
 8008a38:	df000c15 	stw	fp,48(sp)
 8008a3c:	dd800a15 	stw	r22,40(sp)
 8008a40:	dd400915 	stw	r21,36(sp)
 8008a44:	dd000815 	stw	r20,32(sp)
 8008a48:	dcc00715 	stw	r19,28(sp)
 8008a4c:	dc800615 	stw	r18,24(sp)
 8008a50:	dc400515 	stw	r17,20(sp)
 8008a54:	dc000415 	stw	r16,16(sp)
 8008a58:	15c07a16 	blt	r2,r23,8008c44 <quorem+0x220>
 8008a5c:	bdffffc4 	addi	r23,r23,-1
 8008a60:	bde9883a 	add	r20,r23,r23
 8008a64:	28c00504 	addi	r3,r5,20
 8008a68:	a529883a 	add	r20,r20,r20
 8008a6c:	1d39883a 	add	fp,r3,r20
 8008a70:	24c00504 	addi	r19,r4,20
 8008a74:	d9400215 	stw	r5,8(sp)
 8008a78:	9d29883a 	add	r20,r19,r20
 8008a7c:	e1400017 	ldw	r5,0(fp)
 8008a80:	d9000015 	stw	r4,0(sp)
 8008a84:	a1000017 	ldw	r4,0(r20)
 8008a88:	29400044 	addi	r5,r5,1
 8008a8c:	d8c00115 	stw	r3,4(sp)
 8008a90:	dd000315 	stw	r20,12(sp)
 8008a94:	80062340 	call	8006234 <__udivsi3>
 8008a98:	1025883a 	mov	r18,r2
 8008a9c:	10003026 	beq	r2,zero,8008b60 <quorem+0x13c>
 8008aa0:	dc400117 	ldw	r17,4(sp)
 8008aa4:	9829883a 	mov	r20,r19
 8008aa8:	002d883a 	mov	r22,zero
 8008aac:	0021883a 	mov	r16,zero
 8008ab0:	8d400017 	ldw	r21,0(r17)
 8008ab4:	900b883a 	mov	r5,r18
 8008ab8:	8c400104 	addi	r17,r17,4
 8008abc:	a93fffcc 	andi	r4,r21,65535
 8008ac0:	80054680 	call	8005468 <__mulsi3>
 8008ac4:	a808d43a 	srli	r4,r21,16
 8008ac8:	900b883a 	mov	r5,r18
 8008acc:	15ad883a 	add	r22,r2,r22
 8008ad0:	80054680 	call	8005468 <__mulsi3>
 8008ad4:	a1000017 	ldw	r4,0(r20)
 8008ad8:	b00cd43a 	srli	r6,r22,16
 8008adc:	b0ffffcc 	andi	r3,r22,65535
 8008ae0:	217fffcc 	andi	r5,r4,65535
 8008ae4:	2c21883a 	add	r16,r5,r16
 8008ae8:	80c7c83a 	sub	r3,r16,r3
 8008aec:	2008d43a 	srli	r4,r4,16
 8008af0:	1185883a 	add	r2,r2,r6
 8008af4:	1821d43a 	srai	r16,r3,16
 8008af8:	117fffcc 	andi	r5,r2,65535
 8008afc:	2149c83a 	sub	r4,r4,r5
 8008b00:	2421883a 	add	r16,r4,r16
 8008b04:	8008943a 	slli	r4,r16,16
 8008b08:	18ffffcc 	andi	r3,r3,65535
 8008b0c:	102cd43a 	srli	r22,r2,16
 8008b10:	20c8b03a 	or	r4,r4,r3
 8008b14:	a1000015 	stw	r4,0(r20)
 8008b18:	8021d43a 	srai	r16,r16,16
 8008b1c:	a5000104 	addi	r20,r20,4
 8008b20:	e47fe32e 	bgeu	fp,r17,8008ab0 <__alt_data_end+0xf8008ab0>
 8008b24:	d8c00317 	ldw	r3,12(sp)
 8008b28:	18800017 	ldw	r2,0(r3)
 8008b2c:	10000c1e 	bne	r2,zero,8008b60 <quorem+0x13c>
 8008b30:	18bfff04 	addi	r2,r3,-4
 8008b34:	9880082e 	bgeu	r19,r2,8008b58 <quorem+0x134>
 8008b38:	18ffff17 	ldw	r3,-4(r3)
 8008b3c:	18000326 	beq	r3,zero,8008b4c <quorem+0x128>
 8008b40:	00000506 	br	8008b58 <quorem+0x134>
 8008b44:	10c00017 	ldw	r3,0(r2)
 8008b48:	1800031e 	bne	r3,zero,8008b58 <quorem+0x134>
 8008b4c:	10bfff04 	addi	r2,r2,-4
 8008b50:	bdffffc4 	addi	r23,r23,-1
 8008b54:	98bffb36 	bltu	r19,r2,8008b44 <__alt_data_end+0xf8008b44>
 8008b58:	d8c00017 	ldw	r3,0(sp)
 8008b5c:	1dc00415 	stw	r23,16(r3)
 8008b60:	d9400217 	ldw	r5,8(sp)
 8008b64:	d9000017 	ldw	r4,0(sp)
 8008b68:	800cc880 	call	800cc88 <__mcmp>
 8008b6c:	10002816 	blt	r2,zero,8008c10 <quorem+0x1ec>
 8008b70:	dc400117 	ldw	r17,4(sp)
 8008b74:	94800044 	addi	r18,r18,1
 8008b78:	980d883a 	mov	r6,r19
 8008b7c:	0007883a 	mov	r3,zero
 8008b80:	31000017 	ldw	r4,0(r6)
 8008b84:	89400017 	ldw	r5,0(r17)
 8008b88:	31800104 	addi	r6,r6,4
 8008b8c:	20bfffcc 	andi	r2,r4,65535
 8008b90:	10c7883a 	add	r3,r2,r3
 8008b94:	28bfffcc 	andi	r2,r5,65535
 8008b98:	1885c83a 	sub	r2,r3,r2
 8008b9c:	280ad43a 	srli	r5,r5,16
 8008ba0:	2008d43a 	srli	r4,r4,16
 8008ba4:	1007d43a 	srai	r3,r2,16
 8008ba8:	10bfffcc 	andi	r2,r2,65535
 8008bac:	2149c83a 	sub	r4,r4,r5
 8008bb0:	20c9883a 	add	r4,r4,r3
 8008bb4:	200a943a 	slli	r5,r4,16
 8008bb8:	8c400104 	addi	r17,r17,4
 8008bbc:	2007d43a 	srai	r3,r4,16
 8008bc0:	2884b03a 	or	r2,r5,r2
 8008bc4:	30bfff15 	stw	r2,-4(r6)
 8008bc8:	e47fed2e 	bgeu	fp,r17,8008b80 <__alt_data_end+0xf8008b80>
 8008bcc:	bdc5883a 	add	r2,r23,r23
 8008bd0:	1085883a 	add	r2,r2,r2
 8008bd4:	9887883a 	add	r3,r19,r2
 8008bd8:	18800017 	ldw	r2,0(r3)
 8008bdc:	10000c1e 	bne	r2,zero,8008c10 <quorem+0x1ec>
 8008be0:	18bfff04 	addi	r2,r3,-4
 8008be4:	9880082e 	bgeu	r19,r2,8008c08 <quorem+0x1e4>
 8008be8:	18ffff17 	ldw	r3,-4(r3)
 8008bec:	18000326 	beq	r3,zero,8008bfc <quorem+0x1d8>
 8008bf0:	00000506 	br	8008c08 <quorem+0x1e4>
 8008bf4:	10c00017 	ldw	r3,0(r2)
 8008bf8:	1800031e 	bne	r3,zero,8008c08 <quorem+0x1e4>
 8008bfc:	10bfff04 	addi	r2,r2,-4
 8008c00:	bdffffc4 	addi	r23,r23,-1
 8008c04:	98bffb36 	bltu	r19,r2,8008bf4 <__alt_data_end+0xf8008bf4>
 8008c08:	d8c00017 	ldw	r3,0(sp)
 8008c0c:	1dc00415 	stw	r23,16(r3)
 8008c10:	9005883a 	mov	r2,r18
 8008c14:	dfc00d17 	ldw	ra,52(sp)
 8008c18:	df000c17 	ldw	fp,48(sp)
 8008c1c:	ddc00b17 	ldw	r23,44(sp)
 8008c20:	dd800a17 	ldw	r22,40(sp)
 8008c24:	dd400917 	ldw	r21,36(sp)
 8008c28:	dd000817 	ldw	r20,32(sp)
 8008c2c:	dcc00717 	ldw	r19,28(sp)
 8008c30:	dc800617 	ldw	r18,24(sp)
 8008c34:	dc400517 	ldw	r17,20(sp)
 8008c38:	dc000417 	ldw	r16,16(sp)
 8008c3c:	dec00e04 	addi	sp,sp,56
 8008c40:	f800283a 	ret
 8008c44:	0005883a 	mov	r2,zero
 8008c48:	003ff206 	br	8008c14 <__alt_data_end+0xf8008c14>

08008c4c <_dtoa_r>:
 8008c4c:	20801017 	ldw	r2,64(r4)
 8008c50:	deffde04 	addi	sp,sp,-136
 8008c54:	df002015 	stw	fp,128(sp)
 8008c58:	dcc01b15 	stw	r19,108(sp)
 8008c5c:	dc801a15 	stw	r18,104(sp)
 8008c60:	dc401915 	stw	r17,100(sp)
 8008c64:	dc001815 	stw	r16,96(sp)
 8008c68:	dfc02115 	stw	ra,132(sp)
 8008c6c:	ddc01f15 	stw	r23,124(sp)
 8008c70:	dd801e15 	stw	r22,120(sp)
 8008c74:	dd401d15 	stw	r21,116(sp)
 8008c78:	dd001c15 	stw	r20,112(sp)
 8008c7c:	d9c00315 	stw	r7,12(sp)
 8008c80:	2039883a 	mov	fp,r4
 8008c84:	3023883a 	mov	r17,r6
 8008c88:	2825883a 	mov	r18,r5
 8008c8c:	dc002417 	ldw	r16,144(sp)
 8008c90:	3027883a 	mov	r19,r6
 8008c94:	10000826 	beq	r2,zero,8008cb8 <_dtoa_r+0x6c>
 8008c98:	21801117 	ldw	r6,68(r4)
 8008c9c:	00c00044 	movi	r3,1
 8008ca0:	100b883a 	mov	r5,r2
 8008ca4:	1986983a 	sll	r3,r3,r6
 8008ca8:	11800115 	stw	r6,4(r2)
 8008cac:	10c00215 	stw	r3,8(r2)
 8008cb0:	800c3ac0 	call	800c3ac <_Bfree>
 8008cb4:	e0001015 	stw	zero,64(fp)
 8008cb8:	88002e16 	blt	r17,zero,8008d74 <_dtoa_r+0x128>
 8008cbc:	80000015 	stw	zero,0(r16)
 8008cc0:	889ffc2c 	andhi	r2,r17,32752
 8008cc4:	00dffc34 	movhi	r3,32752
 8008cc8:	10c01c26 	beq	r2,r3,8008d3c <_dtoa_r+0xf0>
 8008ccc:	000d883a 	mov	r6,zero
 8008cd0:	000f883a 	mov	r7,zero
 8008cd4:	9009883a 	mov	r4,r18
 8008cd8:	980b883a 	mov	r5,r19
 8008cdc:	80110b00 	call	80110b0 <__eqdf2>
 8008ce0:	10002b1e 	bne	r2,zero,8008d90 <_dtoa_r+0x144>
 8008ce4:	d9c02317 	ldw	r7,140(sp)
 8008ce8:	00800044 	movi	r2,1
 8008cec:	38800015 	stw	r2,0(r7)
 8008cf0:	d8802517 	ldw	r2,148(sp)
 8008cf4:	10019e26 	beq	r2,zero,8009370 <_dtoa_r+0x724>
 8008cf8:	d8c02517 	ldw	r3,148(sp)
 8008cfc:	00820074 	movhi	r2,2049
 8008d00:	1093c544 	addi	r2,r2,20245
 8008d04:	18800015 	stw	r2,0(r3)
 8008d08:	10bfffc4 	addi	r2,r2,-1
 8008d0c:	dfc02117 	ldw	ra,132(sp)
 8008d10:	df002017 	ldw	fp,128(sp)
 8008d14:	ddc01f17 	ldw	r23,124(sp)
 8008d18:	dd801e17 	ldw	r22,120(sp)
 8008d1c:	dd401d17 	ldw	r21,116(sp)
 8008d20:	dd001c17 	ldw	r20,112(sp)
 8008d24:	dcc01b17 	ldw	r19,108(sp)
 8008d28:	dc801a17 	ldw	r18,104(sp)
 8008d2c:	dc401917 	ldw	r17,100(sp)
 8008d30:	dc001817 	ldw	r16,96(sp)
 8008d34:	dec02204 	addi	sp,sp,136
 8008d38:	f800283a 	ret
 8008d3c:	d8c02317 	ldw	r3,140(sp)
 8008d40:	0089c3c4 	movi	r2,9999
 8008d44:	18800015 	stw	r2,0(r3)
 8008d48:	90017726 	beq	r18,zero,8009328 <_dtoa_r+0x6dc>
 8008d4c:	00820074 	movhi	r2,2049
 8008d50:	1093d104 	addi	r2,r2,20292
 8008d54:	d9002517 	ldw	r4,148(sp)
 8008d58:	203fec26 	beq	r4,zero,8008d0c <__alt_data_end+0xf8008d0c>
 8008d5c:	10c000c7 	ldb	r3,3(r2)
 8008d60:	1801781e 	bne	r3,zero,8009344 <_dtoa_r+0x6f8>
 8008d64:	10c000c4 	addi	r3,r2,3
 8008d68:	d9802517 	ldw	r6,148(sp)
 8008d6c:	30c00015 	stw	r3,0(r6)
 8008d70:	003fe606 	br	8008d0c <__alt_data_end+0xf8008d0c>
 8008d74:	04e00034 	movhi	r19,32768
 8008d78:	9cffffc4 	addi	r19,r19,-1
 8008d7c:	00800044 	movi	r2,1
 8008d80:	8ce6703a 	and	r19,r17,r19
 8008d84:	80800015 	stw	r2,0(r16)
 8008d88:	9823883a 	mov	r17,r19
 8008d8c:	003fcc06 	br	8008cc0 <__alt_data_end+0xf8008cc0>
 8008d90:	d8800204 	addi	r2,sp,8
 8008d94:	d8800015 	stw	r2,0(sp)
 8008d98:	d9c00104 	addi	r7,sp,4
 8008d9c:	900b883a 	mov	r5,r18
 8008da0:	980d883a 	mov	r6,r19
 8008da4:	e009883a 	mov	r4,fp
 8008da8:	8820d53a 	srli	r16,r17,20
 8008dac:	800d0540 	call	800d054 <__d2b>
 8008db0:	d8800915 	stw	r2,36(sp)
 8008db4:	8001651e 	bne	r16,zero,800934c <_dtoa_r+0x700>
 8008db8:	dd800217 	ldw	r22,8(sp)
 8008dbc:	dc000117 	ldw	r16,4(sp)
 8008dc0:	00800804 	movi	r2,32
 8008dc4:	b421883a 	add	r16,r22,r16
 8008dc8:	80c10c84 	addi	r3,r16,1074
 8008dcc:	10c2d10e 	bge	r2,r3,8009914 <_dtoa_r+0xcc8>
 8008dd0:	00801004 	movi	r2,64
 8008dd4:	81010484 	addi	r4,r16,1042
 8008dd8:	10c7c83a 	sub	r3,r2,r3
 8008ddc:	9108d83a 	srl	r4,r18,r4
 8008de0:	88e2983a 	sll	r17,r17,r3
 8008de4:	2448b03a 	or	r4,r4,r17
 8008de8:	80060300 	call	8006030 <__floatunsidf>
 8008dec:	017f8434 	movhi	r5,65040
 8008df0:	01800044 	movi	r6,1
 8008df4:	1009883a 	mov	r4,r2
 8008df8:	194b883a 	add	r5,r3,r5
 8008dfc:	843fffc4 	addi	r16,r16,-1
 8008e00:	d9801115 	stw	r6,68(sp)
 8008e04:	000d883a 	mov	r6,zero
 8008e08:	01cffe34 	movhi	r7,16376
 8008e0c:	8011a800 	call	8011a80 <__subdf3>
 8008e10:	0198dbf4 	movhi	r6,25455
 8008e14:	01cff4f4 	movhi	r7,16339
 8008e18:	3190d844 	addi	r6,r6,17249
 8008e1c:	39e1e9c4 	addi	r7,r7,-30809
 8008e20:	1009883a 	mov	r4,r2
 8008e24:	180b883a 	mov	r5,r3
 8008e28:	80112140 	call	8011214 <__muldf3>
 8008e2c:	01a2d874 	movhi	r6,35681
 8008e30:	01cff1f4 	movhi	r7,16327
 8008e34:	31b22cc4 	addi	r6,r6,-14157
 8008e38:	39e28a04 	addi	r7,r7,-30168
 8008e3c:	180b883a 	mov	r5,r3
 8008e40:	1009883a 	mov	r4,r2
 8008e44:	80108040 	call	8010804 <__adddf3>
 8008e48:	8009883a 	mov	r4,r16
 8008e4c:	1029883a 	mov	r20,r2
 8008e50:	1823883a 	mov	r17,r3
 8008e54:	8005f540 	call	8005f54 <__floatsidf>
 8008e58:	019427f4 	movhi	r6,20639
 8008e5c:	01cff4f4 	movhi	r7,16339
 8008e60:	319e7ec4 	addi	r6,r6,31227
 8008e64:	39d104c4 	addi	r7,r7,17427
 8008e68:	1009883a 	mov	r4,r2
 8008e6c:	180b883a 	mov	r5,r3
 8008e70:	80112140 	call	8011214 <__muldf3>
 8008e74:	100d883a 	mov	r6,r2
 8008e78:	180f883a 	mov	r7,r3
 8008e7c:	a009883a 	mov	r4,r20
 8008e80:	880b883a 	mov	r5,r17
 8008e84:	80108040 	call	8010804 <__adddf3>
 8008e88:	1009883a 	mov	r4,r2
 8008e8c:	180b883a 	mov	r5,r3
 8008e90:	1029883a 	mov	r20,r2
 8008e94:	1823883a 	mov	r17,r3
 8008e98:	801237c0 	call	801237c <__fixdfsi>
 8008e9c:	000d883a 	mov	r6,zero
 8008ea0:	000f883a 	mov	r7,zero
 8008ea4:	a009883a 	mov	r4,r20
 8008ea8:	880b883a 	mov	r5,r17
 8008eac:	d8800515 	stw	r2,20(sp)
 8008eb0:	8005e600 	call	8005e60 <__ledf2>
 8008eb4:	10028716 	blt	r2,zero,80098d4 <_dtoa_r+0xc88>
 8008eb8:	d8c00517 	ldw	r3,20(sp)
 8008ebc:	00800584 	movi	r2,22
 8008ec0:	10c27536 	bltu	r2,r3,8009898 <_dtoa_r+0xc4c>
 8008ec4:	180490fa 	slli	r2,r3,3
 8008ec8:	00c20074 	movhi	r3,2049
 8008ecc:	18d3ec04 	addi	r3,r3,20400
 8008ed0:	1885883a 	add	r2,r3,r2
 8008ed4:	11000017 	ldw	r4,0(r2)
 8008ed8:	11400117 	ldw	r5,4(r2)
 8008edc:	900d883a 	mov	r6,r18
 8008ee0:	980f883a 	mov	r7,r19
 8008ee4:	80111380 	call	8011138 <__gedf2>
 8008ee8:	00828d0e 	bge	zero,r2,8009920 <_dtoa_r+0xcd4>
 8008eec:	d9000517 	ldw	r4,20(sp)
 8008ef0:	d8000e15 	stw	zero,56(sp)
 8008ef4:	213fffc4 	addi	r4,r4,-1
 8008ef8:	d9000515 	stw	r4,20(sp)
 8008efc:	b42dc83a 	sub	r22,r22,r16
 8008f00:	b5bfffc4 	addi	r22,r22,-1
 8008f04:	b0026f16 	blt	r22,zero,80098c4 <_dtoa_r+0xc78>
 8008f08:	d8000815 	stw	zero,32(sp)
 8008f0c:	d9c00517 	ldw	r7,20(sp)
 8008f10:	38026416 	blt	r7,zero,80098a4 <_dtoa_r+0xc58>
 8008f14:	b1ed883a 	add	r22,r22,r7
 8008f18:	d9c00d15 	stw	r7,52(sp)
 8008f1c:	d8000a15 	stw	zero,40(sp)
 8008f20:	d9800317 	ldw	r6,12(sp)
 8008f24:	00800244 	movi	r2,9
 8008f28:	11811436 	bltu	r2,r6,800937c <_dtoa_r+0x730>
 8008f2c:	00800144 	movi	r2,5
 8008f30:	1184e10e 	bge	r2,r6,800a2b8 <_dtoa_r+0x166c>
 8008f34:	31bfff04 	addi	r6,r6,-4
 8008f38:	d9800315 	stw	r6,12(sp)
 8008f3c:	0023883a 	mov	r17,zero
 8008f40:	d9800317 	ldw	r6,12(sp)
 8008f44:	008000c4 	movi	r2,3
 8008f48:	30836726 	beq	r6,r2,8009ce8 <_dtoa_r+0x109c>
 8008f4c:	1183410e 	bge	r2,r6,8009c54 <_dtoa_r+0x1008>
 8008f50:	d9c00317 	ldw	r7,12(sp)
 8008f54:	00800104 	movi	r2,4
 8008f58:	38827c26 	beq	r7,r2,800994c <_dtoa_r+0xd00>
 8008f5c:	00800144 	movi	r2,5
 8008f60:	3884c41e 	bne	r7,r2,800a274 <_dtoa_r+0x1628>
 8008f64:	00800044 	movi	r2,1
 8008f68:	d8800b15 	stw	r2,44(sp)
 8008f6c:	d8c00517 	ldw	r3,20(sp)
 8008f70:	d9002217 	ldw	r4,136(sp)
 8008f74:	1907883a 	add	r3,r3,r4
 8008f78:	19800044 	addi	r6,r3,1
 8008f7c:	d8c00c15 	stw	r3,48(sp)
 8008f80:	d9800615 	stw	r6,24(sp)
 8008f84:	0183a40e 	bge	zero,r6,8009e18 <_dtoa_r+0x11cc>
 8008f88:	d9800617 	ldw	r6,24(sp)
 8008f8c:	3021883a 	mov	r16,r6
 8008f90:	e0001115 	stw	zero,68(fp)
 8008f94:	008005c4 	movi	r2,23
 8008f98:	1184c92e 	bgeu	r2,r6,800a2c0 <_dtoa_r+0x1674>
 8008f9c:	00c00044 	movi	r3,1
 8008fa0:	00800104 	movi	r2,4
 8008fa4:	1085883a 	add	r2,r2,r2
 8008fa8:	11000504 	addi	r4,r2,20
 8008fac:	180b883a 	mov	r5,r3
 8008fb0:	18c00044 	addi	r3,r3,1
 8008fb4:	313ffb2e 	bgeu	r6,r4,8008fa4 <__alt_data_end+0xf8008fa4>
 8008fb8:	e1401115 	stw	r5,68(fp)
 8008fbc:	e009883a 	mov	r4,fp
 8008fc0:	800c3040 	call	800c304 <_Balloc>
 8008fc4:	d8800715 	stw	r2,28(sp)
 8008fc8:	e0801015 	stw	r2,64(fp)
 8008fcc:	00800384 	movi	r2,14
 8008fd0:	1400f736 	bltu	r2,r16,80093b0 <_dtoa_r+0x764>
 8008fd4:	8800f626 	beq	r17,zero,80093b0 <_dtoa_r+0x764>
 8008fd8:	d9c00517 	ldw	r7,20(sp)
 8008fdc:	01c39a0e 	bge	zero,r7,8009e48 <_dtoa_r+0x11fc>
 8008fe0:	388003cc 	andi	r2,r7,15
 8008fe4:	100490fa 	slli	r2,r2,3
 8008fe8:	382bd13a 	srai	r21,r7,4
 8008fec:	00c20074 	movhi	r3,2049
 8008ff0:	18d3ec04 	addi	r3,r3,20400
 8008ff4:	1885883a 	add	r2,r3,r2
 8008ff8:	a8c0040c 	andi	r3,r21,16
 8008ffc:	12400017 	ldw	r9,0(r2)
 8009000:	12000117 	ldw	r8,4(r2)
 8009004:	18037926 	beq	r3,zero,8009dec <_dtoa_r+0x11a0>
 8009008:	00820074 	movhi	r2,2049
 800900c:	1093e204 	addi	r2,r2,20360
 8009010:	11800817 	ldw	r6,32(r2)
 8009014:	11c00917 	ldw	r7,36(r2)
 8009018:	9009883a 	mov	r4,r18
 800901c:	980b883a 	mov	r5,r19
 8009020:	da001715 	stw	r8,92(sp)
 8009024:	da401615 	stw	r9,88(sp)
 8009028:	80054900 	call	8005490 <__divdf3>
 800902c:	da001717 	ldw	r8,92(sp)
 8009030:	da401617 	ldw	r9,88(sp)
 8009034:	ad4003cc 	andi	r21,r21,15
 8009038:	040000c4 	movi	r16,3
 800903c:	1023883a 	mov	r17,r2
 8009040:	1829883a 	mov	r20,r3
 8009044:	a8001126 	beq	r21,zero,800908c <_dtoa_r+0x440>
 8009048:	05c20074 	movhi	r23,2049
 800904c:	bdd3e204 	addi	r23,r23,20360
 8009050:	4805883a 	mov	r2,r9
 8009054:	4007883a 	mov	r3,r8
 8009058:	a980004c 	andi	r6,r21,1
 800905c:	1009883a 	mov	r4,r2
 8009060:	a82bd07a 	srai	r21,r21,1
 8009064:	180b883a 	mov	r5,r3
 8009068:	30000426 	beq	r6,zero,800907c <_dtoa_r+0x430>
 800906c:	b9800017 	ldw	r6,0(r23)
 8009070:	b9c00117 	ldw	r7,4(r23)
 8009074:	84000044 	addi	r16,r16,1
 8009078:	80112140 	call	8011214 <__muldf3>
 800907c:	bdc00204 	addi	r23,r23,8
 8009080:	a83ff51e 	bne	r21,zero,8009058 <__alt_data_end+0xf8009058>
 8009084:	1013883a 	mov	r9,r2
 8009088:	1811883a 	mov	r8,r3
 800908c:	480d883a 	mov	r6,r9
 8009090:	400f883a 	mov	r7,r8
 8009094:	8809883a 	mov	r4,r17
 8009098:	a00b883a 	mov	r5,r20
 800909c:	80054900 	call	8005490 <__divdf3>
 80090a0:	d8800f15 	stw	r2,60(sp)
 80090a4:	d8c01015 	stw	r3,64(sp)
 80090a8:	d8c00e17 	ldw	r3,56(sp)
 80090ac:	18000626 	beq	r3,zero,80090c8 <_dtoa_r+0x47c>
 80090b0:	d9000f17 	ldw	r4,60(sp)
 80090b4:	d9401017 	ldw	r5,64(sp)
 80090b8:	000d883a 	mov	r6,zero
 80090bc:	01cffc34 	movhi	r7,16368
 80090c0:	8005e600 	call	8005e60 <__ledf2>
 80090c4:	10040b16 	blt	r2,zero,800a0f4 <_dtoa_r+0x14a8>
 80090c8:	8009883a 	mov	r4,r16
 80090cc:	8005f540 	call	8005f54 <__floatsidf>
 80090d0:	d9800f17 	ldw	r6,60(sp)
 80090d4:	d9c01017 	ldw	r7,64(sp)
 80090d8:	1009883a 	mov	r4,r2
 80090dc:	180b883a 	mov	r5,r3
 80090e0:	80112140 	call	8011214 <__muldf3>
 80090e4:	000d883a 	mov	r6,zero
 80090e8:	01d00734 	movhi	r7,16412
 80090ec:	1009883a 	mov	r4,r2
 80090f0:	180b883a 	mov	r5,r3
 80090f4:	80108040 	call	8010804 <__adddf3>
 80090f8:	1021883a 	mov	r16,r2
 80090fc:	d8800617 	ldw	r2,24(sp)
 8009100:	047f3034 	movhi	r17,64704
 8009104:	1c63883a 	add	r17,r3,r17
 8009108:	10031826 	beq	r2,zero,8009d6c <_dtoa_r+0x1120>
 800910c:	d8c00517 	ldw	r3,20(sp)
 8009110:	db000617 	ldw	r12,24(sp)
 8009114:	d8c01315 	stw	r3,76(sp)
 8009118:	d9000b17 	ldw	r4,44(sp)
 800911c:	20038f26 	beq	r4,zero,8009f5c <_dtoa_r+0x1310>
 8009120:	60bfffc4 	addi	r2,r12,-1
 8009124:	100490fa 	slli	r2,r2,3
 8009128:	00c20074 	movhi	r3,2049
 800912c:	18d3ec04 	addi	r3,r3,20400
 8009130:	1885883a 	add	r2,r3,r2
 8009134:	11800017 	ldw	r6,0(r2)
 8009138:	11c00117 	ldw	r7,4(r2)
 800913c:	d8800717 	ldw	r2,28(sp)
 8009140:	0009883a 	mov	r4,zero
 8009144:	014ff834 	movhi	r5,16352
 8009148:	db001615 	stw	r12,88(sp)
 800914c:	15c00044 	addi	r23,r2,1
 8009150:	80054900 	call	8005490 <__divdf3>
 8009154:	800d883a 	mov	r6,r16
 8009158:	880f883a 	mov	r7,r17
 800915c:	1009883a 	mov	r4,r2
 8009160:	180b883a 	mov	r5,r3
 8009164:	8011a800 	call	8011a80 <__subdf3>
 8009168:	d9401017 	ldw	r5,64(sp)
 800916c:	d9000f17 	ldw	r4,60(sp)
 8009170:	102b883a 	mov	r21,r2
 8009174:	d8c01215 	stw	r3,72(sp)
 8009178:	801237c0 	call	801237c <__fixdfsi>
 800917c:	1009883a 	mov	r4,r2
 8009180:	1029883a 	mov	r20,r2
 8009184:	8005f540 	call	8005f54 <__floatsidf>
 8009188:	d9000f17 	ldw	r4,60(sp)
 800918c:	d9401017 	ldw	r5,64(sp)
 8009190:	100d883a 	mov	r6,r2
 8009194:	180f883a 	mov	r7,r3
 8009198:	8011a800 	call	8011a80 <__subdf3>
 800919c:	1823883a 	mov	r17,r3
 80091a0:	d8c00717 	ldw	r3,28(sp)
 80091a4:	d9401217 	ldw	r5,72(sp)
 80091a8:	a2000c04 	addi	r8,r20,48
 80091ac:	1021883a 	mov	r16,r2
 80091b0:	1a000005 	stb	r8,0(r3)
 80091b4:	800d883a 	mov	r6,r16
 80091b8:	880f883a 	mov	r7,r17
 80091bc:	a809883a 	mov	r4,r21
 80091c0:	4029883a 	mov	r20,r8
 80091c4:	80111380 	call	8011138 <__gedf2>
 80091c8:	00841d16 	blt	zero,r2,800a240 <_dtoa_r+0x15f4>
 80091cc:	800d883a 	mov	r6,r16
 80091d0:	880f883a 	mov	r7,r17
 80091d4:	0009883a 	mov	r4,zero
 80091d8:	014ffc34 	movhi	r5,16368
 80091dc:	8011a800 	call	8011a80 <__subdf3>
 80091e0:	d9401217 	ldw	r5,72(sp)
 80091e4:	100d883a 	mov	r6,r2
 80091e8:	180f883a 	mov	r7,r3
 80091ec:	a809883a 	mov	r4,r21
 80091f0:	80111380 	call	8011138 <__gedf2>
 80091f4:	db001617 	ldw	r12,88(sp)
 80091f8:	00840e16 	blt	zero,r2,800a234 <_dtoa_r+0x15e8>
 80091fc:	00800044 	movi	r2,1
 8009200:	13006b0e 	bge	r2,r12,80093b0 <_dtoa_r+0x764>
 8009204:	d9000717 	ldw	r4,28(sp)
 8009208:	dd800f15 	stw	r22,60(sp)
 800920c:	dcc01015 	stw	r19,64(sp)
 8009210:	2319883a 	add	r12,r4,r12
 8009214:	dcc01217 	ldw	r19,72(sp)
 8009218:	602d883a 	mov	r22,r12
 800921c:	dc801215 	stw	r18,72(sp)
 8009220:	b825883a 	mov	r18,r23
 8009224:	00000906 	br	800924c <_dtoa_r+0x600>
 8009228:	8011a800 	call	8011a80 <__subdf3>
 800922c:	a80d883a 	mov	r6,r21
 8009230:	980f883a 	mov	r7,r19
 8009234:	1009883a 	mov	r4,r2
 8009238:	180b883a 	mov	r5,r3
 800923c:	8005e600 	call	8005e60 <__ledf2>
 8009240:	1003e816 	blt	r2,zero,800a1e4 <_dtoa_r+0x1598>
 8009244:	b825883a 	mov	r18,r23
 8009248:	bd83e926 	beq	r23,r22,800a1f0 <_dtoa_r+0x15a4>
 800924c:	a809883a 	mov	r4,r21
 8009250:	980b883a 	mov	r5,r19
 8009254:	000d883a 	mov	r6,zero
 8009258:	01d00934 	movhi	r7,16420
 800925c:	80112140 	call	8011214 <__muldf3>
 8009260:	000d883a 	mov	r6,zero
 8009264:	01d00934 	movhi	r7,16420
 8009268:	8009883a 	mov	r4,r16
 800926c:	880b883a 	mov	r5,r17
 8009270:	102b883a 	mov	r21,r2
 8009274:	1827883a 	mov	r19,r3
 8009278:	80112140 	call	8011214 <__muldf3>
 800927c:	180b883a 	mov	r5,r3
 8009280:	1009883a 	mov	r4,r2
 8009284:	1821883a 	mov	r16,r3
 8009288:	1023883a 	mov	r17,r2
 800928c:	801237c0 	call	801237c <__fixdfsi>
 8009290:	1009883a 	mov	r4,r2
 8009294:	1029883a 	mov	r20,r2
 8009298:	8005f540 	call	8005f54 <__floatsidf>
 800929c:	8809883a 	mov	r4,r17
 80092a0:	800b883a 	mov	r5,r16
 80092a4:	100d883a 	mov	r6,r2
 80092a8:	180f883a 	mov	r7,r3
 80092ac:	8011a800 	call	8011a80 <__subdf3>
 80092b0:	a5000c04 	addi	r20,r20,48
 80092b4:	a80d883a 	mov	r6,r21
 80092b8:	980f883a 	mov	r7,r19
 80092bc:	1009883a 	mov	r4,r2
 80092c0:	180b883a 	mov	r5,r3
 80092c4:	95000005 	stb	r20,0(r18)
 80092c8:	1021883a 	mov	r16,r2
 80092cc:	1823883a 	mov	r17,r3
 80092d0:	8005e600 	call	8005e60 <__ledf2>
 80092d4:	bdc00044 	addi	r23,r23,1
 80092d8:	800d883a 	mov	r6,r16
 80092dc:	880f883a 	mov	r7,r17
 80092e0:	0009883a 	mov	r4,zero
 80092e4:	014ffc34 	movhi	r5,16368
 80092e8:	103fcf0e 	bge	r2,zero,8009228 <__alt_data_end+0xf8009228>
 80092ec:	d8c01317 	ldw	r3,76(sp)
 80092f0:	d8c00515 	stw	r3,20(sp)
 80092f4:	d9400917 	ldw	r5,36(sp)
 80092f8:	e009883a 	mov	r4,fp
 80092fc:	800c3ac0 	call	800c3ac <_Bfree>
 8009300:	d9000517 	ldw	r4,20(sp)
 8009304:	d9802317 	ldw	r6,140(sp)
 8009308:	d9c02517 	ldw	r7,148(sp)
 800930c:	b8000005 	stb	zero,0(r23)
 8009310:	20800044 	addi	r2,r4,1
 8009314:	30800015 	stw	r2,0(r6)
 8009318:	3802aa26 	beq	r7,zero,8009dc4 <_dtoa_r+0x1178>
 800931c:	3dc00015 	stw	r23,0(r7)
 8009320:	d8800717 	ldw	r2,28(sp)
 8009324:	003e7906 	br	8008d0c <__alt_data_end+0xf8008d0c>
 8009328:	00800434 	movhi	r2,16
 800932c:	10bfffc4 	addi	r2,r2,-1
 8009330:	88a2703a 	and	r17,r17,r2
 8009334:	883e851e 	bne	r17,zero,8008d4c <__alt_data_end+0xf8008d4c>
 8009338:	00820074 	movhi	r2,2049
 800933c:	1093ce04 	addi	r2,r2,20280
 8009340:	003e8406 	br	8008d54 <__alt_data_end+0xf8008d54>
 8009344:	10c00204 	addi	r3,r2,8
 8009348:	003e8706 	br	8008d68 <__alt_data_end+0xf8008d68>
 800934c:	01400434 	movhi	r5,16
 8009350:	297fffc4 	addi	r5,r5,-1
 8009354:	994a703a 	and	r5,r19,r5
 8009358:	9009883a 	mov	r4,r18
 800935c:	843f0044 	addi	r16,r16,-1023
 8009360:	294ffc34 	orhi	r5,r5,16368
 8009364:	dd800217 	ldw	r22,8(sp)
 8009368:	d8001115 	stw	zero,68(sp)
 800936c:	003ea506 	br	8008e04 <__alt_data_end+0xf8008e04>
 8009370:	00820074 	movhi	r2,2049
 8009374:	1093c504 	addi	r2,r2,20244
 8009378:	003e6406 	br	8008d0c <__alt_data_end+0xf8008d0c>
 800937c:	e0001115 	stw	zero,68(fp)
 8009380:	000b883a 	mov	r5,zero
 8009384:	e009883a 	mov	r4,fp
 8009388:	800c3040 	call	800c304 <_Balloc>
 800938c:	01bfffc4 	movi	r6,-1
 8009390:	01c00044 	movi	r7,1
 8009394:	d8800715 	stw	r2,28(sp)
 8009398:	d9800c15 	stw	r6,48(sp)
 800939c:	e0801015 	stw	r2,64(fp)
 80093a0:	d8000315 	stw	zero,12(sp)
 80093a4:	d9c00b15 	stw	r7,44(sp)
 80093a8:	d9800615 	stw	r6,24(sp)
 80093ac:	d8002215 	stw	zero,136(sp)
 80093b0:	d8800117 	ldw	r2,4(sp)
 80093b4:	10008916 	blt	r2,zero,80095dc <_dtoa_r+0x990>
 80093b8:	d9000517 	ldw	r4,20(sp)
 80093bc:	00c00384 	movi	r3,14
 80093c0:	19008616 	blt	r3,r4,80095dc <_dtoa_r+0x990>
 80093c4:	200490fa 	slli	r2,r4,3
 80093c8:	00c20074 	movhi	r3,2049
 80093cc:	d9802217 	ldw	r6,136(sp)
 80093d0:	18d3ec04 	addi	r3,r3,20400
 80093d4:	1885883a 	add	r2,r3,r2
 80093d8:	14000017 	ldw	r16,0(r2)
 80093dc:	14400117 	ldw	r17,4(r2)
 80093e0:	30016316 	blt	r6,zero,8009970 <_dtoa_r+0xd24>
 80093e4:	800d883a 	mov	r6,r16
 80093e8:	880f883a 	mov	r7,r17
 80093ec:	9009883a 	mov	r4,r18
 80093f0:	980b883a 	mov	r5,r19
 80093f4:	80054900 	call	8005490 <__divdf3>
 80093f8:	180b883a 	mov	r5,r3
 80093fc:	1009883a 	mov	r4,r2
 8009400:	801237c0 	call	801237c <__fixdfsi>
 8009404:	1009883a 	mov	r4,r2
 8009408:	102b883a 	mov	r21,r2
 800940c:	8005f540 	call	8005f54 <__floatsidf>
 8009410:	800d883a 	mov	r6,r16
 8009414:	880f883a 	mov	r7,r17
 8009418:	1009883a 	mov	r4,r2
 800941c:	180b883a 	mov	r5,r3
 8009420:	80112140 	call	8011214 <__muldf3>
 8009424:	100d883a 	mov	r6,r2
 8009428:	180f883a 	mov	r7,r3
 800942c:	9009883a 	mov	r4,r18
 8009430:	980b883a 	mov	r5,r19
 8009434:	8011a800 	call	8011a80 <__subdf3>
 8009438:	d9c00717 	ldw	r7,28(sp)
 800943c:	1009883a 	mov	r4,r2
 8009440:	a8800c04 	addi	r2,r21,48
 8009444:	38800005 	stb	r2,0(r7)
 8009448:	3dc00044 	addi	r23,r7,1
 800944c:	d9c00617 	ldw	r7,24(sp)
 8009450:	01800044 	movi	r6,1
 8009454:	180b883a 	mov	r5,r3
 8009458:	2005883a 	mov	r2,r4
 800945c:	39803826 	beq	r7,r6,8009540 <_dtoa_r+0x8f4>
 8009460:	000d883a 	mov	r6,zero
 8009464:	01d00934 	movhi	r7,16420
 8009468:	80112140 	call	8011214 <__muldf3>
 800946c:	000d883a 	mov	r6,zero
 8009470:	000f883a 	mov	r7,zero
 8009474:	1009883a 	mov	r4,r2
 8009478:	180b883a 	mov	r5,r3
 800947c:	1025883a 	mov	r18,r2
 8009480:	1827883a 	mov	r19,r3
 8009484:	80110b00 	call	80110b0 <__eqdf2>
 8009488:	103f9a26 	beq	r2,zero,80092f4 <__alt_data_end+0xf80092f4>
 800948c:	d9c00617 	ldw	r7,24(sp)
 8009490:	d8c00717 	ldw	r3,28(sp)
 8009494:	b829883a 	mov	r20,r23
 8009498:	38bfffc4 	addi	r2,r7,-1
 800949c:	18ad883a 	add	r22,r3,r2
 80094a0:	00000a06 	br	80094cc <_dtoa_r+0x880>
 80094a4:	80112140 	call	8011214 <__muldf3>
 80094a8:	000d883a 	mov	r6,zero
 80094ac:	000f883a 	mov	r7,zero
 80094b0:	1009883a 	mov	r4,r2
 80094b4:	180b883a 	mov	r5,r3
 80094b8:	1025883a 	mov	r18,r2
 80094bc:	1827883a 	mov	r19,r3
 80094c0:	b829883a 	mov	r20,r23
 80094c4:	80110b00 	call	80110b0 <__eqdf2>
 80094c8:	103f8a26 	beq	r2,zero,80092f4 <__alt_data_end+0xf80092f4>
 80094cc:	800d883a 	mov	r6,r16
 80094d0:	880f883a 	mov	r7,r17
 80094d4:	9009883a 	mov	r4,r18
 80094d8:	980b883a 	mov	r5,r19
 80094dc:	80054900 	call	8005490 <__divdf3>
 80094e0:	180b883a 	mov	r5,r3
 80094e4:	1009883a 	mov	r4,r2
 80094e8:	801237c0 	call	801237c <__fixdfsi>
 80094ec:	1009883a 	mov	r4,r2
 80094f0:	102b883a 	mov	r21,r2
 80094f4:	8005f540 	call	8005f54 <__floatsidf>
 80094f8:	800d883a 	mov	r6,r16
 80094fc:	880f883a 	mov	r7,r17
 8009500:	1009883a 	mov	r4,r2
 8009504:	180b883a 	mov	r5,r3
 8009508:	80112140 	call	8011214 <__muldf3>
 800950c:	100d883a 	mov	r6,r2
 8009510:	180f883a 	mov	r7,r3
 8009514:	9009883a 	mov	r4,r18
 8009518:	980b883a 	mov	r5,r19
 800951c:	8011a800 	call	8011a80 <__subdf3>
 8009520:	aa000c04 	addi	r8,r21,48
 8009524:	a2000005 	stb	r8,0(r20)
 8009528:	000d883a 	mov	r6,zero
 800952c:	01d00934 	movhi	r7,16420
 8009530:	1009883a 	mov	r4,r2
 8009534:	180b883a 	mov	r5,r3
 8009538:	a5c00044 	addi	r23,r20,1
 800953c:	b53fd91e 	bne	r22,r20,80094a4 <__alt_data_end+0xf80094a4>
 8009540:	100d883a 	mov	r6,r2
 8009544:	180f883a 	mov	r7,r3
 8009548:	1009883a 	mov	r4,r2
 800954c:	180b883a 	mov	r5,r3
 8009550:	80108040 	call	8010804 <__adddf3>
 8009554:	100d883a 	mov	r6,r2
 8009558:	180f883a 	mov	r7,r3
 800955c:	8009883a 	mov	r4,r16
 8009560:	880b883a 	mov	r5,r17
 8009564:	1027883a 	mov	r19,r2
 8009568:	1825883a 	mov	r18,r3
 800956c:	8005e600 	call	8005e60 <__ledf2>
 8009570:	10000816 	blt	r2,zero,8009594 <_dtoa_r+0x948>
 8009574:	980d883a 	mov	r6,r19
 8009578:	900f883a 	mov	r7,r18
 800957c:	8009883a 	mov	r4,r16
 8009580:	880b883a 	mov	r5,r17
 8009584:	80110b00 	call	80110b0 <__eqdf2>
 8009588:	103f5a1e 	bne	r2,zero,80092f4 <__alt_data_end+0xf80092f4>
 800958c:	ad40004c 	andi	r21,r21,1
 8009590:	a83f5826 	beq	r21,zero,80092f4 <__alt_data_end+0xf80092f4>
 8009594:	bd3fffc3 	ldbu	r20,-1(r23)
 8009598:	b8bfffc4 	addi	r2,r23,-1
 800959c:	1007883a 	mov	r3,r2
 80095a0:	01400e44 	movi	r5,57
 80095a4:	d9800717 	ldw	r6,28(sp)
 80095a8:	00000506 	br	80095c0 <_dtoa_r+0x974>
 80095ac:	18ffffc4 	addi	r3,r3,-1
 80095b0:	11824726 	beq	r2,r6,8009ed0 <_dtoa_r+0x1284>
 80095b4:	1d000003 	ldbu	r20,0(r3)
 80095b8:	102f883a 	mov	r23,r2
 80095bc:	10bfffc4 	addi	r2,r2,-1
 80095c0:	a1003fcc 	andi	r4,r20,255
 80095c4:	2100201c 	xori	r4,r4,128
 80095c8:	213fe004 	addi	r4,r4,-128
 80095cc:	217ff726 	beq	r4,r5,80095ac <__alt_data_end+0xf80095ac>
 80095d0:	a2000044 	addi	r8,r20,1
 80095d4:	12000005 	stb	r8,0(r2)
 80095d8:	003f4606 	br	80092f4 <__alt_data_end+0xf80092f4>
 80095dc:	d9000b17 	ldw	r4,44(sp)
 80095e0:	2000c826 	beq	r4,zero,8009904 <_dtoa_r+0xcb8>
 80095e4:	d9800317 	ldw	r6,12(sp)
 80095e8:	00c00044 	movi	r3,1
 80095ec:	1980f90e 	bge	r3,r6,80099d4 <_dtoa_r+0xd88>
 80095f0:	d8800617 	ldw	r2,24(sp)
 80095f4:	d8c00a17 	ldw	r3,40(sp)
 80095f8:	157fffc4 	addi	r21,r2,-1
 80095fc:	1d41f316 	blt	r3,r21,8009dcc <_dtoa_r+0x1180>
 8009600:	1d6bc83a 	sub	r21,r3,r21
 8009604:	d9c00617 	ldw	r7,24(sp)
 8009608:	3802aa16 	blt	r7,zero,800a0b4 <_dtoa_r+0x1468>
 800960c:	dd000817 	ldw	r20,32(sp)
 8009610:	d8800617 	ldw	r2,24(sp)
 8009614:	d8c00817 	ldw	r3,32(sp)
 8009618:	01400044 	movi	r5,1
 800961c:	e009883a 	mov	r4,fp
 8009620:	1887883a 	add	r3,r3,r2
 8009624:	d8c00815 	stw	r3,32(sp)
 8009628:	b0ad883a 	add	r22,r22,r2
 800962c:	800c7380 	call	800c738 <__i2b>
 8009630:	1023883a 	mov	r17,r2
 8009634:	a0000826 	beq	r20,zero,8009658 <_dtoa_r+0xa0c>
 8009638:	0580070e 	bge	zero,r22,8009658 <_dtoa_r+0xa0c>
 800963c:	a005883a 	mov	r2,r20
 8009640:	b500b916 	blt	r22,r20,8009928 <_dtoa_r+0xcdc>
 8009644:	d9000817 	ldw	r4,32(sp)
 8009648:	a0a9c83a 	sub	r20,r20,r2
 800964c:	b0adc83a 	sub	r22,r22,r2
 8009650:	2089c83a 	sub	r4,r4,r2
 8009654:	d9000815 	stw	r4,32(sp)
 8009658:	d9800a17 	ldw	r6,40(sp)
 800965c:	0181810e 	bge	zero,r6,8009c64 <_dtoa_r+0x1018>
 8009660:	d9c00b17 	ldw	r7,44(sp)
 8009664:	3800b326 	beq	r7,zero,8009934 <_dtoa_r+0xce8>
 8009668:	a800b226 	beq	r21,zero,8009934 <_dtoa_r+0xce8>
 800966c:	880b883a 	mov	r5,r17
 8009670:	a80d883a 	mov	r6,r21
 8009674:	e009883a 	mov	r4,fp
 8009678:	800ca000 	call	800ca00 <__pow5mult>
 800967c:	d9800917 	ldw	r6,36(sp)
 8009680:	100b883a 	mov	r5,r2
 8009684:	e009883a 	mov	r4,fp
 8009688:	1023883a 	mov	r17,r2
 800968c:	800c7740 	call	800c774 <__multiply>
 8009690:	1021883a 	mov	r16,r2
 8009694:	d8800a17 	ldw	r2,40(sp)
 8009698:	d9400917 	ldw	r5,36(sp)
 800969c:	e009883a 	mov	r4,fp
 80096a0:	1545c83a 	sub	r2,r2,r21
 80096a4:	d8800a15 	stw	r2,40(sp)
 80096a8:	800c3ac0 	call	800c3ac <_Bfree>
 80096ac:	d8c00a17 	ldw	r3,40(sp)
 80096b0:	18009f1e 	bne	r3,zero,8009930 <_dtoa_r+0xce4>
 80096b4:	05c00044 	movi	r23,1
 80096b8:	e009883a 	mov	r4,fp
 80096bc:	b80b883a 	mov	r5,r23
 80096c0:	800c7380 	call	800c738 <__i2b>
 80096c4:	d9000d17 	ldw	r4,52(sp)
 80096c8:	102b883a 	mov	r21,r2
 80096cc:	2000ce26 	beq	r4,zero,8009a08 <_dtoa_r+0xdbc>
 80096d0:	200d883a 	mov	r6,r4
 80096d4:	100b883a 	mov	r5,r2
 80096d8:	e009883a 	mov	r4,fp
 80096dc:	800ca000 	call	800ca00 <__pow5mult>
 80096e0:	d9800317 	ldw	r6,12(sp)
 80096e4:	102b883a 	mov	r21,r2
 80096e8:	b981810e 	bge	r23,r6,8009cf0 <_dtoa_r+0x10a4>
 80096ec:	0027883a 	mov	r19,zero
 80096f0:	a8800417 	ldw	r2,16(r21)
 80096f4:	05c00804 	movi	r23,32
 80096f8:	10800104 	addi	r2,r2,4
 80096fc:	1085883a 	add	r2,r2,r2
 8009700:	1085883a 	add	r2,r2,r2
 8009704:	a885883a 	add	r2,r21,r2
 8009708:	11000017 	ldw	r4,0(r2)
 800970c:	800c6200 	call	800c620 <__hi0bits>
 8009710:	b885c83a 	sub	r2,r23,r2
 8009714:	1585883a 	add	r2,r2,r22
 8009718:	108007cc 	andi	r2,r2,31
 800971c:	1000b326 	beq	r2,zero,80099ec <_dtoa_r+0xda0>
 8009720:	00c00804 	movi	r3,32
 8009724:	1887c83a 	sub	r3,r3,r2
 8009728:	01000104 	movi	r4,4
 800972c:	20c2cd0e 	bge	r4,r3,800a264 <_dtoa_r+0x1618>
 8009730:	00c00704 	movi	r3,28
 8009734:	1885c83a 	sub	r2,r3,r2
 8009738:	d8c00817 	ldw	r3,32(sp)
 800973c:	a0a9883a 	add	r20,r20,r2
 8009740:	b0ad883a 	add	r22,r22,r2
 8009744:	1887883a 	add	r3,r3,r2
 8009748:	d8c00815 	stw	r3,32(sp)
 800974c:	d9800817 	ldw	r6,32(sp)
 8009750:	0180040e 	bge	zero,r6,8009764 <_dtoa_r+0xb18>
 8009754:	800b883a 	mov	r5,r16
 8009758:	e009883a 	mov	r4,fp
 800975c:	800cb400 	call	800cb40 <__lshift>
 8009760:	1021883a 	mov	r16,r2
 8009764:	0580050e 	bge	zero,r22,800977c <_dtoa_r+0xb30>
 8009768:	a80b883a 	mov	r5,r21
 800976c:	b00d883a 	mov	r6,r22
 8009770:	e009883a 	mov	r4,fp
 8009774:	800cb400 	call	800cb40 <__lshift>
 8009778:	102b883a 	mov	r21,r2
 800977c:	d9c00e17 	ldw	r7,56(sp)
 8009780:	3801211e 	bne	r7,zero,8009c08 <_dtoa_r+0xfbc>
 8009784:	d9800617 	ldw	r6,24(sp)
 8009788:	0181380e 	bge	zero,r6,8009c6c <_dtoa_r+0x1020>
 800978c:	d8c00b17 	ldw	r3,44(sp)
 8009790:	1800ab1e 	bne	r3,zero,8009a40 <_dtoa_r+0xdf4>
 8009794:	dc800717 	ldw	r18,28(sp)
 8009798:	dcc00617 	ldw	r19,24(sp)
 800979c:	9029883a 	mov	r20,r18
 80097a0:	00000206 	br	80097ac <_dtoa_r+0xb60>
 80097a4:	800c3d40 	call	800c3d4 <__multadd>
 80097a8:	1021883a 	mov	r16,r2
 80097ac:	a80b883a 	mov	r5,r21
 80097b0:	8009883a 	mov	r4,r16
 80097b4:	8008a240 	call	8008a24 <quorem>
 80097b8:	10800c04 	addi	r2,r2,48
 80097bc:	90800005 	stb	r2,0(r18)
 80097c0:	94800044 	addi	r18,r18,1
 80097c4:	9507c83a 	sub	r3,r18,r20
 80097c8:	000f883a 	mov	r7,zero
 80097cc:	01800284 	movi	r6,10
 80097d0:	800b883a 	mov	r5,r16
 80097d4:	e009883a 	mov	r4,fp
 80097d8:	1cfff216 	blt	r3,r19,80097a4 <__alt_data_end+0xf80097a4>
 80097dc:	1011883a 	mov	r8,r2
 80097e0:	d8800617 	ldw	r2,24(sp)
 80097e4:	0082370e 	bge	zero,r2,800a0c4 <_dtoa_r+0x1478>
 80097e8:	d9000717 	ldw	r4,28(sp)
 80097ec:	0025883a 	mov	r18,zero
 80097f0:	20af883a 	add	r23,r4,r2
 80097f4:	01800044 	movi	r6,1
 80097f8:	800b883a 	mov	r5,r16
 80097fc:	e009883a 	mov	r4,fp
 8009800:	da001715 	stw	r8,92(sp)
 8009804:	800cb400 	call	800cb40 <__lshift>
 8009808:	a80b883a 	mov	r5,r21
 800980c:	1009883a 	mov	r4,r2
 8009810:	d8800915 	stw	r2,36(sp)
 8009814:	800cc880 	call	800cc88 <__mcmp>
 8009818:	da001717 	ldw	r8,92(sp)
 800981c:	0081800e 	bge	zero,r2,8009e20 <_dtoa_r+0x11d4>
 8009820:	b93fffc3 	ldbu	r4,-1(r23)
 8009824:	b8bfffc4 	addi	r2,r23,-1
 8009828:	1007883a 	mov	r3,r2
 800982c:	01800e44 	movi	r6,57
 8009830:	d9c00717 	ldw	r7,28(sp)
 8009834:	00000506 	br	800984c <_dtoa_r+0xc00>
 8009838:	18ffffc4 	addi	r3,r3,-1
 800983c:	11c12326 	beq	r2,r7,8009ccc <_dtoa_r+0x1080>
 8009840:	19000003 	ldbu	r4,0(r3)
 8009844:	102f883a 	mov	r23,r2
 8009848:	10bfffc4 	addi	r2,r2,-1
 800984c:	21403fcc 	andi	r5,r4,255
 8009850:	2940201c 	xori	r5,r5,128
 8009854:	297fe004 	addi	r5,r5,-128
 8009858:	29bff726 	beq	r5,r6,8009838 <__alt_data_end+0xf8009838>
 800985c:	21000044 	addi	r4,r4,1
 8009860:	11000005 	stb	r4,0(r2)
 8009864:	a80b883a 	mov	r5,r21
 8009868:	e009883a 	mov	r4,fp
 800986c:	800c3ac0 	call	800c3ac <_Bfree>
 8009870:	883ea026 	beq	r17,zero,80092f4 <__alt_data_end+0xf80092f4>
 8009874:	90000426 	beq	r18,zero,8009888 <_dtoa_r+0xc3c>
 8009878:	94400326 	beq	r18,r17,8009888 <_dtoa_r+0xc3c>
 800987c:	900b883a 	mov	r5,r18
 8009880:	e009883a 	mov	r4,fp
 8009884:	800c3ac0 	call	800c3ac <_Bfree>
 8009888:	880b883a 	mov	r5,r17
 800988c:	e009883a 	mov	r4,fp
 8009890:	800c3ac0 	call	800c3ac <_Bfree>
 8009894:	003e9706 	br	80092f4 <__alt_data_end+0xf80092f4>
 8009898:	01800044 	movi	r6,1
 800989c:	d9800e15 	stw	r6,56(sp)
 80098a0:	003d9606 	br	8008efc <__alt_data_end+0xf8008efc>
 80098a4:	d8800817 	ldw	r2,32(sp)
 80098a8:	d8c00517 	ldw	r3,20(sp)
 80098ac:	d8000d15 	stw	zero,52(sp)
 80098b0:	10c5c83a 	sub	r2,r2,r3
 80098b4:	00c9c83a 	sub	r4,zero,r3
 80098b8:	d8800815 	stw	r2,32(sp)
 80098bc:	d9000a15 	stw	r4,40(sp)
 80098c0:	003d9706 	br	8008f20 <__alt_data_end+0xf8008f20>
 80098c4:	05adc83a 	sub	r22,zero,r22
 80098c8:	dd800815 	stw	r22,32(sp)
 80098cc:	002d883a 	mov	r22,zero
 80098d0:	003d8e06 	br	8008f0c <__alt_data_end+0xf8008f0c>
 80098d4:	d9000517 	ldw	r4,20(sp)
 80098d8:	8005f540 	call	8005f54 <__floatsidf>
 80098dc:	100d883a 	mov	r6,r2
 80098e0:	180f883a 	mov	r7,r3
 80098e4:	a009883a 	mov	r4,r20
 80098e8:	880b883a 	mov	r5,r17
 80098ec:	80110b00 	call	80110b0 <__eqdf2>
 80098f0:	103d7126 	beq	r2,zero,8008eb8 <__alt_data_end+0xf8008eb8>
 80098f4:	d9c00517 	ldw	r7,20(sp)
 80098f8:	39ffffc4 	addi	r7,r7,-1
 80098fc:	d9c00515 	stw	r7,20(sp)
 8009900:	003d6d06 	br	8008eb8 <__alt_data_end+0xf8008eb8>
 8009904:	dd400a17 	ldw	r21,40(sp)
 8009908:	dd000817 	ldw	r20,32(sp)
 800990c:	0023883a 	mov	r17,zero
 8009910:	003f4806 	br	8009634 <__alt_data_end+0xf8009634>
 8009914:	10e3c83a 	sub	r17,r2,r3
 8009918:	9448983a 	sll	r4,r18,r17
 800991c:	003d3206 	br	8008de8 <__alt_data_end+0xf8008de8>
 8009920:	d8000e15 	stw	zero,56(sp)
 8009924:	003d7506 	br	8008efc <__alt_data_end+0xf8008efc>
 8009928:	b005883a 	mov	r2,r22
 800992c:	003f4506 	br	8009644 <__alt_data_end+0xf8009644>
 8009930:	dc000915 	stw	r16,36(sp)
 8009934:	d9800a17 	ldw	r6,40(sp)
 8009938:	d9400917 	ldw	r5,36(sp)
 800993c:	e009883a 	mov	r4,fp
 8009940:	800ca000 	call	800ca00 <__pow5mult>
 8009944:	1021883a 	mov	r16,r2
 8009948:	003f5a06 	br	80096b4 <__alt_data_end+0xf80096b4>
 800994c:	01c00044 	movi	r7,1
 8009950:	d9c00b15 	stw	r7,44(sp)
 8009954:	d8802217 	ldw	r2,136(sp)
 8009958:	0081280e 	bge	zero,r2,8009dfc <_dtoa_r+0x11b0>
 800995c:	100d883a 	mov	r6,r2
 8009960:	1021883a 	mov	r16,r2
 8009964:	d8800c15 	stw	r2,48(sp)
 8009968:	d8800615 	stw	r2,24(sp)
 800996c:	003d8806 	br	8008f90 <__alt_data_end+0xf8008f90>
 8009970:	d8800617 	ldw	r2,24(sp)
 8009974:	00be9b16 	blt	zero,r2,80093e4 <__alt_data_end+0xf80093e4>
 8009978:	10010f1e 	bne	r2,zero,8009db8 <_dtoa_r+0x116c>
 800997c:	880b883a 	mov	r5,r17
 8009980:	000d883a 	mov	r6,zero
 8009984:	01d00534 	movhi	r7,16404
 8009988:	8009883a 	mov	r4,r16
 800998c:	80112140 	call	8011214 <__muldf3>
 8009990:	900d883a 	mov	r6,r18
 8009994:	980f883a 	mov	r7,r19
 8009998:	1009883a 	mov	r4,r2
 800999c:	180b883a 	mov	r5,r3
 80099a0:	80111380 	call	8011138 <__gedf2>
 80099a4:	002b883a 	mov	r21,zero
 80099a8:	0023883a 	mov	r17,zero
 80099ac:	1000bf16 	blt	r2,zero,8009cac <_dtoa_r+0x1060>
 80099b0:	d9802217 	ldw	r6,136(sp)
 80099b4:	ddc00717 	ldw	r23,28(sp)
 80099b8:	018c303a 	nor	r6,zero,r6
 80099bc:	d9800515 	stw	r6,20(sp)
 80099c0:	a80b883a 	mov	r5,r21
 80099c4:	e009883a 	mov	r4,fp
 80099c8:	800c3ac0 	call	800c3ac <_Bfree>
 80099cc:	883e4926 	beq	r17,zero,80092f4 <__alt_data_end+0xf80092f4>
 80099d0:	003fad06 	br	8009888 <__alt_data_end+0xf8009888>
 80099d4:	d9c01117 	ldw	r7,68(sp)
 80099d8:	3801bc26 	beq	r7,zero,800a0cc <_dtoa_r+0x1480>
 80099dc:	10810cc4 	addi	r2,r2,1075
 80099e0:	dd400a17 	ldw	r21,40(sp)
 80099e4:	dd000817 	ldw	r20,32(sp)
 80099e8:	003f0a06 	br	8009614 <__alt_data_end+0xf8009614>
 80099ec:	00800704 	movi	r2,28
 80099f0:	d9000817 	ldw	r4,32(sp)
 80099f4:	a0a9883a 	add	r20,r20,r2
 80099f8:	b0ad883a 	add	r22,r22,r2
 80099fc:	2089883a 	add	r4,r4,r2
 8009a00:	d9000815 	stw	r4,32(sp)
 8009a04:	003f5106 	br	800974c <__alt_data_end+0xf800974c>
 8009a08:	d8c00317 	ldw	r3,12(sp)
 8009a0c:	b8c1fc0e 	bge	r23,r3,800a200 <_dtoa_r+0x15b4>
 8009a10:	0027883a 	mov	r19,zero
 8009a14:	b805883a 	mov	r2,r23
 8009a18:	003f3e06 	br	8009714 <__alt_data_end+0xf8009714>
 8009a1c:	880b883a 	mov	r5,r17
 8009a20:	e009883a 	mov	r4,fp
 8009a24:	000f883a 	mov	r7,zero
 8009a28:	01800284 	movi	r6,10
 8009a2c:	800c3d40 	call	800c3d4 <__multadd>
 8009a30:	d9000c17 	ldw	r4,48(sp)
 8009a34:	1023883a 	mov	r17,r2
 8009a38:	0102040e 	bge	zero,r4,800a24c <_dtoa_r+0x1600>
 8009a3c:	d9000615 	stw	r4,24(sp)
 8009a40:	0500050e 	bge	zero,r20,8009a58 <_dtoa_r+0xe0c>
 8009a44:	880b883a 	mov	r5,r17
 8009a48:	a00d883a 	mov	r6,r20
 8009a4c:	e009883a 	mov	r4,fp
 8009a50:	800cb400 	call	800cb40 <__lshift>
 8009a54:	1023883a 	mov	r17,r2
 8009a58:	9801241e 	bne	r19,zero,8009eec <_dtoa_r+0x12a0>
 8009a5c:	8829883a 	mov	r20,r17
 8009a60:	d9000617 	ldw	r4,24(sp)
 8009a64:	dcc00717 	ldw	r19,28(sp)
 8009a68:	9480004c 	andi	r18,r18,1
 8009a6c:	20bfffc4 	addi	r2,r4,-1
 8009a70:	9885883a 	add	r2,r19,r2
 8009a74:	d8800415 	stw	r2,16(sp)
 8009a78:	dc800615 	stw	r18,24(sp)
 8009a7c:	a80b883a 	mov	r5,r21
 8009a80:	8009883a 	mov	r4,r16
 8009a84:	8008a240 	call	8008a24 <quorem>
 8009a88:	880b883a 	mov	r5,r17
 8009a8c:	8009883a 	mov	r4,r16
 8009a90:	102f883a 	mov	r23,r2
 8009a94:	800cc880 	call	800cc88 <__mcmp>
 8009a98:	a80b883a 	mov	r5,r21
 8009a9c:	a00d883a 	mov	r6,r20
 8009aa0:	e009883a 	mov	r4,fp
 8009aa4:	102d883a 	mov	r22,r2
 8009aa8:	800cce80 	call	800cce8 <__mdiff>
 8009aac:	1007883a 	mov	r3,r2
 8009ab0:	10800317 	ldw	r2,12(r2)
 8009ab4:	bc800c04 	addi	r18,r23,48
 8009ab8:	180b883a 	mov	r5,r3
 8009abc:	10004e1e 	bne	r2,zero,8009bf8 <_dtoa_r+0xfac>
 8009ac0:	8009883a 	mov	r4,r16
 8009ac4:	d8c01615 	stw	r3,88(sp)
 8009ac8:	800cc880 	call	800cc88 <__mcmp>
 8009acc:	d8c01617 	ldw	r3,88(sp)
 8009ad0:	e009883a 	mov	r4,fp
 8009ad4:	d8801615 	stw	r2,88(sp)
 8009ad8:	180b883a 	mov	r5,r3
 8009adc:	800c3ac0 	call	800c3ac <_Bfree>
 8009ae0:	d8801617 	ldw	r2,88(sp)
 8009ae4:	1000041e 	bne	r2,zero,8009af8 <_dtoa_r+0xeac>
 8009ae8:	d9800317 	ldw	r6,12(sp)
 8009aec:	3000021e 	bne	r6,zero,8009af8 <_dtoa_r+0xeac>
 8009af0:	d8c00617 	ldw	r3,24(sp)
 8009af4:	18003726 	beq	r3,zero,8009bd4 <_dtoa_r+0xf88>
 8009af8:	b0002016 	blt	r22,zero,8009b7c <_dtoa_r+0xf30>
 8009afc:	b000041e 	bne	r22,zero,8009b10 <_dtoa_r+0xec4>
 8009b00:	d9000317 	ldw	r4,12(sp)
 8009b04:	2000021e 	bne	r4,zero,8009b10 <_dtoa_r+0xec4>
 8009b08:	d8c00617 	ldw	r3,24(sp)
 8009b0c:	18001b26 	beq	r3,zero,8009b7c <_dtoa_r+0xf30>
 8009b10:	00810716 	blt	zero,r2,8009f30 <_dtoa_r+0x12e4>
 8009b14:	d8c00417 	ldw	r3,16(sp)
 8009b18:	9d800044 	addi	r22,r19,1
 8009b1c:	9c800005 	stb	r18,0(r19)
 8009b20:	b02f883a 	mov	r23,r22
 8009b24:	98c10626 	beq	r19,r3,8009f40 <_dtoa_r+0x12f4>
 8009b28:	800b883a 	mov	r5,r16
 8009b2c:	000f883a 	mov	r7,zero
 8009b30:	01800284 	movi	r6,10
 8009b34:	e009883a 	mov	r4,fp
 8009b38:	800c3d40 	call	800c3d4 <__multadd>
 8009b3c:	1021883a 	mov	r16,r2
 8009b40:	000f883a 	mov	r7,zero
 8009b44:	01800284 	movi	r6,10
 8009b48:	880b883a 	mov	r5,r17
 8009b4c:	e009883a 	mov	r4,fp
 8009b50:	8d002526 	beq	r17,r20,8009be8 <_dtoa_r+0xf9c>
 8009b54:	800c3d40 	call	800c3d4 <__multadd>
 8009b58:	a00b883a 	mov	r5,r20
 8009b5c:	000f883a 	mov	r7,zero
 8009b60:	01800284 	movi	r6,10
 8009b64:	e009883a 	mov	r4,fp
 8009b68:	1023883a 	mov	r17,r2
 8009b6c:	800c3d40 	call	800c3d4 <__multadd>
 8009b70:	1029883a 	mov	r20,r2
 8009b74:	b027883a 	mov	r19,r22
 8009b78:	003fc006 	br	8009a7c <__alt_data_end+0xf8009a7c>
 8009b7c:	9011883a 	mov	r8,r18
 8009b80:	00800e0e 	bge	zero,r2,8009bbc <_dtoa_r+0xf70>
 8009b84:	800b883a 	mov	r5,r16
 8009b88:	01800044 	movi	r6,1
 8009b8c:	e009883a 	mov	r4,fp
 8009b90:	da001715 	stw	r8,92(sp)
 8009b94:	800cb400 	call	800cb40 <__lshift>
 8009b98:	a80b883a 	mov	r5,r21
 8009b9c:	1009883a 	mov	r4,r2
 8009ba0:	1021883a 	mov	r16,r2
 8009ba4:	800cc880 	call	800cc88 <__mcmp>
 8009ba8:	da001717 	ldw	r8,92(sp)
 8009bac:	0081960e 	bge	zero,r2,800a208 <_dtoa_r+0x15bc>
 8009bb0:	00800e44 	movi	r2,57
 8009bb4:	40817026 	beq	r8,r2,800a178 <_dtoa_r+0x152c>
 8009bb8:	ba000c44 	addi	r8,r23,49
 8009bbc:	8825883a 	mov	r18,r17
 8009bc0:	9dc00044 	addi	r23,r19,1
 8009bc4:	9a000005 	stb	r8,0(r19)
 8009bc8:	a023883a 	mov	r17,r20
 8009bcc:	dc000915 	stw	r16,36(sp)
 8009bd0:	003f2406 	br	8009864 <__alt_data_end+0xf8009864>
 8009bd4:	00800e44 	movi	r2,57
 8009bd8:	9011883a 	mov	r8,r18
 8009bdc:	90816626 	beq	r18,r2,800a178 <_dtoa_r+0x152c>
 8009be0:	05bff516 	blt	zero,r22,8009bb8 <__alt_data_end+0xf8009bb8>
 8009be4:	003ff506 	br	8009bbc <__alt_data_end+0xf8009bbc>
 8009be8:	800c3d40 	call	800c3d4 <__multadd>
 8009bec:	1023883a 	mov	r17,r2
 8009bf0:	1029883a 	mov	r20,r2
 8009bf4:	003fdf06 	br	8009b74 <__alt_data_end+0xf8009b74>
 8009bf8:	e009883a 	mov	r4,fp
 8009bfc:	800c3ac0 	call	800c3ac <_Bfree>
 8009c00:	00800044 	movi	r2,1
 8009c04:	003fbc06 	br	8009af8 <__alt_data_end+0xf8009af8>
 8009c08:	a80b883a 	mov	r5,r21
 8009c0c:	8009883a 	mov	r4,r16
 8009c10:	800cc880 	call	800cc88 <__mcmp>
 8009c14:	103edb0e 	bge	r2,zero,8009784 <__alt_data_end+0xf8009784>
 8009c18:	800b883a 	mov	r5,r16
 8009c1c:	000f883a 	mov	r7,zero
 8009c20:	01800284 	movi	r6,10
 8009c24:	e009883a 	mov	r4,fp
 8009c28:	800c3d40 	call	800c3d4 <__multadd>
 8009c2c:	1021883a 	mov	r16,r2
 8009c30:	d8800517 	ldw	r2,20(sp)
 8009c34:	d8c00b17 	ldw	r3,44(sp)
 8009c38:	10bfffc4 	addi	r2,r2,-1
 8009c3c:	d8800515 	stw	r2,20(sp)
 8009c40:	183f761e 	bne	r3,zero,8009a1c <__alt_data_end+0xf8009a1c>
 8009c44:	d9000c17 	ldw	r4,48(sp)
 8009c48:	0101730e 	bge	zero,r4,800a218 <_dtoa_r+0x15cc>
 8009c4c:	d9000615 	stw	r4,24(sp)
 8009c50:	003ed006 	br	8009794 <__alt_data_end+0xf8009794>
 8009c54:	00800084 	movi	r2,2
 8009c58:	3081861e 	bne	r6,r2,800a274 <_dtoa_r+0x1628>
 8009c5c:	d8000b15 	stw	zero,44(sp)
 8009c60:	003f3c06 	br	8009954 <__alt_data_end+0xf8009954>
 8009c64:	dc000917 	ldw	r16,36(sp)
 8009c68:	003e9206 	br	80096b4 <__alt_data_end+0xf80096b4>
 8009c6c:	d9c00317 	ldw	r7,12(sp)
 8009c70:	00800084 	movi	r2,2
 8009c74:	11fec50e 	bge	r2,r7,800978c <__alt_data_end+0xf800978c>
 8009c78:	d9000617 	ldw	r4,24(sp)
 8009c7c:	20013c1e 	bne	r4,zero,800a170 <_dtoa_r+0x1524>
 8009c80:	a80b883a 	mov	r5,r21
 8009c84:	000f883a 	mov	r7,zero
 8009c88:	01800144 	movi	r6,5
 8009c8c:	e009883a 	mov	r4,fp
 8009c90:	800c3d40 	call	800c3d4 <__multadd>
 8009c94:	100b883a 	mov	r5,r2
 8009c98:	8009883a 	mov	r4,r16
 8009c9c:	102b883a 	mov	r21,r2
 8009ca0:	800cc880 	call	800cc88 <__mcmp>
 8009ca4:	dc000915 	stw	r16,36(sp)
 8009ca8:	00bf410e 	bge	zero,r2,80099b0 <__alt_data_end+0xf80099b0>
 8009cac:	d9c00717 	ldw	r7,28(sp)
 8009cb0:	00800c44 	movi	r2,49
 8009cb4:	38800005 	stb	r2,0(r7)
 8009cb8:	d8800517 	ldw	r2,20(sp)
 8009cbc:	3dc00044 	addi	r23,r7,1
 8009cc0:	10800044 	addi	r2,r2,1
 8009cc4:	d8800515 	stw	r2,20(sp)
 8009cc8:	003f3d06 	br	80099c0 <__alt_data_end+0xf80099c0>
 8009ccc:	d9800517 	ldw	r6,20(sp)
 8009cd0:	d9c00717 	ldw	r7,28(sp)
 8009cd4:	00800c44 	movi	r2,49
 8009cd8:	31800044 	addi	r6,r6,1
 8009cdc:	d9800515 	stw	r6,20(sp)
 8009ce0:	38800005 	stb	r2,0(r7)
 8009ce4:	003edf06 	br	8009864 <__alt_data_end+0xf8009864>
 8009ce8:	d8000b15 	stw	zero,44(sp)
 8009cec:	003c9f06 	br	8008f6c <__alt_data_end+0xf8008f6c>
 8009cf0:	903e7e1e 	bne	r18,zero,80096ec <__alt_data_end+0xf80096ec>
 8009cf4:	00800434 	movhi	r2,16
 8009cf8:	10bfffc4 	addi	r2,r2,-1
 8009cfc:	9884703a 	and	r2,r19,r2
 8009d00:	1000ea1e 	bne	r2,zero,800a0ac <_dtoa_r+0x1460>
 8009d04:	9cdffc2c 	andhi	r19,r19,32752
 8009d08:	9800e826 	beq	r19,zero,800a0ac <_dtoa_r+0x1460>
 8009d0c:	d9c00817 	ldw	r7,32(sp)
 8009d10:	b5800044 	addi	r22,r22,1
 8009d14:	04c00044 	movi	r19,1
 8009d18:	39c00044 	addi	r7,r7,1
 8009d1c:	d9c00815 	stw	r7,32(sp)
 8009d20:	d8800d17 	ldw	r2,52(sp)
 8009d24:	103e721e 	bne	r2,zero,80096f0 <__alt_data_end+0xf80096f0>
 8009d28:	00800044 	movi	r2,1
 8009d2c:	003e7906 	br	8009714 <__alt_data_end+0xf8009714>
 8009d30:	8009883a 	mov	r4,r16
 8009d34:	8005f540 	call	8005f54 <__floatsidf>
 8009d38:	d9800f17 	ldw	r6,60(sp)
 8009d3c:	d9c01017 	ldw	r7,64(sp)
 8009d40:	1009883a 	mov	r4,r2
 8009d44:	180b883a 	mov	r5,r3
 8009d48:	80112140 	call	8011214 <__muldf3>
 8009d4c:	000d883a 	mov	r6,zero
 8009d50:	01d00734 	movhi	r7,16412
 8009d54:	1009883a 	mov	r4,r2
 8009d58:	180b883a 	mov	r5,r3
 8009d5c:	80108040 	call	8010804 <__adddf3>
 8009d60:	047f3034 	movhi	r17,64704
 8009d64:	1021883a 	mov	r16,r2
 8009d68:	1c63883a 	add	r17,r3,r17
 8009d6c:	d9000f17 	ldw	r4,60(sp)
 8009d70:	d9401017 	ldw	r5,64(sp)
 8009d74:	000d883a 	mov	r6,zero
 8009d78:	01d00534 	movhi	r7,16404
 8009d7c:	8011a800 	call	8011a80 <__subdf3>
 8009d80:	800d883a 	mov	r6,r16
 8009d84:	880f883a 	mov	r7,r17
 8009d88:	1009883a 	mov	r4,r2
 8009d8c:	180b883a 	mov	r5,r3
 8009d90:	102b883a 	mov	r21,r2
 8009d94:	1829883a 	mov	r20,r3
 8009d98:	80111380 	call	8011138 <__gedf2>
 8009d9c:	00806c16 	blt	zero,r2,8009f50 <_dtoa_r+0x1304>
 8009da0:	89e0003c 	xorhi	r7,r17,32768
 8009da4:	800d883a 	mov	r6,r16
 8009da8:	a809883a 	mov	r4,r21
 8009dac:	a00b883a 	mov	r5,r20
 8009db0:	8005e600 	call	8005e60 <__ledf2>
 8009db4:	103d7e0e 	bge	r2,zero,80093b0 <__alt_data_end+0xf80093b0>
 8009db8:	002b883a 	mov	r21,zero
 8009dbc:	0023883a 	mov	r17,zero
 8009dc0:	003efb06 	br	80099b0 <__alt_data_end+0xf80099b0>
 8009dc4:	d8800717 	ldw	r2,28(sp)
 8009dc8:	003bd006 	br	8008d0c <__alt_data_end+0xf8008d0c>
 8009dcc:	d9000a17 	ldw	r4,40(sp)
 8009dd0:	d9800d17 	ldw	r6,52(sp)
 8009dd4:	dd400a15 	stw	r21,40(sp)
 8009dd8:	a905c83a 	sub	r2,r21,r4
 8009ddc:	308d883a 	add	r6,r6,r2
 8009de0:	d9800d15 	stw	r6,52(sp)
 8009de4:	002b883a 	mov	r21,zero
 8009de8:	003e0606 	br	8009604 <__alt_data_end+0xf8009604>
 8009dec:	9023883a 	mov	r17,r18
 8009df0:	9829883a 	mov	r20,r19
 8009df4:	04000084 	movi	r16,2
 8009df8:	003c9206 	br	8009044 <__alt_data_end+0xf8009044>
 8009dfc:	04000044 	movi	r16,1
 8009e00:	dc000c15 	stw	r16,48(sp)
 8009e04:	dc000615 	stw	r16,24(sp)
 8009e08:	dc002215 	stw	r16,136(sp)
 8009e0c:	e0001115 	stw	zero,68(fp)
 8009e10:	000b883a 	mov	r5,zero
 8009e14:	003c6906 	br	8008fbc <__alt_data_end+0xf8008fbc>
 8009e18:	3021883a 	mov	r16,r6
 8009e1c:	003ffb06 	br	8009e0c <__alt_data_end+0xf8009e0c>
 8009e20:	1000021e 	bne	r2,zero,8009e2c <_dtoa_r+0x11e0>
 8009e24:	4200004c 	andi	r8,r8,1
 8009e28:	403e7d1e 	bne	r8,zero,8009820 <__alt_data_end+0xf8009820>
 8009e2c:	01000c04 	movi	r4,48
 8009e30:	00000106 	br	8009e38 <_dtoa_r+0x11ec>
 8009e34:	102f883a 	mov	r23,r2
 8009e38:	b8bfffc4 	addi	r2,r23,-1
 8009e3c:	10c00007 	ldb	r3,0(r2)
 8009e40:	193ffc26 	beq	r3,r4,8009e34 <__alt_data_end+0xf8009e34>
 8009e44:	003e8706 	br	8009864 <__alt_data_end+0xf8009864>
 8009e48:	d8800517 	ldw	r2,20(sp)
 8009e4c:	00a3c83a 	sub	r17,zero,r2
 8009e50:	8800a426 	beq	r17,zero,800a0e4 <_dtoa_r+0x1498>
 8009e54:	888003cc 	andi	r2,r17,15
 8009e58:	100490fa 	slli	r2,r2,3
 8009e5c:	00c20074 	movhi	r3,2049
 8009e60:	18d3ec04 	addi	r3,r3,20400
 8009e64:	1885883a 	add	r2,r3,r2
 8009e68:	11800017 	ldw	r6,0(r2)
 8009e6c:	11c00117 	ldw	r7,4(r2)
 8009e70:	9009883a 	mov	r4,r18
 8009e74:	980b883a 	mov	r5,r19
 8009e78:	8823d13a 	srai	r17,r17,4
 8009e7c:	80112140 	call	8011214 <__muldf3>
 8009e80:	d8800f15 	stw	r2,60(sp)
 8009e84:	d8c01015 	stw	r3,64(sp)
 8009e88:	8800e826 	beq	r17,zero,800a22c <_dtoa_r+0x15e0>
 8009e8c:	05020074 	movhi	r20,2049
 8009e90:	a513e204 	addi	r20,r20,20360
 8009e94:	04000084 	movi	r16,2
 8009e98:	8980004c 	andi	r6,r17,1
 8009e9c:	1009883a 	mov	r4,r2
 8009ea0:	8823d07a 	srai	r17,r17,1
 8009ea4:	180b883a 	mov	r5,r3
 8009ea8:	30000426 	beq	r6,zero,8009ebc <_dtoa_r+0x1270>
 8009eac:	a1800017 	ldw	r6,0(r20)
 8009eb0:	a1c00117 	ldw	r7,4(r20)
 8009eb4:	84000044 	addi	r16,r16,1
 8009eb8:	80112140 	call	8011214 <__muldf3>
 8009ebc:	a5000204 	addi	r20,r20,8
 8009ec0:	883ff51e 	bne	r17,zero,8009e98 <__alt_data_end+0xf8009e98>
 8009ec4:	d8800f15 	stw	r2,60(sp)
 8009ec8:	d8c01015 	stw	r3,64(sp)
 8009ecc:	003c7606 	br	80090a8 <__alt_data_end+0xf80090a8>
 8009ed0:	00c00c04 	movi	r3,48
 8009ed4:	10c00005 	stb	r3,0(r2)
 8009ed8:	d8c00517 	ldw	r3,20(sp)
 8009edc:	bd3fffc3 	ldbu	r20,-1(r23)
 8009ee0:	18c00044 	addi	r3,r3,1
 8009ee4:	d8c00515 	stw	r3,20(sp)
 8009ee8:	003db906 	br	80095d0 <__alt_data_end+0xf80095d0>
 8009eec:	89400117 	ldw	r5,4(r17)
 8009ef0:	e009883a 	mov	r4,fp
 8009ef4:	800c3040 	call	800c304 <_Balloc>
 8009ef8:	89800417 	ldw	r6,16(r17)
 8009efc:	89400304 	addi	r5,r17,12
 8009f00:	11000304 	addi	r4,r2,12
 8009f04:	31800084 	addi	r6,r6,2
 8009f08:	318d883a 	add	r6,r6,r6
 8009f0c:	318d883a 	add	r6,r6,r6
 8009f10:	1027883a 	mov	r19,r2
 8009f14:	800bf380 	call	800bf38 <memcpy>
 8009f18:	01800044 	movi	r6,1
 8009f1c:	980b883a 	mov	r5,r19
 8009f20:	e009883a 	mov	r4,fp
 8009f24:	800cb400 	call	800cb40 <__lshift>
 8009f28:	1029883a 	mov	r20,r2
 8009f2c:	003ecc06 	br	8009a60 <__alt_data_end+0xf8009a60>
 8009f30:	00800e44 	movi	r2,57
 8009f34:	90809026 	beq	r18,r2,800a178 <_dtoa_r+0x152c>
 8009f38:	92000044 	addi	r8,r18,1
 8009f3c:	003f1f06 	br	8009bbc <__alt_data_end+0xf8009bbc>
 8009f40:	9011883a 	mov	r8,r18
 8009f44:	8825883a 	mov	r18,r17
 8009f48:	a023883a 	mov	r17,r20
 8009f4c:	003e2906 	br	80097f4 <__alt_data_end+0xf80097f4>
 8009f50:	002b883a 	mov	r21,zero
 8009f54:	0023883a 	mov	r17,zero
 8009f58:	003f5406 	br	8009cac <__alt_data_end+0xf8009cac>
 8009f5c:	61bfffc4 	addi	r6,r12,-1
 8009f60:	300490fa 	slli	r2,r6,3
 8009f64:	00c20074 	movhi	r3,2049
 8009f68:	18d3ec04 	addi	r3,r3,20400
 8009f6c:	1885883a 	add	r2,r3,r2
 8009f70:	11000017 	ldw	r4,0(r2)
 8009f74:	11400117 	ldw	r5,4(r2)
 8009f78:	d8800717 	ldw	r2,28(sp)
 8009f7c:	880f883a 	mov	r7,r17
 8009f80:	d9801215 	stw	r6,72(sp)
 8009f84:	800d883a 	mov	r6,r16
 8009f88:	db001615 	stw	r12,88(sp)
 8009f8c:	15c00044 	addi	r23,r2,1
 8009f90:	80112140 	call	8011214 <__muldf3>
 8009f94:	d9401017 	ldw	r5,64(sp)
 8009f98:	d9000f17 	ldw	r4,60(sp)
 8009f9c:	d8c01515 	stw	r3,84(sp)
 8009fa0:	d8801415 	stw	r2,80(sp)
 8009fa4:	801237c0 	call	801237c <__fixdfsi>
 8009fa8:	1009883a 	mov	r4,r2
 8009fac:	1021883a 	mov	r16,r2
 8009fb0:	8005f540 	call	8005f54 <__floatsidf>
 8009fb4:	d9000f17 	ldw	r4,60(sp)
 8009fb8:	d9401017 	ldw	r5,64(sp)
 8009fbc:	100d883a 	mov	r6,r2
 8009fc0:	180f883a 	mov	r7,r3
 8009fc4:	8011a800 	call	8011a80 <__subdf3>
 8009fc8:	1829883a 	mov	r20,r3
 8009fcc:	d8c00717 	ldw	r3,28(sp)
 8009fd0:	84000c04 	addi	r16,r16,48
 8009fd4:	1023883a 	mov	r17,r2
 8009fd8:	1c000005 	stb	r16,0(r3)
 8009fdc:	db001617 	ldw	r12,88(sp)
 8009fe0:	00800044 	movi	r2,1
 8009fe4:	60802226 	beq	r12,r2,800a070 <_dtoa_r+0x1424>
 8009fe8:	d9c00717 	ldw	r7,28(sp)
 8009fec:	8805883a 	mov	r2,r17
 8009ff0:	b82b883a 	mov	r21,r23
 8009ff4:	3b19883a 	add	r12,r7,r12
 8009ff8:	6023883a 	mov	r17,r12
 8009ffc:	a007883a 	mov	r3,r20
 800a000:	dc800f15 	stw	r18,60(sp)
 800a004:	000d883a 	mov	r6,zero
 800a008:	01d00934 	movhi	r7,16420
 800a00c:	1009883a 	mov	r4,r2
 800a010:	180b883a 	mov	r5,r3
 800a014:	80112140 	call	8011214 <__muldf3>
 800a018:	180b883a 	mov	r5,r3
 800a01c:	1009883a 	mov	r4,r2
 800a020:	1829883a 	mov	r20,r3
 800a024:	1025883a 	mov	r18,r2
 800a028:	801237c0 	call	801237c <__fixdfsi>
 800a02c:	1009883a 	mov	r4,r2
 800a030:	1021883a 	mov	r16,r2
 800a034:	8005f540 	call	8005f54 <__floatsidf>
 800a038:	100d883a 	mov	r6,r2
 800a03c:	180f883a 	mov	r7,r3
 800a040:	9009883a 	mov	r4,r18
 800a044:	a00b883a 	mov	r5,r20
 800a048:	84000c04 	addi	r16,r16,48
 800a04c:	8011a800 	call	8011a80 <__subdf3>
 800a050:	ad400044 	addi	r21,r21,1
 800a054:	ac3fffc5 	stb	r16,-1(r21)
 800a058:	ac7fea1e 	bne	r21,r17,800a004 <__alt_data_end+0xf800a004>
 800a05c:	1023883a 	mov	r17,r2
 800a060:	d8801217 	ldw	r2,72(sp)
 800a064:	dc800f17 	ldw	r18,60(sp)
 800a068:	1829883a 	mov	r20,r3
 800a06c:	b8af883a 	add	r23,r23,r2
 800a070:	d9001417 	ldw	r4,80(sp)
 800a074:	d9401517 	ldw	r5,84(sp)
 800a078:	000d883a 	mov	r6,zero
 800a07c:	01cff834 	movhi	r7,16352
 800a080:	80108040 	call	8010804 <__adddf3>
 800a084:	880d883a 	mov	r6,r17
 800a088:	a00f883a 	mov	r7,r20
 800a08c:	1009883a 	mov	r4,r2
 800a090:	180b883a 	mov	r5,r3
 800a094:	8005e600 	call	8005e60 <__ledf2>
 800a098:	10003e0e 	bge	r2,zero,800a194 <_dtoa_r+0x1548>
 800a09c:	d9001317 	ldw	r4,76(sp)
 800a0a0:	bd3fffc3 	ldbu	r20,-1(r23)
 800a0a4:	d9000515 	stw	r4,20(sp)
 800a0a8:	003d3b06 	br	8009598 <__alt_data_end+0xf8009598>
 800a0ac:	0027883a 	mov	r19,zero
 800a0b0:	003f1b06 	br	8009d20 <__alt_data_end+0xf8009d20>
 800a0b4:	d8800817 	ldw	r2,32(sp)
 800a0b8:	11e9c83a 	sub	r20,r2,r7
 800a0bc:	0005883a 	mov	r2,zero
 800a0c0:	003d5406 	br	8009614 <__alt_data_end+0xf8009614>
 800a0c4:	00800044 	movi	r2,1
 800a0c8:	003dc706 	br	80097e8 <__alt_data_end+0xf80097e8>
 800a0cc:	d8c00217 	ldw	r3,8(sp)
 800a0d0:	00800d84 	movi	r2,54
 800a0d4:	dd400a17 	ldw	r21,40(sp)
 800a0d8:	10c5c83a 	sub	r2,r2,r3
 800a0dc:	dd000817 	ldw	r20,32(sp)
 800a0e0:	003d4c06 	br	8009614 <__alt_data_end+0xf8009614>
 800a0e4:	dc800f15 	stw	r18,60(sp)
 800a0e8:	dcc01015 	stw	r19,64(sp)
 800a0ec:	04000084 	movi	r16,2
 800a0f0:	003bed06 	br	80090a8 <__alt_data_end+0xf80090a8>
 800a0f4:	d9000617 	ldw	r4,24(sp)
 800a0f8:	203f0d26 	beq	r4,zero,8009d30 <__alt_data_end+0xf8009d30>
 800a0fc:	d9800c17 	ldw	r6,48(sp)
 800a100:	01bcab0e 	bge	zero,r6,80093b0 <__alt_data_end+0xf80093b0>
 800a104:	d9401017 	ldw	r5,64(sp)
 800a108:	d9000f17 	ldw	r4,60(sp)
 800a10c:	000d883a 	mov	r6,zero
 800a110:	01d00934 	movhi	r7,16420
 800a114:	80112140 	call	8011214 <__muldf3>
 800a118:	81000044 	addi	r4,r16,1
 800a11c:	d8800f15 	stw	r2,60(sp)
 800a120:	d8c01015 	stw	r3,64(sp)
 800a124:	8005f540 	call	8005f54 <__floatsidf>
 800a128:	d9800f17 	ldw	r6,60(sp)
 800a12c:	d9c01017 	ldw	r7,64(sp)
 800a130:	1009883a 	mov	r4,r2
 800a134:	180b883a 	mov	r5,r3
 800a138:	80112140 	call	8011214 <__muldf3>
 800a13c:	01d00734 	movhi	r7,16412
 800a140:	000d883a 	mov	r6,zero
 800a144:	1009883a 	mov	r4,r2
 800a148:	180b883a 	mov	r5,r3
 800a14c:	80108040 	call	8010804 <__adddf3>
 800a150:	d9c00517 	ldw	r7,20(sp)
 800a154:	047f3034 	movhi	r17,64704
 800a158:	1021883a 	mov	r16,r2
 800a15c:	39ffffc4 	addi	r7,r7,-1
 800a160:	d9c01315 	stw	r7,76(sp)
 800a164:	1c63883a 	add	r17,r3,r17
 800a168:	db000c17 	ldw	r12,48(sp)
 800a16c:	003bea06 	br	8009118 <__alt_data_end+0xf8009118>
 800a170:	dc000915 	stw	r16,36(sp)
 800a174:	003e0e06 	br	80099b0 <__alt_data_end+0xf80099b0>
 800a178:	01000e44 	movi	r4,57
 800a17c:	8825883a 	mov	r18,r17
 800a180:	9dc00044 	addi	r23,r19,1
 800a184:	99000005 	stb	r4,0(r19)
 800a188:	a023883a 	mov	r17,r20
 800a18c:	dc000915 	stw	r16,36(sp)
 800a190:	003da406 	br	8009824 <__alt_data_end+0xf8009824>
 800a194:	d9801417 	ldw	r6,80(sp)
 800a198:	d9c01517 	ldw	r7,84(sp)
 800a19c:	0009883a 	mov	r4,zero
 800a1a0:	014ff834 	movhi	r5,16352
 800a1a4:	8011a800 	call	8011a80 <__subdf3>
 800a1a8:	880d883a 	mov	r6,r17
 800a1ac:	a00f883a 	mov	r7,r20
 800a1b0:	1009883a 	mov	r4,r2
 800a1b4:	180b883a 	mov	r5,r3
 800a1b8:	80111380 	call	8011138 <__gedf2>
 800a1bc:	00bc7c0e 	bge	zero,r2,80093b0 <__alt_data_end+0xf80093b0>
 800a1c0:	01000c04 	movi	r4,48
 800a1c4:	00000106 	br	800a1cc <_dtoa_r+0x1580>
 800a1c8:	102f883a 	mov	r23,r2
 800a1cc:	b8bfffc4 	addi	r2,r23,-1
 800a1d0:	10c00007 	ldb	r3,0(r2)
 800a1d4:	193ffc26 	beq	r3,r4,800a1c8 <__alt_data_end+0xf800a1c8>
 800a1d8:	d9801317 	ldw	r6,76(sp)
 800a1dc:	d9800515 	stw	r6,20(sp)
 800a1e0:	003c4406 	br	80092f4 <__alt_data_end+0xf80092f4>
 800a1e4:	d9801317 	ldw	r6,76(sp)
 800a1e8:	d9800515 	stw	r6,20(sp)
 800a1ec:	003cea06 	br	8009598 <__alt_data_end+0xf8009598>
 800a1f0:	dd800f17 	ldw	r22,60(sp)
 800a1f4:	dcc01017 	ldw	r19,64(sp)
 800a1f8:	dc801217 	ldw	r18,72(sp)
 800a1fc:	003c6c06 	br	80093b0 <__alt_data_end+0xf80093b0>
 800a200:	903e031e 	bne	r18,zero,8009a10 <__alt_data_end+0xf8009a10>
 800a204:	003ebb06 	br	8009cf4 <__alt_data_end+0xf8009cf4>
 800a208:	103e6c1e 	bne	r2,zero,8009bbc <__alt_data_end+0xf8009bbc>
 800a20c:	4080004c 	andi	r2,r8,1
 800a210:	103e6a26 	beq	r2,zero,8009bbc <__alt_data_end+0xf8009bbc>
 800a214:	003e6606 	br	8009bb0 <__alt_data_end+0xf8009bb0>
 800a218:	d8c00317 	ldw	r3,12(sp)
 800a21c:	00800084 	movi	r2,2
 800a220:	10c02916 	blt	r2,r3,800a2c8 <_dtoa_r+0x167c>
 800a224:	d9000c17 	ldw	r4,48(sp)
 800a228:	003e8806 	br	8009c4c <__alt_data_end+0xf8009c4c>
 800a22c:	04000084 	movi	r16,2
 800a230:	003b9d06 	br	80090a8 <__alt_data_end+0xf80090a8>
 800a234:	d9001317 	ldw	r4,76(sp)
 800a238:	d9000515 	stw	r4,20(sp)
 800a23c:	003cd606 	br	8009598 <__alt_data_end+0xf8009598>
 800a240:	d8801317 	ldw	r2,76(sp)
 800a244:	d8800515 	stw	r2,20(sp)
 800a248:	003c2a06 	br	80092f4 <__alt_data_end+0xf80092f4>
 800a24c:	d9800317 	ldw	r6,12(sp)
 800a250:	00800084 	movi	r2,2
 800a254:	11801516 	blt	r2,r6,800a2ac <_dtoa_r+0x1660>
 800a258:	d9c00c17 	ldw	r7,48(sp)
 800a25c:	d9c00615 	stw	r7,24(sp)
 800a260:	003df706 	br	8009a40 <__alt_data_end+0xf8009a40>
 800a264:	193d3926 	beq	r3,r4,800974c <__alt_data_end+0xf800974c>
 800a268:	00c00f04 	movi	r3,60
 800a26c:	1885c83a 	sub	r2,r3,r2
 800a270:	003ddf06 	br	80099f0 <__alt_data_end+0xf80099f0>
 800a274:	e009883a 	mov	r4,fp
 800a278:	e0001115 	stw	zero,68(fp)
 800a27c:	000b883a 	mov	r5,zero
 800a280:	800c3040 	call	800c304 <_Balloc>
 800a284:	d8800715 	stw	r2,28(sp)
 800a288:	d8c00717 	ldw	r3,28(sp)
 800a28c:	00bfffc4 	movi	r2,-1
 800a290:	01000044 	movi	r4,1
 800a294:	d8800c15 	stw	r2,48(sp)
 800a298:	e0c01015 	stw	r3,64(fp)
 800a29c:	d9000b15 	stw	r4,44(sp)
 800a2a0:	d8800615 	stw	r2,24(sp)
 800a2a4:	d8002215 	stw	zero,136(sp)
 800a2a8:	003c4106 	br	80093b0 <__alt_data_end+0xf80093b0>
 800a2ac:	d8c00c17 	ldw	r3,48(sp)
 800a2b0:	d8c00615 	stw	r3,24(sp)
 800a2b4:	003e7006 	br	8009c78 <__alt_data_end+0xf8009c78>
 800a2b8:	04400044 	movi	r17,1
 800a2bc:	003b2006 	br	8008f40 <__alt_data_end+0xf8008f40>
 800a2c0:	000b883a 	mov	r5,zero
 800a2c4:	003b3d06 	br	8008fbc <__alt_data_end+0xf8008fbc>
 800a2c8:	d8800c17 	ldw	r2,48(sp)
 800a2cc:	d8800615 	stw	r2,24(sp)
 800a2d0:	003e6906 	br	8009c78 <__alt_data_end+0xf8009c78>

0800a2d4 <__sflush_r>:
 800a2d4:	2880030b 	ldhu	r2,12(r5)
 800a2d8:	defffb04 	addi	sp,sp,-20
 800a2dc:	dcc00315 	stw	r19,12(sp)
 800a2e0:	dc400115 	stw	r17,4(sp)
 800a2e4:	dfc00415 	stw	ra,16(sp)
 800a2e8:	dc800215 	stw	r18,8(sp)
 800a2ec:	dc000015 	stw	r16,0(sp)
 800a2f0:	10c0020c 	andi	r3,r2,8
 800a2f4:	2823883a 	mov	r17,r5
 800a2f8:	2027883a 	mov	r19,r4
 800a2fc:	1800311e 	bne	r3,zero,800a3c4 <__sflush_r+0xf0>
 800a300:	28c00117 	ldw	r3,4(r5)
 800a304:	10820014 	ori	r2,r2,2048
 800a308:	2880030d 	sth	r2,12(r5)
 800a30c:	00c04b0e 	bge	zero,r3,800a43c <__sflush_r+0x168>
 800a310:	8a000a17 	ldw	r8,40(r17)
 800a314:	40002326 	beq	r8,zero,800a3a4 <__sflush_r+0xd0>
 800a318:	9c000017 	ldw	r16,0(r19)
 800a31c:	10c4000c 	andi	r3,r2,4096
 800a320:	98000015 	stw	zero,0(r19)
 800a324:	18004826 	beq	r3,zero,800a448 <__sflush_r+0x174>
 800a328:	89801417 	ldw	r6,80(r17)
 800a32c:	10c0010c 	andi	r3,r2,4
 800a330:	18000626 	beq	r3,zero,800a34c <__sflush_r+0x78>
 800a334:	88c00117 	ldw	r3,4(r17)
 800a338:	88800c17 	ldw	r2,48(r17)
 800a33c:	30cdc83a 	sub	r6,r6,r3
 800a340:	10000226 	beq	r2,zero,800a34c <__sflush_r+0x78>
 800a344:	88800f17 	ldw	r2,60(r17)
 800a348:	308dc83a 	sub	r6,r6,r2
 800a34c:	89400717 	ldw	r5,28(r17)
 800a350:	000f883a 	mov	r7,zero
 800a354:	9809883a 	mov	r4,r19
 800a358:	403ee83a 	callr	r8
 800a35c:	00ffffc4 	movi	r3,-1
 800a360:	10c04426 	beq	r2,r3,800a474 <__sflush_r+0x1a0>
 800a364:	88c0030b 	ldhu	r3,12(r17)
 800a368:	89000417 	ldw	r4,16(r17)
 800a36c:	88000115 	stw	zero,4(r17)
 800a370:	197dffcc 	andi	r5,r3,63487
 800a374:	8940030d 	sth	r5,12(r17)
 800a378:	89000015 	stw	r4,0(r17)
 800a37c:	18c4000c 	andi	r3,r3,4096
 800a380:	18002c1e 	bne	r3,zero,800a434 <__sflush_r+0x160>
 800a384:	89400c17 	ldw	r5,48(r17)
 800a388:	9c000015 	stw	r16,0(r19)
 800a38c:	28000526 	beq	r5,zero,800a3a4 <__sflush_r+0xd0>
 800a390:	88801004 	addi	r2,r17,64
 800a394:	28800226 	beq	r5,r2,800a3a0 <__sflush_r+0xcc>
 800a398:	9809883a 	mov	r4,r19
 800a39c:	800aa500 	call	800aa50 <_free_r>
 800a3a0:	88000c15 	stw	zero,48(r17)
 800a3a4:	0005883a 	mov	r2,zero
 800a3a8:	dfc00417 	ldw	ra,16(sp)
 800a3ac:	dcc00317 	ldw	r19,12(sp)
 800a3b0:	dc800217 	ldw	r18,8(sp)
 800a3b4:	dc400117 	ldw	r17,4(sp)
 800a3b8:	dc000017 	ldw	r16,0(sp)
 800a3bc:	dec00504 	addi	sp,sp,20
 800a3c0:	f800283a 	ret
 800a3c4:	2c800417 	ldw	r18,16(r5)
 800a3c8:	903ff626 	beq	r18,zero,800a3a4 <__alt_data_end+0xf800a3a4>
 800a3cc:	2c000017 	ldw	r16,0(r5)
 800a3d0:	108000cc 	andi	r2,r2,3
 800a3d4:	2c800015 	stw	r18,0(r5)
 800a3d8:	84a1c83a 	sub	r16,r16,r18
 800a3dc:	1000131e 	bne	r2,zero,800a42c <__sflush_r+0x158>
 800a3e0:	28800517 	ldw	r2,20(r5)
 800a3e4:	88800215 	stw	r2,8(r17)
 800a3e8:	04000316 	blt	zero,r16,800a3f8 <__sflush_r+0x124>
 800a3ec:	003fed06 	br	800a3a4 <__alt_data_end+0xf800a3a4>
 800a3f0:	90a5883a 	add	r18,r18,r2
 800a3f4:	043feb0e 	bge	zero,r16,800a3a4 <__alt_data_end+0xf800a3a4>
 800a3f8:	88800917 	ldw	r2,36(r17)
 800a3fc:	89400717 	ldw	r5,28(r17)
 800a400:	800f883a 	mov	r7,r16
 800a404:	900d883a 	mov	r6,r18
 800a408:	9809883a 	mov	r4,r19
 800a40c:	103ee83a 	callr	r2
 800a410:	80a1c83a 	sub	r16,r16,r2
 800a414:	00bff616 	blt	zero,r2,800a3f0 <__alt_data_end+0xf800a3f0>
 800a418:	88c0030b 	ldhu	r3,12(r17)
 800a41c:	00bfffc4 	movi	r2,-1
 800a420:	18c01014 	ori	r3,r3,64
 800a424:	88c0030d 	sth	r3,12(r17)
 800a428:	003fdf06 	br	800a3a8 <__alt_data_end+0xf800a3a8>
 800a42c:	0005883a 	mov	r2,zero
 800a430:	003fec06 	br	800a3e4 <__alt_data_end+0xf800a3e4>
 800a434:	88801415 	stw	r2,80(r17)
 800a438:	003fd206 	br	800a384 <__alt_data_end+0xf800a384>
 800a43c:	28c00f17 	ldw	r3,60(r5)
 800a440:	00ffb316 	blt	zero,r3,800a310 <__alt_data_end+0xf800a310>
 800a444:	003fd706 	br	800a3a4 <__alt_data_end+0xf800a3a4>
 800a448:	89400717 	ldw	r5,28(r17)
 800a44c:	000d883a 	mov	r6,zero
 800a450:	01c00044 	movi	r7,1
 800a454:	9809883a 	mov	r4,r19
 800a458:	403ee83a 	callr	r8
 800a45c:	100d883a 	mov	r6,r2
 800a460:	00bfffc4 	movi	r2,-1
 800a464:	30801426 	beq	r6,r2,800a4b8 <__sflush_r+0x1e4>
 800a468:	8880030b 	ldhu	r2,12(r17)
 800a46c:	8a000a17 	ldw	r8,40(r17)
 800a470:	003fae06 	br	800a32c <__alt_data_end+0xf800a32c>
 800a474:	98c00017 	ldw	r3,0(r19)
 800a478:	183fba26 	beq	r3,zero,800a364 <__alt_data_end+0xf800a364>
 800a47c:	01000744 	movi	r4,29
 800a480:	19000626 	beq	r3,r4,800a49c <__sflush_r+0x1c8>
 800a484:	01000584 	movi	r4,22
 800a488:	19000426 	beq	r3,r4,800a49c <__sflush_r+0x1c8>
 800a48c:	88c0030b 	ldhu	r3,12(r17)
 800a490:	18c01014 	ori	r3,r3,64
 800a494:	88c0030d 	sth	r3,12(r17)
 800a498:	003fc306 	br	800a3a8 <__alt_data_end+0xf800a3a8>
 800a49c:	8880030b 	ldhu	r2,12(r17)
 800a4a0:	88c00417 	ldw	r3,16(r17)
 800a4a4:	88000115 	stw	zero,4(r17)
 800a4a8:	10bdffcc 	andi	r2,r2,63487
 800a4ac:	8880030d 	sth	r2,12(r17)
 800a4b0:	88c00015 	stw	r3,0(r17)
 800a4b4:	003fb306 	br	800a384 <__alt_data_end+0xf800a384>
 800a4b8:	98800017 	ldw	r2,0(r19)
 800a4bc:	103fea26 	beq	r2,zero,800a468 <__alt_data_end+0xf800a468>
 800a4c0:	00c00744 	movi	r3,29
 800a4c4:	10c00226 	beq	r2,r3,800a4d0 <__sflush_r+0x1fc>
 800a4c8:	00c00584 	movi	r3,22
 800a4cc:	10c0031e 	bne	r2,r3,800a4dc <__sflush_r+0x208>
 800a4d0:	9c000015 	stw	r16,0(r19)
 800a4d4:	0005883a 	mov	r2,zero
 800a4d8:	003fb306 	br	800a3a8 <__alt_data_end+0xf800a3a8>
 800a4dc:	88c0030b 	ldhu	r3,12(r17)
 800a4e0:	3005883a 	mov	r2,r6
 800a4e4:	18c01014 	ori	r3,r3,64
 800a4e8:	88c0030d 	sth	r3,12(r17)
 800a4ec:	003fae06 	br	800a3a8 <__alt_data_end+0xf800a3a8>

0800a4f0 <_fflush_r>:
 800a4f0:	defffd04 	addi	sp,sp,-12
 800a4f4:	dc000115 	stw	r16,4(sp)
 800a4f8:	dfc00215 	stw	ra,8(sp)
 800a4fc:	2021883a 	mov	r16,r4
 800a500:	20000226 	beq	r4,zero,800a50c <_fflush_r+0x1c>
 800a504:	20800e17 	ldw	r2,56(r4)
 800a508:	10000c26 	beq	r2,zero,800a53c <_fflush_r+0x4c>
 800a50c:	2880030f 	ldh	r2,12(r5)
 800a510:	1000051e 	bne	r2,zero,800a528 <_fflush_r+0x38>
 800a514:	0005883a 	mov	r2,zero
 800a518:	dfc00217 	ldw	ra,8(sp)
 800a51c:	dc000117 	ldw	r16,4(sp)
 800a520:	dec00304 	addi	sp,sp,12
 800a524:	f800283a 	ret
 800a528:	8009883a 	mov	r4,r16
 800a52c:	dfc00217 	ldw	ra,8(sp)
 800a530:	dc000117 	ldw	r16,4(sp)
 800a534:	dec00304 	addi	sp,sp,12
 800a538:	800a2d41 	jmpi	800a2d4 <__sflush_r>
 800a53c:	d9400015 	stw	r5,0(sp)
 800a540:	800a8dc0 	call	800a8dc <__sinit>
 800a544:	d9400017 	ldw	r5,0(sp)
 800a548:	003ff006 	br	800a50c <__alt_data_end+0xf800a50c>

0800a54c <fflush>:
 800a54c:	20000526 	beq	r4,zero,800a564 <fflush+0x18>
 800a550:	00820074 	movhi	r2,2049
 800a554:	109b0804 	addi	r2,r2,27680
 800a558:	200b883a 	mov	r5,r4
 800a55c:	11000017 	ldw	r4,0(r2)
 800a560:	800a4f01 	jmpi	800a4f0 <_fflush_r>
 800a564:	00820074 	movhi	r2,2049
 800a568:	109b0704 	addi	r2,r2,27676
 800a56c:	11000017 	ldw	r4,0(r2)
 800a570:	01420074 	movhi	r5,2049
 800a574:	29693c04 	addi	r5,r5,-23312
 800a578:	800b2ec1 	jmpi	800b2ec <_fwalk_reent>

0800a57c <__fp_unlock>:
 800a57c:	0005883a 	mov	r2,zero
 800a580:	f800283a 	ret

0800a584 <_cleanup_r>:
 800a584:	01420074 	movhi	r5,2049
 800a588:	297d2204 	addi	r5,r5,-2936
 800a58c:	800b2ec1 	jmpi	800b2ec <_fwalk_reent>

0800a590 <__sinit.part.1>:
 800a590:	defff704 	addi	sp,sp,-36
 800a594:	00c20074 	movhi	r3,2049
 800a598:	dfc00815 	stw	ra,32(sp)
 800a59c:	ddc00715 	stw	r23,28(sp)
 800a5a0:	dd800615 	stw	r22,24(sp)
 800a5a4:	dd400515 	stw	r21,20(sp)
 800a5a8:	dd000415 	stw	r20,16(sp)
 800a5ac:	dcc00315 	stw	r19,12(sp)
 800a5b0:	dc800215 	stw	r18,8(sp)
 800a5b4:	dc400115 	stw	r17,4(sp)
 800a5b8:	dc000015 	stw	r16,0(sp)
 800a5bc:	18e96104 	addi	r3,r3,-23164
 800a5c0:	24000117 	ldw	r16,4(r4)
 800a5c4:	20c00f15 	stw	r3,60(r4)
 800a5c8:	2080bb04 	addi	r2,r4,748
 800a5cc:	00c000c4 	movi	r3,3
 800a5d0:	20c0b915 	stw	r3,740(r4)
 800a5d4:	2080ba15 	stw	r2,744(r4)
 800a5d8:	2000b815 	stw	zero,736(r4)
 800a5dc:	05c00204 	movi	r23,8
 800a5e0:	00800104 	movi	r2,4
 800a5e4:	2025883a 	mov	r18,r4
 800a5e8:	b80d883a 	mov	r6,r23
 800a5ec:	81001704 	addi	r4,r16,92
 800a5f0:	000b883a 	mov	r5,zero
 800a5f4:	80000015 	stw	zero,0(r16)
 800a5f8:	80000115 	stw	zero,4(r16)
 800a5fc:	80000215 	stw	zero,8(r16)
 800a600:	8080030d 	sth	r2,12(r16)
 800a604:	80001915 	stw	zero,100(r16)
 800a608:	8000038d 	sth	zero,14(r16)
 800a60c:	80000415 	stw	zero,16(r16)
 800a610:	80000515 	stw	zero,20(r16)
 800a614:	80000615 	stw	zero,24(r16)
 800a618:	800c1dc0 	call	800c1dc <memset>
 800a61c:	05820074 	movhi	r22,2049
 800a620:	94400217 	ldw	r17,8(r18)
 800a624:	05420074 	movhi	r21,2049
 800a628:	05020074 	movhi	r20,2049
 800a62c:	04c20074 	movhi	r19,2049
 800a630:	b5b67a04 	addi	r22,r22,-9752
 800a634:	ad769104 	addi	r21,r21,-9660
 800a638:	a536b004 	addi	r20,r20,-9536
 800a63c:	9cf6c704 	addi	r19,r19,-9444
 800a640:	85800815 	stw	r22,32(r16)
 800a644:	85400915 	stw	r21,36(r16)
 800a648:	85000a15 	stw	r20,40(r16)
 800a64c:	84c00b15 	stw	r19,44(r16)
 800a650:	84000715 	stw	r16,28(r16)
 800a654:	00800284 	movi	r2,10
 800a658:	8880030d 	sth	r2,12(r17)
 800a65c:	00800044 	movi	r2,1
 800a660:	b80d883a 	mov	r6,r23
 800a664:	89001704 	addi	r4,r17,92
 800a668:	000b883a 	mov	r5,zero
 800a66c:	88000015 	stw	zero,0(r17)
 800a670:	88000115 	stw	zero,4(r17)
 800a674:	88000215 	stw	zero,8(r17)
 800a678:	88001915 	stw	zero,100(r17)
 800a67c:	8880038d 	sth	r2,14(r17)
 800a680:	88000415 	stw	zero,16(r17)
 800a684:	88000515 	stw	zero,20(r17)
 800a688:	88000615 	stw	zero,24(r17)
 800a68c:	800c1dc0 	call	800c1dc <memset>
 800a690:	94000317 	ldw	r16,12(r18)
 800a694:	00800484 	movi	r2,18
 800a698:	8c400715 	stw	r17,28(r17)
 800a69c:	8d800815 	stw	r22,32(r17)
 800a6a0:	8d400915 	stw	r21,36(r17)
 800a6a4:	8d000a15 	stw	r20,40(r17)
 800a6a8:	8cc00b15 	stw	r19,44(r17)
 800a6ac:	8080030d 	sth	r2,12(r16)
 800a6b0:	00800084 	movi	r2,2
 800a6b4:	80000015 	stw	zero,0(r16)
 800a6b8:	80000115 	stw	zero,4(r16)
 800a6bc:	80000215 	stw	zero,8(r16)
 800a6c0:	80001915 	stw	zero,100(r16)
 800a6c4:	8080038d 	sth	r2,14(r16)
 800a6c8:	80000415 	stw	zero,16(r16)
 800a6cc:	80000515 	stw	zero,20(r16)
 800a6d0:	80000615 	stw	zero,24(r16)
 800a6d4:	b80d883a 	mov	r6,r23
 800a6d8:	000b883a 	mov	r5,zero
 800a6dc:	81001704 	addi	r4,r16,92
 800a6e0:	800c1dc0 	call	800c1dc <memset>
 800a6e4:	00800044 	movi	r2,1
 800a6e8:	84000715 	stw	r16,28(r16)
 800a6ec:	85800815 	stw	r22,32(r16)
 800a6f0:	85400915 	stw	r21,36(r16)
 800a6f4:	85000a15 	stw	r20,40(r16)
 800a6f8:	84c00b15 	stw	r19,44(r16)
 800a6fc:	90800e15 	stw	r2,56(r18)
 800a700:	dfc00817 	ldw	ra,32(sp)
 800a704:	ddc00717 	ldw	r23,28(sp)
 800a708:	dd800617 	ldw	r22,24(sp)
 800a70c:	dd400517 	ldw	r21,20(sp)
 800a710:	dd000417 	ldw	r20,16(sp)
 800a714:	dcc00317 	ldw	r19,12(sp)
 800a718:	dc800217 	ldw	r18,8(sp)
 800a71c:	dc400117 	ldw	r17,4(sp)
 800a720:	dc000017 	ldw	r16,0(sp)
 800a724:	dec00904 	addi	sp,sp,36
 800a728:	f800283a 	ret

0800a72c <__fp_lock>:
 800a72c:	0005883a 	mov	r2,zero
 800a730:	f800283a 	ret

0800a734 <__sfmoreglue>:
 800a734:	defffc04 	addi	sp,sp,-16
 800a738:	dc800215 	stw	r18,8(sp)
 800a73c:	2825883a 	mov	r18,r5
 800a740:	dc000015 	stw	r16,0(sp)
 800a744:	01401a04 	movi	r5,104
 800a748:	2021883a 	mov	r16,r4
 800a74c:	913fffc4 	addi	r4,r18,-1
 800a750:	dfc00315 	stw	ra,12(sp)
 800a754:	dc400115 	stw	r17,4(sp)
 800a758:	80054680 	call	8005468 <__mulsi3>
 800a75c:	8009883a 	mov	r4,r16
 800a760:	11401d04 	addi	r5,r2,116
 800a764:	1023883a 	mov	r17,r2
 800a768:	800b6480 	call	800b648 <_malloc_r>
 800a76c:	1021883a 	mov	r16,r2
 800a770:	10000726 	beq	r2,zero,800a790 <__sfmoreglue+0x5c>
 800a774:	11000304 	addi	r4,r2,12
 800a778:	10000015 	stw	zero,0(r2)
 800a77c:	14800115 	stw	r18,4(r2)
 800a780:	11000215 	stw	r4,8(r2)
 800a784:	89801a04 	addi	r6,r17,104
 800a788:	000b883a 	mov	r5,zero
 800a78c:	800c1dc0 	call	800c1dc <memset>
 800a790:	8005883a 	mov	r2,r16
 800a794:	dfc00317 	ldw	ra,12(sp)
 800a798:	dc800217 	ldw	r18,8(sp)
 800a79c:	dc400117 	ldw	r17,4(sp)
 800a7a0:	dc000017 	ldw	r16,0(sp)
 800a7a4:	dec00404 	addi	sp,sp,16
 800a7a8:	f800283a 	ret

0800a7ac <__sfp>:
 800a7ac:	defffb04 	addi	sp,sp,-20
 800a7b0:	dc000015 	stw	r16,0(sp)
 800a7b4:	04020074 	movhi	r16,2049
 800a7b8:	841b0704 	addi	r16,r16,27676
 800a7bc:	dcc00315 	stw	r19,12(sp)
 800a7c0:	2027883a 	mov	r19,r4
 800a7c4:	81000017 	ldw	r4,0(r16)
 800a7c8:	dfc00415 	stw	ra,16(sp)
 800a7cc:	dc800215 	stw	r18,8(sp)
 800a7d0:	20800e17 	ldw	r2,56(r4)
 800a7d4:	dc400115 	stw	r17,4(sp)
 800a7d8:	1000021e 	bne	r2,zero,800a7e4 <__sfp+0x38>
 800a7dc:	800a5900 	call	800a590 <__sinit.part.1>
 800a7e0:	81000017 	ldw	r4,0(r16)
 800a7e4:	2480b804 	addi	r18,r4,736
 800a7e8:	047fffc4 	movi	r17,-1
 800a7ec:	91000117 	ldw	r4,4(r18)
 800a7f0:	94000217 	ldw	r16,8(r18)
 800a7f4:	213fffc4 	addi	r4,r4,-1
 800a7f8:	20000a16 	blt	r4,zero,800a824 <__sfp+0x78>
 800a7fc:	8080030f 	ldh	r2,12(r16)
 800a800:	10000c26 	beq	r2,zero,800a834 <__sfp+0x88>
 800a804:	80c01d04 	addi	r3,r16,116
 800a808:	00000206 	br	800a814 <__sfp+0x68>
 800a80c:	18bfe60f 	ldh	r2,-104(r3)
 800a810:	10000826 	beq	r2,zero,800a834 <__sfp+0x88>
 800a814:	213fffc4 	addi	r4,r4,-1
 800a818:	1c3ffd04 	addi	r16,r3,-12
 800a81c:	18c01a04 	addi	r3,r3,104
 800a820:	247ffa1e 	bne	r4,r17,800a80c <__alt_data_end+0xf800a80c>
 800a824:	90800017 	ldw	r2,0(r18)
 800a828:	10001d26 	beq	r2,zero,800a8a0 <__sfp+0xf4>
 800a82c:	1025883a 	mov	r18,r2
 800a830:	003fee06 	br	800a7ec <__alt_data_end+0xf800a7ec>
 800a834:	00bfffc4 	movi	r2,-1
 800a838:	8080038d 	sth	r2,14(r16)
 800a83c:	00800044 	movi	r2,1
 800a840:	8080030d 	sth	r2,12(r16)
 800a844:	80001915 	stw	zero,100(r16)
 800a848:	80000015 	stw	zero,0(r16)
 800a84c:	80000215 	stw	zero,8(r16)
 800a850:	80000115 	stw	zero,4(r16)
 800a854:	80000415 	stw	zero,16(r16)
 800a858:	80000515 	stw	zero,20(r16)
 800a85c:	80000615 	stw	zero,24(r16)
 800a860:	01800204 	movi	r6,8
 800a864:	000b883a 	mov	r5,zero
 800a868:	81001704 	addi	r4,r16,92
 800a86c:	800c1dc0 	call	800c1dc <memset>
 800a870:	8005883a 	mov	r2,r16
 800a874:	80000c15 	stw	zero,48(r16)
 800a878:	80000d15 	stw	zero,52(r16)
 800a87c:	80001115 	stw	zero,68(r16)
 800a880:	80001215 	stw	zero,72(r16)
 800a884:	dfc00417 	ldw	ra,16(sp)
 800a888:	dcc00317 	ldw	r19,12(sp)
 800a88c:	dc800217 	ldw	r18,8(sp)
 800a890:	dc400117 	ldw	r17,4(sp)
 800a894:	dc000017 	ldw	r16,0(sp)
 800a898:	dec00504 	addi	sp,sp,20
 800a89c:	f800283a 	ret
 800a8a0:	01400104 	movi	r5,4
 800a8a4:	9809883a 	mov	r4,r19
 800a8a8:	800a7340 	call	800a734 <__sfmoreglue>
 800a8ac:	90800015 	stw	r2,0(r18)
 800a8b0:	103fde1e 	bne	r2,zero,800a82c <__alt_data_end+0xf800a82c>
 800a8b4:	00800304 	movi	r2,12
 800a8b8:	98800015 	stw	r2,0(r19)
 800a8bc:	0005883a 	mov	r2,zero
 800a8c0:	003ff006 	br	800a884 <__alt_data_end+0xf800a884>

0800a8c4 <_cleanup>:
 800a8c4:	00820074 	movhi	r2,2049
 800a8c8:	109b0704 	addi	r2,r2,27676
 800a8cc:	11000017 	ldw	r4,0(r2)
 800a8d0:	01420074 	movhi	r5,2049
 800a8d4:	297d2204 	addi	r5,r5,-2936
 800a8d8:	800b2ec1 	jmpi	800b2ec <_fwalk_reent>

0800a8dc <__sinit>:
 800a8dc:	20800e17 	ldw	r2,56(r4)
 800a8e0:	10000126 	beq	r2,zero,800a8e8 <__sinit+0xc>
 800a8e4:	f800283a 	ret
 800a8e8:	800a5901 	jmpi	800a590 <__sinit.part.1>

0800a8ec <__sfp_lock_acquire>:
 800a8ec:	f800283a 	ret

0800a8f0 <__sfp_lock_release>:
 800a8f0:	f800283a 	ret

0800a8f4 <__sinit_lock_acquire>:
 800a8f4:	f800283a 	ret

0800a8f8 <__sinit_lock_release>:
 800a8f8:	f800283a 	ret

0800a8fc <__fp_lock_all>:
 800a8fc:	00820074 	movhi	r2,2049
 800a900:	109b0804 	addi	r2,r2,27680
 800a904:	11000017 	ldw	r4,0(r2)
 800a908:	01420074 	movhi	r5,2049
 800a90c:	2969cb04 	addi	r5,r5,-22740
 800a910:	800b2281 	jmpi	800b228 <_fwalk>

0800a914 <__fp_unlock_all>:
 800a914:	00820074 	movhi	r2,2049
 800a918:	109b0804 	addi	r2,r2,27680
 800a91c:	11000017 	ldw	r4,0(r2)
 800a920:	01420074 	movhi	r5,2049
 800a924:	29695f04 	addi	r5,r5,-23172
 800a928:	800b2281 	jmpi	800b228 <_fwalk>

0800a92c <_malloc_trim_r>:
 800a92c:	defffb04 	addi	sp,sp,-20
 800a930:	dcc00315 	stw	r19,12(sp)
 800a934:	04c20074 	movhi	r19,2049
 800a938:	dc800215 	stw	r18,8(sp)
 800a93c:	dc400115 	stw	r17,4(sp)
 800a940:	dc000015 	stw	r16,0(sp)
 800a944:	dfc00415 	stw	ra,16(sp)
 800a948:	2821883a 	mov	r16,r5
 800a94c:	9cd55a04 	addi	r19,r19,21864
 800a950:	2025883a 	mov	r18,r4
 800a954:	80129980 	call	8012998 <__malloc_lock>
 800a958:	98800217 	ldw	r2,8(r19)
 800a95c:	14400117 	ldw	r17,4(r2)
 800a960:	00bfff04 	movi	r2,-4
 800a964:	88a2703a 	and	r17,r17,r2
 800a968:	8c21c83a 	sub	r16,r17,r16
 800a96c:	8403fbc4 	addi	r16,r16,4079
 800a970:	8020d33a 	srli	r16,r16,12
 800a974:	0083ffc4 	movi	r2,4095
 800a978:	843fffc4 	addi	r16,r16,-1
 800a97c:	8020933a 	slli	r16,r16,12
 800a980:	1400060e 	bge	r2,r16,800a99c <_malloc_trim_r+0x70>
 800a984:	000b883a 	mov	r5,zero
 800a988:	9009883a 	mov	r4,r18
 800a98c:	800d9940 	call	800d994 <_sbrk_r>
 800a990:	98c00217 	ldw	r3,8(r19)
 800a994:	1c47883a 	add	r3,r3,r17
 800a998:	10c00a26 	beq	r2,r3,800a9c4 <_malloc_trim_r+0x98>
 800a99c:	9009883a 	mov	r4,r18
 800a9a0:	80129bc0 	call	80129bc <__malloc_unlock>
 800a9a4:	0005883a 	mov	r2,zero
 800a9a8:	dfc00417 	ldw	ra,16(sp)
 800a9ac:	dcc00317 	ldw	r19,12(sp)
 800a9b0:	dc800217 	ldw	r18,8(sp)
 800a9b4:	dc400117 	ldw	r17,4(sp)
 800a9b8:	dc000017 	ldw	r16,0(sp)
 800a9bc:	dec00504 	addi	sp,sp,20
 800a9c0:	f800283a 	ret
 800a9c4:	040bc83a 	sub	r5,zero,r16
 800a9c8:	9009883a 	mov	r4,r18
 800a9cc:	800d9940 	call	800d994 <_sbrk_r>
 800a9d0:	00ffffc4 	movi	r3,-1
 800a9d4:	10c00d26 	beq	r2,r3,800aa0c <_malloc_trim_r+0xe0>
 800a9d8:	00c200b4 	movhi	r3,2050
 800a9dc:	18e21704 	addi	r3,r3,-30628
 800a9e0:	18800017 	ldw	r2,0(r3)
 800a9e4:	99000217 	ldw	r4,8(r19)
 800a9e8:	8c23c83a 	sub	r17,r17,r16
 800a9ec:	8c400054 	ori	r17,r17,1
 800a9f0:	1421c83a 	sub	r16,r2,r16
 800a9f4:	24400115 	stw	r17,4(r4)
 800a9f8:	9009883a 	mov	r4,r18
 800a9fc:	1c000015 	stw	r16,0(r3)
 800aa00:	80129bc0 	call	80129bc <__malloc_unlock>
 800aa04:	00800044 	movi	r2,1
 800aa08:	003fe706 	br	800a9a8 <__alt_data_end+0xf800a9a8>
 800aa0c:	000b883a 	mov	r5,zero
 800aa10:	9009883a 	mov	r4,r18
 800aa14:	800d9940 	call	800d994 <_sbrk_r>
 800aa18:	99000217 	ldw	r4,8(r19)
 800aa1c:	014003c4 	movi	r5,15
 800aa20:	1107c83a 	sub	r3,r2,r4
 800aa24:	28ffdd0e 	bge	r5,r3,800a99c <__alt_data_end+0xf800a99c>
 800aa28:	01420074 	movhi	r5,2049
 800aa2c:	295b0a04 	addi	r5,r5,27688
 800aa30:	29400017 	ldw	r5,0(r5)
 800aa34:	18c00054 	ori	r3,r3,1
 800aa38:	20c00115 	stw	r3,4(r4)
 800aa3c:	00c200b4 	movhi	r3,2050
 800aa40:	1145c83a 	sub	r2,r2,r5
 800aa44:	18e21704 	addi	r3,r3,-30628
 800aa48:	18800015 	stw	r2,0(r3)
 800aa4c:	003fd306 	br	800a99c <__alt_data_end+0xf800a99c>

0800aa50 <_free_r>:
 800aa50:	28004126 	beq	r5,zero,800ab58 <_free_r+0x108>
 800aa54:	defffd04 	addi	sp,sp,-12
 800aa58:	dc400115 	stw	r17,4(sp)
 800aa5c:	dc000015 	stw	r16,0(sp)
 800aa60:	2023883a 	mov	r17,r4
 800aa64:	2821883a 	mov	r16,r5
 800aa68:	dfc00215 	stw	ra,8(sp)
 800aa6c:	80129980 	call	8012998 <__malloc_lock>
 800aa70:	81ffff17 	ldw	r7,-4(r16)
 800aa74:	00bfff84 	movi	r2,-2
 800aa78:	01020074 	movhi	r4,2049
 800aa7c:	81bffe04 	addi	r6,r16,-8
 800aa80:	3884703a 	and	r2,r7,r2
 800aa84:	21155a04 	addi	r4,r4,21864
 800aa88:	308b883a 	add	r5,r6,r2
 800aa8c:	2a400117 	ldw	r9,4(r5)
 800aa90:	22000217 	ldw	r8,8(r4)
 800aa94:	00ffff04 	movi	r3,-4
 800aa98:	48c6703a 	and	r3,r9,r3
 800aa9c:	2a005726 	beq	r5,r8,800abfc <_free_r+0x1ac>
 800aaa0:	28c00115 	stw	r3,4(r5)
 800aaa4:	39c0004c 	andi	r7,r7,1
 800aaa8:	3800091e 	bne	r7,zero,800aad0 <_free_r+0x80>
 800aaac:	823ffe17 	ldw	r8,-8(r16)
 800aab0:	22400204 	addi	r9,r4,8
 800aab4:	320dc83a 	sub	r6,r6,r8
 800aab8:	31c00217 	ldw	r7,8(r6)
 800aabc:	1205883a 	add	r2,r2,r8
 800aac0:	3a406526 	beq	r7,r9,800ac58 <_free_r+0x208>
 800aac4:	32000317 	ldw	r8,12(r6)
 800aac8:	3a000315 	stw	r8,12(r7)
 800aacc:	41c00215 	stw	r7,8(r8)
 800aad0:	28cf883a 	add	r7,r5,r3
 800aad4:	39c00117 	ldw	r7,4(r7)
 800aad8:	39c0004c 	andi	r7,r7,1
 800aadc:	38003a26 	beq	r7,zero,800abc8 <_free_r+0x178>
 800aae0:	10c00054 	ori	r3,r2,1
 800aae4:	30c00115 	stw	r3,4(r6)
 800aae8:	3087883a 	add	r3,r6,r2
 800aaec:	18800015 	stw	r2,0(r3)
 800aaf0:	00c07fc4 	movi	r3,511
 800aaf4:	18801936 	bltu	r3,r2,800ab5c <_free_r+0x10c>
 800aaf8:	1004d0fa 	srli	r2,r2,3
 800aafc:	01c00044 	movi	r7,1
 800ab00:	21400117 	ldw	r5,4(r4)
 800ab04:	10c00044 	addi	r3,r2,1
 800ab08:	18c7883a 	add	r3,r3,r3
 800ab0c:	1005d0ba 	srai	r2,r2,2
 800ab10:	18c7883a 	add	r3,r3,r3
 800ab14:	18c7883a 	add	r3,r3,r3
 800ab18:	1907883a 	add	r3,r3,r4
 800ab1c:	3884983a 	sll	r2,r7,r2
 800ab20:	19c00017 	ldw	r7,0(r3)
 800ab24:	1a3ffe04 	addi	r8,r3,-8
 800ab28:	1144b03a 	or	r2,r2,r5
 800ab2c:	32000315 	stw	r8,12(r6)
 800ab30:	31c00215 	stw	r7,8(r6)
 800ab34:	20800115 	stw	r2,4(r4)
 800ab38:	19800015 	stw	r6,0(r3)
 800ab3c:	39800315 	stw	r6,12(r7)
 800ab40:	8809883a 	mov	r4,r17
 800ab44:	dfc00217 	ldw	ra,8(sp)
 800ab48:	dc400117 	ldw	r17,4(sp)
 800ab4c:	dc000017 	ldw	r16,0(sp)
 800ab50:	dec00304 	addi	sp,sp,12
 800ab54:	80129bc1 	jmpi	80129bc <__malloc_unlock>
 800ab58:	f800283a 	ret
 800ab5c:	100ad27a 	srli	r5,r2,9
 800ab60:	00c00104 	movi	r3,4
 800ab64:	19404a36 	bltu	r3,r5,800ac90 <_free_r+0x240>
 800ab68:	100ad1ba 	srli	r5,r2,6
 800ab6c:	28c00e44 	addi	r3,r5,57
 800ab70:	18c7883a 	add	r3,r3,r3
 800ab74:	29400e04 	addi	r5,r5,56
 800ab78:	18c7883a 	add	r3,r3,r3
 800ab7c:	18c7883a 	add	r3,r3,r3
 800ab80:	1909883a 	add	r4,r3,r4
 800ab84:	20c00017 	ldw	r3,0(r4)
 800ab88:	01c20074 	movhi	r7,2049
 800ab8c:	213ffe04 	addi	r4,r4,-8
 800ab90:	39d55a04 	addi	r7,r7,21864
 800ab94:	20c04426 	beq	r4,r3,800aca8 <_free_r+0x258>
 800ab98:	01ffff04 	movi	r7,-4
 800ab9c:	19400117 	ldw	r5,4(r3)
 800aba0:	29ca703a 	and	r5,r5,r7
 800aba4:	1140022e 	bgeu	r2,r5,800abb0 <_free_r+0x160>
 800aba8:	18c00217 	ldw	r3,8(r3)
 800abac:	20fffb1e 	bne	r4,r3,800ab9c <__alt_data_end+0xf800ab9c>
 800abb0:	19000317 	ldw	r4,12(r3)
 800abb4:	31000315 	stw	r4,12(r6)
 800abb8:	30c00215 	stw	r3,8(r6)
 800abbc:	21800215 	stw	r6,8(r4)
 800abc0:	19800315 	stw	r6,12(r3)
 800abc4:	003fde06 	br	800ab40 <__alt_data_end+0xf800ab40>
 800abc8:	29c00217 	ldw	r7,8(r5)
 800abcc:	10c5883a 	add	r2,r2,r3
 800abd0:	00c20074 	movhi	r3,2049
 800abd4:	18d55c04 	addi	r3,r3,21872
 800abd8:	38c03b26 	beq	r7,r3,800acc8 <_free_r+0x278>
 800abdc:	2a000317 	ldw	r8,12(r5)
 800abe0:	11400054 	ori	r5,r2,1
 800abe4:	3087883a 	add	r3,r6,r2
 800abe8:	3a000315 	stw	r8,12(r7)
 800abec:	41c00215 	stw	r7,8(r8)
 800abf0:	31400115 	stw	r5,4(r6)
 800abf4:	18800015 	stw	r2,0(r3)
 800abf8:	003fbd06 	br	800aaf0 <__alt_data_end+0xf800aaf0>
 800abfc:	39c0004c 	andi	r7,r7,1
 800ac00:	10c5883a 	add	r2,r2,r3
 800ac04:	3800071e 	bne	r7,zero,800ac24 <_free_r+0x1d4>
 800ac08:	81fffe17 	ldw	r7,-8(r16)
 800ac0c:	31cdc83a 	sub	r6,r6,r7
 800ac10:	30c00317 	ldw	r3,12(r6)
 800ac14:	31400217 	ldw	r5,8(r6)
 800ac18:	11c5883a 	add	r2,r2,r7
 800ac1c:	28c00315 	stw	r3,12(r5)
 800ac20:	19400215 	stw	r5,8(r3)
 800ac24:	10c00054 	ori	r3,r2,1
 800ac28:	30c00115 	stw	r3,4(r6)
 800ac2c:	00c20074 	movhi	r3,2049
 800ac30:	18db0b04 	addi	r3,r3,27692
 800ac34:	18c00017 	ldw	r3,0(r3)
 800ac38:	21800215 	stw	r6,8(r4)
 800ac3c:	10ffc036 	bltu	r2,r3,800ab40 <__alt_data_end+0xf800ab40>
 800ac40:	008200b4 	movhi	r2,2050
 800ac44:	10a20e04 	addi	r2,r2,-30664
 800ac48:	11400017 	ldw	r5,0(r2)
 800ac4c:	8809883a 	mov	r4,r17
 800ac50:	800a92c0 	call	800a92c <_malloc_trim_r>
 800ac54:	003fba06 	br	800ab40 <__alt_data_end+0xf800ab40>
 800ac58:	28c9883a 	add	r4,r5,r3
 800ac5c:	21000117 	ldw	r4,4(r4)
 800ac60:	2100004c 	andi	r4,r4,1
 800ac64:	2000391e 	bne	r4,zero,800ad4c <_free_r+0x2fc>
 800ac68:	29c00217 	ldw	r7,8(r5)
 800ac6c:	29000317 	ldw	r4,12(r5)
 800ac70:	1885883a 	add	r2,r3,r2
 800ac74:	10c00054 	ori	r3,r2,1
 800ac78:	39000315 	stw	r4,12(r7)
 800ac7c:	21c00215 	stw	r7,8(r4)
 800ac80:	30c00115 	stw	r3,4(r6)
 800ac84:	308d883a 	add	r6,r6,r2
 800ac88:	30800015 	stw	r2,0(r6)
 800ac8c:	003fac06 	br	800ab40 <__alt_data_end+0xf800ab40>
 800ac90:	00c00504 	movi	r3,20
 800ac94:	19401536 	bltu	r3,r5,800acec <_free_r+0x29c>
 800ac98:	28c01704 	addi	r3,r5,92
 800ac9c:	18c7883a 	add	r3,r3,r3
 800aca0:	294016c4 	addi	r5,r5,91
 800aca4:	003fb406 	br	800ab78 <__alt_data_end+0xf800ab78>
 800aca8:	280bd0ba 	srai	r5,r5,2
 800acac:	00c00044 	movi	r3,1
 800acb0:	38800117 	ldw	r2,4(r7)
 800acb4:	194a983a 	sll	r5,r3,r5
 800acb8:	2007883a 	mov	r3,r4
 800acbc:	2884b03a 	or	r2,r5,r2
 800acc0:	38800115 	stw	r2,4(r7)
 800acc4:	003fbb06 	br	800abb4 <__alt_data_end+0xf800abb4>
 800acc8:	21800515 	stw	r6,20(r4)
 800accc:	21800415 	stw	r6,16(r4)
 800acd0:	10c00054 	ori	r3,r2,1
 800acd4:	31c00315 	stw	r7,12(r6)
 800acd8:	31c00215 	stw	r7,8(r6)
 800acdc:	30c00115 	stw	r3,4(r6)
 800ace0:	308d883a 	add	r6,r6,r2
 800ace4:	30800015 	stw	r2,0(r6)
 800ace8:	003f9506 	br	800ab40 <__alt_data_end+0xf800ab40>
 800acec:	00c01504 	movi	r3,84
 800acf0:	19400536 	bltu	r3,r5,800ad08 <_free_r+0x2b8>
 800acf4:	100ad33a 	srli	r5,r2,12
 800acf8:	28c01bc4 	addi	r3,r5,111
 800acfc:	18c7883a 	add	r3,r3,r3
 800ad00:	29401b84 	addi	r5,r5,110
 800ad04:	003f9c06 	br	800ab78 <__alt_data_end+0xf800ab78>
 800ad08:	00c05504 	movi	r3,340
 800ad0c:	19400536 	bltu	r3,r5,800ad24 <_free_r+0x2d4>
 800ad10:	100ad3fa 	srli	r5,r2,15
 800ad14:	28c01e04 	addi	r3,r5,120
 800ad18:	18c7883a 	add	r3,r3,r3
 800ad1c:	29401dc4 	addi	r5,r5,119
 800ad20:	003f9506 	br	800ab78 <__alt_data_end+0xf800ab78>
 800ad24:	00c15504 	movi	r3,1364
 800ad28:	19400536 	bltu	r3,r5,800ad40 <_free_r+0x2f0>
 800ad2c:	100ad4ba 	srli	r5,r2,18
 800ad30:	28c01f44 	addi	r3,r5,125
 800ad34:	18c7883a 	add	r3,r3,r3
 800ad38:	29401f04 	addi	r5,r5,124
 800ad3c:	003f8e06 	br	800ab78 <__alt_data_end+0xf800ab78>
 800ad40:	00c03f84 	movi	r3,254
 800ad44:	01401f84 	movi	r5,126
 800ad48:	003f8b06 	br	800ab78 <__alt_data_end+0xf800ab78>
 800ad4c:	10c00054 	ori	r3,r2,1
 800ad50:	30c00115 	stw	r3,4(r6)
 800ad54:	308d883a 	add	r6,r6,r2
 800ad58:	30800015 	stw	r2,0(r6)
 800ad5c:	003f7806 	br	800ab40 <__alt_data_end+0xf800ab40>

0800ad60 <__sfvwrite_r>:
 800ad60:	30800217 	ldw	r2,8(r6)
 800ad64:	10006726 	beq	r2,zero,800af04 <__sfvwrite_r+0x1a4>
 800ad68:	28c0030b 	ldhu	r3,12(r5)
 800ad6c:	defff404 	addi	sp,sp,-48
 800ad70:	dd400715 	stw	r21,28(sp)
 800ad74:	dd000615 	stw	r20,24(sp)
 800ad78:	dc000215 	stw	r16,8(sp)
 800ad7c:	dfc00b15 	stw	ra,44(sp)
 800ad80:	df000a15 	stw	fp,40(sp)
 800ad84:	ddc00915 	stw	r23,36(sp)
 800ad88:	dd800815 	stw	r22,32(sp)
 800ad8c:	dcc00515 	stw	r19,20(sp)
 800ad90:	dc800415 	stw	r18,16(sp)
 800ad94:	dc400315 	stw	r17,12(sp)
 800ad98:	1880020c 	andi	r2,r3,8
 800ad9c:	2821883a 	mov	r16,r5
 800ada0:	202b883a 	mov	r21,r4
 800ada4:	3029883a 	mov	r20,r6
 800ada8:	10002726 	beq	r2,zero,800ae48 <__sfvwrite_r+0xe8>
 800adac:	28800417 	ldw	r2,16(r5)
 800adb0:	10002526 	beq	r2,zero,800ae48 <__sfvwrite_r+0xe8>
 800adb4:	1880008c 	andi	r2,r3,2
 800adb8:	a4400017 	ldw	r17,0(r20)
 800adbc:	10002a26 	beq	r2,zero,800ae68 <__sfvwrite_r+0x108>
 800adc0:	05a00034 	movhi	r22,32768
 800adc4:	0027883a 	mov	r19,zero
 800adc8:	0025883a 	mov	r18,zero
 800adcc:	b5bf0004 	addi	r22,r22,-1024
 800add0:	980d883a 	mov	r6,r19
 800add4:	a809883a 	mov	r4,r21
 800add8:	90004626 	beq	r18,zero,800aef4 <__sfvwrite_r+0x194>
 800addc:	900f883a 	mov	r7,r18
 800ade0:	b480022e 	bgeu	r22,r18,800adec <__sfvwrite_r+0x8c>
 800ade4:	01e00034 	movhi	r7,32768
 800ade8:	39ff0004 	addi	r7,r7,-1024
 800adec:	80800917 	ldw	r2,36(r16)
 800adf0:	81400717 	ldw	r5,28(r16)
 800adf4:	103ee83a 	callr	r2
 800adf8:	00805a0e 	bge	zero,r2,800af64 <__sfvwrite_r+0x204>
 800adfc:	a0c00217 	ldw	r3,8(r20)
 800ae00:	98a7883a 	add	r19,r19,r2
 800ae04:	90a5c83a 	sub	r18,r18,r2
 800ae08:	1885c83a 	sub	r2,r3,r2
 800ae0c:	a0800215 	stw	r2,8(r20)
 800ae10:	103fef1e 	bne	r2,zero,800add0 <__alt_data_end+0xf800add0>
 800ae14:	0005883a 	mov	r2,zero
 800ae18:	dfc00b17 	ldw	ra,44(sp)
 800ae1c:	df000a17 	ldw	fp,40(sp)
 800ae20:	ddc00917 	ldw	r23,36(sp)
 800ae24:	dd800817 	ldw	r22,32(sp)
 800ae28:	dd400717 	ldw	r21,28(sp)
 800ae2c:	dd000617 	ldw	r20,24(sp)
 800ae30:	dcc00517 	ldw	r19,20(sp)
 800ae34:	dc800417 	ldw	r18,16(sp)
 800ae38:	dc400317 	ldw	r17,12(sp)
 800ae3c:	dc000217 	ldw	r16,8(sp)
 800ae40:	dec00c04 	addi	sp,sp,48
 800ae44:	f800283a 	ret
 800ae48:	800b883a 	mov	r5,r16
 800ae4c:	a809883a 	mov	r4,r21
 800ae50:	80088d00 	call	80088d0 <__swsetup_r>
 800ae54:	1000ee1e 	bne	r2,zero,800b210 <__sfvwrite_r+0x4b0>
 800ae58:	80c0030b 	ldhu	r3,12(r16)
 800ae5c:	a4400017 	ldw	r17,0(r20)
 800ae60:	1880008c 	andi	r2,r3,2
 800ae64:	103fd61e 	bne	r2,zero,800adc0 <__alt_data_end+0xf800adc0>
 800ae68:	1880004c 	andi	r2,r3,1
 800ae6c:	1000421e 	bne	r2,zero,800af78 <__sfvwrite_r+0x218>
 800ae70:	0039883a 	mov	fp,zero
 800ae74:	0025883a 	mov	r18,zero
 800ae78:	90001a26 	beq	r18,zero,800aee4 <__sfvwrite_r+0x184>
 800ae7c:	1880800c 	andi	r2,r3,512
 800ae80:	84c00217 	ldw	r19,8(r16)
 800ae84:	10002126 	beq	r2,zero,800af0c <__sfvwrite_r+0x1ac>
 800ae88:	982f883a 	mov	r23,r19
 800ae8c:	94c09636 	bltu	r18,r19,800b0e8 <__sfvwrite_r+0x388>
 800ae90:	1881200c 	andi	r2,r3,1152
 800ae94:	1000a11e 	bne	r2,zero,800b11c <__sfvwrite_r+0x3bc>
 800ae98:	81000017 	ldw	r4,0(r16)
 800ae9c:	b80d883a 	mov	r6,r23
 800aea0:	e00b883a 	mov	r5,fp
 800aea4:	800c0800 	call	800c080 <memmove>
 800aea8:	80c00217 	ldw	r3,8(r16)
 800aeac:	81000017 	ldw	r4,0(r16)
 800aeb0:	9005883a 	mov	r2,r18
 800aeb4:	1ce7c83a 	sub	r19,r3,r19
 800aeb8:	25cf883a 	add	r7,r4,r23
 800aebc:	84c00215 	stw	r19,8(r16)
 800aec0:	81c00015 	stw	r7,0(r16)
 800aec4:	a0c00217 	ldw	r3,8(r20)
 800aec8:	e0b9883a 	add	fp,fp,r2
 800aecc:	90a5c83a 	sub	r18,r18,r2
 800aed0:	18a7c83a 	sub	r19,r3,r2
 800aed4:	a4c00215 	stw	r19,8(r20)
 800aed8:	983fce26 	beq	r19,zero,800ae14 <__alt_data_end+0xf800ae14>
 800aedc:	80c0030b 	ldhu	r3,12(r16)
 800aee0:	903fe61e 	bne	r18,zero,800ae7c <__alt_data_end+0xf800ae7c>
 800aee4:	8f000017 	ldw	fp,0(r17)
 800aee8:	8c800117 	ldw	r18,4(r17)
 800aeec:	8c400204 	addi	r17,r17,8
 800aef0:	003fe106 	br	800ae78 <__alt_data_end+0xf800ae78>
 800aef4:	8cc00017 	ldw	r19,0(r17)
 800aef8:	8c800117 	ldw	r18,4(r17)
 800aefc:	8c400204 	addi	r17,r17,8
 800af00:	003fb306 	br	800add0 <__alt_data_end+0xf800add0>
 800af04:	0005883a 	mov	r2,zero
 800af08:	f800283a 	ret
 800af0c:	81000017 	ldw	r4,0(r16)
 800af10:	80800417 	ldw	r2,16(r16)
 800af14:	11005a36 	bltu	r2,r4,800b080 <__sfvwrite_r+0x320>
 800af18:	85c00517 	ldw	r23,20(r16)
 800af1c:	95c05836 	bltu	r18,r23,800b080 <__sfvwrite_r+0x320>
 800af20:	00a00034 	movhi	r2,32768
 800af24:	10bfffc4 	addi	r2,r2,-1
 800af28:	9009883a 	mov	r4,r18
 800af2c:	1480012e 	bgeu	r2,r18,800af34 <__sfvwrite_r+0x1d4>
 800af30:	1009883a 	mov	r4,r2
 800af34:	b80b883a 	mov	r5,r23
 800af38:	800613c0 	call	800613c <__divsi3>
 800af3c:	b80b883a 	mov	r5,r23
 800af40:	1009883a 	mov	r4,r2
 800af44:	80054680 	call	8005468 <__mulsi3>
 800af48:	81400717 	ldw	r5,28(r16)
 800af4c:	80c00917 	ldw	r3,36(r16)
 800af50:	100f883a 	mov	r7,r2
 800af54:	e00d883a 	mov	r6,fp
 800af58:	a809883a 	mov	r4,r21
 800af5c:	183ee83a 	callr	r3
 800af60:	00bfd816 	blt	zero,r2,800aec4 <__alt_data_end+0xf800aec4>
 800af64:	8080030b 	ldhu	r2,12(r16)
 800af68:	10801014 	ori	r2,r2,64
 800af6c:	8080030d 	sth	r2,12(r16)
 800af70:	00bfffc4 	movi	r2,-1
 800af74:	003fa806 	br	800ae18 <__alt_data_end+0xf800ae18>
 800af78:	0027883a 	mov	r19,zero
 800af7c:	0011883a 	mov	r8,zero
 800af80:	0039883a 	mov	fp,zero
 800af84:	0025883a 	mov	r18,zero
 800af88:	90001f26 	beq	r18,zero,800b008 <__sfvwrite_r+0x2a8>
 800af8c:	40005a26 	beq	r8,zero,800b0f8 <__sfvwrite_r+0x398>
 800af90:	982d883a 	mov	r22,r19
 800af94:	94c0012e 	bgeu	r18,r19,800af9c <__sfvwrite_r+0x23c>
 800af98:	902d883a 	mov	r22,r18
 800af9c:	81000017 	ldw	r4,0(r16)
 800afa0:	80800417 	ldw	r2,16(r16)
 800afa4:	b02f883a 	mov	r23,r22
 800afa8:	81c00517 	ldw	r7,20(r16)
 800afac:	1100032e 	bgeu	r2,r4,800afbc <__sfvwrite_r+0x25c>
 800afb0:	80c00217 	ldw	r3,8(r16)
 800afb4:	38c7883a 	add	r3,r7,r3
 800afb8:	1d801816 	blt	r3,r22,800b01c <__sfvwrite_r+0x2bc>
 800afbc:	b1c03e16 	blt	r22,r7,800b0b8 <__sfvwrite_r+0x358>
 800afc0:	80800917 	ldw	r2,36(r16)
 800afc4:	81400717 	ldw	r5,28(r16)
 800afc8:	e00d883a 	mov	r6,fp
 800afcc:	da000115 	stw	r8,4(sp)
 800afd0:	a809883a 	mov	r4,r21
 800afd4:	103ee83a 	callr	r2
 800afd8:	102f883a 	mov	r23,r2
 800afdc:	da000117 	ldw	r8,4(sp)
 800afe0:	00bfe00e 	bge	zero,r2,800af64 <__alt_data_end+0xf800af64>
 800afe4:	9de7c83a 	sub	r19,r19,r23
 800afe8:	98001f26 	beq	r19,zero,800b068 <__sfvwrite_r+0x308>
 800afec:	a0800217 	ldw	r2,8(r20)
 800aff0:	e5f9883a 	add	fp,fp,r23
 800aff4:	95e5c83a 	sub	r18,r18,r23
 800aff8:	15efc83a 	sub	r23,r2,r23
 800affc:	a5c00215 	stw	r23,8(r20)
 800b000:	b83f8426 	beq	r23,zero,800ae14 <__alt_data_end+0xf800ae14>
 800b004:	903fe11e 	bne	r18,zero,800af8c <__alt_data_end+0xf800af8c>
 800b008:	8f000017 	ldw	fp,0(r17)
 800b00c:	8c800117 	ldw	r18,4(r17)
 800b010:	0011883a 	mov	r8,zero
 800b014:	8c400204 	addi	r17,r17,8
 800b018:	003fdb06 	br	800af88 <__alt_data_end+0xf800af88>
 800b01c:	180d883a 	mov	r6,r3
 800b020:	e00b883a 	mov	r5,fp
 800b024:	da000115 	stw	r8,4(sp)
 800b028:	d8c00015 	stw	r3,0(sp)
 800b02c:	800c0800 	call	800c080 <memmove>
 800b030:	d8c00017 	ldw	r3,0(sp)
 800b034:	80800017 	ldw	r2,0(r16)
 800b038:	800b883a 	mov	r5,r16
 800b03c:	a809883a 	mov	r4,r21
 800b040:	10c5883a 	add	r2,r2,r3
 800b044:	80800015 	stw	r2,0(r16)
 800b048:	d8c00015 	stw	r3,0(sp)
 800b04c:	800a4f00 	call	800a4f0 <_fflush_r>
 800b050:	d8c00017 	ldw	r3,0(sp)
 800b054:	da000117 	ldw	r8,4(sp)
 800b058:	103fc21e 	bne	r2,zero,800af64 <__alt_data_end+0xf800af64>
 800b05c:	182f883a 	mov	r23,r3
 800b060:	9de7c83a 	sub	r19,r19,r23
 800b064:	983fe11e 	bne	r19,zero,800afec <__alt_data_end+0xf800afec>
 800b068:	800b883a 	mov	r5,r16
 800b06c:	a809883a 	mov	r4,r21
 800b070:	800a4f00 	call	800a4f0 <_fflush_r>
 800b074:	103fbb1e 	bne	r2,zero,800af64 <__alt_data_end+0xf800af64>
 800b078:	0011883a 	mov	r8,zero
 800b07c:	003fdb06 	br	800afec <__alt_data_end+0xf800afec>
 800b080:	94c0012e 	bgeu	r18,r19,800b088 <__sfvwrite_r+0x328>
 800b084:	9027883a 	mov	r19,r18
 800b088:	980d883a 	mov	r6,r19
 800b08c:	e00b883a 	mov	r5,fp
 800b090:	800c0800 	call	800c080 <memmove>
 800b094:	80800217 	ldw	r2,8(r16)
 800b098:	80c00017 	ldw	r3,0(r16)
 800b09c:	14c5c83a 	sub	r2,r2,r19
 800b0a0:	1cc7883a 	add	r3,r3,r19
 800b0a4:	80800215 	stw	r2,8(r16)
 800b0a8:	80c00015 	stw	r3,0(r16)
 800b0ac:	10004326 	beq	r2,zero,800b1bc <__sfvwrite_r+0x45c>
 800b0b0:	9805883a 	mov	r2,r19
 800b0b4:	003f8306 	br	800aec4 <__alt_data_end+0xf800aec4>
 800b0b8:	b00d883a 	mov	r6,r22
 800b0bc:	e00b883a 	mov	r5,fp
 800b0c0:	da000115 	stw	r8,4(sp)
 800b0c4:	800c0800 	call	800c080 <memmove>
 800b0c8:	80800217 	ldw	r2,8(r16)
 800b0cc:	80c00017 	ldw	r3,0(r16)
 800b0d0:	da000117 	ldw	r8,4(sp)
 800b0d4:	1585c83a 	sub	r2,r2,r22
 800b0d8:	1dad883a 	add	r22,r3,r22
 800b0dc:	80800215 	stw	r2,8(r16)
 800b0e0:	85800015 	stw	r22,0(r16)
 800b0e4:	003fbf06 	br	800afe4 <__alt_data_end+0xf800afe4>
 800b0e8:	81000017 	ldw	r4,0(r16)
 800b0ec:	9027883a 	mov	r19,r18
 800b0f0:	902f883a 	mov	r23,r18
 800b0f4:	003f6906 	br	800ae9c <__alt_data_end+0xf800ae9c>
 800b0f8:	900d883a 	mov	r6,r18
 800b0fc:	01400284 	movi	r5,10
 800b100:	e009883a 	mov	r4,fp
 800b104:	800be540 	call	800be54 <memchr>
 800b108:	10003e26 	beq	r2,zero,800b204 <__sfvwrite_r+0x4a4>
 800b10c:	10800044 	addi	r2,r2,1
 800b110:	1727c83a 	sub	r19,r2,fp
 800b114:	02000044 	movi	r8,1
 800b118:	003f9d06 	br	800af90 <__alt_data_end+0xf800af90>
 800b11c:	80800517 	ldw	r2,20(r16)
 800b120:	81400417 	ldw	r5,16(r16)
 800b124:	81c00017 	ldw	r7,0(r16)
 800b128:	10a7883a 	add	r19,r2,r2
 800b12c:	9885883a 	add	r2,r19,r2
 800b130:	1026d7fa 	srli	r19,r2,31
 800b134:	396dc83a 	sub	r22,r7,r5
 800b138:	b1000044 	addi	r4,r22,1
 800b13c:	9885883a 	add	r2,r19,r2
 800b140:	1027d07a 	srai	r19,r2,1
 800b144:	2485883a 	add	r2,r4,r18
 800b148:	980d883a 	mov	r6,r19
 800b14c:	9880022e 	bgeu	r19,r2,800b158 <__sfvwrite_r+0x3f8>
 800b150:	1027883a 	mov	r19,r2
 800b154:	100d883a 	mov	r6,r2
 800b158:	18c1000c 	andi	r3,r3,1024
 800b15c:	18001c26 	beq	r3,zero,800b1d0 <__sfvwrite_r+0x470>
 800b160:	300b883a 	mov	r5,r6
 800b164:	a809883a 	mov	r4,r21
 800b168:	800b6480 	call	800b648 <_malloc_r>
 800b16c:	102f883a 	mov	r23,r2
 800b170:	10002926 	beq	r2,zero,800b218 <__sfvwrite_r+0x4b8>
 800b174:	81400417 	ldw	r5,16(r16)
 800b178:	b00d883a 	mov	r6,r22
 800b17c:	1009883a 	mov	r4,r2
 800b180:	800bf380 	call	800bf38 <memcpy>
 800b184:	8080030b 	ldhu	r2,12(r16)
 800b188:	00fedfc4 	movi	r3,-1153
 800b18c:	10c4703a 	and	r2,r2,r3
 800b190:	10802014 	ori	r2,r2,128
 800b194:	8080030d 	sth	r2,12(r16)
 800b198:	bd89883a 	add	r4,r23,r22
 800b19c:	9d8fc83a 	sub	r7,r19,r22
 800b1a0:	85c00415 	stw	r23,16(r16)
 800b1a4:	84c00515 	stw	r19,20(r16)
 800b1a8:	81000015 	stw	r4,0(r16)
 800b1ac:	9027883a 	mov	r19,r18
 800b1b0:	81c00215 	stw	r7,8(r16)
 800b1b4:	902f883a 	mov	r23,r18
 800b1b8:	003f3806 	br	800ae9c <__alt_data_end+0xf800ae9c>
 800b1bc:	800b883a 	mov	r5,r16
 800b1c0:	a809883a 	mov	r4,r21
 800b1c4:	800a4f00 	call	800a4f0 <_fflush_r>
 800b1c8:	103fb926 	beq	r2,zero,800b0b0 <__alt_data_end+0xf800b0b0>
 800b1cc:	003f6506 	br	800af64 <__alt_data_end+0xf800af64>
 800b1d0:	a809883a 	mov	r4,r21
 800b1d4:	800d3bc0 	call	800d3bc <_realloc_r>
 800b1d8:	102f883a 	mov	r23,r2
 800b1dc:	103fee1e 	bne	r2,zero,800b198 <__alt_data_end+0xf800b198>
 800b1e0:	81400417 	ldw	r5,16(r16)
 800b1e4:	a809883a 	mov	r4,r21
 800b1e8:	800aa500 	call	800aa50 <_free_r>
 800b1ec:	8080030b 	ldhu	r2,12(r16)
 800b1f0:	00ffdfc4 	movi	r3,-129
 800b1f4:	1884703a 	and	r2,r3,r2
 800b1f8:	00c00304 	movi	r3,12
 800b1fc:	a8c00015 	stw	r3,0(r21)
 800b200:	003f5906 	br	800af68 <__alt_data_end+0xf800af68>
 800b204:	94c00044 	addi	r19,r18,1
 800b208:	02000044 	movi	r8,1
 800b20c:	003f6006 	br	800af90 <__alt_data_end+0xf800af90>
 800b210:	00bfffc4 	movi	r2,-1
 800b214:	003f0006 	br	800ae18 <__alt_data_end+0xf800ae18>
 800b218:	00800304 	movi	r2,12
 800b21c:	a8800015 	stw	r2,0(r21)
 800b220:	8080030b 	ldhu	r2,12(r16)
 800b224:	003f5006 	br	800af68 <__alt_data_end+0xf800af68>

0800b228 <_fwalk>:
 800b228:	defff704 	addi	sp,sp,-36
 800b22c:	dd000415 	stw	r20,16(sp)
 800b230:	dfc00815 	stw	ra,32(sp)
 800b234:	ddc00715 	stw	r23,28(sp)
 800b238:	dd800615 	stw	r22,24(sp)
 800b23c:	dd400515 	stw	r21,20(sp)
 800b240:	dcc00315 	stw	r19,12(sp)
 800b244:	dc800215 	stw	r18,8(sp)
 800b248:	dc400115 	stw	r17,4(sp)
 800b24c:	dc000015 	stw	r16,0(sp)
 800b250:	2500b804 	addi	r20,r4,736
 800b254:	a0002326 	beq	r20,zero,800b2e4 <_fwalk+0xbc>
 800b258:	282b883a 	mov	r21,r5
 800b25c:	002f883a 	mov	r23,zero
 800b260:	05800044 	movi	r22,1
 800b264:	04ffffc4 	movi	r19,-1
 800b268:	a4400117 	ldw	r17,4(r20)
 800b26c:	a4800217 	ldw	r18,8(r20)
 800b270:	8c7fffc4 	addi	r17,r17,-1
 800b274:	88000d16 	blt	r17,zero,800b2ac <_fwalk+0x84>
 800b278:	94000304 	addi	r16,r18,12
 800b27c:	94800384 	addi	r18,r18,14
 800b280:	8080000b 	ldhu	r2,0(r16)
 800b284:	8c7fffc4 	addi	r17,r17,-1
 800b288:	813ffd04 	addi	r4,r16,-12
 800b28c:	b080042e 	bgeu	r22,r2,800b2a0 <_fwalk+0x78>
 800b290:	9080000f 	ldh	r2,0(r18)
 800b294:	14c00226 	beq	r2,r19,800b2a0 <_fwalk+0x78>
 800b298:	a83ee83a 	callr	r21
 800b29c:	b8aeb03a 	or	r23,r23,r2
 800b2a0:	84001a04 	addi	r16,r16,104
 800b2a4:	94801a04 	addi	r18,r18,104
 800b2a8:	8cfff51e 	bne	r17,r19,800b280 <__alt_data_end+0xf800b280>
 800b2ac:	a5000017 	ldw	r20,0(r20)
 800b2b0:	a03fed1e 	bne	r20,zero,800b268 <__alt_data_end+0xf800b268>
 800b2b4:	b805883a 	mov	r2,r23
 800b2b8:	dfc00817 	ldw	ra,32(sp)
 800b2bc:	ddc00717 	ldw	r23,28(sp)
 800b2c0:	dd800617 	ldw	r22,24(sp)
 800b2c4:	dd400517 	ldw	r21,20(sp)
 800b2c8:	dd000417 	ldw	r20,16(sp)
 800b2cc:	dcc00317 	ldw	r19,12(sp)
 800b2d0:	dc800217 	ldw	r18,8(sp)
 800b2d4:	dc400117 	ldw	r17,4(sp)
 800b2d8:	dc000017 	ldw	r16,0(sp)
 800b2dc:	dec00904 	addi	sp,sp,36
 800b2e0:	f800283a 	ret
 800b2e4:	002f883a 	mov	r23,zero
 800b2e8:	003ff206 	br	800b2b4 <__alt_data_end+0xf800b2b4>

0800b2ec <_fwalk_reent>:
 800b2ec:	defff704 	addi	sp,sp,-36
 800b2f0:	dd000415 	stw	r20,16(sp)
 800b2f4:	dfc00815 	stw	ra,32(sp)
 800b2f8:	ddc00715 	stw	r23,28(sp)
 800b2fc:	dd800615 	stw	r22,24(sp)
 800b300:	dd400515 	stw	r21,20(sp)
 800b304:	dcc00315 	stw	r19,12(sp)
 800b308:	dc800215 	stw	r18,8(sp)
 800b30c:	dc400115 	stw	r17,4(sp)
 800b310:	dc000015 	stw	r16,0(sp)
 800b314:	2500b804 	addi	r20,r4,736
 800b318:	a0002326 	beq	r20,zero,800b3a8 <_fwalk_reent+0xbc>
 800b31c:	282b883a 	mov	r21,r5
 800b320:	2027883a 	mov	r19,r4
 800b324:	002f883a 	mov	r23,zero
 800b328:	05800044 	movi	r22,1
 800b32c:	04bfffc4 	movi	r18,-1
 800b330:	a4400117 	ldw	r17,4(r20)
 800b334:	a4000217 	ldw	r16,8(r20)
 800b338:	8c7fffc4 	addi	r17,r17,-1
 800b33c:	88000c16 	blt	r17,zero,800b370 <_fwalk_reent+0x84>
 800b340:	84000304 	addi	r16,r16,12
 800b344:	8080000b 	ldhu	r2,0(r16)
 800b348:	8c7fffc4 	addi	r17,r17,-1
 800b34c:	817ffd04 	addi	r5,r16,-12
 800b350:	b080052e 	bgeu	r22,r2,800b368 <_fwalk_reent+0x7c>
 800b354:	8080008f 	ldh	r2,2(r16)
 800b358:	9809883a 	mov	r4,r19
 800b35c:	14800226 	beq	r2,r18,800b368 <_fwalk_reent+0x7c>
 800b360:	a83ee83a 	callr	r21
 800b364:	b8aeb03a 	or	r23,r23,r2
 800b368:	84001a04 	addi	r16,r16,104
 800b36c:	8cbff51e 	bne	r17,r18,800b344 <__alt_data_end+0xf800b344>
 800b370:	a5000017 	ldw	r20,0(r20)
 800b374:	a03fee1e 	bne	r20,zero,800b330 <__alt_data_end+0xf800b330>
 800b378:	b805883a 	mov	r2,r23
 800b37c:	dfc00817 	ldw	ra,32(sp)
 800b380:	ddc00717 	ldw	r23,28(sp)
 800b384:	dd800617 	ldw	r22,24(sp)
 800b388:	dd400517 	ldw	r21,20(sp)
 800b38c:	dd000417 	ldw	r20,16(sp)
 800b390:	dcc00317 	ldw	r19,12(sp)
 800b394:	dc800217 	ldw	r18,8(sp)
 800b398:	dc400117 	ldw	r17,4(sp)
 800b39c:	dc000017 	ldw	r16,0(sp)
 800b3a0:	dec00904 	addi	sp,sp,36
 800b3a4:	f800283a 	ret
 800b3a8:	002f883a 	mov	r23,zero
 800b3ac:	003ff206 	br	800b378 <__alt_data_end+0xf800b378>

0800b3b0 <_setlocale_r>:
 800b3b0:	30001b26 	beq	r6,zero,800b420 <_setlocale_r+0x70>
 800b3b4:	01420074 	movhi	r5,2049
 800b3b8:	defffe04 	addi	sp,sp,-8
 800b3bc:	2953d204 	addi	r5,r5,20296
 800b3c0:	3009883a 	mov	r4,r6
 800b3c4:	dc000015 	stw	r16,0(sp)
 800b3c8:	dfc00115 	stw	ra,4(sp)
 800b3cc:	3021883a 	mov	r16,r6
 800b3d0:	800db240 	call	800db24 <strcmp>
 800b3d4:	1000061e 	bne	r2,zero,800b3f0 <_setlocale_r+0x40>
 800b3d8:	00820074 	movhi	r2,2049
 800b3dc:	1093b304 	addi	r2,r2,20172
 800b3e0:	dfc00117 	ldw	ra,4(sp)
 800b3e4:	dc000017 	ldw	r16,0(sp)
 800b3e8:	dec00204 	addi	sp,sp,8
 800b3ec:	f800283a 	ret
 800b3f0:	01420074 	movhi	r5,2049
 800b3f4:	2953b304 	addi	r5,r5,20172
 800b3f8:	8009883a 	mov	r4,r16
 800b3fc:	800db240 	call	800db24 <strcmp>
 800b400:	103ff526 	beq	r2,zero,800b3d8 <__alt_data_end+0xf800b3d8>
 800b404:	01420074 	movhi	r5,2049
 800b408:	2953bd04 	addi	r5,r5,20212
 800b40c:	8009883a 	mov	r4,r16
 800b410:	800db240 	call	800db24 <strcmp>
 800b414:	103ff026 	beq	r2,zero,800b3d8 <__alt_data_end+0xf800b3d8>
 800b418:	0005883a 	mov	r2,zero
 800b41c:	003ff006 	br	800b3e0 <__alt_data_end+0xf800b3e0>
 800b420:	00820074 	movhi	r2,2049
 800b424:	1093b304 	addi	r2,r2,20172
 800b428:	f800283a 	ret

0800b42c <__locale_charset>:
 800b42c:	00820074 	movhi	r2,2049
 800b430:	10954404 	addi	r2,r2,21776
 800b434:	f800283a 	ret

0800b438 <__locale_mb_cur_max>:
 800b438:	00820074 	movhi	r2,2049
 800b43c:	109b0904 	addi	r2,r2,27684
 800b440:	10800017 	ldw	r2,0(r2)
 800b444:	f800283a 	ret

0800b448 <__locale_msgcharset>:
 800b448:	00820074 	movhi	r2,2049
 800b44c:	10953c04 	addi	r2,r2,21744
 800b450:	f800283a 	ret

0800b454 <__locale_cjk_lang>:
 800b454:	0005883a 	mov	r2,zero
 800b458:	f800283a 	ret

0800b45c <_localeconv_r>:
 800b45c:	00820074 	movhi	r2,2049
 800b460:	10954c04 	addi	r2,r2,21808
 800b464:	f800283a 	ret

0800b468 <setlocale>:
 800b468:	00820074 	movhi	r2,2049
 800b46c:	109b0804 	addi	r2,r2,27680
 800b470:	280d883a 	mov	r6,r5
 800b474:	200b883a 	mov	r5,r4
 800b478:	11000017 	ldw	r4,0(r2)
 800b47c:	800b3b01 	jmpi	800b3b0 <_setlocale_r>

0800b480 <localeconv>:
 800b480:	00820074 	movhi	r2,2049
 800b484:	10954c04 	addi	r2,r2,21808
 800b488:	f800283a 	ret

0800b48c <__smakebuf_r>:
 800b48c:	2880030b 	ldhu	r2,12(r5)
 800b490:	10c0008c 	andi	r3,r2,2
 800b494:	1800411e 	bne	r3,zero,800b59c <__smakebuf_r+0x110>
 800b498:	deffec04 	addi	sp,sp,-80
 800b49c:	dc000f15 	stw	r16,60(sp)
 800b4a0:	2821883a 	mov	r16,r5
 800b4a4:	2940038f 	ldh	r5,14(r5)
 800b4a8:	dc401015 	stw	r17,64(sp)
 800b4ac:	dfc01315 	stw	ra,76(sp)
 800b4b0:	dcc01215 	stw	r19,72(sp)
 800b4b4:	dc801115 	stw	r18,68(sp)
 800b4b8:	2023883a 	mov	r17,r4
 800b4bc:	28001c16 	blt	r5,zero,800b530 <__smakebuf_r+0xa4>
 800b4c0:	d80d883a 	mov	r6,sp
 800b4c4:	800f7940 	call	800f794 <_fstat_r>
 800b4c8:	10001816 	blt	r2,zero,800b52c <__smakebuf_r+0xa0>
 800b4cc:	d8800117 	ldw	r2,4(sp)
 800b4d0:	00e00014 	movui	r3,32768
 800b4d4:	10bc000c 	andi	r2,r2,61440
 800b4d8:	14c80020 	cmpeqi	r19,r2,8192
 800b4dc:	10c03726 	beq	r2,r3,800b5bc <__smakebuf_r+0x130>
 800b4e0:	80c0030b 	ldhu	r3,12(r16)
 800b4e4:	18c20014 	ori	r3,r3,2048
 800b4e8:	80c0030d 	sth	r3,12(r16)
 800b4ec:	00c80004 	movi	r3,8192
 800b4f0:	10c0521e 	bne	r2,r3,800b63c <__smakebuf_r+0x1b0>
 800b4f4:	8140038f 	ldh	r5,14(r16)
 800b4f8:	8809883a 	mov	r4,r17
 800b4fc:	800f7f00 	call	800f7f0 <_isatty_r>
 800b500:	10004c26 	beq	r2,zero,800b634 <__smakebuf_r+0x1a8>
 800b504:	8080030b 	ldhu	r2,12(r16)
 800b508:	80c010c4 	addi	r3,r16,67
 800b50c:	80c00015 	stw	r3,0(r16)
 800b510:	10800054 	ori	r2,r2,1
 800b514:	8080030d 	sth	r2,12(r16)
 800b518:	00800044 	movi	r2,1
 800b51c:	80c00415 	stw	r3,16(r16)
 800b520:	80800515 	stw	r2,20(r16)
 800b524:	04810004 	movi	r18,1024
 800b528:	00000706 	br	800b548 <__smakebuf_r+0xbc>
 800b52c:	8080030b 	ldhu	r2,12(r16)
 800b530:	10c0200c 	andi	r3,r2,128
 800b534:	18001f1e 	bne	r3,zero,800b5b4 <__smakebuf_r+0x128>
 800b538:	04810004 	movi	r18,1024
 800b53c:	10820014 	ori	r2,r2,2048
 800b540:	8080030d 	sth	r2,12(r16)
 800b544:	0027883a 	mov	r19,zero
 800b548:	900b883a 	mov	r5,r18
 800b54c:	8809883a 	mov	r4,r17
 800b550:	800b6480 	call	800b648 <_malloc_r>
 800b554:	10002c26 	beq	r2,zero,800b608 <__smakebuf_r+0x17c>
 800b558:	80c0030b 	ldhu	r3,12(r16)
 800b55c:	01020074 	movhi	r4,2049
 800b560:	21296104 	addi	r4,r4,-23164
 800b564:	89000f15 	stw	r4,60(r17)
 800b568:	18c02014 	ori	r3,r3,128
 800b56c:	80c0030d 	sth	r3,12(r16)
 800b570:	80800015 	stw	r2,0(r16)
 800b574:	80800415 	stw	r2,16(r16)
 800b578:	84800515 	stw	r18,20(r16)
 800b57c:	98001a1e 	bne	r19,zero,800b5e8 <__smakebuf_r+0x15c>
 800b580:	dfc01317 	ldw	ra,76(sp)
 800b584:	dcc01217 	ldw	r19,72(sp)
 800b588:	dc801117 	ldw	r18,68(sp)
 800b58c:	dc401017 	ldw	r17,64(sp)
 800b590:	dc000f17 	ldw	r16,60(sp)
 800b594:	dec01404 	addi	sp,sp,80
 800b598:	f800283a 	ret
 800b59c:	288010c4 	addi	r2,r5,67
 800b5a0:	28800015 	stw	r2,0(r5)
 800b5a4:	28800415 	stw	r2,16(r5)
 800b5a8:	00800044 	movi	r2,1
 800b5ac:	28800515 	stw	r2,20(r5)
 800b5b0:	f800283a 	ret
 800b5b4:	04801004 	movi	r18,64
 800b5b8:	003fe006 	br	800b53c <__alt_data_end+0xf800b53c>
 800b5bc:	81000a17 	ldw	r4,40(r16)
 800b5c0:	00c20074 	movhi	r3,2049
 800b5c4:	18f6b004 	addi	r3,r3,-9536
 800b5c8:	20ffc51e 	bne	r4,r3,800b4e0 <__alt_data_end+0xf800b4e0>
 800b5cc:	8080030b 	ldhu	r2,12(r16)
 800b5d0:	04810004 	movi	r18,1024
 800b5d4:	84801315 	stw	r18,76(r16)
 800b5d8:	1484b03a 	or	r2,r2,r18
 800b5dc:	8080030d 	sth	r2,12(r16)
 800b5e0:	0027883a 	mov	r19,zero
 800b5e4:	003fd806 	br	800b548 <__alt_data_end+0xf800b548>
 800b5e8:	8140038f 	ldh	r5,14(r16)
 800b5ec:	8809883a 	mov	r4,r17
 800b5f0:	800f7f00 	call	800f7f0 <_isatty_r>
 800b5f4:	103fe226 	beq	r2,zero,800b580 <__alt_data_end+0xf800b580>
 800b5f8:	8080030b 	ldhu	r2,12(r16)
 800b5fc:	10800054 	ori	r2,r2,1
 800b600:	8080030d 	sth	r2,12(r16)
 800b604:	003fde06 	br	800b580 <__alt_data_end+0xf800b580>
 800b608:	8080030b 	ldhu	r2,12(r16)
 800b60c:	10c0800c 	andi	r3,r2,512
 800b610:	183fdb1e 	bne	r3,zero,800b580 <__alt_data_end+0xf800b580>
 800b614:	10800094 	ori	r2,r2,2
 800b618:	80c010c4 	addi	r3,r16,67
 800b61c:	8080030d 	sth	r2,12(r16)
 800b620:	00800044 	movi	r2,1
 800b624:	80c00015 	stw	r3,0(r16)
 800b628:	80c00415 	stw	r3,16(r16)
 800b62c:	80800515 	stw	r2,20(r16)
 800b630:	003fd306 	br	800b580 <__alt_data_end+0xf800b580>
 800b634:	04810004 	movi	r18,1024
 800b638:	003fc306 	br	800b548 <__alt_data_end+0xf800b548>
 800b63c:	0027883a 	mov	r19,zero
 800b640:	04810004 	movi	r18,1024
 800b644:	003fc006 	br	800b548 <__alt_data_end+0xf800b548>

0800b648 <_malloc_r>:
 800b648:	defff504 	addi	sp,sp,-44
 800b64c:	dc800315 	stw	r18,12(sp)
 800b650:	dfc00a15 	stw	ra,40(sp)
 800b654:	df000915 	stw	fp,36(sp)
 800b658:	ddc00815 	stw	r23,32(sp)
 800b65c:	dd800715 	stw	r22,28(sp)
 800b660:	dd400615 	stw	r21,24(sp)
 800b664:	dd000515 	stw	r20,20(sp)
 800b668:	dcc00415 	stw	r19,16(sp)
 800b66c:	dc400215 	stw	r17,8(sp)
 800b670:	dc000115 	stw	r16,4(sp)
 800b674:	288002c4 	addi	r2,r5,11
 800b678:	00c00584 	movi	r3,22
 800b67c:	2025883a 	mov	r18,r4
 800b680:	18807f2e 	bgeu	r3,r2,800b880 <_malloc_r+0x238>
 800b684:	047ffe04 	movi	r17,-8
 800b688:	1462703a 	and	r17,r2,r17
 800b68c:	8800a316 	blt	r17,zero,800b91c <_malloc_r+0x2d4>
 800b690:	8940a236 	bltu	r17,r5,800b91c <_malloc_r+0x2d4>
 800b694:	80129980 	call	8012998 <__malloc_lock>
 800b698:	00807dc4 	movi	r2,503
 800b69c:	1441e92e 	bgeu	r2,r17,800be44 <_malloc_r+0x7fc>
 800b6a0:	8804d27a 	srli	r2,r17,9
 800b6a4:	1000a126 	beq	r2,zero,800b92c <_malloc_r+0x2e4>
 800b6a8:	00c00104 	movi	r3,4
 800b6ac:	18811e36 	bltu	r3,r2,800bb28 <_malloc_r+0x4e0>
 800b6b0:	8804d1ba 	srli	r2,r17,6
 800b6b4:	12000e44 	addi	r8,r2,57
 800b6b8:	11c00e04 	addi	r7,r2,56
 800b6bc:	4209883a 	add	r4,r8,r8
 800b6c0:	04c20074 	movhi	r19,2049
 800b6c4:	2109883a 	add	r4,r4,r4
 800b6c8:	9cd55a04 	addi	r19,r19,21864
 800b6cc:	2109883a 	add	r4,r4,r4
 800b6d0:	9909883a 	add	r4,r19,r4
 800b6d4:	24000117 	ldw	r16,4(r4)
 800b6d8:	213ffe04 	addi	r4,r4,-8
 800b6dc:	24009726 	beq	r4,r16,800b93c <_malloc_r+0x2f4>
 800b6e0:	80800117 	ldw	r2,4(r16)
 800b6e4:	01bfff04 	movi	r6,-4
 800b6e8:	014003c4 	movi	r5,15
 800b6ec:	1184703a 	and	r2,r2,r6
 800b6f0:	1447c83a 	sub	r3,r2,r17
 800b6f4:	28c00716 	blt	r5,r3,800b714 <_malloc_r+0xcc>
 800b6f8:	1800920e 	bge	r3,zero,800b944 <_malloc_r+0x2fc>
 800b6fc:	84000317 	ldw	r16,12(r16)
 800b700:	24008e26 	beq	r4,r16,800b93c <_malloc_r+0x2f4>
 800b704:	80800117 	ldw	r2,4(r16)
 800b708:	1184703a 	and	r2,r2,r6
 800b70c:	1447c83a 	sub	r3,r2,r17
 800b710:	28fff90e 	bge	r5,r3,800b6f8 <__alt_data_end+0xf800b6f8>
 800b714:	3809883a 	mov	r4,r7
 800b718:	01820074 	movhi	r6,2049
 800b71c:	9c000417 	ldw	r16,16(r19)
 800b720:	31955a04 	addi	r6,r6,21864
 800b724:	32000204 	addi	r8,r6,8
 800b728:	82013426 	beq	r16,r8,800bbfc <_malloc_r+0x5b4>
 800b72c:	80c00117 	ldw	r3,4(r16)
 800b730:	00bfff04 	movi	r2,-4
 800b734:	188e703a 	and	r7,r3,r2
 800b738:	3c45c83a 	sub	r2,r7,r17
 800b73c:	00c003c4 	movi	r3,15
 800b740:	18811f16 	blt	r3,r2,800bbc0 <_malloc_r+0x578>
 800b744:	32000515 	stw	r8,20(r6)
 800b748:	32000415 	stw	r8,16(r6)
 800b74c:	10007f0e 	bge	r2,zero,800b94c <_malloc_r+0x304>
 800b750:	00807fc4 	movi	r2,511
 800b754:	11c0fd36 	bltu	r2,r7,800bb4c <_malloc_r+0x504>
 800b758:	3806d0fa 	srli	r3,r7,3
 800b75c:	01c00044 	movi	r7,1
 800b760:	30800117 	ldw	r2,4(r6)
 800b764:	19400044 	addi	r5,r3,1
 800b768:	294b883a 	add	r5,r5,r5
 800b76c:	1807d0ba 	srai	r3,r3,2
 800b770:	294b883a 	add	r5,r5,r5
 800b774:	294b883a 	add	r5,r5,r5
 800b778:	298b883a 	add	r5,r5,r6
 800b77c:	38c6983a 	sll	r3,r7,r3
 800b780:	29c00017 	ldw	r7,0(r5)
 800b784:	2a7ffe04 	addi	r9,r5,-8
 800b788:	1886b03a 	or	r3,r3,r2
 800b78c:	82400315 	stw	r9,12(r16)
 800b790:	81c00215 	stw	r7,8(r16)
 800b794:	30c00115 	stw	r3,4(r6)
 800b798:	2c000015 	stw	r16,0(r5)
 800b79c:	3c000315 	stw	r16,12(r7)
 800b7a0:	2005d0ba 	srai	r2,r4,2
 800b7a4:	01400044 	movi	r5,1
 800b7a8:	288a983a 	sll	r5,r5,r2
 800b7ac:	19406f36 	bltu	r3,r5,800b96c <_malloc_r+0x324>
 800b7b0:	28c4703a 	and	r2,r5,r3
 800b7b4:	10000a1e 	bne	r2,zero,800b7e0 <_malloc_r+0x198>
 800b7b8:	00bfff04 	movi	r2,-4
 800b7bc:	294b883a 	add	r5,r5,r5
 800b7c0:	2088703a 	and	r4,r4,r2
 800b7c4:	28c4703a 	and	r2,r5,r3
 800b7c8:	21000104 	addi	r4,r4,4
 800b7cc:	1000041e 	bne	r2,zero,800b7e0 <_malloc_r+0x198>
 800b7d0:	294b883a 	add	r5,r5,r5
 800b7d4:	28c4703a 	and	r2,r5,r3
 800b7d8:	21000104 	addi	r4,r4,4
 800b7dc:	103ffc26 	beq	r2,zero,800b7d0 <__alt_data_end+0xf800b7d0>
 800b7e0:	02bfff04 	movi	r10,-4
 800b7e4:	024003c4 	movi	r9,15
 800b7e8:	21800044 	addi	r6,r4,1
 800b7ec:	318d883a 	add	r6,r6,r6
 800b7f0:	318d883a 	add	r6,r6,r6
 800b7f4:	318d883a 	add	r6,r6,r6
 800b7f8:	998d883a 	add	r6,r19,r6
 800b7fc:	333ffe04 	addi	r12,r6,-8
 800b800:	2017883a 	mov	r11,r4
 800b804:	31800104 	addi	r6,r6,4
 800b808:	34000017 	ldw	r16,0(r6)
 800b80c:	31fffd04 	addi	r7,r6,-12
 800b810:	81c0041e 	bne	r16,r7,800b824 <_malloc_r+0x1dc>
 800b814:	0000fb06 	br	800bc04 <_malloc_r+0x5bc>
 800b818:	1801030e 	bge	r3,zero,800bc28 <_malloc_r+0x5e0>
 800b81c:	84000317 	ldw	r16,12(r16)
 800b820:	81c0f826 	beq	r16,r7,800bc04 <_malloc_r+0x5bc>
 800b824:	80800117 	ldw	r2,4(r16)
 800b828:	1284703a 	and	r2,r2,r10
 800b82c:	1447c83a 	sub	r3,r2,r17
 800b830:	48fff90e 	bge	r9,r3,800b818 <__alt_data_end+0xf800b818>
 800b834:	80800317 	ldw	r2,12(r16)
 800b838:	81000217 	ldw	r4,8(r16)
 800b83c:	89400054 	ori	r5,r17,1
 800b840:	81400115 	stw	r5,4(r16)
 800b844:	20800315 	stw	r2,12(r4)
 800b848:	11000215 	stw	r4,8(r2)
 800b84c:	8463883a 	add	r17,r16,r17
 800b850:	9c400515 	stw	r17,20(r19)
 800b854:	9c400415 	stw	r17,16(r19)
 800b858:	18800054 	ori	r2,r3,1
 800b85c:	88800115 	stw	r2,4(r17)
 800b860:	8a000315 	stw	r8,12(r17)
 800b864:	8a000215 	stw	r8,8(r17)
 800b868:	88e3883a 	add	r17,r17,r3
 800b86c:	88c00015 	stw	r3,0(r17)
 800b870:	9009883a 	mov	r4,r18
 800b874:	80129bc0 	call	80129bc <__malloc_unlock>
 800b878:	80800204 	addi	r2,r16,8
 800b87c:	00001b06 	br	800b8ec <_malloc_r+0x2a4>
 800b880:	04400404 	movi	r17,16
 800b884:	89402536 	bltu	r17,r5,800b91c <_malloc_r+0x2d4>
 800b888:	80129980 	call	8012998 <__malloc_lock>
 800b88c:	00800184 	movi	r2,6
 800b890:	01000084 	movi	r4,2
 800b894:	04c20074 	movhi	r19,2049
 800b898:	1085883a 	add	r2,r2,r2
 800b89c:	9cd55a04 	addi	r19,r19,21864
 800b8a0:	1085883a 	add	r2,r2,r2
 800b8a4:	9885883a 	add	r2,r19,r2
 800b8a8:	14000117 	ldw	r16,4(r2)
 800b8ac:	10fffe04 	addi	r3,r2,-8
 800b8b0:	80c0d926 	beq	r16,r3,800bc18 <_malloc_r+0x5d0>
 800b8b4:	80c00117 	ldw	r3,4(r16)
 800b8b8:	81000317 	ldw	r4,12(r16)
 800b8bc:	00bfff04 	movi	r2,-4
 800b8c0:	1884703a 	and	r2,r3,r2
 800b8c4:	81400217 	ldw	r5,8(r16)
 800b8c8:	8085883a 	add	r2,r16,r2
 800b8cc:	10c00117 	ldw	r3,4(r2)
 800b8d0:	29000315 	stw	r4,12(r5)
 800b8d4:	21400215 	stw	r5,8(r4)
 800b8d8:	18c00054 	ori	r3,r3,1
 800b8dc:	10c00115 	stw	r3,4(r2)
 800b8e0:	9009883a 	mov	r4,r18
 800b8e4:	80129bc0 	call	80129bc <__malloc_unlock>
 800b8e8:	80800204 	addi	r2,r16,8
 800b8ec:	dfc00a17 	ldw	ra,40(sp)
 800b8f0:	df000917 	ldw	fp,36(sp)
 800b8f4:	ddc00817 	ldw	r23,32(sp)
 800b8f8:	dd800717 	ldw	r22,28(sp)
 800b8fc:	dd400617 	ldw	r21,24(sp)
 800b900:	dd000517 	ldw	r20,20(sp)
 800b904:	dcc00417 	ldw	r19,16(sp)
 800b908:	dc800317 	ldw	r18,12(sp)
 800b90c:	dc400217 	ldw	r17,8(sp)
 800b910:	dc000117 	ldw	r16,4(sp)
 800b914:	dec00b04 	addi	sp,sp,44
 800b918:	f800283a 	ret
 800b91c:	00800304 	movi	r2,12
 800b920:	90800015 	stw	r2,0(r18)
 800b924:	0005883a 	mov	r2,zero
 800b928:	003ff006 	br	800b8ec <__alt_data_end+0xf800b8ec>
 800b92c:	01002004 	movi	r4,128
 800b930:	02001004 	movi	r8,64
 800b934:	01c00fc4 	movi	r7,63
 800b938:	003f6106 	br	800b6c0 <__alt_data_end+0xf800b6c0>
 800b93c:	4009883a 	mov	r4,r8
 800b940:	003f7506 	br	800b718 <__alt_data_end+0xf800b718>
 800b944:	81000317 	ldw	r4,12(r16)
 800b948:	003fde06 	br	800b8c4 <__alt_data_end+0xf800b8c4>
 800b94c:	81c5883a 	add	r2,r16,r7
 800b950:	11400117 	ldw	r5,4(r2)
 800b954:	9009883a 	mov	r4,r18
 800b958:	29400054 	ori	r5,r5,1
 800b95c:	11400115 	stw	r5,4(r2)
 800b960:	80129bc0 	call	80129bc <__malloc_unlock>
 800b964:	80800204 	addi	r2,r16,8
 800b968:	003fe006 	br	800b8ec <__alt_data_end+0xf800b8ec>
 800b96c:	9c000217 	ldw	r16,8(r19)
 800b970:	00bfff04 	movi	r2,-4
 800b974:	85800117 	ldw	r22,4(r16)
 800b978:	b0ac703a 	and	r22,r22,r2
 800b97c:	b4400336 	bltu	r22,r17,800b98c <_malloc_r+0x344>
 800b980:	b445c83a 	sub	r2,r22,r17
 800b984:	00c003c4 	movi	r3,15
 800b988:	18805d16 	blt	r3,r2,800bb00 <_malloc_r+0x4b8>
 800b98c:	05c20074 	movhi	r23,2049
 800b990:	008200b4 	movhi	r2,2050
 800b994:	10a20e04 	addi	r2,r2,-30664
 800b998:	bddb0a04 	addi	r23,r23,27688
 800b99c:	15400017 	ldw	r21,0(r2)
 800b9a0:	b8c00017 	ldw	r3,0(r23)
 800b9a4:	00bfffc4 	movi	r2,-1
 800b9a8:	858d883a 	add	r6,r16,r22
 800b9ac:	8d6b883a 	add	r21,r17,r21
 800b9b0:	1880ea26 	beq	r3,r2,800bd5c <_malloc_r+0x714>
 800b9b4:	ad4403c4 	addi	r21,r21,4111
 800b9b8:	00bc0004 	movi	r2,-4096
 800b9bc:	a8aa703a 	and	r21,r21,r2
 800b9c0:	a80b883a 	mov	r5,r21
 800b9c4:	9009883a 	mov	r4,r18
 800b9c8:	d9800015 	stw	r6,0(sp)
 800b9cc:	800d9940 	call	800d994 <_sbrk_r>
 800b9d0:	1029883a 	mov	r20,r2
 800b9d4:	00bfffc4 	movi	r2,-1
 800b9d8:	d9800017 	ldw	r6,0(sp)
 800b9dc:	a080e826 	beq	r20,r2,800bd80 <_malloc_r+0x738>
 800b9e0:	a180a636 	bltu	r20,r6,800bc7c <_malloc_r+0x634>
 800b9e4:	070200b4 	movhi	fp,2050
 800b9e8:	e7221704 	addi	fp,fp,-30628
 800b9ec:	e0800017 	ldw	r2,0(fp)
 800b9f0:	a887883a 	add	r3,r21,r2
 800b9f4:	e0c00015 	stw	r3,0(fp)
 800b9f8:	3500e626 	beq	r6,r20,800bd94 <_malloc_r+0x74c>
 800b9fc:	b9000017 	ldw	r4,0(r23)
 800ba00:	00bfffc4 	movi	r2,-1
 800ba04:	2080ee26 	beq	r4,r2,800bdc0 <_malloc_r+0x778>
 800ba08:	a185c83a 	sub	r2,r20,r6
 800ba0c:	10c5883a 	add	r2,r2,r3
 800ba10:	e0800015 	stw	r2,0(fp)
 800ba14:	a0c001cc 	andi	r3,r20,7
 800ba18:	1800bc26 	beq	r3,zero,800bd0c <_malloc_r+0x6c4>
 800ba1c:	a0e9c83a 	sub	r20,r20,r3
 800ba20:	00840204 	movi	r2,4104
 800ba24:	a5000204 	addi	r20,r20,8
 800ba28:	10c7c83a 	sub	r3,r2,r3
 800ba2c:	a545883a 	add	r2,r20,r21
 800ba30:	1083ffcc 	andi	r2,r2,4095
 800ba34:	18abc83a 	sub	r21,r3,r2
 800ba38:	a80b883a 	mov	r5,r21
 800ba3c:	9009883a 	mov	r4,r18
 800ba40:	800d9940 	call	800d994 <_sbrk_r>
 800ba44:	00ffffc4 	movi	r3,-1
 800ba48:	10c0e126 	beq	r2,r3,800bdd0 <_malloc_r+0x788>
 800ba4c:	1505c83a 	sub	r2,r2,r20
 800ba50:	1545883a 	add	r2,r2,r21
 800ba54:	10800054 	ori	r2,r2,1
 800ba58:	e0c00017 	ldw	r3,0(fp)
 800ba5c:	9d000215 	stw	r20,8(r19)
 800ba60:	a0800115 	stw	r2,4(r20)
 800ba64:	a8c7883a 	add	r3,r21,r3
 800ba68:	e0c00015 	stw	r3,0(fp)
 800ba6c:	84c00e26 	beq	r16,r19,800baa8 <_malloc_r+0x460>
 800ba70:	018003c4 	movi	r6,15
 800ba74:	3580a72e 	bgeu	r6,r22,800bd14 <_malloc_r+0x6cc>
 800ba78:	81400117 	ldw	r5,4(r16)
 800ba7c:	013ffe04 	movi	r4,-8
 800ba80:	b0bffd04 	addi	r2,r22,-12
 800ba84:	1104703a 	and	r2,r2,r4
 800ba88:	2900004c 	andi	r4,r5,1
 800ba8c:	2088b03a 	or	r4,r4,r2
 800ba90:	81000115 	stw	r4,4(r16)
 800ba94:	01400144 	movi	r5,5
 800ba98:	8089883a 	add	r4,r16,r2
 800ba9c:	21400115 	stw	r5,4(r4)
 800baa0:	21400215 	stw	r5,8(r4)
 800baa4:	3080cd36 	bltu	r6,r2,800bddc <_malloc_r+0x794>
 800baa8:	008200b4 	movhi	r2,2050
 800baac:	10a20d04 	addi	r2,r2,-30668
 800bab0:	11000017 	ldw	r4,0(r2)
 800bab4:	20c0012e 	bgeu	r4,r3,800babc <_malloc_r+0x474>
 800bab8:	10c00015 	stw	r3,0(r2)
 800babc:	008200b4 	movhi	r2,2050
 800bac0:	10a20c04 	addi	r2,r2,-30672
 800bac4:	11000017 	ldw	r4,0(r2)
 800bac8:	9c000217 	ldw	r16,8(r19)
 800bacc:	20c0012e 	bgeu	r4,r3,800bad4 <_malloc_r+0x48c>
 800bad0:	10c00015 	stw	r3,0(r2)
 800bad4:	80c00117 	ldw	r3,4(r16)
 800bad8:	00bfff04 	movi	r2,-4
 800badc:	1886703a 	and	r3,r3,r2
 800bae0:	1c45c83a 	sub	r2,r3,r17
 800bae4:	1c400236 	bltu	r3,r17,800baf0 <_malloc_r+0x4a8>
 800bae8:	00c003c4 	movi	r3,15
 800baec:	18800416 	blt	r3,r2,800bb00 <_malloc_r+0x4b8>
 800baf0:	9009883a 	mov	r4,r18
 800baf4:	80129bc0 	call	80129bc <__malloc_unlock>
 800baf8:	0005883a 	mov	r2,zero
 800bafc:	003f7b06 	br	800b8ec <__alt_data_end+0xf800b8ec>
 800bb00:	88c00054 	ori	r3,r17,1
 800bb04:	80c00115 	stw	r3,4(r16)
 800bb08:	8463883a 	add	r17,r16,r17
 800bb0c:	10800054 	ori	r2,r2,1
 800bb10:	9c400215 	stw	r17,8(r19)
 800bb14:	88800115 	stw	r2,4(r17)
 800bb18:	9009883a 	mov	r4,r18
 800bb1c:	80129bc0 	call	80129bc <__malloc_unlock>
 800bb20:	80800204 	addi	r2,r16,8
 800bb24:	003f7106 	br	800b8ec <__alt_data_end+0xf800b8ec>
 800bb28:	00c00504 	movi	r3,20
 800bb2c:	18804a2e 	bgeu	r3,r2,800bc58 <_malloc_r+0x610>
 800bb30:	00c01504 	movi	r3,84
 800bb34:	18806e36 	bltu	r3,r2,800bcf0 <_malloc_r+0x6a8>
 800bb38:	8804d33a 	srli	r2,r17,12
 800bb3c:	12001bc4 	addi	r8,r2,111
 800bb40:	11c01b84 	addi	r7,r2,110
 800bb44:	4209883a 	add	r4,r8,r8
 800bb48:	003edd06 	br	800b6c0 <__alt_data_end+0xf800b6c0>
 800bb4c:	3804d27a 	srli	r2,r7,9
 800bb50:	00c00104 	movi	r3,4
 800bb54:	1880442e 	bgeu	r3,r2,800bc68 <_malloc_r+0x620>
 800bb58:	00c00504 	movi	r3,20
 800bb5c:	18808136 	bltu	r3,r2,800bd64 <_malloc_r+0x71c>
 800bb60:	11401704 	addi	r5,r2,92
 800bb64:	10c016c4 	addi	r3,r2,91
 800bb68:	294b883a 	add	r5,r5,r5
 800bb6c:	294b883a 	add	r5,r5,r5
 800bb70:	294b883a 	add	r5,r5,r5
 800bb74:	994b883a 	add	r5,r19,r5
 800bb78:	28800017 	ldw	r2,0(r5)
 800bb7c:	01820074 	movhi	r6,2049
 800bb80:	297ffe04 	addi	r5,r5,-8
 800bb84:	31955a04 	addi	r6,r6,21864
 800bb88:	28806526 	beq	r5,r2,800bd20 <_malloc_r+0x6d8>
 800bb8c:	01bfff04 	movi	r6,-4
 800bb90:	10c00117 	ldw	r3,4(r2)
 800bb94:	1986703a 	and	r3,r3,r6
 800bb98:	38c0022e 	bgeu	r7,r3,800bba4 <_malloc_r+0x55c>
 800bb9c:	10800217 	ldw	r2,8(r2)
 800bba0:	28bffb1e 	bne	r5,r2,800bb90 <__alt_data_end+0xf800bb90>
 800bba4:	11400317 	ldw	r5,12(r2)
 800bba8:	98c00117 	ldw	r3,4(r19)
 800bbac:	81400315 	stw	r5,12(r16)
 800bbb0:	80800215 	stw	r2,8(r16)
 800bbb4:	2c000215 	stw	r16,8(r5)
 800bbb8:	14000315 	stw	r16,12(r2)
 800bbbc:	003ef806 	br	800b7a0 <__alt_data_end+0xf800b7a0>
 800bbc0:	88c00054 	ori	r3,r17,1
 800bbc4:	80c00115 	stw	r3,4(r16)
 800bbc8:	8463883a 	add	r17,r16,r17
 800bbcc:	34400515 	stw	r17,20(r6)
 800bbd0:	34400415 	stw	r17,16(r6)
 800bbd4:	10c00054 	ori	r3,r2,1
 800bbd8:	8a000315 	stw	r8,12(r17)
 800bbdc:	8a000215 	stw	r8,8(r17)
 800bbe0:	88c00115 	stw	r3,4(r17)
 800bbe4:	88a3883a 	add	r17,r17,r2
 800bbe8:	88800015 	stw	r2,0(r17)
 800bbec:	9009883a 	mov	r4,r18
 800bbf0:	80129bc0 	call	80129bc <__malloc_unlock>
 800bbf4:	80800204 	addi	r2,r16,8
 800bbf8:	003f3c06 	br	800b8ec <__alt_data_end+0xf800b8ec>
 800bbfc:	30c00117 	ldw	r3,4(r6)
 800bc00:	003ee706 	br	800b7a0 <__alt_data_end+0xf800b7a0>
 800bc04:	5ac00044 	addi	r11,r11,1
 800bc08:	588000cc 	andi	r2,r11,3
 800bc0c:	31800204 	addi	r6,r6,8
 800bc10:	103efd1e 	bne	r2,zero,800b808 <__alt_data_end+0xf800b808>
 800bc14:	00002406 	br	800bca8 <_malloc_r+0x660>
 800bc18:	14000317 	ldw	r16,12(r2)
 800bc1c:	143f251e 	bne	r2,r16,800b8b4 <__alt_data_end+0xf800b8b4>
 800bc20:	21000084 	addi	r4,r4,2
 800bc24:	003ebc06 	br	800b718 <__alt_data_end+0xf800b718>
 800bc28:	8085883a 	add	r2,r16,r2
 800bc2c:	10c00117 	ldw	r3,4(r2)
 800bc30:	81000317 	ldw	r4,12(r16)
 800bc34:	81400217 	ldw	r5,8(r16)
 800bc38:	18c00054 	ori	r3,r3,1
 800bc3c:	10c00115 	stw	r3,4(r2)
 800bc40:	29000315 	stw	r4,12(r5)
 800bc44:	21400215 	stw	r5,8(r4)
 800bc48:	9009883a 	mov	r4,r18
 800bc4c:	80129bc0 	call	80129bc <__malloc_unlock>
 800bc50:	80800204 	addi	r2,r16,8
 800bc54:	003f2506 	br	800b8ec <__alt_data_end+0xf800b8ec>
 800bc58:	12001704 	addi	r8,r2,92
 800bc5c:	11c016c4 	addi	r7,r2,91
 800bc60:	4209883a 	add	r4,r8,r8
 800bc64:	003e9606 	br	800b6c0 <__alt_data_end+0xf800b6c0>
 800bc68:	3804d1ba 	srli	r2,r7,6
 800bc6c:	11400e44 	addi	r5,r2,57
 800bc70:	10c00e04 	addi	r3,r2,56
 800bc74:	294b883a 	add	r5,r5,r5
 800bc78:	003fbc06 	br	800bb6c <__alt_data_end+0xf800bb6c>
 800bc7c:	84ff5926 	beq	r16,r19,800b9e4 <__alt_data_end+0xf800b9e4>
 800bc80:	00820074 	movhi	r2,2049
 800bc84:	10955a04 	addi	r2,r2,21864
 800bc88:	14000217 	ldw	r16,8(r2)
 800bc8c:	00bfff04 	movi	r2,-4
 800bc90:	80c00117 	ldw	r3,4(r16)
 800bc94:	1886703a 	and	r3,r3,r2
 800bc98:	003f9106 	br	800bae0 <__alt_data_end+0xf800bae0>
 800bc9c:	60800217 	ldw	r2,8(r12)
 800bca0:	213fffc4 	addi	r4,r4,-1
 800bca4:	1300651e 	bne	r2,r12,800be3c <_malloc_r+0x7f4>
 800bca8:	208000cc 	andi	r2,r4,3
 800bcac:	633ffe04 	addi	r12,r12,-8
 800bcb0:	103ffa1e 	bne	r2,zero,800bc9c <__alt_data_end+0xf800bc9c>
 800bcb4:	98800117 	ldw	r2,4(r19)
 800bcb8:	0146303a 	nor	r3,zero,r5
 800bcbc:	1884703a 	and	r2,r3,r2
 800bcc0:	98800115 	stw	r2,4(r19)
 800bcc4:	294b883a 	add	r5,r5,r5
 800bcc8:	117f2836 	bltu	r2,r5,800b96c <__alt_data_end+0xf800b96c>
 800bccc:	283f2726 	beq	r5,zero,800b96c <__alt_data_end+0xf800b96c>
 800bcd0:	2886703a 	and	r3,r5,r2
 800bcd4:	5809883a 	mov	r4,r11
 800bcd8:	183ec31e 	bne	r3,zero,800b7e8 <__alt_data_end+0xf800b7e8>
 800bcdc:	294b883a 	add	r5,r5,r5
 800bce0:	2886703a 	and	r3,r5,r2
 800bce4:	21000104 	addi	r4,r4,4
 800bce8:	183ffc26 	beq	r3,zero,800bcdc <__alt_data_end+0xf800bcdc>
 800bcec:	003ebe06 	br	800b7e8 <__alt_data_end+0xf800b7e8>
 800bcf0:	00c05504 	movi	r3,340
 800bcf4:	18801236 	bltu	r3,r2,800bd40 <_malloc_r+0x6f8>
 800bcf8:	8804d3fa 	srli	r2,r17,15
 800bcfc:	12001e04 	addi	r8,r2,120
 800bd00:	11c01dc4 	addi	r7,r2,119
 800bd04:	4209883a 	add	r4,r8,r8
 800bd08:	003e6d06 	br	800b6c0 <__alt_data_end+0xf800b6c0>
 800bd0c:	00c40004 	movi	r3,4096
 800bd10:	003f4606 	br	800ba2c <__alt_data_end+0xf800ba2c>
 800bd14:	00800044 	movi	r2,1
 800bd18:	a0800115 	stw	r2,4(r20)
 800bd1c:	003f7406 	br	800baf0 <__alt_data_end+0xf800baf0>
 800bd20:	1805d0ba 	srai	r2,r3,2
 800bd24:	01c00044 	movi	r7,1
 800bd28:	30c00117 	ldw	r3,4(r6)
 800bd2c:	388e983a 	sll	r7,r7,r2
 800bd30:	2805883a 	mov	r2,r5
 800bd34:	38c6b03a 	or	r3,r7,r3
 800bd38:	30c00115 	stw	r3,4(r6)
 800bd3c:	003f9b06 	br	800bbac <__alt_data_end+0xf800bbac>
 800bd40:	00c15504 	movi	r3,1364
 800bd44:	18801a36 	bltu	r3,r2,800bdb0 <_malloc_r+0x768>
 800bd48:	8804d4ba 	srli	r2,r17,18
 800bd4c:	12001f44 	addi	r8,r2,125
 800bd50:	11c01f04 	addi	r7,r2,124
 800bd54:	4209883a 	add	r4,r8,r8
 800bd58:	003e5906 	br	800b6c0 <__alt_data_end+0xf800b6c0>
 800bd5c:	ad400404 	addi	r21,r21,16
 800bd60:	003f1706 	br	800b9c0 <__alt_data_end+0xf800b9c0>
 800bd64:	00c01504 	movi	r3,84
 800bd68:	18802336 	bltu	r3,r2,800bdf8 <_malloc_r+0x7b0>
 800bd6c:	3804d33a 	srli	r2,r7,12
 800bd70:	11401bc4 	addi	r5,r2,111
 800bd74:	10c01b84 	addi	r3,r2,110
 800bd78:	294b883a 	add	r5,r5,r5
 800bd7c:	003f7b06 	br	800bb6c <__alt_data_end+0xf800bb6c>
 800bd80:	9c000217 	ldw	r16,8(r19)
 800bd84:	00bfff04 	movi	r2,-4
 800bd88:	80c00117 	ldw	r3,4(r16)
 800bd8c:	1886703a 	and	r3,r3,r2
 800bd90:	003f5306 	br	800bae0 <__alt_data_end+0xf800bae0>
 800bd94:	3083ffcc 	andi	r2,r6,4095
 800bd98:	103f181e 	bne	r2,zero,800b9fc <__alt_data_end+0xf800b9fc>
 800bd9c:	99000217 	ldw	r4,8(r19)
 800bda0:	b545883a 	add	r2,r22,r21
 800bda4:	10800054 	ori	r2,r2,1
 800bda8:	20800115 	stw	r2,4(r4)
 800bdac:	003f3e06 	br	800baa8 <__alt_data_end+0xf800baa8>
 800bdb0:	01003f84 	movi	r4,254
 800bdb4:	02001fc4 	movi	r8,127
 800bdb8:	01c01f84 	movi	r7,126
 800bdbc:	003e4006 	br	800b6c0 <__alt_data_end+0xf800b6c0>
 800bdc0:	00820074 	movhi	r2,2049
 800bdc4:	109b0a04 	addi	r2,r2,27688
 800bdc8:	15000015 	stw	r20,0(r2)
 800bdcc:	003f1106 	br	800ba14 <__alt_data_end+0xf800ba14>
 800bdd0:	00800044 	movi	r2,1
 800bdd4:	002b883a 	mov	r21,zero
 800bdd8:	003f1f06 	br	800ba58 <__alt_data_end+0xf800ba58>
 800bddc:	81400204 	addi	r5,r16,8
 800bde0:	9009883a 	mov	r4,r18
 800bde4:	800aa500 	call	800aa50 <_free_r>
 800bde8:	008200b4 	movhi	r2,2050
 800bdec:	10a21704 	addi	r2,r2,-30628
 800bdf0:	10c00017 	ldw	r3,0(r2)
 800bdf4:	003f2c06 	br	800baa8 <__alt_data_end+0xf800baa8>
 800bdf8:	00c05504 	movi	r3,340
 800bdfc:	18800536 	bltu	r3,r2,800be14 <_malloc_r+0x7cc>
 800be00:	3804d3fa 	srli	r2,r7,15
 800be04:	11401e04 	addi	r5,r2,120
 800be08:	10c01dc4 	addi	r3,r2,119
 800be0c:	294b883a 	add	r5,r5,r5
 800be10:	003f5606 	br	800bb6c <__alt_data_end+0xf800bb6c>
 800be14:	00c15504 	movi	r3,1364
 800be18:	18800536 	bltu	r3,r2,800be30 <_malloc_r+0x7e8>
 800be1c:	3804d4ba 	srli	r2,r7,18
 800be20:	11401f44 	addi	r5,r2,125
 800be24:	10c01f04 	addi	r3,r2,124
 800be28:	294b883a 	add	r5,r5,r5
 800be2c:	003f4f06 	br	800bb6c <__alt_data_end+0xf800bb6c>
 800be30:	01403f84 	movi	r5,254
 800be34:	00c01f84 	movi	r3,126
 800be38:	003f4c06 	br	800bb6c <__alt_data_end+0xf800bb6c>
 800be3c:	98800117 	ldw	r2,4(r19)
 800be40:	003fa006 	br	800bcc4 <__alt_data_end+0xf800bcc4>
 800be44:	8808d0fa 	srli	r4,r17,3
 800be48:	20800044 	addi	r2,r4,1
 800be4c:	1085883a 	add	r2,r2,r2
 800be50:	003e9006 	br	800b894 <__alt_data_end+0xf800b894>

0800be54 <memchr>:
 800be54:	208000cc 	andi	r2,r4,3
 800be58:	280f883a 	mov	r7,r5
 800be5c:	10003426 	beq	r2,zero,800bf30 <memchr+0xdc>
 800be60:	30bfffc4 	addi	r2,r6,-1
 800be64:	30001a26 	beq	r6,zero,800bed0 <memchr+0x7c>
 800be68:	20c00003 	ldbu	r3,0(r4)
 800be6c:	29803fcc 	andi	r6,r5,255
 800be70:	30c0051e 	bne	r6,r3,800be88 <memchr+0x34>
 800be74:	00001806 	br	800bed8 <memchr+0x84>
 800be78:	10001526 	beq	r2,zero,800bed0 <memchr+0x7c>
 800be7c:	20c00003 	ldbu	r3,0(r4)
 800be80:	10bfffc4 	addi	r2,r2,-1
 800be84:	30c01426 	beq	r6,r3,800bed8 <memchr+0x84>
 800be88:	21000044 	addi	r4,r4,1
 800be8c:	20c000cc 	andi	r3,r4,3
 800be90:	183ff91e 	bne	r3,zero,800be78 <__alt_data_end+0xf800be78>
 800be94:	020000c4 	movi	r8,3
 800be98:	40801136 	bltu	r8,r2,800bee0 <memchr+0x8c>
 800be9c:	10000c26 	beq	r2,zero,800bed0 <memchr+0x7c>
 800bea0:	20c00003 	ldbu	r3,0(r4)
 800bea4:	29403fcc 	andi	r5,r5,255
 800bea8:	28c00b26 	beq	r5,r3,800bed8 <memchr+0x84>
 800beac:	20c00044 	addi	r3,r4,1
 800beb0:	39803fcc 	andi	r6,r7,255
 800beb4:	2089883a 	add	r4,r4,r2
 800beb8:	00000306 	br	800bec8 <memchr+0x74>
 800bebc:	18c00044 	addi	r3,r3,1
 800bec0:	197fffc3 	ldbu	r5,-1(r3)
 800bec4:	31400526 	beq	r6,r5,800bedc <memchr+0x88>
 800bec8:	1805883a 	mov	r2,r3
 800becc:	20fffb1e 	bne	r4,r3,800bebc <__alt_data_end+0xf800bebc>
 800bed0:	0005883a 	mov	r2,zero
 800bed4:	f800283a 	ret
 800bed8:	2005883a 	mov	r2,r4
 800bedc:	f800283a 	ret
 800bee0:	28c03fcc 	andi	r3,r5,255
 800bee4:	1812923a 	slli	r9,r3,8
 800bee8:	02ffbff4 	movhi	r11,65279
 800beec:	02a02074 	movhi	r10,32897
 800bef0:	48d2b03a 	or	r9,r9,r3
 800bef4:	4806943a 	slli	r3,r9,16
 800bef8:	5affbfc4 	addi	r11,r11,-257
 800befc:	52a02004 	addi	r10,r10,-32640
 800bf00:	48d2b03a 	or	r9,r9,r3
 800bf04:	20c00017 	ldw	r3,0(r4)
 800bf08:	48c6f03a 	xor	r3,r9,r3
 800bf0c:	1acd883a 	add	r6,r3,r11
 800bf10:	00c6303a 	nor	r3,zero,r3
 800bf14:	30c6703a 	and	r3,r6,r3
 800bf18:	1a86703a 	and	r3,r3,r10
 800bf1c:	183fe01e 	bne	r3,zero,800bea0 <__alt_data_end+0xf800bea0>
 800bf20:	10bfff04 	addi	r2,r2,-4
 800bf24:	21000104 	addi	r4,r4,4
 800bf28:	40bff636 	bltu	r8,r2,800bf04 <__alt_data_end+0xf800bf04>
 800bf2c:	003fdb06 	br	800be9c <__alt_data_end+0xf800be9c>
 800bf30:	3005883a 	mov	r2,r6
 800bf34:	003fd706 	br	800be94 <__alt_data_end+0xf800be94>

0800bf38 <memcpy>:
 800bf38:	defffd04 	addi	sp,sp,-12
 800bf3c:	dfc00215 	stw	ra,8(sp)
 800bf40:	dc400115 	stw	r17,4(sp)
 800bf44:	dc000015 	stw	r16,0(sp)
 800bf48:	00c003c4 	movi	r3,15
 800bf4c:	2005883a 	mov	r2,r4
 800bf50:	1980452e 	bgeu	r3,r6,800c068 <memcpy+0x130>
 800bf54:	2906b03a 	or	r3,r5,r4
 800bf58:	18c000cc 	andi	r3,r3,3
 800bf5c:	1800441e 	bne	r3,zero,800c070 <memcpy+0x138>
 800bf60:	347ffc04 	addi	r17,r6,-16
 800bf64:	8822d13a 	srli	r17,r17,4
 800bf68:	28c00104 	addi	r3,r5,4
 800bf6c:	23400104 	addi	r13,r4,4
 800bf70:	8820913a 	slli	r16,r17,4
 800bf74:	2b000204 	addi	r12,r5,8
 800bf78:	22c00204 	addi	r11,r4,8
 800bf7c:	84000504 	addi	r16,r16,20
 800bf80:	2a800304 	addi	r10,r5,12
 800bf84:	22400304 	addi	r9,r4,12
 800bf88:	2c21883a 	add	r16,r5,r16
 800bf8c:	2811883a 	mov	r8,r5
 800bf90:	200f883a 	mov	r7,r4
 800bf94:	41000017 	ldw	r4,0(r8)
 800bf98:	1fc00017 	ldw	ra,0(r3)
 800bf9c:	63c00017 	ldw	r15,0(r12)
 800bfa0:	39000015 	stw	r4,0(r7)
 800bfa4:	53800017 	ldw	r14,0(r10)
 800bfa8:	6fc00015 	stw	ra,0(r13)
 800bfac:	5bc00015 	stw	r15,0(r11)
 800bfb0:	4b800015 	stw	r14,0(r9)
 800bfb4:	18c00404 	addi	r3,r3,16
 800bfb8:	39c00404 	addi	r7,r7,16
 800bfbc:	42000404 	addi	r8,r8,16
 800bfc0:	6b400404 	addi	r13,r13,16
 800bfc4:	63000404 	addi	r12,r12,16
 800bfc8:	5ac00404 	addi	r11,r11,16
 800bfcc:	52800404 	addi	r10,r10,16
 800bfd0:	4a400404 	addi	r9,r9,16
 800bfd4:	1c3fef1e 	bne	r3,r16,800bf94 <__alt_data_end+0xf800bf94>
 800bfd8:	89c00044 	addi	r7,r17,1
 800bfdc:	380e913a 	slli	r7,r7,4
 800bfe0:	310003cc 	andi	r4,r6,15
 800bfe4:	02c000c4 	movi	r11,3
 800bfe8:	11c7883a 	add	r3,r2,r7
 800bfec:	29cb883a 	add	r5,r5,r7
 800bff0:	5900212e 	bgeu	r11,r4,800c078 <memcpy+0x140>
 800bff4:	1813883a 	mov	r9,r3
 800bff8:	2811883a 	mov	r8,r5
 800bffc:	200f883a 	mov	r7,r4
 800c000:	42800017 	ldw	r10,0(r8)
 800c004:	4a400104 	addi	r9,r9,4
 800c008:	39ffff04 	addi	r7,r7,-4
 800c00c:	4abfff15 	stw	r10,-4(r9)
 800c010:	42000104 	addi	r8,r8,4
 800c014:	59fffa36 	bltu	r11,r7,800c000 <__alt_data_end+0xf800c000>
 800c018:	213fff04 	addi	r4,r4,-4
 800c01c:	2008d0ba 	srli	r4,r4,2
 800c020:	318000cc 	andi	r6,r6,3
 800c024:	21000044 	addi	r4,r4,1
 800c028:	2109883a 	add	r4,r4,r4
 800c02c:	2109883a 	add	r4,r4,r4
 800c030:	1907883a 	add	r3,r3,r4
 800c034:	290b883a 	add	r5,r5,r4
 800c038:	30000626 	beq	r6,zero,800c054 <memcpy+0x11c>
 800c03c:	198d883a 	add	r6,r3,r6
 800c040:	29c00003 	ldbu	r7,0(r5)
 800c044:	18c00044 	addi	r3,r3,1
 800c048:	29400044 	addi	r5,r5,1
 800c04c:	19ffffc5 	stb	r7,-1(r3)
 800c050:	19bffb1e 	bne	r3,r6,800c040 <__alt_data_end+0xf800c040>
 800c054:	dfc00217 	ldw	ra,8(sp)
 800c058:	dc400117 	ldw	r17,4(sp)
 800c05c:	dc000017 	ldw	r16,0(sp)
 800c060:	dec00304 	addi	sp,sp,12
 800c064:	f800283a 	ret
 800c068:	2007883a 	mov	r3,r4
 800c06c:	003ff206 	br	800c038 <__alt_data_end+0xf800c038>
 800c070:	2007883a 	mov	r3,r4
 800c074:	003ff106 	br	800c03c <__alt_data_end+0xf800c03c>
 800c078:	200d883a 	mov	r6,r4
 800c07c:	003fee06 	br	800c038 <__alt_data_end+0xf800c038>

0800c080 <memmove>:
 800c080:	2005883a 	mov	r2,r4
 800c084:	29000b2e 	bgeu	r5,r4,800c0b4 <memmove+0x34>
 800c088:	298f883a 	add	r7,r5,r6
 800c08c:	21c0092e 	bgeu	r4,r7,800c0b4 <memmove+0x34>
 800c090:	2187883a 	add	r3,r4,r6
 800c094:	198bc83a 	sub	r5,r3,r6
 800c098:	30004826 	beq	r6,zero,800c1bc <memmove+0x13c>
 800c09c:	39ffffc4 	addi	r7,r7,-1
 800c0a0:	39000003 	ldbu	r4,0(r7)
 800c0a4:	18ffffc4 	addi	r3,r3,-1
 800c0a8:	19000005 	stb	r4,0(r3)
 800c0ac:	28fffb1e 	bne	r5,r3,800c09c <__alt_data_end+0xf800c09c>
 800c0b0:	f800283a 	ret
 800c0b4:	00c003c4 	movi	r3,15
 800c0b8:	1980412e 	bgeu	r3,r6,800c1c0 <memmove+0x140>
 800c0bc:	2886b03a 	or	r3,r5,r2
 800c0c0:	18c000cc 	andi	r3,r3,3
 800c0c4:	1800401e 	bne	r3,zero,800c1c8 <memmove+0x148>
 800c0c8:	33fffc04 	addi	r15,r6,-16
 800c0cc:	781ed13a 	srli	r15,r15,4
 800c0d0:	28c00104 	addi	r3,r5,4
 800c0d4:	13400104 	addi	r13,r2,4
 800c0d8:	781c913a 	slli	r14,r15,4
 800c0dc:	2b000204 	addi	r12,r5,8
 800c0e0:	12c00204 	addi	r11,r2,8
 800c0e4:	73800504 	addi	r14,r14,20
 800c0e8:	2a800304 	addi	r10,r5,12
 800c0ec:	12400304 	addi	r9,r2,12
 800c0f0:	2b9d883a 	add	r14,r5,r14
 800c0f4:	2811883a 	mov	r8,r5
 800c0f8:	100f883a 	mov	r7,r2
 800c0fc:	41000017 	ldw	r4,0(r8)
 800c100:	39c00404 	addi	r7,r7,16
 800c104:	18c00404 	addi	r3,r3,16
 800c108:	393ffc15 	stw	r4,-16(r7)
 800c10c:	193ffc17 	ldw	r4,-16(r3)
 800c110:	6b400404 	addi	r13,r13,16
 800c114:	5ac00404 	addi	r11,r11,16
 800c118:	693ffc15 	stw	r4,-16(r13)
 800c11c:	61000017 	ldw	r4,0(r12)
 800c120:	4a400404 	addi	r9,r9,16
 800c124:	42000404 	addi	r8,r8,16
 800c128:	593ffc15 	stw	r4,-16(r11)
 800c12c:	51000017 	ldw	r4,0(r10)
 800c130:	63000404 	addi	r12,r12,16
 800c134:	52800404 	addi	r10,r10,16
 800c138:	493ffc15 	stw	r4,-16(r9)
 800c13c:	1bbfef1e 	bne	r3,r14,800c0fc <__alt_data_end+0xf800c0fc>
 800c140:	79000044 	addi	r4,r15,1
 800c144:	2008913a 	slli	r4,r4,4
 800c148:	328003cc 	andi	r10,r6,15
 800c14c:	02c000c4 	movi	r11,3
 800c150:	1107883a 	add	r3,r2,r4
 800c154:	290b883a 	add	r5,r5,r4
 800c158:	5a801e2e 	bgeu	r11,r10,800c1d4 <memmove+0x154>
 800c15c:	1813883a 	mov	r9,r3
 800c160:	2811883a 	mov	r8,r5
 800c164:	500f883a 	mov	r7,r10
 800c168:	41000017 	ldw	r4,0(r8)
 800c16c:	4a400104 	addi	r9,r9,4
 800c170:	39ffff04 	addi	r7,r7,-4
 800c174:	493fff15 	stw	r4,-4(r9)
 800c178:	42000104 	addi	r8,r8,4
 800c17c:	59fffa36 	bltu	r11,r7,800c168 <__alt_data_end+0xf800c168>
 800c180:	513fff04 	addi	r4,r10,-4
 800c184:	2008d0ba 	srli	r4,r4,2
 800c188:	318000cc 	andi	r6,r6,3
 800c18c:	21000044 	addi	r4,r4,1
 800c190:	2109883a 	add	r4,r4,r4
 800c194:	2109883a 	add	r4,r4,r4
 800c198:	1907883a 	add	r3,r3,r4
 800c19c:	290b883a 	add	r5,r5,r4
 800c1a0:	30000b26 	beq	r6,zero,800c1d0 <memmove+0x150>
 800c1a4:	198d883a 	add	r6,r3,r6
 800c1a8:	29c00003 	ldbu	r7,0(r5)
 800c1ac:	18c00044 	addi	r3,r3,1
 800c1b0:	29400044 	addi	r5,r5,1
 800c1b4:	19ffffc5 	stb	r7,-1(r3)
 800c1b8:	19bffb1e 	bne	r3,r6,800c1a8 <__alt_data_end+0xf800c1a8>
 800c1bc:	f800283a 	ret
 800c1c0:	1007883a 	mov	r3,r2
 800c1c4:	003ff606 	br	800c1a0 <__alt_data_end+0xf800c1a0>
 800c1c8:	1007883a 	mov	r3,r2
 800c1cc:	003ff506 	br	800c1a4 <__alt_data_end+0xf800c1a4>
 800c1d0:	f800283a 	ret
 800c1d4:	500d883a 	mov	r6,r10
 800c1d8:	003ff106 	br	800c1a0 <__alt_data_end+0xf800c1a0>

0800c1dc <memset>:
 800c1dc:	20c000cc 	andi	r3,r4,3
 800c1e0:	2005883a 	mov	r2,r4
 800c1e4:	18004426 	beq	r3,zero,800c2f8 <memset+0x11c>
 800c1e8:	31ffffc4 	addi	r7,r6,-1
 800c1ec:	30004026 	beq	r6,zero,800c2f0 <memset+0x114>
 800c1f0:	2813883a 	mov	r9,r5
 800c1f4:	200d883a 	mov	r6,r4
 800c1f8:	2007883a 	mov	r3,r4
 800c1fc:	00000406 	br	800c210 <memset+0x34>
 800c200:	3a3fffc4 	addi	r8,r7,-1
 800c204:	31800044 	addi	r6,r6,1
 800c208:	38003926 	beq	r7,zero,800c2f0 <memset+0x114>
 800c20c:	400f883a 	mov	r7,r8
 800c210:	18c00044 	addi	r3,r3,1
 800c214:	32400005 	stb	r9,0(r6)
 800c218:	1a0000cc 	andi	r8,r3,3
 800c21c:	403ff81e 	bne	r8,zero,800c200 <__alt_data_end+0xf800c200>
 800c220:	010000c4 	movi	r4,3
 800c224:	21c02d2e 	bgeu	r4,r7,800c2dc <memset+0x100>
 800c228:	29003fcc 	andi	r4,r5,255
 800c22c:	200c923a 	slli	r6,r4,8
 800c230:	3108b03a 	or	r4,r6,r4
 800c234:	200c943a 	slli	r6,r4,16
 800c238:	218cb03a 	or	r6,r4,r6
 800c23c:	010003c4 	movi	r4,15
 800c240:	21c0182e 	bgeu	r4,r7,800c2a4 <memset+0xc8>
 800c244:	3b3ffc04 	addi	r12,r7,-16
 800c248:	6018d13a 	srli	r12,r12,4
 800c24c:	1a000104 	addi	r8,r3,4
 800c250:	1ac00204 	addi	r11,r3,8
 800c254:	6008913a 	slli	r4,r12,4
 800c258:	1a800304 	addi	r10,r3,12
 800c25c:	1813883a 	mov	r9,r3
 800c260:	21000504 	addi	r4,r4,20
 800c264:	1909883a 	add	r4,r3,r4
 800c268:	49800015 	stw	r6,0(r9)
 800c26c:	41800015 	stw	r6,0(r8)
 800c270:	59800015 	stw	r6,0(r11)
 800c274:	51800015 	stw	r6,0(r10)
 800c278:	42000404 	addi	r8,r8,16
 800c27c:	4a400404 	addi	r9,r9,16
 800c280:	5ac00404 	addi	r11,r11,16
 800c284:	52800404 	addi	r10,r10,16
 800c288:	413ff71e 	bne	r8,r4,800c268 <__alt_data_end+0xf800c268>
 800c28c:	63000044 	addi	r12,r12,1
 800c290:	6018913a 	slli	r12,r12,4
 800c294:	39c003cc 	andi	r7,r7,15
 800c298:	010000c4 	movi	r4,3
 800c29c:	1b07883a 	add	r3,r3,r12
 800c2a0:	21c00e2e 	bgeu	r4,r7,800c2dc <memset+0x100>
 800c2a4:	1813883a 	mov	r9,r3
 800c2a8:	3811883a 	mov	r8,r7
 800c2ac:	010000c4 	movi	r4,3
 800c2b0:	49800015 	stw	r6,0(r9)
 800c2b4:	423fff04 	addi	r8,r8,-4
 800c2b8:	4a400104 	addi	r9,r9,4
 800c2bc:	223ffc36 	bltu	r4,r8,800c2b0 <__alt_data_end+0xf800c2b0>
 800c2c0:	393fff04 	addi	r4,r7,-4
 800c2c4:	2008d0ba 	srli	r4,r4,2
 800c2c8:	39c000cc 	andi	r7,r7,3
 800c2cc:	21000044 	addi	r4,r4,1
 800c2d0:	2109883a 	add	r4,r4,r4
 800c2d4:	2109883a 	add	r4,r4,r4
 800c2d8:	1907883a 	add	r3,r3,r4
 800c2dc:	38000526 	beq	r7,zero,800c2f4 <memset+0x118>
 800c2e0:	19cf883a 	add	r7,r3,r7
 800c2e4:	19400005 	stb	r5,0(r3)
 800c2e8:	18c00044 	addi	r3,r3,1
 800c2ec:	38fffd1e 	bne	r7,r3,800c2e4 <__alt_data_end+0xf800c2e4>
 800c2f0:	f800283a 	ret
 800c2f4:	f800283a 	ret
 800c2f8:	2007883a 	mov	r3,r4
 800c2fc:	300f883a 	mov	r7,r6
 800c300:	003fc706 	br	800c220 <__alt_data_end+0xf800c220>

0800c304 <_Balloc>:
 800c304:	20801317 	ldw	r2,76(r4)
 800c308:	defffc04 	addi	sp,sp,-16
 800c30c:	dc400115 	stw	r17,4(sp)
 800c310:	dc000015 	stw	r16,0(sp)
 800c314:	dfc00315 	stw	ra,12(sp)
 800c318:	dc800215 	stw	r18,8(sp)
 800c31c:	2023883a 	mov	r17,r4
 800c320:	2821883a 	mov	r16,r5
 800c324:	10000f26 	beq	r2,zero,800c364 <_Balloc+0x60>
 800c328:	8407883a 	add	r3,r16,r16
 800c32c:	18c7883a 	add	r3,r3,r3
 800c330:	10c7883a 	add	r3,r2,r3
 800c334:	18800017 	ldw	r2,0(r3)
 800c338:	10001126 	beq	r2,zero,800c380 <_Balloc+0x7c>
 800c33c:	11000017 	ldw	r4,0(r2)
 800c340:	19000015 	stw	r4,0(r3)
 800c344:	10000415 	stw	zero,16(r2)
 800c348:	10000315 	stw	zero,12(r2)
 800c34c:	dfc00317 	ldw	ra,12(sp)
 800c350:	dc800217 	ldw	r18,8(sp)
 800c354:	dc400117 	ldw	r17,4(sp)
 800c358:	dc000017 	ldw	r16,0(sp)
 800c35c:	dec00404 	addi	sp,sp,16
 800c360:	f800283a 	ret
 800c364:	01800844 	movi	r6,33
 800c368:	01400104 	movi	r5,4
 800c36c:	800f3ac0 	call	800f3ac <_calloc_r>
 800c370:	88801315 	stw	r2,76(r17)
 800c374:	103fec1e 	bne	r2,zero,800c328 <__alt_data_end+0xf800c328>
 800c378:	0005883a 	mov	r2,zero
 800c37c:	003ff306 	br	800c34c <__alt_data_end+0xf800c34c>
 800c380:	01400044 	movi	r5,1
 800c384:	2c24983a 	sll	r18,r5,r16
 800c388:	8809883a 	mov	r4,r17
 800c38c:	91800144 	addi	r6,r18,5
 800c390:	318d883a 	add	r6,r6,r6
 800c394:	318d883a 	add	r6,r6,r6
 800c398:	800f3ac0 	call	800f3ac <_calloc_r>
 800c39c:	103ff626 	beq	r2,zero,800c378 <__alt_data_end+0xf800c378>
 800c3a0:	14000115 	stw	r16,4(r2)
 800c3a4:	14800215 	stw	r18,8(r2)
 800c3a8:	003fe606 	br	800c344 <__alt_data_end+0xf800c344>

0800c3ac <_Bfree>:
 800c3ac:	28000826 	beq	r5,zero,800c3d0 <_Bfree+0x24>
 800c3b0:	28c00117 	ldw	r3,4(r5)
 800c3b4:	20801317 	ldw	r2,76(r4)
 800c3b8:	18c7883a 	add	r3,r3,r3
 800c3bc:	18c7883a 	add	r3,r3,r3
 800c3c0:	10c5883a 	add	r2,r2,r3
 800c3c4:	10c00017 	ldw	r3,0(r2)
 800c3c8:	28c00015 	stw	r3,0(r5)
 800c3cc:	11400015 	stw	r5,0(r2)
 800c3d0:	f800283a 	ret

0800c3d4 <__multadd>:
 800c3d4:	defff704 	addi	sp,sp,-36
 800c3d8:	dc800215 	stw	r18,8(sp)
 800c3dc:	2c800417 	ldw	r18,16(r5)
 800c3e0:	dd800615 	stw	r22,24(sp)
 800c3e4:	dd400515 	stw	r21,20(sp)
 800c3e8:	dd000415 	stw	r20,16(sp)
 800c3ec:	dcc00315 	stw	r19,12(sp)
 800c3f0:	dc400115 	stw	r17,4(sp)
 800c3f4:	dc000015 	stw	r16,0(sp)
 800c3f8:	dfc00815 	stw	ra,32(sp)
 800c3fc:	ddc00715 	stw	r23,28(sp)
 800c400:	2827883a 	mov	r19,r5
 800c404:	2029883a 	mov	r20,r4
 800c408:	3023883a 	mov	r17,r6
 800c40c:	3821883a 	mov	r16,r7
 800c410:	2d400504 	addi	r21,r5,20
 800c414:	002d883a 	mov	r22,zero
 800c418:	adc00017 	ldw	r23,0(r21)
 800c41c:	880b883a 	mov	r5,r17
 800c420:	ad400104 	addi	r21,r21,4
 800c424:	b93fffcc 	andi	r4,r23,65535
 800c428:	80054680 	call	8005468 <__mulsi3>
 800c42c:	b808d43a 	srli	r4,r23,16
 800c430:	880b883a 	mov	r5,r17
 800c434:	1421883a 	add	r16,r2,r16
 800c438:	80054680 	call	8005468 <__mulsi3>
 800c43c:	800ed43a 	srli	r7,r16,16
 800c440:	80ffffcc 	andi	r3,r16,65535
 800c444:	b5800044 	addi	r22,r22,1
 800c448:	11c5883a 	add	r2,r2,r7
 800c44c:	100e943a 	slli	r7,r2,16
 800c450:	1020d43a 	srli	r16,r2,16
 800c454:	38c7883a 	add	r3,r7,r3
 800c458:	a8ffff15 	stw	r3,-4(r21)
 800c45c:	b4bfee16 	blt	r22,r18,800c418 <__alt_data_end+0xf800c418>
 800c460:	80000926 	beq	r16,zero,800c488 <__multadd+0xb4>
 800c464:	98800217 	ldw	r2,8(r19)
 800c468:	9080130e 	bge	r18,r2,800c4b8 <__multadd+0xe4>
 800c46c:	90800144 	addi	r2,r18,5
 800c470:	1085883a 	add	r2,r2,r2
 800c474:	1085883a 	add	r2,r2,r2
 800c478:	9885883a 	add	r2,r19,r2
 800c47c:	14000015 	stw	r16,0(r2)
 800c480:	94800044 	addi	r18,r18,1
 800c484:	9c800415 	stw	r18,16(r19)
 800c488:	9805883a 	mov	r2,r19
 800c48c:	dfc00817 	ldw	ra,32(sp)
 800c490:	ddc00717 	ldw	r23,28(sp)
 800c494:	dd800617 	ldw	r22,24(sp)
 800c498:	dd400517 	ldw	r21,20(sp)
 800c49c:	dd000417 	ldw	r20,16(sp)
 800c4a0:	dcc00317 	ldw	r19,12(sp)
 800c4a4:	dc800217 	ldw	r18,8(sp)
 800c4a8:	dc400117 	ldw	r17,4(sp)
 800c4ac:	dc000017 	ldw	r16,0(sp)
 800c4b0:	dec00904 	addi	sp,sp,36
 800c4b4:	f800283a 	ret
 800c4b8:	99400117 	ldw	r5,4(r19)
 800c4bc:	a009883a 	mov	r4,r20
 800c4c0:	29400044 	addi	r5,r5,1
 800c4c4:	800c3040 	call	800c304 <_Balloc>
 800c4c8:	99800417 	ldw	r6,16(r19)
 800c4cc:	99400304 	addi	r5,r19,12
 800c4d0:	11000304 	addi	r4,r2,12
 800c4d4:	31800084 	addi	r6,r6,2
 800c4d8:	318d883a 	add	r6,r6,r6
 800c4dc:	318d883a 	add	r6,r6,r6
 800c4e0:	1023883a 	mov	r17,r2
 800c4e4:	800bf380 	call	800bf38 <memcpy>
 800c4e8:	98000a26 	beq	r19,zero,800c514 <__multadd+0x140>
 800c4ec:	98c00117 	ldw	r3,4(r19)
 800c4f0:	a0801317 	ldw	r2,76(r20)
 800c4f4:	18c7883a 	add	r3,r3,r3
 800c4f8:	18c7883a 	add	r3,r3,r3
 800c4fc:	10c5883a 	add	r2,r2,r3
 800c500:	10c00017 	ldw	r3,0(r2)
 800c504:	98c00015 	stw	r3,0(r19)
 800c508:	14c00015 	stw	r19,0(r2)
 800c50c:	8827883a 	mov	r19,r17
 800c510:	003fd606 	br	800c46c <__alt_data_end+0xf800c46c>
 800c514:	8827883a 	mov	r19,r17
 800c518:	003fd406 	br	800c46c <__alt_data_end+0xf800c46c>

0800c51c <__s2b>:
 800c51c:	defff904 	addi	sp,sp,-28
 800c520:	dc400115 	stw	r17,4(sp)
 800c524:	dc000015 	stw	r16,0(sp)
 800c528:	2023883a 	mov	r17,r4
 800c52c:	2821883a 	mov	r16,r5
 800c530:	39000204 	addi	r4,r7,8
 800c534:	01400244 	movi	r5,9
 800c538:	dcc00315 	stw	r19,12(sp)
 800c53c:	dc800215 	stw	r18,8(sp)
 800c540:	dfc00615 	stw	ra,24(sp)
 800c544:	dd400515 	stw	r21,20(sp)
 800c548:	dd000415 	stw	r20,16(sp)
 800c54c:	3825883a 	mov	r18,r7
 800c550:	3027883a 	mov	r19,r6
 800c554:	800613c0 	call	800613c <__divsi3>
 800c558:	00c00044 	movi	r3,1
 800c55c:	000b883a 	mov	r5,zero
 800c560:	1880030e 	bge	r3,r2,800c570 <__s2b+0x54>
 800c564:	18c7883a 	add	r3,r3,r3
 800c568:	29400044 	addi	r5,r5,1
 800c56c:	18bffd16 	blt	r3,r2,800c564 <__alt_data_end+0xf800c564>
 800c570:	8809883a 	mov	r4,r17
 800c574:	800c3040 	call	800c304 <_Balloc>
 800c578:	d8c00717 	ldw	r3,28(sp)
 800c57c:	10c00515 	stw	r3,20(r2)
 800c580:	00c00044 	movi	r3,1
 800c584:	10c00415 	stw	r3,16(r2)
 800c588:	00c00244 	movi	r3,9
 800c58c:	1cc0210e 	bge	r3,r19,800c614 <__s2b+0xf8>
 800c590:	80eb883a 	add	r21,r16,r3
 800c594:	a829883a 	mov	r20,r21
 800c598:	84e1883a 	add	r16,r16,r19
 800c59c:	a1c00007 	ldb	r7,0(r20)
 800c5a0:	01800284 	movi	r6,10
 800c5a4:	a5000044 	addi	r20,r20,1
 800c5a8:	100b883a 	mov	r5,r2
 800c5ac:	39fff404 	addi	r7,r7,-48
 800c5b0:	8809883a 	mov	r4,r17
 800c5b4:	800c3d40 	call	800c3d4 <__multadd>
 800c5b8:	a43ff81e 	bne	r20,r16,800c59c <__alt_data_end+0xf800c59c>
 800c5bc:	ace1883a 	add	r16,r21,r19
 800c5c0:	843ffe04 	addi	r16,r16,-8
 800c5c4:	9c800a0e 	bge	r19,r18,800c5f0 <__s2b+0xd4>
 800c5c8:	94e5c83a 	sub	r18,r18,r19
 800c5cc:	84a5883a 	add	r18,r16,r18
 800c5d0:	81c00007 	ldb	r7,0(r16)
 800c5d4:	01800284 	movi	r6,10
 800c5d8:	84000044 	addi	r16,r16,1
 800c5dc:	100b883a 	mov	r5,r2
 800c5e0:	39fff404 	addi	r7,r7,-48
 800c5e4:	8809883a 	mov	r4,r17
 800c5e8:	800c3d40 	call	800c3d4 <__multadd>
 800c5ec:	84bff81e 	bne	r16,r18,800c5d0 <__alt_data_end+0xf800c5d0>
 800c5f0:	dfc00617 	ldw	ra,24(sp)
 800c5f4:	dd400517 	ldw	r21,20(sp)
 800c5f8:	dd000417 	ldw	r20,16(sp)
 800c5fc:	dcc00317 	ldw	r19,12(sp)
 800c600:	dc800217 	ldw	r18,8(sp)
 800c604:	dc400117 	ldw	r17,4(sp)
 800c608:	dc000017 	ldw	r16,0(sp)
 800c60c:	dec00704 	addi	sp,sp,28
 800c610:	f800283a 	ret
 800c614:	84000284 	addi	r16,r16,10
 800c618:	1827883a 	mov	r19,r3
 800c61c:	003fe906 	br	800c5c4 <__alt_data_end+0xf800c5c4>

0800c620 <__hi0bits>:
 800c620:	20bfffec 	andhi	r2,r4,65535
 800c624:	1000141e 	bne	r2,zero,800c678 <__hi0bits+0x58>
 800c628:	2008943a 	slli	r4,r4,16
 800c62c:	00800404 	movi	r2,16
 800c630:	20ffc02c 	andhi	r3,r4,65280
 800c634:	1800021e 	bne	r3,zero,800c640 <__hi0bits+0x20>
 800c638:	2008923a 	slli	r4,r4,8
 800c63c:	10800204 	addi	r2,r2,8
 800c640:	20fc002c 	andhi	r3,r4,61440
 800c644:	1800021e 	bne	r3,zero,800c650 <__hi0bits+0x30>
 800c648:	2008913a 	slli	r4,r4,4
 800c64c:	10800104 	addi	r2,r2,4
 800c650:	20f0002c 	andhi	r3,r4,49152
 800c654:	1800031e 	bne	r3,zero,800c664 <__hi0bits+0x44>
 800c658:	2109883a 	add	r4,r4,r4
 800c65c:	10800084 	addi	r2,r2,2
 800c660:	2109883a 	add	r4,r4,r4
 800c664:	20000316 	blt	r4,zero,800c674 <__hi0bits+0x54>
 800c668:	2110002c 	andhi	r4,r4,16384
 800c66c:	2000041e 	bne	r4,zero,800c680 <__hi0bits+0x60>
 800c670:	00800804 	movi	r2,32
 800c674:	f800283a 	ret
 800c678:	0005883a 	mov	r2,zero
 800c67c:	003fec06 	br	800c630 <__alt_data_end+0xf800c630>
 800c680:	10800044 	addi	r2,r2,1
 800c684:	f800283a 	ret

0800c688 <__lo0bits>:
 800c688:	20c00017 	ldw	r3,0(r4)
 800c68c:	188001cc 	andi	r2,r3,7
 800c690:	10000826 	beq	r2,zero,800c6b4 <__lo0bits+0x2c>
 800c694:	1880004c 	andi	r2,r3,1
 800c698:	1000211e 	bne	r2,zero,800c720 <__lo0bits+0x98>
 800c69c:	1880008c 	andi	r2,r3,2
 800c6a0:	1000211e 	bne	r2,zero,800c728 <__lo0bits+0xa0>
 800c6a4:	1806d0ba 	srli	r3,r3,2
 800c6a8:	00800084 	movi	r2,2
 800c6ac:	20c00015 	stw	r3,0(r4)
 800c6b0:	f800283a 	ret
 800c6b4:	18bfffcc 	andi	r2,r3,65535
 800c6b8:	10001326 	beq	r2,zero,800c708 <__lo0bits+0x80>
 800c6bc:	0005883a 	mov	r2,zero
 800c6c0:	19403fcc 	andi	r5,r3,255
 800c6c4:	2800021e 	bne	r5,zero,800c6d0 <__lo0bits+0x48>
 800c6c8:	1806d23a 	srli	r3,r3,8
 800c6cc:	10800204 	addi	r2,r2,8
 800c6d0:	194003cc 	andi	r5,r3,15
 800c6d4:	2800021e 	bne	r5,zero,800c6e0 <__lo0bits+0x58>
 800c6d8:	1806d13a 	srli	r3,r3,4
 800c6dc:	10800104 	addi	r2,r2,4
 800c6e0:	194000cc 	andi	r5,r3,3
 800c6e4:	2800021e 	bne	r5,zero,800c6f0 <__lo0bits+0x68>
 800c6e8:	1806d0ba 	srli	r3,r3,2
 800c6ec:	10800084 	addi	r2,r2,2
 800c6f0:	1940004c 	andi	r5,r3,1
 800c6f4:	2800081e 	bne	r5,zero,800c718 <__lo0bits+0x90>
 800c6f8:	1806d07a 	srli	r3,r3,1
 800c6fc:	1800051e 	bne	r3,zero,800c714 <__lo0bits+0x8c>
 800c700:	00800804 	movi	r2,32
 800c704:	f800283a 	ret
 800c708:	1806d43a 	srli	r3,r3,16
 800c70c:	00800404 	movi	r2,16
 800c710:	003feb06 	br	800c6c0 <__alt_data_end+0xf800c6c0>
 800c714:	10800044 	addi	r2,r2,1
 800c718:	20c00015 	stw	r3,0(r4)
 800c71c:	f800283a 	ret
 800c720:	0005883a 	mov	r2,zero
 800c724:	f800283a 	ret
 800c728:	1806d07a 	srli	r3,r3,1
 800c72c:	00800044 	movi	r2,1
 800c730:	20c00015 	stw	r3,0(r4)
 800c734:	f800283a 	ret

0800c738 <__i2b>:
 800c738:	defffd04 	addi	sp,sp,-12
 800c73c:	dc000015 	stw	r16,0(sp)
 800c740:	04000044 	movi	r16,1
 800c744:	dc400115 	stw	r17,4(sp)
 800c748:	2823883a 	mov	r17,r5
 800c74c:	800b883a 	mov	r5,r16
 800c750:	dfc00215 	stw	ra,8(sp)
 800c754:	800c3040 	call	800c304 <_Balloc>
 800c758:	14400515 	stw	r17,20(r2)
 800c75c:	14000415 	stw	r16,16(r2)
 800c760:	dfc00217 	ldw	ra,8(sp)
 800c764:	dc400117 	ldw	r17,4(sp)
 800c768:	dc000017 	ldw	r16,0(sp)
 800c76c:	dec00304 	addi	sp,sp,12
 800c770:	f800283a 	ret

0800c774 <__multiply>:
 800c774:	deffef04 	addi	sp,sp,-68
 800c778:	dc400815 	stw	r17,32(sp)
 800c77c:	dc000715 	stw	r16,28(sp)
 800c780:	34400417 	ldw	r17,16(r6)
 800c784:	2c000417 	ldw	r16,16(r5)
 800c788:	dd800d15 	stw	r22,52(sp)
 800c78c:	dc800915 	stw	r18,36(sp)
 800c790:	dfc01015 	stw	ra,64(sp)
 800c794:	df000f15 	stw	fp,60(sp)
 800c798:	ddc00e15 	stw	r23,56(sp)
 800c79c:	dd400c15 	stw	r21,48(sp)
 800c7a0:	dd000b15 	stw	r20,44(sp)
 800c7a4:	dcc00a15 	stw	r19,40(sp)
 800c7a8:	2825883a 	mov	r18,r5
 800c7ac:	302d883a 	mov	r22,r6
 800c7b0:	8440050e 	bge	r16,r17,800c7c8 <__multiply+0x54>
 800c7b4:	8007883a 	mov	r3,r16
 800c7b8:	3025883a 	mov	r18,r6
 800c7bc:	8821883a 	mov	r16,r17
 800c7c0:	282d883a 	mov	r22,r5
 800c7c4:	1823883a 	mov	r17,r3
 800c7c8:	90800217 	ldw	r2,8(r18)
 800c7cc:	8447883a 	add	r3,r16,r17
 800c7d0:	d8c00215 	stw	r3,8(sp)
 800c7d4:	91400117 	ldw	r5,4(r18)
 800c7d8:	10c0010e 	bge	r2,r3,800c7e0 <__multiply+0x6c>
 800c7dc:	29400044 	addi	r5,r5,1
 800c7e0:	800c3040 	call	800c304 <_Balloc>
 800c7e4:	d8c00217 	ldw	r3,8(sp)
 800c7e8:	d8800615 	stw	r2,24(sp)
 800c7ec:	18eb883a 	add	r21,r3,r3
 800c7f0:	ad6b883a 	add	r21,r21,r21
 800c7f4:	10c00504 	addi	r3,r2,20
 800c7f8:	1d6b883a 	add	r21,r3,r21
 800c7fc:	d8c00115 	stw	r3,4(sp)
 800c800:	dd400315 	stw	r21,12(sp)
 800c804:	1805883a 	mov	r2,r3
 800c808:	1d40042e 	bgeu	r3,r21,800c81c <__multiply+0xa8>
 800c80c:	d8c00317 	ldw	r3,12(sp)
 800c810:	10000015 	stw	zero,0(r2)
 800c814:	10800104 	addi	r2,r2,4
 800c818:	10fffc36 	bltu	r2,r3,800c80c <__alt_data_end+0xf800c80c>
 800c81c:	8c63883a 	add	r17,r17,r17
 800c820:	b5800504 	addi	r22,r22,20
 800c824:	8c63883a 	add	r17,r17,r17
 800c828:	94800504 	addi	r18,r18,20
 800c82c:	8421883a 	add	r16,r16,r16
 800c830:	b463883a 	add	r17,r22,r17
 800c834:	8421883a 	add	r16,r16,r16
 800c838:	dd800015 	stw	r22,0(sp)
 800c83c:	dc800415 	stw	r18,16(sp)
 800c840:	dc400515 	stw	r17,20(sp)
 800c844:	9429883a 	add	r20,r18,r16
 800c848:	b4404f2e 	bgeu	r22,r17,800c988 <__multiply+0x214>
 800c84c:	d8c00017 	ldw	r3,0(sp)
 800c850:	1c800017 	ldw	r18,0(r3)
 800c854:	947fffcc 	andi	r17,r18,65535
 800c858:	88001e26 	beq	r17,zero,800c8d4 <__multiply+0x160>
 800c85c:	dd800117 	ldw	r22,4(sp)
 800c860:	dd400417 	ldw	r21,16(sp)
 800c864:	0027883a 	mov	r19,zero
 800c868:	ac800017 	ldw	r18,0(r21)
 800c86c:	b4000017 	ldw	r16,0(r22)
 800c870:	880b883a 	mov	r5,r17
 800c874:	913fffcc 	andi	r4,r18,65535
 800c878:	80054680 	call	8005468 <__mulsi3>
 800c87c:	9008d43a 	srli	r4,r18,16
 800c880:	84bfffcc 	andi	r18,r16,65535
 800c884:	1485883a 	add	r2,r2,r18
 800c888:	14e5883a 	add	r18,r2,r19
 800c88c:	8020d43a 	srli	r16,r16,16
 800c890:	9026d43a 	srli	r19,r18,16
 800c894:	880b883a 	mov	r5,r17
 800c898:	80054680 	call	8005468 <__mulsi3>
 800c89c:	1405883a 	add	r2,r2,r16
 800c8a0:	14e1883a 	add	r16,r2,r19
 800c8a4:	90ffffcc 	andi	r3,r18,65535
 800c8a8:	8024943a 	slli	r18,r16,16
 800c8ac:	ad400104 	addi	r21,r21,4
 800c8b0:	b005883a 	mov	r2,r22
 800c8b4:	90c6b03a 	or	r3,r18,r3
 800c8b8:	b0c00015 	stw	r3,0(r22)
 800c8bc:	8026d43a 	srli	r19,r16,16
 800c8c0:	b5800104 	addi	r22,r22,4
 800c8c4:	ad3fe836 	bltu	r21,r20,800c868 <__alt_data_end+0xf800c868>
 800c8c8:	d8c00017 	ldw	r3,0(sp)
 800c8cc:	14c00115 	stw	r19,4(r2)
 800c8d0:	1c800017 	ldw	r18,0(r3)
 800c8d4:	9024d43a 	srli	r18,r18,16
 800c8d8:	90002226 	beq	r18,zero,800c964 <__multiply+0x1f0>
 800c8dc:	d8c00117 	ldw	r3,4(sp)
 800c8e0:	dd800417 	ldw	r22,16(sp)
 800c8e4:	002f883a 	mov	r23,zero
 800c8e8:	1f000017 	ldw	fp,0(r3)
 800c8ec:	1823883a 	mov	r17,r3
 800c8f0:	182b883a 	mov	r21,r3
 800c8f4:	e021883a 	mov	r16,fp
 800c8f8:	00000106 	br	800c900 <__multiply+0x18c>
 800c8fc:	982b883a 	mov	r21,r19
 800c900:	b100000b 	ldhu	r4,0(r22)
 800c904:	8020d43a 	srli	r16,r16,16
 800c908:	900b883a 	mov	r5,r18
 800c90c:	80054680 	call	8005468 <__mulsi3>
 800c910:	1405883a 	add	r2,r2,r16
 800c914:	15ef883a 	add	r23,r2,r23
 800c918:	b804943a 	slli	r2,r23,16
 800c91c:	e0ffffcc 	andi	r3,fp,65535
 800c920:	8c400104 	addi	r17,r17,4
 800c924:	10c6b03a 	or	r3,r2,r3
 800c928:	88ffff15 	stw	r3,-4(r17)
 800c92c:	b5800104 	addi	r22,r22,4
 800c930:	b13fff17 	ldw	r4,-4(r22)
 800c934:	acc00104 	addi	r19,r21,4
 800c938:	900b883a 	mov	r5,r18
 800c93c:	2008d43a 	srli	r4,r4,16
 800c940:	9c000017 	ldw	r16,0(r19)
 800c944:	80054680 	call	8005468 <__mulsi3>
 800c948:	b806d43a 	srli	r3,r23,16
 800c94c:	813fffcc 	andi	r4,r16,65535
 800c950:	1105883a 	add	r2,r2,r4
 800c954:	10f9883a 	add	fp,r2,r3
 800c958:	e02ed43a 	srli	r23,fp,16
 800c95c:	b53fe736 	bltu	r22,r20,800c8fc <__alt_data_end+0xf800c8fc>
 800c960:	af000115 	stw	fp,4(r21)
 800c964:	d8c00017 	ldw	r3,0(sp)
 800c968:	d9000517 	ldw	r4,20(sp)
 800c96c:	18c00104 	addi	r3,r3,4
 800c970:	d8c00015 	stw	r3,0(sp)
 800c974:	d8c00117 	ldw	r3,4(sp)
 800c978:	18c00104 	addi	r3,r3,4
 800c97c:	d8c00115 	stw	r3,4(sp)
 800c980:	d8c00017 	ldw	r3,0(sp)
 800c984:	193fb136 	bltu	r3,r4,800c84c <__alt_data_end+0xf800c84c>
 800c988:	d8c00217 	ldw	r3,8(sp)
 800c98c:	00c00c0e 	bge	zero,r3,800c9c0 <__multiply+0x24c>
 800c990:	d8c00317 	ldw	r3,12(sp)
 800c994:	18bfff17 	ldw	r2,-4(r3)
 800c998:	1d7fff04 	addi	r21,r3,-4
 800c99c:	10000326 	beq	r2,zero,800c9ac <__multiply+0x238>
 800c9a0:	00000706 	br	800c9c0 <__multiply+0x24c>
 800c9a4:	a8800017 	ldw	r2,0(r21)
 800c9a8:	1000051e 	bne	r2,zero,800c9c0 <__multiply+0x24c>
 800c9ac:	d8c00217 	ldw	r3,8(sp)
 800c9b0:	ad7fff04 	addi	r21,r21,-4
 800c9b4:	18ffffc4 	addi	r3,r3,-1
 800c9b8:	d8c00215 	stw	r3,8(sp)
 800c9bc:	183ff91e 	bne	r3,zero,800c9a4 <__alt_data_end+0xf800c9a4>
 800c9c0:	d8c00617 	ldw	r3,24(sp)
 800c9c4:	d9000217 	ldw	r4,8(sp)
 800c9c8:	1805883a 	mov	r2,r3
 800c9cc:	19000415 	stw	r4,16(r3)
 800c9d0:	dfc01017 	ldw	ra,64(sp)
 800c9d4:	df000f17 	ldw	fp,60(sp)
 800c9d8:	ddc00e17 	ldw	r23,56(sp)
 800c9dc:	dd800d17 	ldw	r22,52(sp)
 800c9e0:	dd400c17 	ldw	r21,48(sp)
 800c9e4:	dd000b17 	ldw	r20,44(sp)
 800c9e8:	dcc00a17 	ldw	r19,40(sp)
 800c9ec:	dc800917 	ldw	r18,36(sp)
 800c9f0:	dc400817 	ldw	r17,32(sp)
 800c9f4:	dc000717 	ldw	r16,28(sp)
 800c9f8:	dec01104 	addi	sp,sp,68
 800c9fc:	f800283a 	ret

0800ca00 <__pow5mult>:
 800ca00:	defffa04 	addi	sp,sp,-24
 800ca04:	dcc00315 	stw	r19,12(sp)
 800ca08:	dc000015 	stw	r16,0(sp)
 800ca0c:	dfc00515 	stw	ra,20(sp)
 800ca10:	dd000415 	stw	r20,16(sp)
 800ca14:	dc800215 	stw	r18,8(sp)
 800ca18:	dc400115 	stw	r17,4(sp)
 800ca1c:	308000cc 	andi	r2,r6,3
 800ca20:	3021883a 	mov	r16,r6
 800ca24:	2027883a 	mov	r19,r4
 800ca28:	10002f1e 	bne	r2,zero,800cae8 <__pow5mult+0xe8>
 800ca2c:	2825883a 	mov	r18,r5
 800ca30:	8021d0ba 	srai	r16,r16,2
 800ca34:	80001a26 	beq	r16,zero,800caa0 <__pow5mult+0xa0>
 800ca38:	9c401217 	ldw	r17,72(r19)
 800ca3c:	8800061e 	bne	r17,zero,800ca58 <__pow5mult+0x58>
 800ca40:	00003406 	br	800cb14 <__pow5mult+0x114>
 800ca44:	8021d07a 	srai	r16,r16,1
 800ca48:	80001526 	beq	r16,zero,800caa0 <__pow5mult+0xa0>
 800ca4c:	88800017 	ldw	r2,0(r17)
 800ca50:	10001c26 	beq	r2,zero,800cac4 <__pow5mult+0xc4>
 800ca54:	1023883a 	mov	r17,r2
 800ca58:	8080004c 	andi	r2,r16,1
 800ca5c:	103ff926 	beq	r2,zero,800ca44 <__alt_data_end+0xf800ca44>
 800ca60:	880d883a 	mov	r6,r17
 800ca64:	900b883a 	mov	r5,r18
 800ca68:	9809883a 	mov	r4,r19
 800ca6c:	800c7740 	call	800c774 <__multiply>
 800ca70:	90001b26 	beq	r18,zero,800cae0 <__pow5mult+0xe0>
 800ca74:	91000117 	ldw	r4,4(r18)
 800ca78:	98c01317 	ldw	r3,76(r19)
 800ca7c:	8021d07a 	srai	r16,r16,1
 800ca80:	2109883a 	add	r4,r4,r4
 800ca84:	2109883a 	add	r4,r4,r4
 800ca88:	1907883a 	add	r3,r3,r4
 800ca8c:	19000017 	ldw	r4,0(r3)
 800ca90:	91000015 	stw	r4,0(r18)
 800ca94:	1c800015 	stw	r18,0(r3)
 800ca98:	1025883a 	mov	r18,r2
 800ca9c:	803feb1e 	bne	r16,zero,800ca4c <__alt_data_end+0xf800ca4c>
 800caa0:	9005883a 	mov	r2,r18
 800caa4:	dfc00517 	ldw	ra,20(sp)
 800caa8:	dd000417 	ldw	r20,16(sp)
 800caac:	dcc00317 	ldw	r19,12(sp)
 800cab0:	dc800217 	ldw	r18,8(sp)
 800cab4:	dc400117 	ldw	r17,4(sp)
 800cab8:	dc000017 	ldw	r16,0(sp)
 800cabc:	dec00604 	addi	sp,sp,24
 800cac0:	f800283a 	ret
 800cac4:	880d883a 	mov	r6,r17
 800cac8:	880b883a 	mov	r5,r17
 800cacc:	9809883a 	mov	r4,r19
 800cad0:	800c7740 	call	800c774 <__multiply>
 800cad4:	88800015 	stw	r2,0(r17)
 800cad8:	10000015 	stw	zero,0(r2)
 800cadc:	003fdd06 	br	800ca54 <__alt_data_end+0xf800ca54>
 800cae0:	1025883a 	mov	r18,r2
 800cae4:	003fd706 	br	800ca44 <__alt_data_end+0xf800ca44>
 800cae8:	10bfffc4 	addi	r2,r2,-1
 800caec:	1085883a 	add	r2,r2,r2
 800caf0:	00c20074 	movhi	r3,2049
 800caf4:	18d3d504 	addi	r3,r3,20308
 800caf8:	1085883a 	add	r2,r2,r2
 800cafc:	1885883a 	add	r2,r3,r2
 800cb00:	11800017 	ldw	r6,0(r2)
 800cb04:	000f883a 	mov	r7,zero
 800cb08:	800c3d40 	call	800c3d4 <__multadd>
 800cb0c:	1025883a 	mov	r18,r2
 800cb10:	003fc706 	br	800ca30 <__alt_data_end+0xf800ca30>
 800cb14:	05000044 	movi	r20,1
 800cb18:	a00b883a 	mov	r5,r20
 800cb1c:	9809883a 	mov	r4,r19
 800cb20:	800c3040 	call	800c304 <_Balloc>
 800cb24:	1023883a 	mov	r17,r2
 800cb28:	00809c44 	movi	r2,625
 800cb2c:	88800515 	stw	r2,20(r17)
 800cb30:	8d000415 	stw	r20,16(r17)
 800cb34:	9c401215 	stw	r17,72(r19)
 800cb38:	88000015 	stw	zero,0(r17)
 800cb3c:	003fc606 	br	800ca58 <__alt_data_end+0xf800ca58>

0800cb40 <__lshift>:
 800cb40:	defff904 	addi	sp,sp,-28
 800cb44:	dd400515 	stw	r21,20(sp)
 800cb48:	dcc00315 	stw	r19,12(sp)
 800cb4c:	302bd17a 	srai	r21,r6,5
 800cb50:	2cc00417 	ldw	r19,16(r5)
 800cb54:	28800217 	ldw	r2,8(r5)
 800cb58:	dd000415 	stw	r20,16(sp)
 800cb5c:	ace7883a 	add	r19,r21,r19
 800cb60:	dc800215 	stw	r18,8(sp)
 800cb64:	dc400115 	stw	r17,4(sp)
 800cb68:	dc000015 	stw	r16,0(sp)
 800cb6c:	dfc00615 	stw	ra,24(sp)
 800cb70:	9c000044 	addi	r16,r19,1
 800cb74:	2823883a 	mov	r17,r5
 800cb78:	3029883a 	mov	r20,r6
 800cb7c:	2025883a 	mov	r18,r4
 800cb80:	29400117 	ldw	r5,4(r5)
 800cb84:	1400030e 	bge	r2,r16,800cb94 <__lshift+0x54>
 800cb88:	1085883a 	add	r2,r2,r2
 800cb8c:	29400044 	addi	r5,r5,1
 800cb90:	143ffd16 	blt	r2,r16,800cb88 <__alt_data_end+0xf800cb88>
 800cb94:	9009883a 	mov	r4,r18
 800cb98:	800c3040 	call	800c304 <_Balloc>
 800cb9c:	10c00504 	addi	r3,r2,20
 800cba0:	0540070e 	bge	zero,r21,800cbc0 <__lshift+0x80>
 800cba4:	ad6b883a 	add	r21,r21,r21
 800cba8:	ad6b883a 	add	r21,r21,r21
 800cbac:	1809883a 	mov	r4,r3
 800cbb0:	1d47883a 	add	r3,r3,r21
 800cbb4:	20000015 	stw	zero,0(r4)
 800cbb8:	21000104 	addi	r4,r4,4
 800cbbc:	193ffd1e 	bne	r3,r4,800cbb4 <__alt_data_end+0xf800cbb4>
 800cbc0:	8a000417 	ldw	r8,16(r17)
 800cbc4:	89000504 	addi	r4,r17,20
 800cbc8:	a18007cc 	andi	r6,r20,31
 800cbcc:	4211883a 	add	r8,r8,r8
 800cbd0:	4211883a 	add	r8,r8,r8
 800cbd4:	2211883a 	add	r8,r4,r8
 800cbd8:	30002326 	beq	r6,zero,800cc68 <__lshift+0x128>
 800cbdc:	02400804 	movi	r9,32
 800cbe0:	4993c83a 	sub	r9,r9,r6
 800cbe4:	000b883a 	mov	r5,zero
 800cbe8:	21c00017 	ldw	r7,0(r4)
 800cbec:	1815883a 	mov	r10,r3
 800cbf0:	18c00104 	addi	r3,r3,4
 800cbf4:	398e983a 	sll	r7,r7,r6
 800cbf8:	21000104 	addi	r4,r4,4
 800cbfc:	394ab03a 	or	r5,r7,r5
 800cc00:	197fff15 	stw	r5,-4(r3)
 800cc04:	217fff17 	ldw	r5,-4(r4)
 800cc08:	2a4ad83a 	srl	r5,r5,r9
 800cc0c:	223ff636 	bltu	r4,r8,800cbe8 <__alt_data_end+0xf800cbe8>
 800cc10:	51400115 	stw	r5,4(r10)
 800cc14:	28001a1e 	bne	r5,zero,800cc80 <__lshift+0x140>
 800cc18:	843fffc4 	addi	r16,r16,-1
 800cc1c:	14000415 	stw	r16,16(r2)
 800cc20:	88000826 	beq	r17,zero,800cc44 <__lshift+0x104>
 800cc24:	89000117 	ldw	r4,4(r17)
 800cc28:	90c01317 	ldw	r3,76(r18)
 800cc2c:	2109883a 	add	r4,r4,r4
 800cc30:	2109883a 	add	r4,r4,r4
 800cc34:	1907883a 	add	r3,r3,r4
 800cc38:	19000017 	ldw	r4,0(r3)
 800cc3c:	89000015 	stw	r4,0(r17)
 800cc40:	1c400015 	stw	r17,0(r3)
 800cc44:	dfc00617 	ldw	ra,24(sp)
 800cc48:	dd400517 	ldw	r21,20(sp)
 800cc4c:	dd000417 	ldw	r20,16(sp)
 800cc50:	dcc00317 	ldw	r19,12(sp)
 800cc54:	dc800217 	ldw	r18,8(sp)
 800cc58:	dc400117 	ldw	r17,4(sp)
 800cc5c:	dc000017 	ldw	r16,0(sp)
 800cc60:	dec00704 	addi	sp,sp,28
 800cc64:	f800283a 	ret
 800cc68:	21400017 	ldw	r5,0(r4)
 800cc6c:	18c00104 	addi	r3,r3,4
 800cc70:	21000104 	addi	r4,r4,4
 800cc74:	197fff15 	stw	r5,-4(r3)
 800cc78:	223ffb36 	bltu	r4,r8,800cc68 <__alt_data_end+0xf800cc68>
 800cc7c:	003fe606 	br	800cc18 <__alt_data_end+0xf800cc18>
 800cc80:	9c000084 	addi	r16,r19,2
 800cc84:	003fe406 	br	800cc18 <__alt_data_end+0xf800cc18>

0800cc88 <__mcmp>:
 800cc88:	20800417 	ldw	r2,16(r4)
 800cc8c:	28c00417 	ldw	r3,16(r5)
 800cc90:	10c5c83a 	sub	r2,r2,r3
 800cc94:	1000111e 	bne	r2,zero,800ccdc <__mcmp+0x54>
 800cc98:	18c7883a 	add	r3,r3,r3
 800cc9c:	18c7883a 	add	r3,r3,r3
 800cca0:	21000504 	addi	r4,r4,20
 800cca4:	29400504 	addi	r5,r5,20
 800cca8:	20c5883a 	add	r2,r4,r3
 800ccac:	28cb883a 	add	r5,r5,r3
 800ccb0:	00000106 	br	800ccb8 <__mcmp+0x30>
 800ccb4:	20800a2e 	bgeu	r4,r2,800cce0 <__mcmp+0x58>
 800ccb8:	10bfff04 	addi	r2,r2,-4
 800ccbc:	297fff04 	addi	r5,r5,-4
 800ccc0:	11800017 	ldw	r6,0(r2)
 800ccc4:	28c00017 	ldw	r3,0(r5)
 800ccc8:	30fffa26 	beq	r6,r3,800ccb4 <__alt_data_end+0xf800ccb4>
 800cccc:	30c00236 	bltu	r6,r3,800ccd8 <__mcmp+0x50>
 800ccd0:	00800044 	movi	r2,1
 800ccd4:	f800283a 	ret
 800ccd8:	00bfffc4 	movi	r2,-1
 800ccdc:	f800283a 	ret
 800cce0:	0005883a 	mov	r2,zero
 800cce4:	f800283a 	ret

0800cce8 <__mdiff>:
 800cce8:	28c00417 	ldw	r3,16(r5)
 800ccec:	30800417 	ldw	r2,16(r6)
 800ccf0:	defffa04 	addi	sp,sp,-24
 800ccf4:	dcc00315 	stw	r19,12(sp)
 800ccf8:	dc800215 	stw	r18,8(sp)
 800ccfc:	dfc00515 	stw	ra,20(sp)
 800cd00:	dd000415 	stw	r20,16(sp)
 800cd04:	dc400115 	stw	r17,4(sp)
 800cd08:	dc000015 	stw	r16,0(sp)
 800cd0c:	1887c83a 	sub	r3,r3,r2
 800cd10:	2825883a 	mov	r18,r5
 800cd14:	3027883a 	mov	r19,r6
 800cd18:	1800141e 	bne	r3,zero,800cd6c <__mdiff+0x84>
 800cd1c:	1085883a 	add	r2,r2,r2
 800cd20:	1085883a 	add	r2,r2,r2
 800cd24:	2a000504 	addi	r8,r5,20
 800cd28:	34000504 	addi	r16,r6,20
 800cd2c:	4087883a 	add	r3,r8,r2
 800cd30:	8085883a 	add	r2,r16,r2
 800cd34:	00000106 	br	800cd3c <__mdiff+0x54>
 800cd38:	40c0592e 	bgeu	r8,r3,800cea0 <__mdiff+0x1b8>
 800cd3c:	18ffff04 	addi	r3,r3,-4
 800cd40:	10bfff04 	addi	r2,r2,-4
 800cd44:	19c00017 	ldw	r7,0(r3)
 800cd48:	11400017 	ldw	r5,0(r2)
 800cd4c:	397ffa26 	beq	r7,r5,800cd38 <__alt_data_end+0xf800cd38>
 800cd50:	3940592e 	bgeu	r7,r5,800ceb8 <__mdiff+0x1d0>
 800cd54:	9005883a 	mov	r2,r18
 800cd58:	4023883a 	mov	r17,r8
 800cd5c:	9825883a 	mov	r18,r19
 800cd60:	05000044 	movi	r20,1
 800cd64:	1027883a 	mov	r19,r2
 800cd68:	00000406 	br	800cd7c <__mdiff+0x94>
 800cd6c:	18005616 	blt	r3,zero,800cec8 <__mdiff+0x1e0>
 800cd70:	34400504 	addi	r17,r6,20
 800cd74:	2c000504 	addi	r16,r5,20
 800cd78:	0029883a 	mov	r20,zero
 800cd7c:	91400117 	ldw	r5,4(r18)
 800cd80:	800c3040 	call	800c304 <_Balloc>
 800cd84:	92400417 	ldw	r9,16(r18)
 800cd88:	9b000417 	ldw	r12,16(r19)
 800cd8c:	12c00504 	addi	r11,r2,20
 800cd90:	4a51883a 	add	r8,r9,r9
 800cd94:	6319883a 	add	r12,r12,r12
 800cd98:	4211883a 	add	r8,r8,r8
 800cd9c:	6319883a 	add	r12,r12,r12
 800cda0:	15000315 	stw	r20,12(r2)
 800cda4:	8211883a 	add	r8,r16,r8
 800cda8:	8b19883a 	add	r12,r17,r12
 800cdac:	0007883a 	mov	r3,zero
 800cdb0:	81400017 	ldw	r5,0(r16)
 800cdb4:	89c00017 	ldw	r7,0(r17)
 800cdb8:	59800104 	addi	r6,r11,4
 800cdbc:	293fffcc 	andi	r4,r5,65535
 800cdc0:	20c7883a 	add	r3,r4,r3
 800cdc4:	393fffcc 	andi	r4,r7,65535
 800cdc8:	1909c83a 	sub	r4,r3,r4
 800cdcc:	280ad43a 	srli	r5,r5,16
 800cdd0:	380ed43a 	srli	r7,r7,16
 800cdd4:	2007d43a 	srai	r3,r4,16
 800cdd8:	213fffcc 	andi	r4,r4,65535
 800cddc:	29cbc83a 	sub	r5,r5,r7
 800cde0:	28c7883a 	add	r3,r5,r3
 800cde4:	180a943a 	slli	r5,r3,16
 800cde8:	8c400104 	addi	r17,r17,4
 800cdec:	84000104 	addi	r16,r16,4
 800cdf0:	2908b03a 	or	r4,r5,r4
 800cdf4:	59000015 	stw	r4,0(r11)
 800cdf8:	1807d43a 	srai	r3,r3,16
 800cdfc:	3015883a 	mov	r10,r6
 800ce00:	3017883a 	mov	r11,r6
 800ce04:	8b3fea36 	bltu	r17,r12,800cdb0 <__alt_data_end+0xf800cdb0>
 800ce08:	8200162e 	bgeu	r16,r8,800ce64 <__mdiff+0x17c>
 800ce0c:	8017883a 	mov	r11,r16
 800ce10:	59400017 	ldw	r5,0(r11)
 800ce14:	31800104 	addi	r6,r6,4
 800ce18:	5ac00104 	addi	r11,r11,4
 800ce1c:	293fffcc 	andi	r4,r5,65535
 800ce20:	20c7883a 	add	r3,r4,r3
 800ce24:	280ed43a 	srli	r7,r5,16
 800ce28:	180bd43a 	srai	r5,r3,16
 800ce2c:	193fffcc 	andi	r4,r3,65535
 800ce30:	3947883a 	add	r3,r7,r5
 800ce34:	180a943a 	slli	r5,r3,16
 800ce38:	1807d43a 	srai	r3,r3,16
 800ce3c:	2908b03a 	or	r4,r5,r4
 800ce40:	313fff15 	stw	r4,-4(r6)
 800ce44:	5a3ff236 	bltu	r11,r8,800ce10 <__alt_data_end+0xf800ce10>
 800ce48:	0406303a 	nor	r3,zero,r16
 800ce4c:	1a07883a 	add	r3,r3,r8
 800ce50:	1806d0ba 	srli	r3,r3,2
 800ce54:	18c00044 	addi	r3,r3,1
 800ce58:	18c7883a 	add	r3,r3,r3
 800ce5c:	18c7883a 	add	r3,r3,r3
 800ce60:	50d5883a 	add	r10,r10,r3
 800ce64:	50ffff04 	addi	r3,r10,-4
 800ce68:	2000041e 	bne	r4,zero,800ce7c <__mdiff+0x194>
 800ce6c:	18ffff04 	addi	r3,r3,-4
 800ce70:	19000017 	ldw	r4,0(r3)
 800ce74:	4a7fffc4 	addi	r9,r9,-1
 800ce78:	203ffc26 	beq	r4,zero,800ce6c <__alt_data_end+0xf800ce6c>
 800ce7c:	12400415 	stw	r9,16(r2)
 800ce80:	dfc00517 	ldw	ra,20(sp)
 800ce84:	dd000417 	ldw	r20,16(sp)
 800ce88:	dcc00317 	ldw	r19,12(sp)
 800ce8c:	dc800217 	ldw	r18,8(sp)
 800ce90:	dc400117 	ldw	r17,4(sp)
 800ce94:	dc000017 	ldw	r16,0(sp)
 800ce98:	dec00604 	addi	sp,sp,24
 800ce9c:	f800283a 	ret
 800cea0:	000b883a 	mov	r5,zero
 800cea4:	800c3040 	call	800c304 <_Balloc>
 800cea8:	00c00044 	movi	r3,1
 800ceac:	10c00415 	stw	r3,16(r2)
 800ceb0:	10000515 	stw	zero,20(r2)
 800ceb4:	003ff206 	br	800ce80 <__alt_data_end+0xf800ce80>
 800ceb8:	8023883a 	mov	r17,r16
 800cebc:	0029883a 	mov	r20,zero
 800cec0:	4021883a 	mov	r16,r8
 800cec4:	003fad06 	br	800cd7c <__alt_data_end+0xf800cd7c>
 800cec8:	9005883a 	mov	r2,r18
 800cecc:	94400504 	addi	r17,r18,20
 800ced0:	9c000504 	addi	r16,r19,20
 800ced4:	9825883a 	mov	r18,r19
 800ced8:	05000044 	movi	r20,1
 800cedc:	1027883a 	mov	r19,r2
 800cee0:	003fa606 	br	800cd7c <__alt_data_end+0xf800cd7c>

0800cee4 <__ulp>:
 800cee4:	295ffc2c 	andhi	r5,r5,32752
 800cee8:	00bf3034 	movhi	r2,64704
 800ceec:	2887883a 	add	r3,r5,r2
 800cef0:	00c0020e 	bge	zero,r3,800cefc <__ulp+0x18>
 800cef4:	0005883a 	mov	r2,zero
 800cef8:	f800283a 	ret
 800cefc:	00c7c83a 	sub	r3,zero,r3
 800cf00:	1807d53a 	srai	r3,r3,20
 800cf04:	008004c4 	movi	r2,19
 800cf08:	10c00b0e 	bge	r2,r3,800cf38 <__ulp+0x54>
 800cf0c:	18bffb04 	addi	r2,r3,-20
 800cf10:	01000784 	movi	r4,30
 800cf14:	0007883a 	mov	r3,zero
 800cf18:	20800516 	blt	r4,r2,800cf30 <__ulp+0x4c>
 800cf1c:	010007c4 	movi	r4,31
 800cf20:	2089c83a 	sub	r4,r4,r2
 800cf24:	00800044 	movi	r2,1
 800cf28:	1104983a 	sll	r2,r2,r4
 800cf2c:	f800283a 	ret
 800cf30:	00800044 	movi	r2,1
 800cf34:	f800283a 	ret
 800cf38:	01400234 	movhi	r5,8
 800cf3c:	28c7d83a 	sra	r3,r5,r3
 800cf40:	0005883a 	mov	r2,zero
 800cf44:	f800283a 	ret

0800cf48 <__b2d>:
 800cf48:	defffa04 	addi	sp,sp,-24
 800cf4c:	dc000015 	stw	r16,0(sp)
 800cf50:	24000417 	ldw	r16,16(r4)
 800cf54:	dc400115 	stw	r17,4(sp)
 800cf58:	24400504 	addi	r17,r4,20
 800cf5c:	8421883a 	add	r16,r16,r16
 800cf60:	8421883a 	add	r16,r16,r16
 800cf64:	8c21883a 	add	r16,r17,r16
 800cf68:	dc800215 	stw	r18,8(sp)
 800cf6c:	84bfff17 	ldw	r18,-4(r16)
 800cf70:	dd000415 	stw	r20,16(sp)
 800cf74:	dcc00315 	stw	r19,12(sp)
 800cf78:	9009883a 	mov	r4,r18
 800cf7c:	2829883a 	mov	r20,r5
 800cf80:	dfc00515 	stw	ra,20(sp)
 800cf84:	800c6200 	call	800c620 <__hi0bits>
 800cf88:	00c00804 	movi	r3,32
 800cf8c:	1889c83a 	sub	r4,r3,r2
 800cf90:	a1000015 	stw	r4,0(r20)
 800cf94:	01000284 	movi	r4,10
 800cf98:	84ffff04 	addi	r19,r16,-4
 800cf9c:	20801216 	blt	r4,r2,800cfe8 <__b2d+0xa0>
 800cfa0:	018002c4 	movi	r6,11
 800cfa4:	308dc83a 	sub	r6,r6,r2
 800cfa8:	9186d83a 	srl	r3,r18,r6
 800cfac:	18cffc34 	orhi	r3,r3,16368
 800cfb0:	8cc0212e 	bgeu	r17,r19,800d038 <__b2d+0xf0>
 800cfb4:	813ffe17 	ldw	r4,-8(r16)
 800cfb8:	218cd83a 	srl	r6,r4,r6
 800cfbc:	10800544 	addi	r2,r2,21
 800cfc0:	9084983a 	sll	r2,r18,r2
 800cfc4:	1184b03a 	or	r2,r2,r6
 800cfc8:	dfc00517 	ldw	ra,20(sp)
 800cfcc:	dd000417 	ldw	r20,16(sp)
 800cfd0:	dcc00317 	ldw	r19,12(sp)
 800cfd4:	dc800217 	ldw	r18,8(sp)
 800cfd8:	dc400117 	ldw	r17,4(sp)
 800cfdc:	dc000017 	ldw	r16,0(sp)
 800cfe0:	dec00604 	addi	sp,sp,24
 800cfe4:	f800283a 	ret
 800cfe8:	8cc00f2e 	bgeu	r17,r19,800d028 <__b2d+0xe0>
 800cfec:	117ffd44 	addi	r5,r2,-11
 800cff0:	80bffe17 	ldw	r2,-8(r16)
 800cff4:	28000e26 	beq	r5,zero,800d030 <__b2d+0xe8>
 800cff8:	1949c83a 	sub	r4,r3,r5
 800cffc:	9164983a 	sll	r18,r18,r5
 800d000:	1106d83a 	srl	r3,r2,r4
 800d004:	81bffe04 	addi	r6,r16,-8
 800d008:	948ffc34 	orhi	r18,r18,16368
 800d00c:	90c6b03a 	or	r3,r18,r3
 800d010:	89800e2e 	bgeu	r17,r6,800d04c <__b2d+0x104>
 800d014:	81bffd17 	ldw	r6,-12(r16)
 800d018:	1144983a 	sll	r2,r2,r5
 800d01c:	310ad83a 	srl	r5,r6,r4
 800d020:	2884b03a 	or	r2,r5,r2
 800d024:	003fe806 	br	800cfc8 <__alt_data_end+0xf800cfc8>
 800d028:	10bffd44 	addi	r2,r2,-11
 800d02c:	1000041e 	bne	r2,zero,800d040 <__b2d+0xf8>
 800d030:	90cffc34 	orhi	r3,r18,16368
 800d034:	003fe406 	br	800cfc8 <__alt_data_end+0xf800cfc8>
 800d038:	000d883a 	mov	r6,zero
 800d03c:	003fdf06 	br	800cfbc <__alt_data_end+0xf800cfbc>
 800d040:	90a4983a 	sll	r18,r18,r2
 800d044:	0005883a 	mov	r2,zero
 800d048:	003ff906 	br	800d030 <__alt_data_end+0xf800d030>
 800d04c:	1144983a 	sll	r2,r2,r5
 800d050:	003fdd06 	br	800cfc8 <__alt_data_end+0xf800cfc8>

0800d054 <__d2b>:
 800d054:	defff804 	addi	sp,sp,-32
 800d058:	dc000215 	stw	r16,8(sp)
 800d05c:	3021883a 	mov	r16,r6
 800d060:	dc400315 	stw	r17,12(sp)
 800d064:	8022907a 	slli	r17,r16,1
 800d068:	dd000615 	stw	r20,24(sp)
 800d06c:	2829883a 	mov	r20,r5
 800d070:	01400044 	movi	r5,1
 800d074:	dcc00515 	stw	r19,20(sp)
 800d078:	dc800415 	stw	r18,16(sp)
 800d07c:	dfc00715 	stw	ra,28(sp)
 800d080:	3825883a 	mov	r18,r7
 800d084:	8822d57a 	srli	r17,r17,21
 800d088:	800c3040 	call	800c304 <_Balloc>
 800d08c:	1027883a 	mov	r19,r2
 800d090:	00800434 	movhi	r2,16
 800d094:	10bfffc4 	addi	r2,r2,-1
 800d098:	808c703a 	and	r6,r16,r2
 800d09c:	88000126 	beq	r17,zero,800d0a4 <__d2b+0x50>
 800d0a0:	31800434 	orhi	r6,r6,16
 800d0a4:	d9800015 	stw	r6,0(sp)
 800d0a8:	a0002426 	beq	r20,zero,800d13c <__d2b+0xe8>
 800d0ac:	d9000104 	addi	r4,sp,4
 800d0b0:	dd000115 	stw	r20,4(sp)
 800d0b4:	800c6880 	call	800c688 <__lo0bits>
 800d0b8:	d8c00017 	ldw	r3,0(sp)
 800d0bc:	10002f1e 	bne	r2,zero,800d17c <__d2b+0x128>
 800d0c0:	d9000117 	ldw	r4,4(sp)
 800d0c4:	99000515 	stw	r4,20(r19)
 800d0c8:	1821003a 	cmpeq	r16,r3,zero
 800d0cc:	01000084 	movi	r4,2
 800d0d0:	2421c83a 	sub	r16,r4,r16
 800d0d4:	98c00615 	stw	r3,24(r19)
 800d0d8:	9c000415 	stw	r16,16(r19)
 800d0dc:	88001f1e 	bne	r17,zero,800d15c <__d2b+0x108>
 800d0e0:	10bef384 	addi	r2,r2,-1074
 800d0e4:	90800015 	stw	r2,0(r18)
 800d0e8:	00900034 	movhi	r2,16384
 800d0ec:	10bfffc4 	addi	r2,r2,-1
 800d0f0:	8085883a 	add	r2,r16,r2
 800d0f4:	1085883a 	add	r2,r2,r2
 800d0f8:	1085883a 	add	r2,r2,r2
 800d0fc:	9885883a 	add	r2,r19,r2
 800d100:	11000517 	ldw	r4,20(r2)
 800d104:	8020917a 	slli	r16,r16,5
 800d108:	800c6200 	call	800c620 <__hi0bits>
 800d10c:	d8c00817 	ldw	r3,32(sp)
 800d110:	8085c83a 	sub	r2,r16,r2
 800d114:	18800015 	stw	r2,0(r3)
 800d118:	9805883a 	mov	r2,r19
 800d11c:	dfc00717 	ldw	ra,28(sp)
 800d120:	dd000617 	ldw	r20,24(sp)
 800d124:	dcc00517 	ldw	r19,20(sp)
 800d128:	dc800417 	ldw	r18,16(sp)
 800d12c:	dc400317 	ldw	r17,12(sp)
 800d130:	dc000217 	ldw	r16,8(sp)
 800d134:	dec00804 	addi	sp,sp,32
 800d138:	f800283a 	ret
 800d13c:	d809883a 	mov	r4,sp
 800d140:	800c6880 	call	800c688 <__lo0bits>
 800d144:	d8c00017 	ldw	r3,0(sp)
 800d148:	04000044 	movi	r16,1
 800d14c:	9c000415 	stw	r16,16(r19)
 800d150:	98c00515 	stw	r3,20(r19)
 800d154:	10800804 	addi	r2,r2,32
 800d158:	883fe126 	beq	r17,zero,800d0e0 <__alt_data_end+0xf800d0e0>
 800d15c:	00c00d44 	movi	r3,53
 800d160:	8c7ef344 	addi	r17,r17,-1075
 800d164:	88a3883a 	add	r17,r17,r2
 800d168:	1885c83a 	sub	r2,r3,r2
 800d16c:	d8c00817 	ldw	r3,32(sp)
 800d170:	94400015 	stw	r17,0(r18)
 800d174:	18800015 	stw	r2,0(r3)
 800d178:	003fe706 	br	800d118 <__alt_data_end+0xf800d118>
 800d17c:	01000804 	movi	r4,32
 800d180:	2089c83a 	sub	r4,r4,r2
 800d184:	1908983a 	sll	r4,r3,r4
 800d188:	d9400117 	ldw	r5,4(sp)
 800d18c:	1886d83a 	srl	r3,r3,r2
 800d190:	2148b03a 	or	r4,r4,r5
 800d194:	99000515 	stw	r4,20(r19)
 800d198:	d8c00015 	stw	r3,0(sp)
 800d19c:	003fca06 	br	800d0c8 <__alt_data_end+0xf800d0c8>

0800d1a0 <__ratio>:
 800d1a0:	defff904 	addi	sp,sp,-28
 800d1a4:	dc400315 	stw	r17,12(sp)
 800d1a8:	2823883a 	mov	r17,r5
 800d1ac:	d9400104 	addi	r5,sp,4
 800d1b0:	dfc00615 	stw	ra,24(sp)
 800d1b4:	dcc00515 	stw	r19,20(sp)
 800d1b8:	dc800415 	stw	r18,16(sp)
 800d1bc:	2027883a 	mov	r19,r4
 800d1c0:	dc000215 	stw	r16,8(sp)
 800d1c4:	800cf480 	call	800cf48 <__b2d>
 800d1c8:	d80b883a 	mov	r5,sp
 800d1cc:	8809883a 	mov	r4,r17
 800d1d0:	1025883a 	mov	r18,r2
 800d1d4:	1821883a 	mov	r16,r3
 800d1d8:	800cf480 	call	800cf48 <__b2d>
 800d1dc:	8a000417 	ldw	r8,16(r17)
 800d1e0:	99000417 	ldw	r4,16(r19)
 800d1e4:	d9400117 	ldw	r5,4(sp)
 800d1e8:	2209c83a 	sub	r4,r4,r8
 800d1ec:	2010917a 	slli	r8,r4,5
 800d1f0:	d9000017 	ldw	r4,0(sp)
 800d1f4:	2909c83a 	sub	r4,r5,r4
 800d1f8:	4109883a 	add	r4,r8,r4
 800d1fc:	01000e0e 	bge	zero,r4,800d238 <__ratio+0x98>
 800d200:	2008953a 	slli	r4,r4,20
 800d204:	2421883a 	add	r16,r4,r16
 800d208:	100d883a 	mov	r6,r2
 800d20c:	180f883a 	mov	r7,r3
 800d210:	9009883a 	mov	r4,r18
 800d214:	800b883a 	mov	r5,r16
 800d218:	80054900 	call	8005490 <__divdf3>
 800d21c:	dfc00617 	ldw	ra,24(sp)
 800d220:	dcc00517 	ldw	r19,20(sp)
 800d224:	dc800417 	ldw	r18,16(sp)
 800d228:	dc400317 	ldw	r17,12(sp)
 800d22c:	dc000217 	ldw	r16,8(sp)
 800d230:	dec00704 	addi	sp,sp,28
 800d234:	f800283a 	ret
 800d238:	2008953a 	slli	r4,r4,20
 800d23c:	1907c83a 	sub	r3,r3,r4
 800d240:	003ff106 	br	800d208 <__alt_data_end+0xf800d208>

0800d244 <_mprec_log10>:
 800d244:	defffe04 	addi	sp,sp,-8
 800d248:	dc000015 	stw	r16,0(sp)
 800d24c:	dfc00115 	stw	ra,4(sp)
 800d250:	008005c4 	movi	r2,23
 800d254:	2021883a 	mov	r16,r4
 800d258:	11000d0e 	bge	r2,r4,800d290 <_mprec_log10+0x4c>
 800d25c:	0005883a 	mov	r2,zero
 800d260:	00cffc34 	movhi	r3,16368
 800d264:	843fffc4 	addi	r16,r16,-1
 800d268:	000d883a 	mov	r6,zero
 800d26c:	01d00934 	movhi	r7,16420
 800d270:	1009883a 	mov	r4,r2
 800d274:	180b883a 	mov	r5,r3
 800d278:	80112140 	call	8011214 <__muldf3>
 800d27c:	803ff91e 	bne	r16,zero,800d264 <__alt_data_end+0xf800d264>
 800d280:	dfc00117 	ldw	ra,4(sp)
 800d284:	dc000017 	ldw	r16,0(sp)
 800d288:	dec00204 	addi	sp,sp,8
 800d28c:	f800283a 	ret
 800d290:	202090fa 	slli	r16,r4,3
 800d294:	00820074 	movhi	r2,2049
 800d298:	1093ec04 	addi	r2,r2,20400
 800d29c:	1421883a 	add	r16,r2,r16
 800d2a0:	80800017 	ldw	r2,0(r16)
 800d2a4:	80c00117 	ldw	r3,4(r16)
 800d2a8:	dfc00117 	ldw	ra,4(sp)
 800d2ac:	dc000017 	ldw	r16,0(sp)
 800d2b0:	dec00204 	addi	sp,sp,8
 800d2b4:	f800283a 	ret

0800d2b8 <__copybits>:
 800d2b8:	297fffc4 	addi	r5,r5,-1
 800d2bc:	280fd17a 	srai	r7,r5,5
 800d2c0:	30c00417 	ldw	r3,16(r6)
 800d2c4:	30800504 	addi	r2,r6,20
 800d2c8:	39c00044 	addi	r7,r7,1
 800d2cc:	18c7883a 	add	r3,r3,r3
 800d2d0:	39cf883a 	add	r7,r7,r7
 800d2d4:	18c7883a 	add	r3,r3,r3
 800d2d8:	39cf883a 	add	r7,r7,r7
 800d2dc:	10c7883a 	add	r3,r2,r3
 800d2e0:	21cf883a 	add	r7,r4,r7
 800d2e4:	10c00d2e 	bgeu	r2,r3,800d31c <__copybits+0x64>
 800d2e8:	200b883a 	mov	r5,r4
 800d2ec:	12000017 	ldw	r8,0(r2)
 800d2f0:	29400104 	addi	r5,r5,4
 800d2f4:	10800104 	addi	r2,r2,4
 800d2f8:	2a3fff15 	stw	r8,-4(r5)
 800d2fc:	10fffb36 	bltu	r2,r3,800d2ec <__alt_data_end+0xf800d2ec>
 800d300:	1985c83a 	sub	r2,r3,r6
 800d304:	10bffac4 	addi	r2,r2,-21
 800d308:	1004d0ba 	srli	r2,r2,2
 800d30c:	10800044 	addi	r2,r2,1
 800d310:	1085883a 	add	r2,r2,r2
 800d314:	1085883a 	add	r2,r2,r2
 800d318:	2089883a 	add	r4,r4,r2
 800d31c:	21c0032e 	bgeu	r4,r7,800d32c <__copybits+0x74>
 800d320:	20000015 	stw	zero,0(r4)
 800d324:	21000104 	addi	r4,r4,4
 800d328:	21fffd36 	bltu	r4,r7,800d320 <__alt_data_end+0xf800d320>
 800d32c:	f800283a 	ret

0800d330 <__any_on>:
 800d330:	20c00417 	ldw	r3,16(r4)
 800d334:	2805d17a 	srai	r2,r5,5
 800d338:	21000504 	addi	r4,r4,20
 800d33c:	18800d0e 	bge	r3,r2,800d374 <__any_on+0x44>
 800d340:	18c7883a 	add	r3,r3,r3
 800d344:	18c7883a 	add	r3,r3,r3
 800d348:	20c7883a 	add	r3,r4,r3
 800d34c:	20c0192e 	bgeu	r4,r3,800d3b4 <__any_on+0x84>
 800d350:	18bfff17 	ldw	r2,-4(r3)
 800d354:	18ffff04 	addi	r3,r3,-4
 800d358:	1000041e 	bne	r2,zero,800d36c <__any_on+0x3c>
 800d35c:	20c0142e 	bgeu	r4,r3,800d3b0 <__any_on+0x80>
 800d360:	18ffff04 	addi	r3,r3,-4
 800d364:	19400017 	ldw	r5,0(r3)
 800d368:	283ffc26 	beq	r5,zero,800d35c <__alt_data_end+0xf800d35c>
 800d36c:	00800044 	movi	r2,1
 800d370:	f800283a 	ret
 800d374:	10c00a0e 	bge	r2,r3,800d3a0 <__any_on+0x70>
 800d378:	1085883a 	add	r2,r2,r2
 800d37c:	1085883a 	add	r2,r2,r2
 800d380:	294007cc 	andi	r5,r5,31
 800d384:	2087883a 	add	r3,r4,r2
 800d388:	283ff026 	beq	r5,zero,800d34c <__alt_data_end+0xf800d34c>
 800d38c:	19800017 	ldw	r6,0(r3)
 800d390:	3144d83a 	srl	r2,r6,r5
 800d394:	114a983a 	sll	r5,r2,r5
 800d398:	317ff41e 	bne	r6,r5,800d36c <__alt_data_end+0xf800d36c>
 800d39c:	003feb06 	br	800d34c <__alt_data_end+0xf800d34c>
 800d3a0:	1085883a 	add	r2,r2,r2
 800d3a4:	1085883a 	add	r2,r2,r2
 800d3a8:	2087883a 	add	r3,r4,r2
 800d3ac:	003fe706 	br	800d34c <__alt_data_end+0xf800d34c>
 800d3b0:	f800283a 	ret
 800d3b4:	0005883a 	mov	r2,zero
 800d3b8:	f800283a 	ret

0800d3bc <_realloc_r>:
 800d3bc:	defff604 	addi	sp,sp,-40
 800d3c0:	dc800215 	stw	r18,8(sp)
 800d3c4:	dfc00915 	stw	ra,36(sp)
 800d3c8:	df000815 	stw	fp,32(sp)
 800d3cc:	ddc00715 	stw	r23,28(sp)
 800d3d0:	dd800615 	stw	r22,24(sp)
 800d3d4:	dd400515 	stw	r21,20(sp)
 800d3d8:	dd000415 	stw	r20,16(sp)
 800d3dc:	dcc00315 	stw	r19,12(sp)
 800d3e0:	dc400115 	stw	r17,4(sp)
 800d3e4:	dc000015 	stw	r16,0(sp)
 800d3e8:	3025883a 	mov	r18,r6
 800d3ec:	2800b726 	beq	r5,zero,800d6cc <_realloc_r+0x310>
 800d3f0:	282b883a 	mov	r21,r5
 800d3f4:	2029883a 	mov	r20,r4
 800d3f8:	80129980 	call	8012998 <__malloc_lock>
 800d3fc:	a8bfff17 	ldw	r2,-4(r21)
 800d400:	043fff04 	movi	r16,-4
 800d404:	90c002c4 	addi	r3,r18,11
 800d408:	01000584 	movi	r4,22
 800d40c:	acfffe04 	addi	r19,r21,-8
 800d410:	1420703a 	and	r16,r2,r16
 800d414:	20c0332e 	bgeu	r4,r3,800d4e4 <_realloc_r+0x128>
 800d418:	047ffe04 	movi	r17,-8
 800d41c:	1c62703a 	and	r17,r3,r17
 800d420:	8807883a 	mov	r3,r17
 800d424:	88005816 	blt	r17,zero,800d588 <_realloc_r+0x1cc>
 800d428:	8c805736 	bltu	r17,r18,800d588 <_realloc_r+0x1cc>
 800d42c:	80c0300e 	bge	r16,r3,800d4f0 <_realloc_r+0x134>
 800d430:	07020074 	movhi	fp,2049
 800d434:	e7155a04 	addi	fp,fp,21864
 800d438:	e1c00217 	ldw	r7,8(fp)
 800d43c:	9c09883a 	add	r4,r19,r16
 800d440:	22000117 	ldw	r8,4(r4)
 800d444:	21c06326 	beq	r4,r7,800d5d4 <_realloc_r+0x218>
 800d448:	017fff84 	movi	r5,-2
 800d44c:	414a703a 	and	r5,r8,r5
 800d450:	214b883a 	add	r5,r4,r5
 800d454:	29800117 	ldw	r6,4(r5)
 800d458:	3180004c 	andi	r6,r6,1
 800d45c:	30003f26 	beq	r6,zero,800d55c <_realloc_r+0x1a0>
 800d460:	1080004c 	andi	r2,r2,1
 800d464:	10008326 	beq	r2,zero,800d674 <_realloc_r+0x2b8>
 800d468:	900b883a 	mov	r5,r18
 800d46c:	a009883a 	mov	r4,r20
 800d470:	800b6480 	call	800b648 <_malloc_r>
 800d474:	1025883a 	mov	r18,r2
 800d478:	10011e26 	beq	r2,zero,800d8f4 <_realloc_r+0x538>
 800d47c:	a93fff17 	ldw	r4,-4(r21)
 800d480:	10fffe04 	addi	r3,r2,-8
 800d484:	00bfff84 	movi	r2,-2
 800d488:	2084703a 	and	r2,r4,r2
 800d48c:	9885883a 	add	r2,r19,r2
 800d490:	1880ee26 	beq	r3,r2,800d84c <_realloc_r+0x490>
 800d494:	81bfff04 	addi	r6,r16,-4
 800d498:	00800904 	movi	r2,36
 800d49c:	1180b836 	bltu	r2,r6,800d780 <_realloc_r+0x3c4>
 800d4a0:	00c004c4 	movi	r3,19
 800d4a4:	19809636 	bltu	r3,r6,800d700 <_realloc_r+0x344>
 800d4a8:	9005883a 	mov	r2,r18
 800d4ac:	a807883a 	mov	r3,r21
 800d4b0:	19000017 	ldw	r4,0(r3)
 800d4b4:	11000015 	stw	r4,0(r2)
 800d4b8:	19000117 	ldw	r4,4(r3)
 800d4bc:	11000115 	stw	r4,4(r2)
 800d4c0:	18c00217 	ldw	r3,8(r3)
 800d4c4:	10c00215 	stw	r3,8(r2)
 800d4c8:	a80b883a 	mov	r5,r21
 800d4cc:	a009883a 	mov	r4,r20
 800d4d0:	800aa500 	call	800aa50 <_free_r>
 800d4d4:	a009883a 	mov	r4,r20
 800d4d8:	80129bc0 	call	80129bc <__malloc_unlock>
 800d4dc:	9005883a 	mov	r2,r18
 800d4e0:	00001206 	br	800d52c <_realloc_r+0x170>
 800d4e4:	00c00404 	movi	r3,16
 800d4e8:	1823883a 	mov	r17,r3
 800d4ec:	003fce06 	br	800d428 <__alt_data_end+0xf800d428>
 800d4f0:	a825883a 	mov	r18,r21
 800d4f4:	8445c83a 	sub	r2,r16,r17
 800d4f8:	00c003c4 	movi	r3,15
 800d4fc:	18802636 	bltu	r3,r2,800d598 <_realloc_r+0x1dc>
 800d500:	99800117 	ldw	r6,4(r19)
 800d504:	9c07883a 	add	r3,r19,r16
 800d508:	3180004c 	andi	r6,r6,1
 800d50c:	3420b03a 	or	r16,r6,r16
 800d510:	9c000115 	stw	r16,4(r19)
 800d514:	18800117 	ldw	r2,4(r3)
 800d518:	10800054 	ori	r2,r2,1
 800d51c:	18800115 	stw	r2,4(r3)
 800d520:	a009883a 	mov	r4,r20
 800d524:	80129bc0 	call	80129bc <__malloc_unlock>
 800d528:	9005883a 	mov	r2,r18
 800d52c:	dfc00917 	ldw	ra,36(sp)
 800d530:	df000817 	ldw	fp,32(sp)
 800d534:	ddc00717 	ldw	r23,28(sp)
 800d538:	dd800617 	ldw	r22,24(sp)
 800d53c:	dd400517 	ldw	r21,20(sp)
 800d540:	dd000417 	ldw	r20,16(sp)
 800d544:	dcc00317 	ldw	r19,12(sp)
 800d548:	dc800217 	ldw	r18,8(sp)
 800d54c:	dc400117 	ldw	r17,4(sp)
 800d550:	dc000017 	ldw	r16,0(sp)
 800d554:	dec00a04 	addi	sp,sp,40
 800d558:	f800283a 	ret
 800d55c:	017fff04 	movi	r5,-4
 800d560:	414a703a 	and	r5,r8,r5
 800d564:	814d883a 	add	r6,r16,r5
 800d568:	30c01f16 	blt	r6,r3,800d5e8 <_realloc_r+0x22c>
 800d56c:	20800317 	ldw	r2,12(r4)
 800d570:	20c00217 	ldw	r3,8(r4)
 800d574:	a825883a 	mov	r18,r21
 800d578:	3021883a 	mov	r16,r6
 800d57c:	18800315 	stw	r2,12(r3)
 800d580:	10c00215 	stw	r3,8(r2)
 800d584:	003fdb06 	br	800d4f4 <__alt_data_end+0xf800d4f4>
 800d588:	00800304 	movi	r2,12
 800d58c:	a0800015 	stw	r2,0(r20)
 800d590:	0005883a 	mov	r2,zero
 800d594:	003fe506 	br	800d52c <__alt_data_end+0xf800d52c>
 800d598:	98c00117 	ldw	r3,4(r19)
 800d59c:	9c4b883a 	add	r5,r19,r17
 800d5a0:	11000054 	ori	r4,r2,1
 800d5a4:	18c0004c 	andi	r3,r3,1
 800d5a8:	1c62b03a 	or	r17,r3,r17
 800d5ac:	9c400115 	stw	r17,4(r19)
 800d5b0:	29000115 	stw	r4,4(r5)
 800d5b4:	2885883a 	add	r2,r5,r2
 800d5b8:	10c00117 	ldw	r3,4(r2)
 800d5bc:	29400204 	addi	r5,r5,8
 800d5c0:	a009883a 	mov	r4,r20
 800d5c4:	18c00054 	ori	r3,r3,1
 800d5c8:	10c00115 	stw	r3,4(r2)
 800d5cc:	800aa500 	call	800aa50 <_free_r>
 800d5d0:	003fd306 	br	800d520 <__alt_data_end+0xf800d520>
 800d5d4:	017fff04 	movi	r5,-4
 800d5d8:	414a703a 	and	r5,r8,r5
 800d5dc:	89800404 	addi	r6,r17,16
 800d5e0:	8151883a 	add	r8,r16,r5
 800d5e4:	4180590e 	bge	r8,r6,800d74c <_realloc_r+0x390>
 800d5e8:	1080004c 	andi	r2,r2,1
 800d5ec:	103f9e1e 	bne	r2,zero,800d468 <__alt_data_end+0xf800d468>
 800d5f0:	adbffe17 	ldw	r22,-8(r21)
 800d5f4:	00bfff04 	movi	r2,-4
 800d5f8:	9dadc83a 	sub	r22,r19,r22
 800d5fc:	b1800117 	ldw	r6,4(r22)
 800d600:	3084703a 	and	r2,r6,r2
 800d604:	20002026 	beq	r4,zero,800d688 <_realloc_r+0x2cc>
 800d608:	80af883a 	add	r23,r16,r2
 800d60c:	b96f883a 	add	r23,r23,r5
 800d610:	21c05f26 	beq	r4,r7,800d790 <_realloc_r+0x3d4>
 800d614:	b8c01c16 	blt	r23,r3,800d688 <_realloc_r+0x2cc>
 800d618:	20800317 	ldw	r2,12(r4)
 800d61c:	20c00217 	ldw	r3,8(r4)
 800d620:	81bfff04 	addi	r6,r16,-4
 800d624:	01000904 	movi	r4,36
 800d628:	18800315 	stw	r2,12(r3)
 800d62c:	10c00215 	stw	r3,8(r2)
 800d630:	b0c00217 	ldw	r3,8(r22)
 800d634:	b0800317 	ldw	r2,12(r22)
 800d638:	b4800204 	addi	r18,r22,8
 800d63c:	18800315 	stw	r2,12(r3)
 800d640:	10c00215 	stw	r3,8(r2)
 800d644:	21801b36 	bltu	r4,r6,800d6b4 <_realloc_r+0x2f8>
 800d648:	008004c4 	movi	r2,19
 800d64c:	1180352e 	bgeu	r2,r6,800d724 <_realloc_r+0x368>
 800d650:	a8800017 	ldw	r2,0(r21)
 800d654:	b0800215 	stw	r2,8(r22)
 800d658:	a8800117 	ldw	r2,4(r21)
 800d65c:	b0800315 	stw	r2,12(r22)
 800d660:	008006c4 	movi	r2,27
 800d664:	11807f36 	bltu	r2,r6,800d864 <_realloc_r+0x4a8>
 800d668:	b0800404 	addi	r2,r22,16
 800d66c:	ad400204 	addi	r21,r21,8
 800d670:	00002d06 	br	800d728 <_realloc_r+0x36c>
 800d674:	adbffe17 	ldw	r22,-8(r21)
 800d678:	00bfff04 	movi	r2,-4
 800d67c:	9dadc83a 	sub	r22,r19,r22
 800d680:	b1000117 	ldw	r4,4(r22)
 800d684:	2084703a 	and	r2,r4,r2
 800d688:	b03f7726 	beq	r22,zero,800d468 <__alt_data_end+0xf800d468>
 800d68c:	80af883a 	add	r23,r16,r2
 800d690:	b8ff7516 	blt	r23,r3,800d468 <__alt_data_end+0xf800d468>
 800d694:	b0800317 	ldw	r2,12(r22)
 800d698:	b0c00217 	ldw	r3,8(r22)
 800d69c:	81bfff04 	addi	r6,r16,-4
 800d6a0:	01000904 	movi	r4,36
 800d6a4:	18800315 	stw	r2,12(r3)
 800d6a8:	10c00215 	stw	r3,8(r2)
 800d6ac:	b4800204 	addi	r18,r22,8
 800d6b0:	21bfe52e 	bgeu	r4,r6,800d648 <__alt_data_end+0xf800d648>
 800d6b4:	a80b883a 	mov	r5,r21
 800d6b8:	9009883a 	mov	r4,r18
 800d6bc:	800c0800 	call	800c080 <memmove>
 800d6c0:	b821883a 	mov	r16,r23
 800d6c4:	b027883a 	mov	r19,r22
 800d6c8:	003f8a06 	br	800d4f4 <__alt_data_end+0xf800d4f4>
 800d6cc:	300b883a 	mov	r5,r6
 800d6d0:	dfc00917 	ldw	ra,36(sp)
 800d6d4:	df000817 	ldw	fp,32(sp)
 800d6d8:	ddc00717 	ldw	r23,28(sp)
 800d6dc:	dd800617 	ldw	r22,24(sp)
 800d6e0:	dd400517 	ldw	r21,20(sp)
 800d6e4:	dd000417 	ldw	r20,16(sp)
 800d6e8:	dcc00317 	ldw	r19,12(sp)
 800d6ec:	dc800217 	ldw	r18,8(sp)
 800d6f0:	dc400117 	ldw	r17,4(sp)
 800d6f4:	dc000017 	ldw	r16,0(sp)
 800d6f8:	dec00a04 	addi	sp,sp,40
 800d6fc:	800b6481 	jmpi	800b648 <_malloc_r>
 800d700:	a8c00017 	ldw	r3,0(r21)
 800d704:	90c00015 	stw	r3,0(r18)
 800d708:	a8c00117 	ldw	r3,4(r21)
 800d70c:	90c00115 	stw	r3,4(r18)
 800d710:	00c006c4 	movi	r3,27
 800d714:	19804536 	bltu	r3,r6,800d82c <_realloc_r+0x470>
 800d718:	90800204 	addi	r2,r18,8
 800d71c:	a8c00204 	addi	r3,r21,8
 800d720:	003f6306 	br	800d4b0 <__alt_data_end+0xf800d4b0>
 800d724:	9005883a 	mov	r2,r18
 800d728:	a8c00017 	ldw	r3,0(r21)
 800d72c:	b821883a 	mov	r16,r23
 800d730:	b027883a 	mov	r19,r22
 800d734:	10c00015 	stw	r3,0(r2)
 800d738:	a8c00117 	ldw	r3,4(r21)
 800d73c:	10c00115 	stw	r3,4(r2)
 800d740:	a8c00217 	ldw	r3,8(r21)
 800d744:	10c00215 	stw	r3,8(r2)
 800d748:	003f6a06 	br	800d4f4 <__alt_data_end+0xf800d4f4>
 800d74c:	9c67883a 	add	r19,r19,r17
 800d750:	4445c83a 	sub	r2,r8,r17
 800d754:	e4c00215 	stw	r19,8(fp)
 800d758:	10800054 	ori	r2,r2,1
 800d75c:	98800115 	stw	r2,4(r19)
 800d760:	a8bfff17 	ldw	r2,-4(r21)
 800d764:	a009883a 	mov	r4,r20
 800d768:	1080004c 	andi	r2,r2,1
 800d76c:	1462b03a 	or	r17,r2,r17
 800d770:	ac7fff15 	stw	r17,-4(r21)
 800d774:	80129bc0 	call	80129bc <__malloc_unlock>
 800d778:	a805883a 	mov	r2,r21
 800d77c:	003f6b06 	br	800d52c <__alt_data_end+0xf800d52c>
 800d780:	a80b883a 	mov	r5,r21
 800d784:	9009883a 	mov	r4,r18
 800d788:	800c0800 	call	800c080 <memmove>
 800d78c:	003f4e06 	br	800d4c8 <__alt_data_end+0xf800d4c8>
 800d790:	89000404 	addi	r4,r17,16
 800d794:	b93fbc16 	blt	r23,r4,800d688 <__alt_data_end+0xf800d688>
 800d798:	b0800317 	ldw	r2,12(r22)
 800d79c:	b0c00217 	ldw	r3,8(r22)
 800d7a0:	81bfff04 	addi	r6,r16,-4
 800d7a4:	01000904 	movi	r4,36
 800d7a8:	18800315 	stw	r2,12(r3)
 800d7ac:	10c00215 	stw	r3,8(r2)
 800d7b0:	b4800204 	addi	r18,r22,8
 800d7b4:	21804336 	bltu	r4,r6,800d8c4 <_realloc_r+0x508>
 800d7b8:	008004c4 	movi	r2,19
 800d7bc:	11803f2e 	bgeu	r2,r6,800d8bc <_realloc_r+0x500>
 800d7c0:	a8800017 	ldw	r2,0(r21)
 800d7c4:	b0800215 	stw	r2,8(r22)
 800d7c8:	a8800117 	ldw	r2,4(r21)
 800d7cc:	b0800315 	stw	r2,12(r22)
 800d7d0:	008006c4 	movi	r2,27
 800d7d4:	11803f36 	bltu	r2,r6,800d8d4 <_realloc_r+0x518>
 800d7d8:	b0800404 	addi	r2,r22,16
 800d7dc:	ad400204 	addi	r21,r21,8
 800d7e0:	a8c00017 	ldw	r3,0(r21)
 800d7e4:	10c00015 	stw	r3,0(r2)
 800d7e8:	a8c00117 	ldw	r3,4(r21)
 800d7ec:	10c00115 	stw	r3,4(r2)
 800d7f0:	a8c00217 	ldw	r3,8(r21)
 800d7f4:	10c00215 	stw	r3,8(r2)
 800d7f8:	b447883a 	add	r3,r22,r17
 800d7fc:	bc45c83a 	sub	r2,r23,r17
 800d800:	e0c00215 	stw	r3,8(fp)
 800d804:	10800054 	ori	r2,r2,1
 800d808:	18800115 	stw	r2,4(r3)
 800d80c:	b0800117 	ldw	r2,4(r22)
 800d810:	a009883a 	mov	r4,r20
 800d814:	1080004c 	andi	r2,r2,1
 800d818:	1462b03a 	or	r17,r2,r17
 800d81c:	b4400115 	stw	r17,4(r22)
 800d820:	80129bc0 	call	80129bc <__malloc_unlock>
 800d824:	9005883a 	mov	r2,r18
 800d828:	003f4006 	br	800d52c <__alt_data_end+0xf800d52c>
 800d82c:	a8c00217 	ldw	r3,8(r21)
 800d830:	90c00215 	stw	r3,8(r18)
 800d834:	a8c00317 	ldw	r3,12(r21)
 800d838:	90c00315 	stw	r3,12(r18)
 800d83c:	30801126 	beq	r6,r2,800d884 <_realloc_r+0x4c8>
 800d840:	90800404 	addi	r2,r18,16
 800d844:	a8c00404 	addi	r3,r21,16
 800d848:	003f1906 	br	800d4b0 <__alt_data_end+0xf800d4b0>
 800d84c:	90ffff17 	ldw	r3,-4(r18)
 800d850:	00bfff04 	movi	r2,-4
 800d854:	a825883a 	mov	r18,r21
 800d858:	1884703a 	and	r2,r3,r2
 800d85c:	80a1883a 	add	r16,r16,r2
 800d860:	003f2406 	br	800d4f4 <__alt_data_end+0xf800d4f4>
 800d864:	a8800217 	ldw	r2,8(r21)
 800d868:	b0800415 	stw	r2,16(r22)
 800d86c:	a8800317 	ldw	r2,12(r21)
 800d870:	b0800515 	stw	r2,20(r22)
 800d874:	31000a26 	beq	r6,r4,800d8a0 <_realloc_r+0x4e4>
 800d878:	b0800604 	addi	r2,r22,24
 800d87c:	ad400404 	addi	r21,r21,16
 800d880:	003fa906 	br	800d728 <__alt_data_end+0xf800d728>
 800d884:	a9000417 	ldw	r4,16(r21)
 800d888:	90800604 	addi	r2,r18,24
 800d88c:	a8c00604 	addi	r3,r21,24
 800d890:	91000415 	stw	r4,16(r18)
 800d894:	a9000517 	ldw	r4,20(r21)
 800d898:	91000515 	stw	r4,20(r18)
 800d89c:	003f0406 	br	800d4b0 <__alt_data_end+0xf800d4b0>
 800d8a0:	a8c00417 	ldw	r3,16(r21)
 800d8a4:	ad400604 	addi	r21,r21,24
 800d8a8:	b0800804 	addi	r2,r22,32
 800d8ac:	b0c00615 	stw	r3,24(r22)
 800d8b0:	a8ffff17 	ldw	r3,-4(r21)
 800d8b4:	b0c00715 	stw	r3,28(r22)
 800d8b8:	003f9b06 	br	800d728 <__alt_data_end+0xf800d728>
 800d8bc:	9005883a 	mov	r2,r18
 800d8c0:	003fc706 	br	800d7e0 <__alt_data_end+0xf800d7e0>
 800d8c4:	a80b883a 	mov	r5,r21
 800d8c8:	9009883a 	mov	r4,r18
 800d8cc:	800c0800 	call	800c080 <memmove>
 800d8d0:	003fc906 	br	800d7f8 <__alt_data_end+0xf800d7f8>
 800d8d4:	a8800217 	ldw	r2,8(r21)
 800d8d8:	b0800415 	stw	r2,16(r22)
 800d8dc:	a8800317 	ldw	r2,12(r21)
 800d8e0:	b0800515 	stw	r2,20(r22)
 800d8e4:	31000726 	beq	r6,r4,800d904 <_realloc_r+0x548>
 800d8e8:	b0800604 	addi	r2,r22,24
 800d8ec:	ad400404 	addi	r21,r21,16
 800d8f0:	003fbb06 	br	800d7e0 <__alt_data_end+0xf800d7e0>
 800d8f4:	a009883a 	mov	r4,r20
 800d8f8:	80129bc0 	call	80129bc <__malloc_unlock>
 800d8fc:	0005883a 	mov	r2,zero
 800d900:	003f0a06 	br	800d52c <__alt_data_end+0xf800d52c>
 800d904:	a8c00417 	ldw	r3,16(r21)
 800d908:	ad400604 	addi	r21,r21,24
 800d90c:	b0800804 	addi	r2,r22,32
 800d910:	b0c00615 	stw	r3,24(r22)
 800d914:	a8ffff17 	ldw	r3,-4(r21)
 800d918:	b0c00715 	stw	r3,28(r22)
 800d91c:	003fb006 	br	800d7e0 <__alt_data_end+0xf800d7e0>

0800d920 <__fpclassifyd>:
 800d920:	00a00034 	movhi	r2,32768
 800d924:	10bfffc4 	addi	r2,r2,-1
 800d928:	2884703a 	and	r2,r5,r2
 800d92c:	10000726 	beq	r2,zero,800d94c <__fpclassifyd+0x2c>
 800d930:	00fffc34 	movhi	r3,65520
 800d934:	019ff834 	movhi	r6,32736
 800d938:	28c7883a 	add	r3,r5,r3
 800d93c:	31bfffc4 	addi	r6,r6,-1
 800d940:	30c00536 	bltu	r6,r3,800d958 <__fpclassifyd+0x38>
 800d944:	00800104 	movi	r2,4
 800d948:	f800283a 	ret
 800d94c:	2000021e 	bne	r4,zero,800d958 <__fpclassifyd+0x38>
 800d950:	00800084 	movi	r2,2
 800d954:	f800283a 	ret
 800d958:	00dffc34 	movhi	r3,32752
 800d95c:	019ff834 	movhi	r6,32736
 800d960:	28cb883a 	add	r5,r5,r3
 800d964:	31bfffc4 	addi	r6,r6,-1
 800d968:	317ff62e 	bgeu	r6,r5,800d944 <__alt_data_end+0xf800d944>
 800d96c:	01400434 	movhi	r5,16
 800d970:	297fffc4 	addi	r5,r5,-1
 800d974:	28800236 	bltu	r5,r2,800d980 <__fpclassifyd+0x60>
 800d978:	008000c4 	movi	r2,3
 800d97c:	f800283a 	ret
 800d980:	10c00226 	beq	r2,r3,800d98c <__fpclassifyd+0x6c>
 800d984:	0005883a 	mov	r2,zero
 800d988:	f800283a 	ret
 800d98c:	2005003a 	cmpeq	r2,r4,zero
 800d990:	f800283a 	ret

0800d994 <_sbrk_r>:
 800d994:	defffd04 	addi	sp,sp,-12
 800d998:	dc000015 	stw	r16,0(sp)
 800d99c:	040200b4 	movhi	r16,2050
 800d9a0:	dc400115 	stw	r17,4(sp)
 800d9a4:	84220f04 	addi	r16,r16,-30660
 800d9a8:	2023883a 	mov	r17,r4
 800d9ac:	2809883a 	mov	r4,r5
 800d9b0:	dfc00215 	stw	ra,8(sp)
 800d9b4:	80000015 	stw	zero,0(r16)
 800d9b8:	8012ba40 	call	8012ba4 <sbrk>
 800d9bc:	00ffffc4 	movi	r3,-1
 800d9c0:	10c00526 	beq	r2,r3,800d9d8 <_sbrk_r+0x44>
 800d9c4:	dfc00217 	ldw	ra,8(sp)
 800d9c8:	dc400117 	ldw	r17,4(sp)
 800d9cc:	dc000017 	ldw	r16,0(sp)
 800d9d0:	dec00304 	addi	sp,sp,12
 800d9d4:	f800283a 	ret
 800d9d8:	80c00017 	ldw	r3,0(r16)
 800d9dc:	183ff926 	beq	r3,zero,800d9c4 <__alt_data_end+0xf800d9c4>
 800d9e0:	88c00015 	stw	r3,0(r17)
 800d9e4:	003ff706 	br	800d9c4 <__alt_data_end+0xf800d9c4>

0800d9e8 <__sread>:
 800d9e8:	defffe04 	addi	sp,sp,-8
 800d9ec:	dc000015 	stw	r16,0(sp)
 800d9f0:	2821883a 	mov	r16,r5
 800d9f4:	2940038f 	ldh	r5,14(r5)
 800d9f8:	dfc00115 	stw	ra,4(sp)
 800d9fc:	800f8a40 	call	800f8a4 <_read_r>
 800da00:	10000716 	blt	r2,zero,800da20 <__sread+0x38>
 800da04:	80c01417 	ldw	r3,80(r16)
 800da08:	1887883a 	add	r3,r3,r2
 800da0c:	80c01415 	stw	r3,80(r16)
 800da10:	dfc00117 	ldw	ra,4(sp)
 800da14:	dc000017 	ldw	r16,0(sp)
 800da18:	dec00204 	addi	sp,sp,8
 800da1c:	f800283a 	ret
 800da20:	80c0030b 	ldhu	r3,12(r16)
 800da24:	18fbffcc 	andi	r3,r3,61439
 800da28:	80c0030d 	sth	r3,12(r16)
 800da2c:	dfc00117 	ldw	ra,4(sp)
 800da30:	dc000017 	ldw	r16,0(sp)
 800da34:	dec00204 	addi	sp,sp,8
 800da38:	f800283a 	ret

0800da3c <__seofread>:
 800da3c:	0005883a 	mov	r2,zero
 800da40:	f800283a 	ret

0800da44 <__swrite>:
 800da44:	2880030b 	ldhu	r2,12(r5)
 800da48:	defffb04 	addi	sp,sp,-20
 800da4c:	dcc00315 	stw	r19,12(sp)
 800da50:	dc800215 	stw	r18,8(sp)
 800da54:	dc400115 	stw	r17,4(sp)
 800da58:	dc000015 	stw	r16,0(sp)
 800da5c:	dfc00415 	stw	ra,16(sp)
 800da60:	10c0400c 	andi	r3,r2,256
 800da64:	2821883a 	mov	r16,r5
 800da68:	2023883a 	mov	r17,r4
 800da6c:	3025883a 	mov	r18,r6
 800da70:	3827883a 	mov	r19,r7
 800da74:	18000526 	beq	r3,zero,800da8c <__swrite+0x48>
 800da78:	2940038f 	ldh	r5,14(r5)
 800da7c:	01c00084 	movi	r7,2
 800da80:	000d883a 	mov	r6,zero
 800da84:	800f8440 	call	800f844 <_lseek_r>
 800da88:	8080030b 	ldhu	r2,12(r16)
 800da8c:	8140038f 	ldh	r5,14(r16)
 800da90:	10bbffcc 	andi	r2,r2,61439
 800da94:	980f883a 	mov	r7,r19
 800da98:	900d883a 	mov	r6,r18
 800da9c:	8809883a 	mov	r4,r17
 800daa0:	8080030d 	sth	r2,12(r16)
 800daa4:	dfc00417 	ldw	ra,16(sp)
 800daa8:	dcc00317 	ldw	r19,12(sp)
 800daac:	dc800217 	ldw	r18,8(sp)
 800dab0:	dc400117 	ldw	r17,4(sp)
 800dab4:	dc000017 	ldw	r16,0(sp)
 800dab8:	dec00504 	addi	sp,sp,20
 800dabc:	800f2f81 	jmpi	800f2f8 <_write_r>

0800dac0 <__sseek>:
 800dac0:	defffe04 	addi	sp,sp,-8
 800dac4:	dc000015 	stw	r16,0(sp)
 800dac8:	2821883a 	mov	r16,r5
 800dacc:	2940038f 	ldh	r5,14(r5)
 800dad0:	dfc00115 	stw	ra,4(sp)
 800dad4:	800f8440 	call	800f844 <_lseek_r>
 800dad8:	00ffffc4 	movi	r3,-1
 800dadc:	10c00826 	beq	r2,r3,800db00 <__sseek+0x40>
 800dae0:	80c0030b 	ldhu	r3,12(r16)
 800dae4:	80801415 	stw	r2,80(r16)
 800dae8:	18c40014 	ori	r3,r3,4096
 800daec:	80c0030d 	sth	r3,12(r16)
 800daf0:	dfc00117 	ldw	ra,4(sp)
 800daf4:	dc000017 	ldw	r16,0(sp)
 800daf8:	dec00204 	addi	sp,sp,8
 800dafc:	f800283a 	ret
 800db00:	80c0030b 	ldhu	r3,12(r16)
 800db04:	18fbffcc 	andi	r3,r3,61439
 800db08:	80c0030d 	sth	r3,12(r16)
 800db0c:	dfc00117 	ldw	ra,4(sp)
 800db10:	dc000017 	ldw	r16,0(sp)
 800db14:	dec00204 	addi	sp,sp,8
 800db18:	f800283a 	ret

0800db1c <__sclose>:
 800db1c:	2940038f 	ldh	r5,14(r5)
 800db20:	800f3581 	jmpi	800f358 <_close_r>

0800db24 <strcmp>:
 800db24:	2144b03a 	or	r2,r4,r5
 800db28:	108000cc 	andi	r2,r2,3
 800db2c:	1000171e 	bne	r2,zero,800db8c <strcmp+0x68>
 800db30:	20800017 	ldw	r2,0(r4)
 800db34:	28c00017 	ldw	r3,0(r5)
 800db38:	10c0141e 	bne	r2,r3,800db8c <strcmp+0x68>
 800db3c:	027fbff4 	movhi	r9,65279
 800db40:	4a7fbfc4 	addi	r9,r9,-257
 800db44:	0086303a 	nor	r3,zero,r2
 800db48:	02202074 	movhi	r8,32897
 800db4c:	1245883a 	add	r2,r2,r9
 800db50:	42202004 	addi	r8,r8,-32640
 800db54:	10c4703a 	and	r2,r2,r3
 800db58:	1204703a 	and	r2,r2,r8
 800db5c:	10000226 	beq	r2,zero,800db68 <strcmp+0x44>
 800db60:	00002306 	br	800dbf0 <strcmp+0xcc>
 800db64:	1000221e 	bne	r2,zero,800dbf0 <strcmp+0xcc>
 800db68:	21000104 	addi	r4,r4,4
 800db6c:	20c00017 	ldw	r3,0(r4)
 800db70:	29400104 	addi	r5,r5,4
 800db74:	29800017 	ldw	r6,0(r5)
 800db78:	1a4f883a 	add	r7,r3,r9
 800db7c:	00c4303a 	nor	r2,zero,r3
 800db80:	3884703a 	and	r2,r7,r2
 800db84:	1204703a 	and	r2,r2,r8
 800db88:	19bff626 	beq	r3,r6,800db64 <__alt_data_end+0xf800db64>
 800db8c:	20800003 	ldbu	r2,0(r4)
 800db90:	10c03fcc 	andi	r3,r2,255
 800db94:	18c0201c 	xori	r3,r3,128
 800db98:	18ffe004 	addi	r3,r3,-128
 800db9c:	18000c26 	beq	r3,zero,800dbd0 <strcmp+0xac>
 800dba0:	29800007 	ldb	r6,0(r5)
 800dba4:	19800326 	beq	r3,r6,800dbb4 <strcmp+0x90>
 800dba8:	00001306 	br	800dbf8 <strcmp+0xd4>
 800dbac:	29800007 	ldb	r6,0(r5)
 800dbb0:	11800b1e 	bne	r2,r6,800dbe0 <strcmp+0xbc>
 800dbb4:	21000044 	addi	r4,r4,1
 800dbb8:	20c00003 	ldbu	r3,0(r4)
 800dbbc:	29400044 	addi	r5,r5,1
 800dbc0:	18803fcc 	andi	r2,r3,255
 800dbc4:	1080201c 	xori	r2,r2,128
 800dbc8:	10bfe004 	addi	r2,r2,-128
 800dbcc:	103ff71e 	bne	r2,zero,800dbac <__alt_data_end+0xf800dbac>
 800dbd0:	0007883a 	mov	r3,zero
 800dbd4:	28800003 	ldbu	r2,0(r5)
 800dbd8:	1885c83a 	sub	r2,r3,r2
 800dbdc:	f800283a 	ret
 800dbe0:	28800003 	ldbu	r2,0(r5)
 800dbe4:	18c03fcc 	andi	r3,r3,255
 800dbe8:	1885c83a 	sub	r2,r3,r2
 800dbec:	f800283a 	ret
 800dbf0:	0005883a 	mov	r2,zero
 800dbf4:	f800283a 	ret
 800dbf8:	10c03fcc 	andi	r3,r2,255
 800dbfc:	003ff506 	br	800dbd4 <__alt_data_end+0xf800dbd4>

0800dc00 <__sprint_r.part.0>:
 800dc00:	28801917 	ldw	r2,100(r5)
 800dc04:	defff604 	addi	sp,sp,-40
 800dc08:	dd400515 	stw	r21,20(sp)
 800dc0c:	dfc00915 	stw	ra,36(sp)
 800dc10:	df000815 	stw	fp,32(sp)
 800dc14:	ddc00715 	stw	r23,28(sp)
 800dc18:	dd800615 	stw	r22,24(sp)
 800dc1c:	dd000415 	stw	r20,16(sp)
 800dc20:	dcc00315 	stw	r19,12(sp)
 800dc24:	dc800215 	stw	r18,8(sp)
 800dc28:	dc400115 	stw	r17,4(sp)
 800dc2c:	dc000015 	stw	r16,0(sp)
 800dc30:	1088000c 	andi	r2,r2,8192
 800dc34:	302b883a 	mov	r21,r6
 800dc38:	10002e26 	beq	r2,zero,800dcf4 <__sprint_r.part.0+0xf4>
 800dc3c:	30800217 	ldw	r2,8(r6)
 800dc40:	35800017 	ldw	r22,0(r6)
 800dc44:	10002926 	beq	r2,zero,800dcec <__sprint_r.part.0+0xec>
 800dc48:	2827883a 	mov	r19,r5
 800dc4c:	2029883a 	mov	r20,r4
 800dc50:	b5c00104 	addi	r23,r22,4
 800dc54:	04bfffc4 	movi	r18,-1
 800dc58:	bc400017 	ldw	r17,0(r23)
 800dc5c:	b4000017 	ldw	r16,0(r22)
 800dc60:	0039883a 	mov	fp,zero
 800dc64:	8822d0ba 	srli	r17,r17,2
 800dc68:	8800031e 	bne	r17,zero,800dc78 <__sprint_r.part.0+0x78>
 800dc6c:	00001806 	br	800dcd0 <__sprint_r.part.0+0xd0>
 800dc70:	84000104 	addi	r16,r16,4
 800dc74:	8f001526 	beq	r17,fp,800dccc <__sprint_r.part.0+0xcc>
 800dc78:	81400017 	ldw	r5,0(r16)
 800dc7c:	980d883a 	mov	r6,r19
 800dc80:	a009883a 	mov	r4,r20
 800dc84:	800f6f00 	call	800f6f0 <_fputwc_r>
 800dc88:	e7000044 	addi	fp,fp,1
 800dc8c:	14bff81e 	bne	r2,r18,800dc70 <__alt_data_end+0xf800dc70>
 800dc90:	9005883a 	mov	r2,r18
 800dc94:	a8000215 	stw	zero,8(r21)
 800dc98:	a8000115 	stw	zero,4(r21)
 800dc9c:	dfc00917 	ldw	ra,36(sp)
 800dca0:	df000817 	ldw	fp,32(sp)
 800dca4:	ddc00717 	ldw	r23,28(sp)
 800dca8:	dd800617 	ldw	r22,24(sp)
 800dcac:	dd400517 	ldw	r21,20(sp)
 800dcb0:	dd000417 	ldw	r20,16(sp)
 800dcb4:	dcc00317 	ldw	r19,12(sp)
 800dcb8:	dc800217 	ldw	r18,8(sp)
 800dcbc:	dc400117 	ldw	r17,4(sp)
 800dcc0:	dc000017 	ldw	r16,0(sp)
 800dcc4:	dec00a04 	addi	sp,sp,40
 800dcc8:	f800283a 	ret
 800dccc:	a8800217 	ldw	r2,8(r21)
 800dcd0:	8c63883a 	add	r17,r17,r17
 800dcd4:	8c63883a 	add	r17,r17,r17
 800dcd8:	1445c83a 	sub	r2,r2,r17
 800dcdc:	a8800215 	stw	r2,8(r21)
 800dce0:	b5800204 	addi	r22,r22,8
 800dce4:	bdc00204 	addi	r23,r23,8
 800dce8:	103fdb1e 	bne	r2,zero,800dc58 <__alt_data_end+0xf800dc58>
 800dcec:	0005883a 	mov	r2,zero
 800dcf0:	003fe806 	br	800dc94 <__alt_data_end+0xf800dc94>
 800dcf4:	800ad600 	call	800ad60 <__sfvwrite_r>
 800dcf8:	003fe606 	br	800dc94 <__alt_data_end+0xf800dc94>

0800dcfc <__sprint_r>:
 800dcfc:	30c00217 	ldw	r3,8(r6)
 800dd00:	18000126 	beq	r3,zero,800dd08 <__sprint_r+0xc>
 800dd04:	800dc001 	jmpi	800dc00 <__sprint_r.part.0>
 800dd08:	30000115 	stw	zero,4(r6)
 800dd0c:	0005883a 	mov	r2,zero
 800dd10:	f800283a 	ret

0800dd14 <___vfiprintf_internal_r>:
 800dd14:	deffca04 	addi	sp,sp,-216
 800dd18:	dd403115 	stw	r21,196(sp)
 800dd1c:	dfc03515 	stw	ra,212(sp)
 800dd20:	df003415 	stw	fp,208(sp)
 800dd24:	ddc03315 	stw	r23,204(sp)
 800dd28:	dd803215 	stw	r22,200(sp)
 800dd2c:	dd003015 	stw	r20,192(sp)
 800dd30:	dcc02f15 	stw	r19,188(sp)
 800dd34:	dc802e15 	stw	r18,184(sp)
 800dd38:	dc402d15 	stw	r17,180(sp)
 800dd3c:	dc002c15 	stw	r16,176(sp)
 800dd40:	d9002115 	stw	r4,132(sp)
 800dd44:	d9402015 	stw	r5,128(sp)
 800dd48:	d9c02215 	stw	r7,136(sp)
 800dd4c:	302b883a 	mov	r21,r6
 800dd50:	20000226 	beq	r4,zero,800dd5c <___vfiprintf_internal_r+0x48>
 800dd54:	20800e17 	ldw	r2,56(r4)
 800dd58:	1000cf26 	beq	r2,zero,800e098 <___vfiprintf_internal_r+0x384>
 800dd5c:	d8c02017 	ldw	r3,128(sp)
 800dd60:	1880030b 	ldhu	r2,12(r3)
 800dd64:	10c8000c 	andi	r3,r2,8192
 800dd68:	1800071e 	bne	r3,zero,800dd88 <___vfiprintf_internal_r+0x74>
 800dd6c:	d9402017 	ldw	r5,128(sp)
 800dd70:	00f7ffc4 	movi	r3,-8193
 800dd74:	10880014 	ori	r2,r2,8192
 800dd78:	29001917 	ldw	r4,100(r5)
 800dd7c:	2880030d 	sth	r2,12(r5)
 800dd80:	20c6703a 	and	r3,r4,r3
 800dd84:	28c01915 	stw	r3,100(r5)
 800dd88:	10c0020c 	andi	r3,r2,8
 800dd8c:	1800a526 	beq	r3,zero,800e024 <___vfiprintf_internal_r+0x310>
 800dd90:	d9002017 	ldw	r4,128(sp)
 800dd94:	20c00417 	ldw	r3,16(r4)
 800dd98:	1800a226 	beq	r3,zero,800e024 <___vfiprintf_internal_r+0x310>
 800dd9c:	1080068c 	andi	r2,r2,26
 800dda0:	00c00284 	movi	r3,10
 800dda4:	10c0a826 	beq	r2,r3,800e048 <___vfiprintf_internal_r+0x334>
 800dda8:	d9001a04 	addi	r4,sp,104
 800ddac:	d94019c4 	addi	r5,sp,103
 800ddb0:	04820074 	movhi	r18,2049
 800ddb4:	2145c83a 	sub	r2,r4,r5
 800ddb8:	94941e04 	addi	r18,r18,20600
 800ddbc:	d9001e15 	stw	r4,120(sp)
 800ddc0:	d9401f15 	stw	r5,124(sp)
 800ddc4:	dec01a15 	stw	sp,104(sp)
 800ddc8:	d8001c15 	stw	zero,112(sp)
 800ddcc:	d8001b15 	stw	zero,108(sp)
 800ddd0:	d811883a 	mov	r8,sp
 800ddd4:	d8002615 	stw	zero,152(sp)
 800ddd8:	d8002415 	stw	zero,144(sp)
 800dddc:	d8802815 	stw	r2,160(sp)
 800dde0:	a82d883a 	mov	r22,r21
 800dde4:	b0800007 	ldb	r2,0(r22)
 800dde8:	10040d26 	beq	r2,zero,800ee20 <___vfiprintf_internal_r+0x110c>
 800ddec:	00c00944 	movi	r3,37
 800ddf0:	b029883a 	mov	r20,r22
 800ddf4:	10c0021e 	bne	r2,r3,800de00 <___vfiprintf_internal_r+0xec>
 800ddf8:	00001606 	br	800de54 <___vfiprintf_internal_r+0x140>
 800ddfc:	10c00326 	beq	r2,r3,800de0c <___vfiprintf_internal_r+0xf8>
 800de00:	a5000044 	addi	r20,r20,1
 800de04:	a0800007 	ldb	r2,0(r20)
 800de08:	103ffc1e 	bne	r2,zero,800ddfc <__alt_data_end+0xf800ddfc>
 800de0c:	a5a1c83a 	sub	r16,r20,r22
 800de10:	80001026 	beq	r16,zero,800de54 <___vfiprintf_internal_r+0x140>
 800de14:	d8c01c17 	ldw	r3,112(sp)
 800de18:	d8801b17 	ldw	r2,108(sp)
 800de1c:	45800015 	stw	r22,0(r8)
 800de20:	80c7883a 	add	r3,r16,r3
 800de24:	10800044 	addi	r2,r2,1
 800de28:	44000115 	stw	r16,4(r8)
 800de2c:	d8c01c15 	stw	r3,112(sp)
 800de30:	d8801b15 	stw	r2,108(sp)
 800de34:	010001c4 	movi	r4,7
 800de38:	2080750e 	bge	r4,r2,800e010 <___vfiprintf_internal_r+0x2fc>
 800de3c:	1803951e 	bne	r3,zero,800ec94 <___vfiprintf_internal_r+0xf80>
 800de40:	d8c02417 	ldw	r3,144(sp)
 800de44:	d8001b15 	stw	zero,108(sp)
 800de48:	d811883a 	mov	r8,sp
 800de4c:	1c07883a 	add	r3,r3,r16
 800de50:	d8c02415 	stw	r3,144(sp)
 800de54:	a0800007 	ldb	r2,0(r20)
 800de58:	1002e026 	beq	r2,zero,800e9dc <___vfiprintf_internal_r+0xcc8>
 800de5c:	a5800044 	addi	r22,r20,1
 800de60:	a0c00047 	ldb	r3,1(r20)
 800de64:	d8001d85 	stb	zero,118(sp)
 800de68:	0027883a 	mov	r19,zero
 800de6c:	d8002305 	stb	zero,140(sp)
 800de70:	043fffc4 	movi	r16,-1
 800de74:	d8002515 	stw	zero,148(sp)
 800de78:	0023883a 	mov	r17,zero
 800de7c:	05001604 	movi	r20,88
 800de80:	05400244 	movi	r21,9
 800de84:	402f883a 	mov	r23,r8
 800de88:	b5800044 	addi	r22,r22,1
 800de8c:	18bff804 	addi	r2,r3,-32
 800de90:	a0827736 	bltu	r20,r2,800e870 <___vfiprintf_internal_r+0xb5c>
 800de94:	100490ba 	slli	r2,r2,2
 800de98:	01020074 	movhi	r4,2049
 800de9c:	2137ab04 	addi	r4,r4,-8532
 800dea0:	1105883a 	add	r2,r2,r4
 800dea4:	10800017 	ldw	r2,0(r2)
 800dea8:	1000683a 	jmp	r2
 800deac:	0800e570 	cmpltui	zero,at,917
 800deb0:	0800e870 	cmpltui	zero,at,929
 800deb4:	0800e870 	cmpltui	zero,at,929
 800deb8:	0800e58c 	andi	zero,at,918
 800debc:	0800e870 	cmpltui	zero,at,929
 800dec0:	0800e870 	cmpltui	zero,at,929
 800dec4:	0800e870 	cmpltui	zero,at,929
 800dec8:	0800e870 	cmpltui	zero,at,929
 800decc:	0800e870 	cmpltui	zero,at,929
 800ded0:	0800e870 	cmpltui	zero,at,929
 800ded4:	0800e794 	ori	zero,at,926
 800ded8:	0800e7b8 	rdprs	zero,at,926
 800dedc:	0800e870 	cmpltui	zero,at,929
 800dee0:	0800e0b0 	cmpltui	zero,at,898
 800dee4:	0800e7cc 	andi	zero,at,927
 800dee8:	0800e870 	cmpltui	zero,at,929
 800deec:	0800e598 	cmpnei	zero,at,918
 800def0:	0800e5a4 	muli	zero,at,918
 800def4:	0800e5a4 	muli	zero,at,918
 800def8:	0800e5a4 	muli	zero,at,918
 800defc:	0800e5a4 	muli	zero,at,918
 800df00:	0800e5a4 	muli	zero,at,918
 800df04:	0800e5a4 	muli	zero,at,918
 800df08:	0800e5a4 	muli	zero,at,918
 800df0c:	0800e5a4 	muli	zero,at,918
 800df10:	0800e5a4 	muli	zero,at,918
 800df14:	0800e870 	cmpltui	zero,at,929
 800df18:	0800e870 	cmpltui	zero,at,929
 800df1c:	0800e870 	cmpltui	zero,at,929
 800df20:	0800e870 	cmpltui	zero,at,929
 800df24:	0800e870 	cmpltui	zero,at,929
 800df28:	0800e870 	cmpltui	zero,at,929
 800df2c:	0800e870 	cmpltui	zero,at,929
 800df30:	0800e870 	cmpltui	zero,at,929
 800df34:	0800e870 	cmpltui	zero,at,929
 800df38:	0800e870 	cmpltui	zero,at,929
 800df3c:	0800e5e4 	muli	zero,at,919
 800df40:	0800e870 	cmpltui	zero,at,929
 800df44:	0800e870 	cmpltui	zero,at,929
 800df48:	0800e870 	cmpltui	zero,at,929
 800df4c:	0800e870 	cmpltui	zero,at,929
 800df50:	0800e870 	cmpltui	zero,at,929
 800df54:	0800e870 	cmpltui	zero,at,929
 800df58:	0800e870 	cmpltui	zero,at,929
 800df5c:	0800e870 	cmpltui	zero,at,929
 800df60:	0800e870 	cmpltui	zero,at,929
 800df64:	0800e870 	cmpltui	zero,at,929
 800df68:	0800e620 	cmpeqi	zero,at,920
 800df6c:	0800e870 	cmpltui	zero,at,929
 800df70:	0800e870 	cmpltui	zero,at,929
 800df74:	0800e870 	cmpltui	zero,at,929
 800df78:	0800e870 	cmpltui	zero,at,929
 800df7c:	0800e870 	cmpltui	zero,at,929
 800df80:	0800e67c 	xorhi	zero,at,921
 800df84:	0800e870 	cmpltui	zero,at,929
 800df88:	0800e870 	cmpltui	zero,at,929
 800df8c:	0800e6f0 	cmpltui	zero,at,923
 800df90:	0800e870 	cmpltui	zero,at,929
 800df94:	0800e870 	cmpltui	zero,at,929
 800df98:	0800e870 	cmpltui	zero,at,929
 800df9c:	0800e870 	cmpltui	zero,at,929
 800dfa0:	0800e870 	cmpltui	zero,at,929
 800dfa4:	0800e870 	cmpltui	zero,at,929
 800dfa8:	0800e870 	cmpltui	zero,at,929
 800dfac:	0800e870 	cmpltui	zero,at,929
 800dfb0:	0800e870 	cmpltui	zero,at,929
 800dfb4:	0800e870 	cmpltui	zero,at,929
 800dfb8:	0800e498 	cmpnei	zero,at,914
 800dfbc:	0800e4c8 	cmpgei	zero,at,915
 800dfc0:	0800e870 	cmpltui	zero,at,929
 800dfc4:	0800e870 	cmpltui	zero,at,929
 800dfc8:	0800e870 	cmpltui	zero,at,929
 800dfcc:	0800e818 	cmpnei	zero,at,928
 800dfd0:	0800e4c8 	cmpgei	zero,at,915
 800dfd4:	0800e870 	cmpltui	zero,at,929
 800dfd8:	0800e870 	cmpltui	zero,at,929
 800dfdc:	0800e370 	cmpltui	zero,at,909
 800dfe0:	0800e870 	cmpltui	zero,at,929
 800dfe4:	0800e384 	addi	zero,at,910
 800dfe8:	0800e3bc 	xorhi	zero,at,910
 800dfec:	0800e0bc 	xorhi	zero,at,898
 800dff0:	0800e364 	muli	zero,at,909
 800dff4:	0800e870 	cmpltui	zero,at,929
 800dff8:	0800e730 	cmpltui	zero,at,924
 800dffc:	0800e870 	cmpltui	zero,at,929
 800e000:	0800e77c 	xorhi	zero,at,925
 800e004:	0800e870 	cmpltui	zero,at,929
 800e008:	0800e870 	cmpltui	zero,at,929
 800e00c:	0800e440 	call	800e44 <__alt_mem_SDRAM-0x77ff1bc>
 800e010:	42000204 	addi	r8,r8,8
 800e014:	d8c02417 	ldw	r3,144(sp)
 800e018:	1c07883a 	add	r3,r3,r16
 800e01c:	d8c02415 	stw	r3,144(sp)
 800e020:	003f8c06 	br	800de54 <__alt_data_end+0xf800de54>
 800e024:	d9402017 	ldw	r5,128(sp)
 800e028:	d9002117 	ldw	r4,132(sp)
 800e02c:	80088d00 	call	80088d0 <__swsetup_r>
 800e030:	1003c11e 	bne	r2,zero,800ef38 <___vfiprintf_internal_r+0x1224>
 800e034:	d9402017 	ldw	r5,128(sp)
 800e038:	00c00284 	movi	r3,10
 800e03c:	2880030b 	ldhu	r2,12(r5)
 800e040:	1080068c 	andi	r2,r2,26
 800e044:	10ff581e 	bne	r2,r3,800dda8 <__alt_data_end+0xf800dda8>
 800e048:	d8c02017 	ldw	r3,128(sp)
 800e04c:	1880038f 	ldh	r2,14(r3)
 800e050:	103f5516 	blt	r2,zero,800dda8 <__alt_data_end+0xf800dda8>
 800e054:	d9c02217 	ldw	r7,136(sp)
 800e058:	d9002117 	ldw	r4,132(sp)
 800e05c:	a80d883a 	mov	r6,r21
 800e060:	180b883a 	mov	r5,r3
 800e064:	800f23c0 	call	800f23c <__sbprintf>
 800e068:	dfc03517 	ldw	ra,212(sp)
 800e06c:	df003417 	ldw	fp,208(sp)
 800e070:	ddc03317 	ldw	r23,204(sp)
 800e074:	dd803217 	ldw	r22,200(sp)
 800e078:	dd403117 	ldw	r21,196(sp)
 800e07c:	dd003017 	ldw	r20,192(sp)
 800e080:	dcc02f17 	ldw	r19,188(sp)
 800e084:	dc802e17 	ldw	r18,184(sp)
 800e088:	dc402d17 	ldw	r17,180(sp)
 800e08c:	dc002c17 	ldw	r16,176(sp)
 800e090:	dec03604 	addi	sp,sp,216
 800e094:	f800283a 	ret
 800e098:	800a8dc0 	call	800a8dc <__sinit>
 800e09c:	003f2f06 	br	800dd5c <__alt_data_end+0xf800dd5c>
 800e0a0:	d8c02517 	ldw	r3,148(sp)
 800e0a4:	d8802215 	stw	r2,136(sp)
 800e0a8:	00c7c83a 	sub	r3,zero,r3
 800e0ac:	d8c02515 	stw	r3,148(sp)
 800e0b0:	8c400114 	ori	r17,r17,4
 800e0b4:	b0c00007 	ldb	r3,0(r22)
 800e0b8:	003f7306 	br	800de88 <__alt_data_end+0xf800de88>
 800e0bc:	00800c04 	movi	r2,48
 800e0c0:	d9402217 	ldw	r5,136(sp)
 800e0c4:	d8801d05 	stb	r2,116(sp)
 800e0c8:	00801e04 	movi	r2,120
 800e0cc:	d8801d45 	stb	r2,117(sp)
 800e0d0:	d8001d85 	stb	zero,118(sp)
 800e0d4:	b811883a 	mov	r8,r23
 800e0d8:	28c00104 	addi	r3,r5,4
 800e0dc:	2cc00017 	ldw	r19,0(r5)
 800e0e0:	0029883a 	mov	r20,zero
 800e0e4:	88800094 	ori	r2,r17,2
 800e0e8:	80032516 	blt	r16,zero,800ed80 <___vfiprintf_internal_r+0x106c>
 800e0ec:	00bfdfc4 	movi	r2,-129
 800e0f0:	88a2703a 	and	r17,r17,r2
 800e0f4:	d8c02215 	stw	r3,136(sp)
 800e0f8:	8c400094 	ori	r17,r17,2
 800e0fc:	98032a1e 	bne	r19,zero,800eda8 <___vfiprintf_internal_r+0x1094>
 800e100:	00820074 	movhi	r2,2049
 800e104:	1093be04 	addi	r2,r2,20216
 800e108:	d8802615 	stw	r2,152(sp)
 800e10c:	002b883a 	mov	r21,zero
 800e110:	8001741e 	bne	r16,zero,800e6e4 <___vfiprintf_internal_r+0x9d0>
 800e114:	0021883a 	mov	r16,zero
 800e118:	0029883a 	mov	r20,zero
 800e11c:	ddc01a04 	addi	r23,sp,104
 800e120:	8027883a 	mov	r19,r16
 800e124:	8500010e 	bge	r16,r20,800e12c <___vfiprintf_internal_r+0x418>
 800e128:	a027883a 	mov	r19,r20
 800e12c:	ad403fcc 	andi	r21,r21,255
 800e130:	ad40201c 	xori	r21,r21,128
 800e134:	ad7fe004 	addi	r21,r21,-128
 800e138:	a8000126 	beq	r21,zero,800e140 <___vfiprintf_internal_r+0x42c>
 800e13c:	9cc00044 	addi	r19,r19,1
 800e140:	89c0008c 	andi	r7,r17,2
 800e144:	38000126 	beq	r7,zero,800e14c <___vfiprintf_internal_r+0x438>
 800e148:	9cc00084 	addi	r19,r19,2
 800e14c:	88c0210c 	andi	r3,r17,132
 800e150:	1801dd1e 	bne	r3,zero,800e8c8 <___vfiprintf_internal_r+0xbb4>
 800e154:	d9402517 	ldw	r5,148(sp)
 800e158:	2cebc83a 	sub	r21,r5,r19
 800e15c:	0541da0e 	bge	zero,r21,800e8c8 <___vfiprintf_internal_r+0xbb4>
 800e160:	07000404 	movi	fp,16
 800e164:	d8801c17 	ldw	r2,112(sp)
 800e168:	e543be0e 	bge	fp,r21,800f064 <___vfiprintf_internal_r+0x1350>
 800e16c:	01420074 	movhi	r5,2049
 800e170:	29542204 	addi	r5,r5,20616
 800e174:	dc002715 	stw	r16,156(sp)
 800e178:	d9801b17 	ldw	r6,108(sp)
 800e17c:	a821883a 	mov	r16,r21
 800e180:	d9402315 	stw	r5,140(sp)
 800e184:	028001c4 	movi	r10,7
 800e188:	d9c02915 	stw	r7,164(sp)
 800e18c:	182b883a 	mov	r21,r3
 800e190:	00000506 	br	800e1a8 <___vfiprintf_internal_r+0x494>
 800e194:	31000084 	addi	r4,r6,2
 800e198:	42000204 	addi	r8,r8,8
 800e19c:	180d883a 	mov	r6,r3
 800e1a0:	843ffc04 	addi	r16,r16,-16
 800e1a4:	e4000f0e 	bge	fp,r16,800e1e4 <___vfiprintf_internal_r+0x4d0>
 800e1a8:	01020074 	movhi	r4,2049
 800e1ac:	10800404 	addi	r2,r2,16
 800e1b0:	30c00044 	addi	r3,r6,1
 800e1b4:	21142204 	addi	r4,r4,20616
 800e1b8:	41000015 	stw	r4,0(r8)
 800e1bc:	47000115 	stw	fp,4(r8)
 800e1c0:	d8801c15 	stw	r2,112(sp)
 800e1c4:	d8c01b15 	stw	r3,108(sp)
 800e1c8:	50fff20e 	bge	r10,r3,800e194 <__alt_data_end+0xf800e194>
 800e1cc:	1001b21e 	bne	r2,zero,800e898 <___vfiprintf_internal_r+0xb84>
 800e1d0:	843ffc04 	addi	r16,r16,-16
 800e1d4:	000d883a 	mov	r6,zero
 800e1d8:	01000044 	movi	r4,1
 800e1dc:	d811883a 	mov	r8,sp
 800e1e0:	e43ff116 	blt	fp,r16,800e1a8 <__alt_data_end+0xf800e1a8>
 800e1e4:	a807883a 	mov	r3,r21
 800e1e8:	d9c02917 	ldw	r7,164(sp)
 800e1ec:	802b883a 	mov	r21,r16
 800e1f0:	dc002717 	ldw	r16,156(sp)
 800e1f4:	d9402317 	ldw	r5,140(sp)
 800e1f8:	a885883a 	add	r2,r21,r2
 800e1fc:	45400115 	stw	r21,4(r8)
 800e200:	41400015 	stw	r5,0(r8)
 800e204:	d8801c15 	stw	r2,112(sp)
 800e208:	d9001b15 	stw	r4,108(sp)
 800e20c:	014001c4 	movi	r5,7
 800e210:	29026216 	blt	r5,r4,800eb9c <___vfiprintf_internal_r+0xe88>
 800e214:	d9801d87 	ldb	r6,118(sp)
 800e218:	42000204 	addi	r8,r8,8
 800e21c:	21400044 	addi	r5,r4,1
 800e220:	3001ae1e 	bne	r6,zero,800e8dc <___vfiprintf_internal_r+0xbc8>
 800e224:	3801bb26 	beq	r7,zero,800e914 <___vfiprintf_internal_r+0xc00>
 800e228:	d9001d04 	addi	r4,sp,116
 800e22c:	10800084 	addi	r2,r2,2
 800e230:	41000015 	stw	r4,0(r8)
 800e234:	01000084 	movi	r4,2
 800e238:	41000115 	stw	r4,4(r8)
 800e23c:	d8801c15 	stw	r2,112(sp)
 800e240:	d9401b15 	stw	r5,108(sp)
 800e244:	010001c4 	movi	r4,7
 800e248:	2142680e 	bge	r4,r5,800ebec <___vfiprintf_internal_r+0xed8>
 800e24c:	1002b11e 	bne	r2,zero,800ed14 <___vfiprintf_internal_r+0x1000>
 800e250:	01802004 	movi	r6,128
 800e254:	01400044 	movi	r5,1
 800e258:	0009883a 	mov	r4,zero
 800e25c:	d811883a 	mov	r8,sp
 800e260:	1981ae1e 	bne	r3,r6,800e91c <___vfiprintf_internal_r+0xc08>
 800e264:	d8c02517 	ldw	r3,148(sp)
 800e268:	1cf9c83a 	sub	fp,r3,r19
 800e26c:	0701ab0e 	bge	zero,fp,800e91c <___vfiprintf_internal_r+0xc08>
 800e270:	05400404 	movi	r21,16
 800e274:	af03a90e 	bge	r21,fp,800f11c <___vfiprintf_internal_r+0x1408>
 800e278:	01420074 	movhi	r5,2049
 800e27c:	29541e04 	addi	r5,r5,20600
 800e280:	d9402315 	stw	r5,140(sp)
 800e284:	01c001c4 	movi	r7,7
 800e288:	00000506 	br	800e2a0 <___vfiprintf_internal_r+0x58c>
 800e28c:	21800084 	addi	r6,r4,2
 800e290:	42000204 	addi	r8,r8,8
 800e294:	1809883a 	mov	r4,r3
 800e298:	e73ffc04 	addi	fp,fp,-16
 800e29c:	af000d0e 	bge	r21,fp,800e2d4 <___vfiprintf_internal_r+0x5c0>
 800e2a0:	10800404 	addi	r2,r2,16
 800e2a4:	20c00044 	addi	r3,r4,1
 800e2a8:	44800015 	stw	r18,0(r8)
 800e2ac:	45400115 	stw	r21,4(r8)
 800e2b0:	d8801c15 	stw	r2,112(sp)
 800e2b4:	d8c01b15 	stw	r3,108(sp)
 800e2b8:	38fff40e 	bge	r7,r3,800e28c <__alt_data_end+0xf800e28c>
 800e2bc:	10022b1e 	bne	r2,zero,800eb6c <___vfiprintf_internal_r+0xe58>
 800e2c0:	e73ffc04 	addi	fp,fp,-16
 800e2c4:	01800044 	movi	r6,1
 800e2c8:	0009883a 	mov	r4,zero
 800e2cc:	d811883a 	mov	r8,sp
 800e2d0:	af3ff316 	blt	r21,fp,800e2a0 <__alt_data_end+0xf800e2a0>
 800e2d4:	d8c02317 	ldw	r3,140(sp)
 800e2d8:	1705883a 	add	r2,r2,fp
 800e2dc:	47000115 	stw	fp,4(r8)
 800e2e0:	40c00015 	stw	r3,0(r8)
 800e2e4:	d8801c15 	stw	r2,112(sp)
 800e2e8:	d9801b15 	stw	r6,108(sp)
 800e2ec:	00c001c4 	movi	r3,7
 800e2f0:	19829416 	blt	r3,r6,800ed44 <___vfiprintf_internal_r+0x1030>
 800e2f4:	8521c83a 	sub	r16,r16,r20
 800e2f8:	42000204 	addi	r8,r8,8
 800e2fc:	31400044 	addi	r5,r6,1
 800e300:	3009883a 	mov	r4,r6
 800e304:	04018716 	blt	zero,r16,800e924 <___vfiprintf_internal_r+0xc10>
 800e308:	a085883a 	add	r2,r20,r2
 800e30c:	45c00015 	stw	r23,0(r8)
 800e310:	45000115 	stw	r20,4(r8)
 800e314:	d8801c15 	stw	r2,112(sp)
 800e318:	d9401b15 	stw	r5,108(sp)
 800e31c:	00c001c4 	movi	r3,7
 800e320:	1941c20e 	bge	r3,r5,800ea2c <___vfiprintf_internal_r+0xd18>
 800e324:	1002531e 	bne	r2,zero,800ec74 <___vfiprintf_internal_r+0xf60>
 800e328:	d8001b15 	stw	zero,108(sp)
 800e32c:	8c40010c 	andi	r17,r17,4
 800e330:	88023226 	beq	r17,zero,800ebfc <___vfiprintf_internal_r+0xee8>
 800e334:	d9002517 	ldw	r4,148(sp)
 800e338:	24e3c83a 	sub	r17,r4,r19
 800e33c:	04432916 	blt	zero,r17,800efe4 <___vfiprintf_internal_r+0x12d0>
 800e340:	d8802517 	ldw	r2,148(sp)
 800e344:	14c0010e 	bge	r2,r19,800e34c <___vfiprintf_internal_r+0x638>
 800e348:	9805883a 	mov	r2,r19
 800e34c:	d8c02417 	ldw	r3,144(sp)
 800e350:	1887883a 	add	r3,r3,r2
 800e354:	d8c02415 	stw	r3,144(sp)
 800e358:	d8001b15 	stw	zero,108(sp)
 800e35c:	d811883a 	mov	r8,sp
 800e360:	003ea006 	br	800dde4 <__alt_data_end+0xf800dde4>
 800e364:	8c400814 	ori	r17,r17,32
 800e368:	b0c00007 	ldb	r3,0(r22)
 800e36c:	003ec606 	br	800de88 <__alt_data_end+0xf800de88>
 800e370:	b0c00007 	ldb	r3,0(r22)
 800e374:	00801b04 	movi	r2,108
 800e378:	18832026 	beq	r3,r2,800effc <___vfiprintf_internal_r+0x12e8>
 800e37c:	8c400414 	ori	r17,r17,16
 800e380:	003ec106 	br	800de88 <__alt_data_end+0xf800de88>
 800e384:	9cc03fcc 	andi	r19,r19,255
 800e388:	b811883a 	mov	r8,r23
 800e38c:	9803981e 	bne	r19,zero,800f1f0 <___vfiprintf_internal_r+0x14dc>
 800e390:	8880080c 	andi	r2,r17,32
 800e394:	1002be26 	beq	r2,zero,800ee90 <___vfiprintf_internal_r+0x117c>
 800e398:	d9002217 	ldw	r4,136(sp)
 800e39c:	d9402417 	ldw	r5,144(sp)
 800e3a0:	20800017 	ldw	r2,0(r4)
 800e3a4:	2807d7fa 	srai	r3,r5,31
 800e3a8:	21000104 	addi	r4,r4,4
 800e3ac:	d9002215 	stw	r4,136(sp)
 800e3b0:	11400015 	stw	r5,0(r2)
 800e3b4:	10c00115 	stw	r3,4(r2)
 800e3b8:	003e8a06 	br	800dde4 <__alt_data_end+0xf800dde4>
 800e3bc:	9cc03fcc 	andi	r19,r19,255
 800e3c0:	b811883a 	mov	r8,r23
 800e3c4:	9803871e 	bne	r19,zero,800f1e4 <___vfiprintf_internal_r+0x14d0>
 800e3c8:	8880080c 	andi	r2,r17,32
 800e3cc:	10009a26 	beq	r2,zero,800e638 <___vfiprintf_internal_r+0x924>
 800e3d0:	d9002217 	ldw	r4,136(sp)
 800e3d4:	d8001d85 	stb	zero,118(sp)
 800e3d8:	20800204 	addi	r2,r4,8
 800e3dc:	24c00017 	ldw	r19,0(r4)
 800e3e0:	25000117 	ldw	r20,4(r4)
 800e3e4:	8002a416 	blt	r16,zero,800ee78 <___vfiprintf_internal_r+0x1164>
 800e3e8:	013fdfc4 	movi	r4,-129
 800e3ec:	9d06b03a 	or	r3,r19,r20
 800e3f0:	d8802215 	stw	r2,136(sp)
 800e3f4:	8922703a 	and	r17,r17,r4
 800e3f8:	18009b26 	beq	r3,zero,800e668 <___vfiprintf_internal_r+0x954>
 800e3fc:	002b883a 	mov	r21,zero
 800e400:	ddc01a04 	addi	r23,sp,104
 800e404:	9806d0fa 	srli	r3,r19,3
 800e408:	a008977a 	slli	r4,r20,29
 800e40c:	a028d0fa 	srli	r20,r20,3
 800e410:	9cc001cc 	andi	r19,r19,7
 800e414:	98800c04 	addi	r2,r19,48
 800e418:	bdffffc4 	addi	r23,r23,-1
 800e41c:	20e6b03a 	or	r19,r4,r3
 800e420:	b8800005 	stb	r2,0(r23)
 800e424:	9d06b03a 	or	r3,r19,r20
 800e428:	183ff61e 	bne	r3,zero,800e404 <__alt_data_end+0xf800e404>
 800e42c:	88c0004c 	andi	r3,r17,1
 800e430:	18021f1e 	bne	r3,zero,800ecb0 <___vfiprintf_internal_r+0xf9c>
 800e434:	d9401e17 	ldw	r5,120(sp)
 800e438:	2de9c83a 	sub	r20,r5,r23
 800e43c:	003f3806 	br	800e120 <__alt_data_end+0xf800e120>
 800e440:	9cc03fcc 	andi	r19,r19,255
 800e444:	b811883a 	mov	r8,r23
 800e448:	98034f1e 	bne	r19,zero,800f188 <___vfiprintf_internal_r+0x1474>
 800e44c:	00820074 	movhi	r2,2049
 800e450:	1093be04 	addi	r2,r2,20216
 800e454:	d8802615 	stw	r2,152(sp)
 800e458:	8880080c 	andi	r2,r17,32
 800e45c:	1000ac26 	beq	r2,zero,800e710 <___vfiprintf_internal_r+0x9fc>
 800e460:	d9002217 	ldw	r4,136(sp)
 800e464:	24c00017 	ldw	r19,0(r4)
 800e468:	25000117 	ldw	r20,4(r4)
 800e46c:	21000204 	addi	r4,r4,8
 800e470:	d9002215 	stw	r4,136(sp)
 800e474:	8880004c 	andi	r2,r17,1
 800e478:	1001e726 	beq	r2,zero,800ec18 <___vfiprintf_internal_r+0xf04>
 800e47c:	9d04b03a 	or	r2,r19,r20
 800e480:	10025c1e 	bne	r2,zero,800edf4 <___vfiprintf_internal_r+0x10e0>
 800e484:	d8001d85 	stb	zero,118(sp)
 800e488:	80024416 	blt	r16,zero,800ed9c <___vfiprintf_internal_r+0x1088>
 800e48c:	00bfdfc4 	movi	r2,-129
 800e490:	88a2703a 	and	r17,r17,r2
 800e494:	003f1d06 	br	800e10c <__alt_data_end+0xf800e10c>
 800e498:	d8c02217 	ldw	r3,136(sp)
 800e49c:	04c00044 	movi	r19,1
 800e4a0:	b811883a 	mov	r8,r23
 800e4a4:	18800017 	ldw	r2,0(r3)
 800e4a8:	18c00104 	addi	r3,r3,4
 800e4ac:	d8001d85 	stb	zero,118(sp)
 800e4b0:	d8801005 	stb	r2,64(sp)
 800e4b4:	d8c02215 	stw	r3,136(sp)
 800e4b8:	9829883a 	mov	r20,r19
 800e4bc:	ddc01004 	addi	r23,sp,64
 800e4c0:	0021883a 	mov	r16,zero
 800e4c4:	003f1e06 	br	800e140 <__alt_data_end+0xf800e140>
 800e4c8:	9cc03fcc 	andi	r19,r19,255
 800e4cc:	b811883a 	mov	r8,r23
 800e4d0:	9803331e 	bne	r19,zero,800f1a0 <___vfiprintf_internal_r+0x148c>
 800e4d4:	8880080c 	andi	r2,r17,32
 800e4d8:	10004826 	beq	r2,zero,800e5fc <___vfiprintf_internal_r+0x8e8>
 800e4dc:	d9002217 	ldw	r4,136(sp)
 800e4e0:	20800117 	ldw	r2,4(r4)
 800e4e4:	24c00017 	ldw	r19,0(r4)
 800e4e8:	21000204 	addi	r4,r4,8
 800e4ec:	d9002215 	stw	r4,136(sp)
 800e4f0:	1029883a 	mov	r20,r2
 800e4f4:	10024c16 	blt	r2,zero,800ee28 <___vfiprintf_internal_r+0x1114>
 800e4f8:	dd401d83 	ldbu	r21,118(sp)
 800e4fc:	80007116 	blt	r16,zero,800e6c4 <___vfiprintf_internal_r+0x9b0>
 800e500:	00ffdfc4 	movi	r3,-129
 800e504:	9d04b03a 	or	r2,r19,r20
 800e508:	88e2703a 	and	r17,r17,r3
 800e50c:	1000d126 	beq	r2,zero,800e854 <___vfiprintf_internal_r+0xb40>
 800e510:	a0023526 	beq	r20,zero,800ede8 <___vfiprintf_internal_r+0x10d4>
 800e514:	ddc01a04 	addi	r23,sp,104
 800e518:	4039883a 	mov	fp,r8
 800e51c:	9809883a 	mov	r4,r19
 800e520:	a00b883a 	mov	r5,r20
 800e524:	01800284 	movi	r6,10
 800e528:	000f883a 	mov	r7,zero
 800e52c:	80102400 	call	8010240 <__umoddi3>
 800e530:	10800c04 	addi	r2,r2,48
 800e534:	bdffffc4 	addi	r23,r23,-1
 800e538:	9809883a 	mov	r4,r19
 800e53c:	a00b883a 	mov	r5,r20
 800e540:	b8800005 	stb	r2,0(r23)
 800e544:	01800284 	movi	r6,10
 800e548:	000f883a 	mov	r7,zero
 800e54c:	800fc440 	call	800fc44 <__udivdi3>
 800e550:	1027883a 	mov	r19,r2
 800e554:	10c4b03a 	or	r2,r2,r3
 800e558:	1829883a 	mov	r20,r3
 800e55c:	103fef1e 	bne	r2,zero,800e51c <__alt_data_end+0xf800e51c>
 800e560:	d9001e17 	ldw	r4,120(sp)
 800e564:	e011883a 	mov	r8,fp
 800e568:	25e9c83a 	sub	r20,r4,r23
 800e56c:	003eec06 	br	800e120 <__alt_data_end+0xf800e120>
 800e570:	d8802307 	ldb	r2,140(sp)
 800e574:	1002361e 	bne	r2,zero,800ee50 <___vfiprintf_internal_r+0x113c>
 800e578:	00c00804 	movi	r3,32
 800e57c:	d8c02305 	stb	r3,140(sp)
 800e580:	04c00044 	movi	r19,1
 800e584:	b0c00007 	ldb	r3,0(r22)
 800e588:	003e3f06 	br	800de88 <__alt_data_end+0xf800de88>
 800e58c:	8c400054 	ori	r17,r17,1
 800e590:	b0c00007 	ldb	r3,0(r22)
 800e594:	003e3c06 	br	800de88 <__alt_data_end+0xf800de88>
 800e598:	8c402014 	ori	r17,r17,128
 800e59c:	b0c00007 	ldb	r3,0(r22)
 800e5a0:	003e3906 	br	800de88 <__alt_data_end+0xf800de88>
 800e5a4:	dc002715 	stw	r16,156(sp)
 800e5a8:	d8002515 	stw	zero,148(sp)
 800e5ac:	1f3ff404 	addi	fp,r3,-48
 800e5b0:	0009883a 	mov	r4,zero
 800e5b4:	b021883a 	mov	r16,r22
 800e5b8:	01400284 	movi	r5,10
 800e5bc:	80054680 	call	8005468 <__mulsi3>
 800e5c0:	80c00007 	ldb	r3,0(r16)
 800e5c4:	e089883a 	add	r4,fp,r2
 800e5c8:	b5800044 	addi	r22,r22,1
 800e5cc:	1f3ff404 	addi	fp,r3,-48
 800e5d0:	b021883a 	mov	r16,r22
 800e5d4:	af3ff82e 	bgeu	r21,fp,800e5b8 <__alt_data_end+0xf800e5b8>
 800e5d8:	d9002515 	stw	r4,148(sp)
 800e5dc:	dc002717 	ldw	r16,156(sp)
 800e5e0:	003e2a06 	br	800de8c <__alt_data_end+0xf800de8c>
 800e5e4:	9cc03fcc 	andi	r19,r19,255
 800e5e8:	b811883a 	mov	r8,r23
 800e5ec:	9802e91e 	bne	r19,zero,800f194 <___vfiprintf_internal_r+0x1480>
 800e5f0:	8c400414 	ori	r17,r17,16
 800e5f4:	8880080c 	andi	r2,r17,32
 800e5f8:	103fb81e 	bne	r2,zero,800e4dc <__alt_data_end+0xf800e4dc>
 800e5fc:	8880040c 	andi	r2,r17,16
 800e600:	10022e26 	beq	r2,zero,800eebc <___vfiprintf_internal_r+0x11a8>
 800e604:	d9402217 	ldw	r5,136(sp)
 800e608:	2cc00017 	ldw	r19,0(r5)
 800e60c:	29400104 	addi	r5,r5,4
 800e610:	d9402215 	stw	r5,136(sp)
 800e614:	9829d7fa 	srai	r20,r19,31
 800e618:	a005883a 	mov	r2,r20
 800e61c:	003fb506 	br	800e4f4 <__alt_data_end+0xf800e4f4>
 800e620:	9cc03fcc 	andi	r19,r19,255
 800e624:	b811883a 	mov	r8,r23
 800e628:	9802fa1e 	bne	r19,zero,800f214 <___vfiprintf_internal_r+0x1500>
 800e62c:	8c400414 	ori	r17,r17,16
 800e630:	8880080c 	andi	r2,r17,32
 800e634:	103f661e 	bne	r2,zero,800e3d0 <__alt_data_end+0xf800e3d0>
 800e638:	8880040c 	andi	r2,r17,16
 800e63c:	10020626 	beq	r2,zero,800ee58 <___vfiprintf_internal_r+0x1144>
 800e640:	d9402217 	ldw	r5,136(sp)
 800e644:	d8001d85 	stb	zero,118(sp)
 800e648:	0029883a 	mov	r20,zero
 800e64c:	28800104 	addi	r2,r5,4
 800e650:	2cc00017 	ldw	r19,0(r5)
 800e654:	80020816 	blt	r16,zero,800ee78 <___vfiprintf_internal_r+0x1164>
 800e658:	00ffdfc4 	movi	r3,-129
 800e65c:	d8802215 	stw	r2,136(sp)
 800e660:	88e2703a 	and	r17,r17,r3
 800e664:	983f651e 	bne	r19,zero,800e3fc <__alt_data_end+0xf800e3fc>
 800e668:	002b883a 	mov	r21,zero
 800e66c:	8002cf26 	beq	r16,zero,800f1ac <___vfiprintf_internal_r+0x1498>
 800e670:	0027883a 	mov	r19,zero
 800e674:	0029883a 	mov	r20,zero
 800e678:	003f6106 	br	800e400 <__alt_data_end+0xf800e400>
 800e67c:	9cc03fcc 	andi	r19,r19,255
 800e680:	b811883a 	mov	r8,r23
 800e684:	9802e01e 	bne	r19,zero,800f208 <___vfiprintf_internal_r+0x14f4>
 800e688:	8c400414 	ori	r17,r17,16
 800e68c:	8880080c 	andi	r2,r17,32
 800e690:	1000641e 	bne	r2,zero,800e824 <___vfiprintf_internal_r+0xb10>
 800e694:	8880040c 	andi	r2,r17,16
 800e698:	1001c81e 	bne	r2,zero,800edbc <___vfiprintf_internal_r+0x10a8>
 800e69c:	8880100c 	andi	r2,r17,64
 800e6a0:	d8001d85 	stb	zero,118(sp)
 800e6a4:	1002281e 	bne	r2,zero,800ef48 <___vfiprintf_internal_r+0x1234>
 800e6a8:	d9002217 	ldw	r4,136(sp)
 800e6ac:	0029883a 	mov	r20,zero
 800e6b0:	20800104 	addi	r2,r4,4
 800e6b4:	24c00017 	ldw	r19,0(r4)
 800e6b8:	8001c60e 	bge	r16,zero,800edd4 <___vfiprintf_internal_r+0x10c0>
 800e6bc:	d8802215 	stw	r2,136(sp)
 800e6c0:	002b883a 	mov	r21,zero
 800e6c4:	9d04b03a 	or	r2,r19,r20
 800e6c8:	103f911e 	bne	r2,zero,800e510 <__alt_data_end+0xf800e510>
 800e6cc:	00800044 	movi	r2,1
 800e6d0:	10803fcc 	andi	r2,r2,255
 800e6d4:	00c00044 	movi	r3,1
 800e6d8:	10c05f26 	beq	r2,r3,800e858 <___vfiprintf_internal_r+0xb44>
 800e6dc:	00c00084 	movi	r3,2
 800e6e0:	10ffe31e 	bne	r2,r3,800e670 <__alt_data_end+0xf800e670>
 800e6e4:	0027883a 	mov	r19,zero
 800e6e8:	0029883a 	mov	r20,zero
 800e6ec:	00015106 	br	800ec34 <___vfiprintf_internal_r+0xf20>
 800e6f0:	9cc03fcc 	andi	r19,r19,255
 800e6f4:	b811883a 	mov	r8,r23
 800e6f8:	9802c01e 	bne	r19,zero,800f1fc <___vfiprintf_internal_r+0x14e8>
 800e6fc:	01420074 	movhi	r5,2049
 800e700:	2953b904 	addi	r5,r5,20196
 800e704:	d9402615 	stw	r5,152(sp)
 800e708:	8880080c 	andi	r2,r17,32
 800e70c:	103f541e 	bne	r2,zero,800e460 <__alt_data_end+0xf800e460>
 800e710:	8880040c 	andi	r2,r17,16
 800e714:	1001f226 	beq	r2,zero,800eee0 <___vfiprintf_internal_r+0x11cc>
 800e718:	d9402217 	ldw	r5,136(sp)
 800e71c:	0029883a 	mov	r20,zero
 800e720:	2cc00017 	ldw	r19,0(r5)
 800e724:	29400104 	addi	r5,r5,4
 800e728:	d9402215 	stw	r5,136(sp)
 800e72c:	003f5106 	br	800e474 <__alt_data_end+0xf800e474>
 800e730:	d8c02217 	ldw	r3,136(sp)
 800e734:	b811883a 	mov	r8,r23
 800e738:	d8001d85 	stb	zero,118(sp)
 800e73c:	1dc00017 	ldw	r23,0(r3)
 800e740:	1f000104 	addi	fp,r3,4
 800e744:	b8025926 	beq	r23,zero,800f0ac <___vfiprintf_internal_r+0x1398>
 800e748:	80023316 	blt	r16,zero,800f018 <___vfiprintf_internal_r+0x1304>
 800e74c:	800d883a 	mov	r6,r16
 800e750:	000b883a 	mov	r5,zero
 800e754:	b809883a 	mov	r4,r23
 800e758:	da002a15 	stw	r8,168(sp)
 800e75c:	800be540 	call	800be54 <memchr>
 800e760:	da002a17 	ldw	r8,168(sp)
 800e764:	10026826 	beq	r2,zero,800f108 <___vfiprintf_internal_r+0x13f4>
 800e768:	15e9c83a 	sub	r20,r2,r23
 800e76c:	dd401d83 	ldbu	r21,118(sp)
 800e770:	df002215 	stw	fp,136(sp)
 800e774:	0021883a 	mov	r16,zero
 800e778:	003e6906 	br	800e120 <__alt_data_end+0xf800e120>
 800e77c:	9cc03fcc 	andi	r19,r19,255
 800e780:	b811883a 	mov	r8,r23
 800e784:	983fc126 	beq	r19,zero,800e68c <__alt_data_end+0xf800e68c>
 800e788:	d8c02303 	ldbu	r3,140(sp)
 800e78c:	d8c01d85 	stb	r3,118(sp)
 800e790:	003fbe06 	br	800e68c <__alt_data_end+0xf800e68c>
 800e794:	d9002217 	ldw	r4,136(sp)
 800e798:	d9402217 	ldw	r5,136(sp)
 800e79c:	21000017 	ldw	r4,0(r4)
 800e7a0:	28800104 	addi	r2,r5,4
 800e7a4:	d9002515 	stw	r4,148(sp)
 800e7a8:	203e3d16 	blt	r4,zero,800e0a0 <__alt_data_end+0xf800e0a0>
 800e7ac:	d8802215 	stw	r2,136(sp)
 800e7b0:	b0c00007 	ldb	r3,0(r22)
 800e7b4:	003db406 	br	800de88 <__alt_data_end+0xf800de88>
 800e7b8:	00c00ac4 	movi	r3,43
 800e7bc:	d8c02305 	stb	r3,140(sp)
 800e7c0:	04c00044 	movi	r19,1
 800e7c4:	b0c00007 	ldb	r3,0(r22)
 800e7c8:	003daf06 	br	800de88 <__alt_data_end+0xf800de88>
 800e7cc:	b0c00007 	ldb	r3,0(r22)
 800e7d0:	01000a84 	movi	r4,42
 800e7d4:	b4000044 	addi	r16,r22,1
 800e7d8:	19025e26 	beq	r3,r4,800f154 <___vfiprintf_internal_r+0x1440>
 800e7dc:	1f3ff404 	addi	fp,r3,-48
 800e7e0:	0009883a 	mov	r4,zero
 800e7e4:	af025236 	bltu	r21,fp,800f130 <___vfiprintf_internal_r+0x141c>
 800e7e8:	01400284 	movi	r5,10
 800e7ec:	80054680 	call	8005468 <__mulsi3>
 800e7f0:	80c00007 	ldb	r3,0(r16)
 800e7f4:	1709883a 	add	r4,r2,fp
 800e7f8:	85800044 	addi	r22,r16,1
 800e7fc:	1f3ff404 	addi	fp,r3,-48
 800e800:	b021883a 	mov	r16,r22
 800e804:	af3ff82e 	bgeu	r21,fp,800e7e8 <__alt_data_end+0xf800e7e8>
 800e808:	2021883a 	mov	r16,r4
 800e80c:	203d9f0e 	bge	r4,zero,800de8c <__alt_data_end+0xf800de8c>
 800e810:	043fffc4 	movi	r16,-1
 800e814:	003d9d06 	br	800de8c <__alt_data_end+0xf800de8c>
 800e818:	8c401014 	ori	r17,r17,64
 800e81c:	b0c00007 	ldb	r3,0(r22)
 800e820:	003d9906 	br	800de88 <__alt_data_end+0xf800de88>
 800e824:	d9002217 	ldw	r4,136(sp)
 800e828:	d8001d85 	stb	zero,118(sp)
 800e82c:	20c00204 	addi	r3,r4,8
 800e830:	24c00017 	ldw	r19,0(r4)
 800e834:	25000117 	ldw	r20,4(r4)
 800e838:	8001e716 	blt	r16,zero,800efd8 <___vfiprintf_internal_r+0x12c4>
 800e83c:	013fdfc4 	movi	r4,-129
 800e840:	9d04b03a 	or	r2,r19,r20
 800e844:	d8c02215 	stw	r3,136(sp)
 800e848:	8922703a 	and	r17,r17,r4
 800e84c:	002b883a 	mov	r21,zero
 800e850:	103f2f1e 	bne	r2,zero,800e510 <__alt_data_end+0xf800e510>
 800e854:	803e2f26 	beq	r16,zero,800e114 <__alt_data_end+0xf800e114>
 800e858:	0027883a 	mov	r19,zero
 800e85c:	9cc00c04 	addi	r19,r19,48
 800e860:	dcc019c5 	stb	r19,103(sp)
 800e864:	dd002817 	ldw	r20,160(sp)
 800e868:	ddc019c4 	addi	r23,sp,103
 800e86c:	003e2c06 	br	800e120 <__alt_data_end+0xf800e120>
 800e870:	9cc03fcc 	andi	r19,r19,255
 800e874:	b811883a 	mov	r8,r23
 800e878:	9802571e 	bne	r19,zero,800f1d8 <___vfiprintf_internal_r+0x14c4>
 800e87c:	18005726 	beq	r3,zero,800e9dc <___vfiprintf_internal_r+0xcc8>
 800e880:	04c00044 	movi	r19,1
 800e884:	d8c01005 	stb	r3,64(sp)
 800e888:	d8001d85 	stb	zero,118(sp)
 800e88c:	9829883a 	mov	r20,r19
 800e890:	ddc01004 	addi	r23,sp,64
 800e894:	003f0a06 	br	800e4c0 <__alt_data_end+0xf800e4c0>
 800e898:	d9402017 	ldw	r5,128(sp)
 800e89c:	d9002117 	ldw	r4,132(sp)
 800e8a0:	d9801a04 	addi	r6,sp,104
 800e8a4:	da802a15 	stw	r10,168(sp)
 800e8a8:	800dc000 	call	800dc00 <__sprint_r.part.0>
 800e8ac:	da802a17 	ldw	r10,168(sp)
 800e8b0:	1000501e 	bne	r2,zero,800e9f4 <___vfiprintf_internal_r+0xce0>
 800e8b4:	d9801b17 	ldw	r6,108(sp)
 800e8b8:	d8801c17 	ldw	r2,112(sp)
 800e8bc:	d811883a 	mov	r8,sp
 800e8c0:	31000044 	addi	r4,r6,1
 800e8c4:	003e3606 	br	800e1a0 <__alt_data_end+0xf800e1a0>
 800e8c8:	d9001b17 	ldw	r4,108(sp)
 800e8cc:	d8801c17 	ldw	r2,112(sp)
 800e8d0:	21400044 	addi	r5,r4,1
 800e8d4:	d9801d87 	ldb	r6,118(sp)
 800e8d8:	303e5226 	beq	r6,zero,800e224 <__alt_data_end+0xf800e224>
 800e8dc:	01800044 	movi	r6,1
 800e8e0:	d9001d84 	addi	r4,sp,118
 800e8e4:	1185883a 	add	r2,r2,r6
 800e8e8:	41000015 	stw	r4,0(r8)
 800e8ec:	41800115 	stw	r6,4(r8)
 800e8f0:	d8801c15 	stw	r2,112(sp)
 800e8f4:	d9401b15 	stw	r5,108(sp)
 800e8f8:	010001c4 	movi	r4,7
 800e8fc:	2140b00e 	bge	r4,r5,800ebc0 <___vfiprintf_internal_r+0xeac>
 800e900:	1000f61e 	bne	r2,zero,800ecdc <___vfiprintf_internal_r+0xfc8>
 800e904:	3800b31e 	bne	r7,zero,800ebd4 <___vfiprintf_internal_r+0xec0>
 800e908:	0009883a 	mov	r4,zero
 800e90c:	300b883a 	mov	r5,r6
 800e910:	d811883a 	mov	r8,sp
 800e914:	01802004 	movi	r6,128
 800e918:	19be5226 	beq	r3,r6,800e264 <__alt_data_end+0xf800e264>
 800e91c:	8521c83a 	sub	r16,r16,r20
 800e920:	043e790e 	bge	zero,r16,800e308 <__alt_data_end+0xf800e308>
 800e924:	05400404 	movi	r21,16
 800e928:	ac01b00e 	bge	r21,r16,800efec <___vfiprintf_internal_r+0x12d8>
 800e92c:	01420074 	movhi	r5,2049
 800e930:	29541e04 	addi	r5,r5,20600
 800e934:	d9402315 	stw	r5,140(sp)
 800e938:	070001c4 	movi	fp,7
 800e93c:	00000506 	br	800e954 <___vfiprintf_internal_r+0xc40>
 800e940:	21400084 	addi	r5,r4,2
 800e944:	42000204 	addi	r8,r8,8
 800e948:	1809883a 	mov	r4,r3
 800e94c:	843ffc04 	addi	r16,r16,-16
 800e950:	ac000d0e 	bge	r21,r16,800e988 <___vfiprintf_internal_r+0xc74>
 800e954:	10800404 	addi	r2,r2,16
 800e958:	20c00044 	addi	r3,r4,1
 800e95c:	44800015 	stw	r18,0(r8)
 800e960:	45400115 	stw	r21,4(r8)
 800e964:	d8801c15 	stw	r2,112(sp)
 800e968:	d8c01b15 	stw	r3,108(sp)
 800e96c:	e0fff40e 	bge	fp,r3,800e940 <__alt_data_end+0xf800e940>
 800e970:	1000101e 	bne	r2,zero,800e9b4 <___vfiprintf_internal_r+0xca0>
 800e974:	843ffc04 	addi	r16,r16,-16
 800e978:	01400044 	movi	r5,1
 800e97c:	0009883a 	mov	r4,zero
 800e980:	d811883a 	mov	r8,sp
 800e984:	ac3ff316 	blt	r21,r16,800e954 <__alt_data_end+0xf800e954>
 800e988:	d8c02317 	ldw	r3,140(sp)
 800e98c:	1405883a 	add	r2,r2,r16
 800e990:	44000115 	stw	r16,4(r8)
 800e994:	40c00015 	stw	r3,0(r8)
 800e998:	d8801c15 	stw	r2,112(sp)
 800e99c:	d9401b15 	stw	r5,108(sp)
 800e9a0:	00c001c4 	movi	r3,7
 800e9a4:	19401916 	blt	r3,r5,800ea0c <___vfiprintf_internal_r+0xcf8>
 800e9a8:	42000204 	addi	r8,r8,8
 800e9ac:	29400044 	addi	r5,r5,1
 800e9b0:	003e5506 	br	800e308 <__alt_data_end+0xf800e308>
 800e9b4:	d9402017 	ldw	r5,128(sp)
 800e9b8:	d9002117 	ldw	r4,132(sp)
 800e9bc:	d9801a04 	addi	r6,sp,104
 800e9c0:	800dc000 	call	800dc00 <__sprint_r.part.0>
 800e9c4:	10000b1e 	bne	r2,zero,800e9f4 <___vfiprintf_internal_r+0xce0>
 800e9c8:	d9001b17 	ldw	r4,108(sp)
 800e9cc:	d8801c17 	ldw	r2,112(sp)
 800e9d0:	d811883a 	mov	r8,sp
 800e9d4:	21400044 	addi	r5,r4,1
 800e9d8:	003fdc06 	br	800e94c <__alt_data_end+0xf800e94c>
 800e9dc:	d8801c17 	ldw	r2,112(sp)
 800e9e0:	10000426 	beq	r2,zero,800e9f4 <___vfiprintf_internal_r+0xce0>
 800e9e4:	d9402017 	ldw	r5,128(sp)
 800e9e8:	d9002117 	ldw	r4,132(sp)
 800e9ec:	d9801a04 	addi	r6,sp,104
 800e9f0:	800dc000 	call	800dc00 <__sprint_r.part.0>
 800e9f4:	d9402017 	ldw	r5,128(sp)
 800e9f8:	2880030b 	ldhu	r2,12(r5)
 800e9fc:	1080100c 	andi	r2,r2,64
 800ea00:	10014d1e 	bne	r2,zero,800ef38 <___vfiprintf_internal_r+0x1224>
 800ea04:	d8802417 	ldw	r2,144(sp)
 800ea08:	003d9706 	br	800e068 <__alt_data_end+0xf800e068>
 800ea0c:	1000d21e 	bne	r2,zero,800ed58 <___vfiprintf_internal_r+0x1044>
 800ea10:	00c00044 	movi	r3,1
 800ea14:	a005883a 	mov	r2,r20
 800ea18:	ddc00015 	stw	r23,0(sp)
 800ea1c:	dd000115 	stw	r20,4(sp)
 800ea20:	dd001c15 	stw	r20,112(sp)
 800ea24:	d8c01b15 	stw	r3,108(sp)
 800ea28:	d811883a 	mov	r8,sp
 800ea2c:	42000204 	addi	r8,r8,8
 800ea30:	8c40010c 	andi	r17,r17,4
 800ea34:	88004026 	beq	r17,zero,800eb38 <___vfiprintf_internal_r+0xe24>
 800ea38:	d9002517 	ldw	r4,148(sp)
 800ea3c:	24e3c83a 	sub	r17,r4,r19
 800ea40:	04403d0e 	bge	zero,r17,800eb38 <___vfiprintf_internal_r+0xe24>
 800ea44:	04000404 	movi	r16,16
 800ea48:	8441a90e 	bge	r16,r17,800f0f0 <___vfiprintf_internal_r+0x13dc>
 800ea4c:	00c20074 	movhi	r3,2049
 800ea50:	18d42204 	addi	r3,r3,20616
 800ea54:	d9001b17 	ldw	r4,108(sp)
 800ea58:	d8c02315 	stw	r3,140(sp)
 800ea5c:	050001c4 	movi	r20,7
 800ea60:	dd402117 	ldw	r21,132(sp)
 800ea64:	ddc02017 	ldw	r23,128(sp)
 800ea68:	00000506 	br	800ea80 <___vfiprintf_internal_r+0xd6c>
 800ea6c:	21400084 	addi	r5,r4,2
 800ea70:	42000204 	addi	r8,r8,8
 800ea74:	1809883a 	mov	r4,r3
 800ea78:	8c7ffc04 	addi	r17,r17,-16
 800ea7c:	84400f0e 	bge	r16,r17,800eabc <___vfiprintf_internal_r+0xda8>
 800ea80:	01420074 	movhi	r5,2049
 800ea84:	10800404 	addi	r2,r2,16
 800ea88:	20c00044 	addi	r3,r4,1
 800ea8c:	29542204 	addi	r5,r5,20616
 800ea90:	41400015 	stw	r5,0(r8)
 800ea94:	44000115 	stw	r16,4(r8)
 800ea98:	d8801c15 	stw	r2,112(sp)
 800ea9c:	d8c01b15 	stw	r3,108(sp)
 800eaa0:	a0fff20e 	bge	r20,r3,800ea6c <__alt_data_end+0xf800ea6c>
 800eaa4:	1000141e 	bne	r2,zero,800eaf8 <___vfiprintf_internal_r+0xde4>
 800eaa8:	8c7ffc04 	addi	r17,r17,-16
 800eaac:	01400044 	movi	r5,1
 800eab0:	0009883a 	mov	r4,zero
 800eab4:	d811883a 	mov	r8,sp
 800eab8:	847ff116 	blt	r16,r17,800ea80 <__alt_data_end+0xf800ea80>
 800eabc:	d8c02317 	ldw	r3,140(sp)
 800eac0:	1445883a 	add	r2,r2,r17
 800eac4:	44400115 	stw	r17,4(r8)
 800eac8:	40c00015 	stw	r3,0(r8)
 800eacc:	d8801c15 	stw	r2,112(sp)
 800ead0:	d9401b15 	stw	r5,108(sp)
 800ead4:	00c001c4 	movi	r3,7
 800ead8:	1940170e 	bge	r3,r5,800eb38 <___vfiprintf_internal_r+0xe24>
 800eadc:	1000101e 	bne	r2,zero,800eb20 <___vfiprintf_internal_r+0xe0c>
 800eae0:	d8802517 	ldw	r2,148(sp)
 800eae4:	14c11616 	blt	r2,r19,800ef40 <___vfiprintf_internal_r+0x122c>
 800eae8:	d9002417 	ldw	r4,144(sp)
 800eaec:	2089883a 	add	r4,r4,r2
 800eaf0:	d9002415 	stw	r4,144(sp)
 800eaf4:	003e1806 	br	800e358 <__alt_data_end+0xf800e358>
 800eaf8:	d9801a04 	addi	r6,sp,104
 800eafc:	b80b883a 	mov	r5,r23
 800eb00:	a809883a 	mov	r4,r21
 800eb04:	800dc000 	call	800dc00 <__sprint_r.part.0>
 800eb08:	103fba1e 	bne	r2,zero,800e9f4 <__alt_data_end+0xf800e9f4>
 800eb0c:	d9001b17 	ldw	r4,108(sp)
 800eb10:	d8801c17 	ldw	r2,112(sp)
 800eb14:	d811883a 	mov	r8,sp
 800eb18:	21400044 	addi	r5,r4,1
 800eb1c:	003fd606 	br	800ea78 <__alt_data_end+0xf800ea78>
 800eb20:	d9402017 	ldw	r5,128(sp)
 800eb24:	d9002117 	ldw	r4,132(sp)
 800eb28:	d9801a04 	addi	r6,sp,104
 800eb2c:	800dc000 	call	800dc00 <__sprint_r.part.0>
 800eb30:	103fb01e 	bne	r2,zero,800e9f4 <__alt_data_end+0xf800e9f4>
 800eb34:	d8801c17 	ldw	r2,112(sp)
 800eb38:	d8c02517 	ldw	r3,148(sp)
 800eb3c:	1cc0010e 	bge	r3,r19,800eb44 <___vfiprintf_internal_r+0xe30>
 800eb40:	9807883a 	mov	r3,r19
 800eb44:	d9002417 	ldw	r4,144(sp)
 800eb48:	20c9883a 	add	r4,r4,r3
 800eb4c:	d9002415 	stw	r4,144(sp)
 800eb50:	103e0126 	beq	r2,zero,800e358 <__alt_data_end+0xf800e358>
 800eb54:	d9402017 	ldw	r5,128(sp)
 800eb58:	d9002117 	ldw	r4,132(sp)
 800eb5c:	d9801a04 	addi	r6,sp,104
 800eb60:	800dc000 	call	800dc00 <__sprint_r.part.0>
 800eb64:	103dfc26 	beq	r2,zero,800e358 <__alt_data_end+0xf800e358>
 800eb68:	003fa206 	br	800e9f4 <__alt_data_end+0xf800e9f4>
 800eb6c:	d9402017 	ldw	r5,128(sp)
 800eb70:	d9002117 	ldw	r4,132(sp)
 800eb74:	d9801a04 	addi	r6,sp,104
 800eb78:	d9c02b15 	stw	r7,172(sp)
 800eb7c:	800dc000 	call	800dc00 <__sprint_r.part.0>
 800eb80:	d9c02b17 	ldw	r7,172(sp)
 800eb84:	103f9b1e 	bne	r2,zero,800e9f4 <__alt_data_end+0xf800e9f4>
 800eb88:	d9001b17 	ldw	r4,108(sp)
 800eb8c:	d8801c17 	ldw	r2,112(sp)
 800eb90:	d811883a 	mov	r8,sp
 800eb94:	21800044 	addi	r6,r4,1
 800eb98:	003dbf06 	br	800e298 <__alt_data_end+0xf800e298>
 800eb9c:	1000d81e 	bne	r2,zero,800ef00 <___vfiprintf_internal_r+0x11ec>
 800eba0:	d9001d87 	ldb	r4,118(sp)
 800eba4:	20000a26 	beq	r4,zero,800ebd0 <___vfiprintf_internal_r+0xebc>
 800eba8:	00800044 	movi	r2,1
 800ebac:	d9001d84 	addi	r4,sp,118
 800ebb0:	100b883a 	mov	r5,r2
 800ebb4:	d9000015 	stw	r4,0(sp)
 800ebb8:	d8800115 	stw	r2,4(sp)
 800ebbc:	d811883a 	mov	r8,sp
 800ebc0:	2809883a 	mov	r4,r5
 800ebc4:	42000204 	addi	r8,r8,8
 800ebc8:	29400044 	addi	r5,r5,1
 800ebcc:	003d9506 	br	800e224 <__alt_data_end+0xf800e224>
 800ebd0:	3800fd26 	beq	r7,zero,800efc8 <___vfiprintf_internal_r+0x12b4>
 800ebd4:	00800084 	movi	r2,2
 800ebd8:	d9001d04 	addi	r4,sp,116
 800ebdc:	d9000015 	stw	r4,0(sp)
 800ebe0:	d8800115 	stw	r2,4(sp)
 800ebe4:	01400044 	movi	r5,1
 800ebe8:	d811883a 	mov	r8,sp
 800ebec:	2809883a 	mov	r4,r5
 800ebf0:	42000204 	addi	r8,r8,8
 800ebf4:	29400044 	addi	r5,r5,1
 800ebf8:	003f4606 	br	800e914 <__alt_data_end+0xf800e914>
 800ebfc:	d8802517 	ldw	r2,148(sp)
 800ec00:	14c0010e 	bge	r2,r19,800ec08 <___vfiprintf_internal_r+0xef4>
 800ec04:	9805883a 	mov	r2,r19
 800ec08:	d9402417 	ldw	r5,144(sp)
 800ec0c:	288b883a 	add	r5,r5,r2
 800ec10:	d9402415 	stw	r5,144(sp)
 800ec14:	003dd006 	br	800e358 <__alt_data_end+0xf800e358>
 800ec18:	d8001d85 	stb	zero,118(sp)
 800ec1c:	80005d16 	blt	r16,zero,800ed94 <___vfiprintf_internal_r+0x1080>
 800ec20:	00ffdfc4 	movi	r3,-129
 800ec24:	9d04b03a 	or	r2,r19,r20
 800ec28:	88e2703a 	and	r17,r17,r3
 800ec2c:	103d3726 	beq	r2,zero,800e10c <__alt_data_end+0xf800e10c>
 800ec30:	002b883a 	mov	r21,zero
 800ec34:	d9002617 	ldw	r4,152(sp)
 800ec38:	ddc01a04 	addi	r23,sp,104
 800ec3c:	988003cc 	andi	r2,r19,15
 800ec40:	a006973a 	slli	r3,r20,28
 800ec44:	2085883a 	add	r2,r4,r2
 800ec48:	9826d13a 	srli	r19,r19,4
 800ec4c:	10800003 	ldbu	r2,0(r2)
 800ec50:	a028d13a 	srli	r20,r20,4
 800ec54:	bdffffc4 	addi	r23,r23,-1
 800ec58:	1ce6b03a 	or	r19,r3,r19
 800ec5c:	b8800005 	stb	r2,0(r23)
 800ec60:	9d04b03a 	or	r2,r19,r20
 800ec64:	103ff51e 	bne	r2,zero,800ec3c <__alt_data_end+0xf800ec3c>
 800ec68:	d8801e17 	ldw	r2,120(sp)
 800ec6c:	15e9c83a 	sub	r20,r2,r23
 800ec70:	003d2b06 	br	800e120 <__alt_data_end+0xf800e120>
 800ec74:	d9402017 	ldw	r5,128(sp)
 800ec78:	d9002117 	ldw	r4,132(sp)
 800ec7c:	d9801a04 	addi	r6,sp,104
 800ec80:	800dc000 	call	800dc00 <__sprint_r.part.0>
 800ec84:	103f5b1e 	bne	r2,zero,800e9f4 <__alt_data_end+0xf800e9f4>
 800ec88:	d8801c17 	ldw	r2,112(sp)
 800ec8c:	d811883a 	mov	r8,sp
 800ec90:	003f6706 	br	800ea30 <__alt_data_end+0xf800ea30>
 800ec94:	d9402017 	ldw	r5,128(sp)
 800ec98:	d9002117 	ldw	r4,132(sp)
 800ec9c:	d9801a04 	addi	r6,sp,104
 800eca0:	800dc000 	call	800dc00 <__sprint_r.part.0>
 800eca4:	103f531e 	bne	r2,zero,800e9f4 <__alt_data_end+0xf800e9f4>
 800eca8:	d811883a 	mov	r8,sp
 800ecac:	003cd906 	br	800e014 <__alt_data_end+0xf800e014>
 800ecb0:	10803fcc 	andi	r2,r2,255
 800ecb4:	1080201c 	xori	r2,r2,128
 800ecb8:	10bfe004 	addi	r2,r2,-128
 800ecbc:	00c00c04 	movi	r3,48
 800ecc0:	10ffe926 	beq	r2,r3,800ec68 <__alt_data_end+0xf800ec68>
 800ecc4:	b8ffffc5 	stb	r3,-1(r23)
 800ecc8:	d8c01e17 	ldw	r3,120(sp)
 800eccc:	b8bfffc4 	addi	r2,r23,-1
 800ecd0:	102f883a 	mov	r23,r2
 800ecd4:	18a9c83a 	sub	r20,r3,r2
 800ecd8:	003d1106 	br	800e120 <__alt_data_end+0xf800e120>
 800ecdc:	d9402017 	ldw	r5,128(sp)
 800ece0:	d9002117 	ldw	r4,132(sp)
 800ece4:	d9801a04 	addi	r6,sp,104
 800ece8:	d8c02a15 	stw	r3,168(sp)
 800ecec:	d9c02b15 	stw	r7,172(sp)
 800ecf0:	800dc000 	call	800dc00 <__sprint_r.part.0>
 800ecf4:	d8c02a17 	ldw	r3,168(sp)
 800ecf8:	d9c02b17 	ldw	r7,172(sp)
 800ecfc:	103f3d1e 	bne	r2,zero,800e9f4 <__alt_data_end+0xf800e9f4>
 800ed00:	d9001b17 	ldw	r4,108(sp)
 800ed04:	d8801c17 	ldw	r2,112(sp)
 800ed08:	d811883a 	mov	r8,sp
 800ed0c:	21400044 	addi	r5,r4,1
 800ed10:	003d4406 	br	800e224 <__alt_data_end+0xf800e224>
 800ed14:	d9402017 	ldw	r5,128(sp)
 800ed18:	d9002117 	ldw	r4,132(sp)
 800ed1c:	d9801a04 	addi	r6,sp,104
 800ed20:	d8c02a15 	stw	r3,168(sp)
 800ed24:	800dc000 	call	800dc00 <__sprint_r.part.0>
 800ed28:	d8c02a17 	ldw	r3,168(sp)
 800ed2c:	103f311e 	bne	r2,zero,800e9f4 <__alt_data_end+0xf800e9f4>
 800ed30:	d9001b17 	ldw	r4,108(sp)
 800ed34:	d8801c17 	ldw	r2,112(sp)
 800ed38:	d811883a 	mov	r8,sp
 800ed3c:	21400044 	addi	r5,r4,1
 800ed40:	003ef406 	br	800e914 <__alt_data_end+0xf800e914>
 800ed44:	1000bd1e 	bne	r2,zero,800f03c <___vfiprintf_internal_r+0x1328>
 800ed48:	01400044 	movi	r5,1
 800ed4c:	0009883a 	mov	r4,zero
 800ed50:	d811883a 	mov	r8,sp
 800ed54:	003ef106 	br	800e91c <__alt_data_end+0xf800e91c>
 800ed58:	d9402017 	ldw	r5,128(sp)
 800ed5c:	d9002117 	ldw	r4,132(sp)
 800ed60:	d9801a04 	addi	r6,sp,104
 800ed64:	800dc000 	call	800dc00 <__sprint_r.part.0>
 800ed68:	103f221e 	bne	r2,zero,800e9f4 <__alt_data_end+0xf800e9f4>
 800ed6c:	d9401b17 	ldw	r5,108(sp)
 800ed70:	d8801c17 	ldw	r2,112(sp)
 800ed74:	d811883a 	mov	r8,sp
 800ed78:	29400044 	addi	r5,r5,1
 800ed7c:	003d6206 	br	800e308 <__alt_data_end+0xf800e308>
 800ed80:	01420074 	movhi	r5,2049
 800ed84:	2953be04 	addi	r5,r5,20216
 800ed88:	d9402615 	stw	r5,152(sp)
 800ed8c:	d8c02215 	stw	r3,136(sp)
 800ed90:	1023883a 	mov	r17,r2
 800ed94:	9d04b03a 	or	r2,r19,r20
 800ed98:	103fa51e 	bne	r2,zero,800ec30 <__alt_data_end+0xf800ec30>
 800ed9c:	002b883a 	mov	r21,zero
 800eda0:	00800084 	movi	r2,2
 800eda4:	003e4a06 	br	800e6d0 <__alt_data_end+0xf800e6d0>
 800eda8:	01420074 	movhi	r5,2049
 800edac:	2953be04 	addi	r5,r5,20216
 800edb0:	002b883a 	mov	r21,zero
 800edb4:	d9402615 	stw	r5,152(sp)
 800edb8:	003f9e06 	br	800ec34 <__alt_data_end+0xf800ec34>
 800edbc:	d9402217 	ldw	r5,136(sp)
 800edc0:	d8001d85 	stb	zero,118(sp)
 800edc4:	0029883a 	mov	r20,zero
 800edc8:	28800104 	addi	r2,r5,4
 800edcc:	2cc00017 	ldw	r19,0(r5)
 800edd0:	803e3a16 	blt	r16,zero,800e6bc <__alt_data_end+0xf800e6bc>
 800edd4:	00ffdfc4 	movi	r3,-129
 800edd8:	d8802215 	stw	r2,136(sp)
 800eddc:	88e2703a 	and	r17,r17,r3
 800ede0:	002b883a 	mov	r21,zero
 800ede4:	983e9b26 	beq	r19,zero,800e854 <__alt_data_end+0xf800e854>
 800ede8:	00800244 	movi	r2,9
 800edec:	14fdc936 	bltu	r2,r19,800e514 <__alt_data_end+0xf800e514>
 800edf0:	003e9a06 	br	800e85c <__alt_data_end+0xf800e85c>
 800edf4:	00800c04 	movi	r2,48
 800edf8:	d8c01d45 	stb	r3,117(sp)
 800edfc:	d8801d05 	stb	r2,116(sp)
 800ee00:	d8001d85 	stb	zero,118(sp)
 800ee04:	88c00094 	ori	r3,r17,2
 800ee08:	80009c16 	blt	r16,zero,800f07c <___vfiprintf_internal_r+0x1368>
 800ee0c:	00bfdfc4 	movi	r2,-129
 800ee10:	88a2703a 	and	r17,r17,r2
 800ee14:	8c400094 	ori	r17,r17,2
 800ee18:	002b883a 	mov	r21,zero
 800ee1c:	003f8506 	br	800ec34 <__alt_data_end+0xf800ec34>
 800ee20:	b029883a 	mov	r20,r22
 800ee24:	003c0b06 	br	800de54 <__alt_data_end+0xf800de54>
 800ee28:	04e7c83a 	sub	r19,zero,r19
 800ee2c:	05400b44 	movi	r21,45
 800ee30:	9804c03a 	cmpne	r2,r19,zero
 800ee34:	0529c83a 	sub	r20,zero,r20
 800ee38:	dd401d85 	stb	r21,118(sp)
 800ee3c:	a0a9c83a 	sub	r20,r20,r2
 800ee40:	80009716 	blt	r16,zero,800f0a0 <___vfiprintf_internal_r+0x138c>
 800ee44:	00bfdfc4 	movi	r2,-129
 800ee48:	88a2703a 	and	r17,r17,r2
 800ee4c:	003db006 	br	800e510 <__alt_data_end+0xf800e510>
 800ee50:	b0c00007 	ldb	r3,0(r22)
 800ee54:	003c0c06 	br	800de88 <__alt_data_end+0xf800de88>
 800ee58:	8880100c 	andi	r2,r17,64
 800ee5c:	d8001d85 	stb	zero,118(sp)
 800ee60:	1000461e 	bne	r2,zero,800ef7c <___vfiprintf_internal_r+0x1268>
 800ee64:	d9002217 	ldw	r4,136(sp)
 800ee68:	0029883a 	mov	r20,zero
 800ee6c:	20800104 	addi	r2,r4,4
 800ee70:	24c00017 	ldw	r19,0(r4)
 800ee74:	803df80e 	bge	r16,zero,800e658 <__alt_data_end+0xf800e658>
 800ee78:	9d06b03a 	or	r3,r19,r20
 800ee7c:	d8802215 	stw	r2,136(sp)
 800ee80:	183d5e1e 	bne	r3,zero,800e3fc <__alt_data_end+0xf800e3fc>
 800ee84:	002b883a 	mov	r21,zero
 800ee88:	0005883a 	mov	r2,zero
 800ee8c:	003e1006 	br	800e6d0 <__alt_data_end+0xf800e6d0>
 800ee90:	8880040c 	andi	r2,r17,16
 800ee94:	1000321e 	bne	r2,zero,800ef60 <___vfiprintf_internal_r+0x124c>
 800ee98:	8c40100c 	andi	r17,r17,64
 800ee9c:	88008d26 	beq	r17,zero,800f0d4 <___vfiprintf_internal_r+0x13c0>
 800eea0:	d9402217 	ldw	r5,136(sp)
 800eea4:	d8c02417 	ldw	r3,144(sp)
 800eea8:	28800017 	ldw	r2,0(r5)
 800eeac:	29400104 	addi	r5,r5,4
 800eeb0:	d9402215 	stw	r5,136(sp)
 800eeb4:	10c0000d 	sth	r3,0(r2)
 800eeb8:	003bca06 	br	800dde4 <__alt_data_end+0xf800dde4>
 800eebc:	8880100c 	andi	r2,r17,64
 800eec0:	10003a26 	beq	r2,zero,800efac <___vfiprintf_internal_r+0x1298>
 800eec4:	d8802217 	ldw	r2,136(sp)
 800eec8:	14c0000f 	ldh	r19,0(r2)
 800eecc:	10800104 	addi	r2,r2,4
 800eed0:	d8802215 	stw	r2,136(sp)
 800eed4:	9829d7fa 	srai	r20,r19,31
 800eed8:	a005883a 	mov	r2,r20
 800eedc:	003d8506 	br	800e4f4 <__alt_data_end+0xf800e4f4>
 800eee0:	8880100c 	andi	r2,r17,64
 800eee4:	10002b26 	beq	r2,zero,800ef94 <___vfiprintf_internal_r+0x1280>
 800eee8:	d8802217 	ldw	r2,136(sp)
 800eeec:	0029883a 	mov	r20,zero
 800eef0:	14c0000b 	ldhu	r19,0(r2)
 800eef4:	10800104 	addi	r2,r2,4
 800eef8:	d8802215 	stw	r2,136(sp)
 800eefc:	003d5d06 	br	800e474 <__alt_data_end+0xf800e474>
 800ef00:	d9402017 	ldw	r5,128(sp)
 800ef04:	d9002117 	ldw	r4,132(sp)
 800ef08:	d9801a04 	addi	r6,sp,104
 800ef0c:	d8c02a15 	stw	r3,168(sp)
 800ef10:	d9c02b15 	stw	r7,172(sp)
 800ef14:	800dc000 	call	800dc00 <__sprint_r.part.0>
 800ef18:	d8c02a17 	ldw	r3,168(sp)
 800ef1c:	d9c02b17 	ldw	r7,172(sp)
 800ef20:	103eb41e 	bne	r2,zero,800e9f4 <__alt_data_end+0xf800e9f4>
 800ef24:	d9001b17 	ldw	r4,108(sp)
 800ef28:	d8801c17 	ldw	r2,112(sp)
 800ef2c:	d811883a 	mov	r8,sp
 800ef30:	21400044 	addi	r5,r4,1
 800ef34:	003e6706 	br	800e8d4 <__alt_data_end+0xf800e8d4>
 800ef38:	00bfffc4 	movi	r2,-1
 800ef3c:	003c4a06 	br	800e068 <__alt_data_end+0xf800e068>
 800ef40:	9805883a 	mov	r2,r19
 800ef44:	003ee806 	br	800eae8 <__alt_data_end+0xf800eae8>
 800ef48:	d8c02217 	ldw	r3,136(sp)
 800ef4c:	0029883a 	mov	r20,zero
 800ef50:	18800104 	addi	r2,r3,4
 800ef54:	1cc0000b 	ldhu	r19,0(r3)
 800ef58:	803f9e0e 	bge	r16,zero,800edd4 <__alt_data_end+0xf800edd4>
 800ef5c:	003dd706 	br	800e6bc <__alt_data_end+0xf800e6bc>
 800ef60:	d8c02217 	ldw	r3,136(sp)
 800ef64:	d9002417 	ldw	r4,144(sp)
 800ef68:	18800017 	ldw	r2,0(r3)
 800ef6c:	18c00104 	addi	r3,r3,4
 800ef70:	d8c02215 	stw	r3,136(sp)
 800ef74:	11000015 	stw	r4,0(r2)
 800ef78:	003b9a06 	br	800dde4 <__alt_data_end+0xf800dde4>
 800ef7c:	d8c02217 	ldw	r3,136(sp)
 800ef80:	0029883a 	mov	r20,zero
 800ef84:	18800104 	addi	r2,r3,4
 800ef88:	1cc0000b 	ldhu	r19,0(r3)
 800ef8c:	803db20e 	bge	r16,zero,800e658 <__alt_data_end+0xf800e658>
 800ef90:	003fb906 	br	800ee78 <__alt_data_end+0xf800ee78>
 800ef94:	d9002217 	ldw	r4,136(sp)
 800ef98:	0029883a 	mov	r20,zero
 800ef9c:	24c00017 	ldw	r19,0(r4)
 800efa0:	21000104 	addi	r4,r4,4
 800efa4:	d9002215 	stw	r4,136(sp)
 800efa8:	003d3206 	br	800e474 <__alt_data_end+0xf800e474>
 800efac:	d8c02217 	ldw	r3,136(sp)
 800efb0:	1cc00017 	ldw	r19,0(r3)
 800efb4:	18c00104 	addi	r3,r3,4
 800efb8:	d8c02215 	stw	r3,136(sp)
 800efbc:	9829d7fa 	srai	r20,r19,31
 800efc0:	a005883a 	mov	r2,r20
 800efc4:	003d4b06 	br	800e4f4 <__alt_data_end+0xf800e4f4>
 800efc8:	0009883a 	mov	r4,zero
 800efcc:	01400044 	movi	r5,1
 800efd0:	d811883a 	mov	r8,sp
 800efd4:	003e4f06 	br	800e914 <__alt_data_end+0xf800e914>
 800efd8:	d8c02215 	stw	r3,136(sp)
 800efdc:	002b883a 	mov	r21,zero
 800efe0:	003db806 	br	800e6c4 <__alt_data_end+0xf800e6c4>
 800efe4:	d811883a 	mov	r8,sp
 800efe8:	003e9606 	br	800ea44 <__alt_data_end+0xf800ea44>
 800efec:	01020074 	movhi	r4,2049
 800eff0:	21141e04 	addi	r4,r4,20600
 800eff4:	d9002315 	stw	r4,140(sp)
 800eff8:	003e6306 	br	800e988 <__alt_data_end+0xf800e988>
 800effc:	b0c00043 	ldbu	r3,1(r22)
 800f000:	8c400814 	ori	r17,r17,32
 800f004:	b5800044 	addi	r22,r22,1
 800f008:	18c03fcc 	andi	r3,r3,255
 800f00c:	18c0201c 	xori	r3,r3,128
 800f010:	18ffe004 	addi	r3,r3,-128
 800f014:	003b9c06 	br	800de88 <__alt_data_end+0xf800de88>
 800f018:	b809883a 	mov	r4,r23
 800f01c:	da002a15 	stw	r8,168(sp)
 800f020:	800647c0 	call	800647c <strlen>
 800f024:	1029883a 	mov	r20,r2
 800f028:	dd401d83 	ldbu	r21,118(sp)
 800f02c:	df002215 	stw	fp,136(sp)
 800f030:	0021883a 	mov	r16,zero
 800f034:	da002a17 	ldw	r8,168(sp)
 800f038:	003c3906 	br	800e120 <__alt_data_end+0xf800e120>
 800f03c:	d9402017 	ldw	r5,128(sp)
 800f040:	d9002117 	ldw	r4,132(sp)
 800f044:	d9801a04 	addi	r6,sp,104
 800f048:	800dc000 	call	800dc00 <__sprint_r.part.0>
 800f04c:	103e691e 	bne	r2,zero,800e9f4 <__alt_data_end+0xf800e9f4>
 800f050:	d9001b17 	ldw	r4,108(sp)
 800f054:	d8801c17 	ldw	r2,112(sp)
 800f058:	d811883a 	mov	r8,sp
 800f05c:	21400044 	addi	r5,r4,1
 800f060:	003e2e06 	br	800e91c <__alt_data_end+0xf800e91c>
 800f064:	01020074 	movhi	r4,2049
 800f068:	21142204 	addi	r4,r4,20616
 800f06c:	d9002315 	stw	r4,140(sp)
 800f070:	d9001b17 	ldw	r4,108(sp)
 800f074:	21000044 	addi	r4,r4,1
 800f078:	003c5e06 	br	800e1f4 <__alt_data_end+0xf800e1f4>
 800f07c:	002b883a 	mov	r21,zero
 800f080:	00800084 	movi	r2,2
 800f084:	10803fcc 	andi	r2,r2,255
 800f088:	01000044 	movi	r4,1
 800f08c:	11002b26 	beq	r2,r4,800f13c <___vfiprintf_internal_r+0x1428>
 800f090:	01000084 	movi	r4,2
 800f094:	11002b1e 	bne	r2,r4,800f144 <___vfiprintf_internal_r+0x1430>
 800f098:	1823883a 	mov	r17,r3
 800f09c:	003ee506 	br	800ec34 <__alt_data_end+0xf800ec34>
 800f0a0:	8807883a 	mov	r3,r17
 800f0a4:	00800044 	movi	r2,1
 800f0a8:	003ff606 	br	800f084 <__alt_data_end+0xf800f084>
 800f0ac:	00800184 	movi	r2,6
 800f0b0:	1400012e 	bgeu	r2,r16,800f0b8 <___vfiprintf_internal_r+0x13a4>
 800f0b4:	1021883a 	mov	r16,r2
 800f0b8:	8029883a 	mov	r20,r16
 800f0bc:	8027883a 	mov	r19,r16
 800f0c0:	80002216 	blt	r16,zero,800f14c <___vfiprintf_internal_r+0x1438>
 800f0c4:	05c20074 	movhi	r23,2049
 800f0c8:	df002215 	stw	fp,136(sp)
 800f0cc:	bdd3c304 	addi	r23,r23,20236
 800f0d0:	003cfb06 	br	800e4c0 <__alt_data_end+0xf800e4c0>
 800f0d4:	d9002217 	ldw	r4,136(sp)
 800f0d8:	d9402417 	ldw	r5,144(sp)
 800f0dc:	20800017 	ldw	r2,0(r4)
 800f0e0:	21000104 	addi	r4,r4,4
 800f0e4:	d9002215 	stw	r4,136(sp)
 800f0e8:	11400015 	stw	r5,0(r2)
 800f0ec:	003b3d06 	br	800dde4 <__alt_data_end+0xf800dde4>
 800f0f0:	01420074 	movhi	r5,2049
 800f0f4:	29542204 	addi	r5,r5,20616
 800f0f8:	d9402315 	stw	r5,140(sp)
 800f0fc:	d9401b17 	ldw	r5,108(sp)
 800f100:	29400044 	addi	r5,r5,1
 800f104:	003e6d06 	br	800eabc <__alt_data_end+0xf800eabc>
 800f108:	8029883a 	mov	r20,r16
 800f10c:	dd401d83 	ldbu	r21,118(sp)
 800f110:	df002215 	stw	fp,136(sp)
 800f114:	0021883a 	mov	r16,zero
 800f118:	003c0106 	br	800e120 <__alt_data_end+0xf800e120>
 800f11c:	00c20074 	movhi	r3,2049
 800f120:	18d41e04 	addi	r3,r3,20600
 800f124:	d8c02315 	stw	r3,140(sp)
 800f128:	280d883a 	mov	r6,r5
 800f12c:	003c6906 	br	800e2d4 <__alt_data_end+0xf800e2d4>
 800f130:	802d883a 	mov	r22,r16
 800f134:	0021883a 	mov	r16,zero
 800f138:	003b5406 	br	800de8c <__alt_data_end+0xf800de8c>
 800f13c:	1823883a 	mov	r17,r3
 800f140:	003cf306 	br	800e510 <__alt_data_end+0xf800e510>
 800f144:	1823883a 	mov	r17,r3
 800f148:	003cad06 	br	800e400 <__alt_data_end+0xf800e400>
 800f14c:	0027883a 	mov	r19,zero
 800f150:	003fdc06 	br	800f0c4 <__alt_data_end+0xf800f0c4>
 800f154:	d9402217 	ldw	r5,136(sp)
 800f158:	8005883a 	mov	r2,r16
 800f15c:	b0c00043 	ldbu	r3,1(r22)
 800f160:	2c000017 	ldw	r16,0(r5)
 800f164:	29000104 	addi	r4,r5,4
 800f168:	d9002215 	stw	r4,136(sp)
 800f16c:	102d883a 	mov	r22,r2
 800f170:	803fa50e 	bge	r16,zero,800f008 <__alt_data_end+0xf800f008>
 800f174:	18c03fcc 	andi	r3,r3,255
 800f178:	18c0201c 	xori	r3,r3,128
 800f17c:	043fffc4 	movi	r16,-1
 800f180:	18ffe004 	addi	r3,r3,-128
 800f184:	003b4006 	br	800de88 <__alt_data_end+0xf800de88>
 800f188:	d9402303 	ldbu	r5,140(sp)
 800f18c:	d9401d85 	stb	r5,118(sp)
 800f190:	003cae06 	br	800e44c <__alt_data_end+0xf800e44c>
 800f194:	d8c02303 	ldbu	r3,140(sp)
 800f198:	d8c01d85 	stb	r3,118(sp)
 800f19c:	003d1406 	br	800e5f0 <__alt_data_end+0xf800e5f0>
 800f1a0:	d8c02303 	ldbu	r3,140(sp)
 800f1a4:	d8c01d85 	stb	r3,118(sp)
 800f1a8:	003cca06 	br	800e4d4 <__alt_data_end+0xf800e4d4>
 800f1ac:	8880004c 	andi	r2,r17,1
 800f1b0:	002b883a 	mov	r21,zero
 800f1b4:	10000526 	beq	r2,zero,800f1cc <___vfiprintf_internal_r+0x14b8>
 800f1b8:	00800c04 	movi	r2,48
 800f1bc:	d88019c5 	stb	r2,103(sp)
 800f1c0:	dd002817 	ldw	r20,160(sp)
 800f1c4:	ddc019c4 	addi	r23,sp,103
 800f1c8:	003bd506 	br	800e120 <__alt_data_end+0xf800e120>
 800f1cc:	0029883a 	mov	r20,zero
 800f1d0:	ddc01a04 	addi	r23,sp,104
 800f1d4:	003bd206 	br	800e120 <__alt_data_end+0xf800e120>
 800f1d8:	d9002303 	ldbu	r4,140(sp)
 800f1dc:	d9001d85 	stb	r4,118(sp)
 800f1e0:	003da606 	br	800e87c <__alt_data_end+0xf800e87c>
 800f1e4:	d8c02303 	ldbu	r3,140(sp)
 800f1e8:	d8c01d85 	stb	r3,118(sp)
 800f1ec:	003c7606 	br	800e3c8 <__alt_data_end+0xf800e3c8>
 800f1f0:	d8c02303 	ldbu	r3,140(sp)
 800f1f4:	d8c01d85 	stb	r3,118(sp)
 800f1f8:	003c6506 	br	800e390 <__alt_data_end+0xf800e390>
 800f1fc:	d9002303 	ldbu	r4,140(sp)
 800f200:	d9001d85 	stb	r4,118(sp)
 800f204:	003d3d06 	br	800e6fc <__alt_data_end+0xf800e6fc>
 800f208:	d8c02303 	ldbu	r3,140(sp)
 800f20c:	d8c01d85 	stb	r3,118(sp)
 800f210:	003d1d06 	br	800e688 <__alt_data_end+0xf800e688>
 800f214:	d8c02303 	ldbu	r3,140(sp)
 800f218:	d8c01d85 	stb	r3,118(sp)
 800f21c:	003d0306 	br	800e62c <__alt_data_end+0xf800e62c>

0800f220 <__vfiprintf_internal>:
 800f220:	00820074 	movhi	r2,2049
 800f224:	109b0804 	addi	r2,r2,27680
 800f228:	300f883a 	mov	r7,r6
 800f22c:	280d883a 	mov	r6,r5
 800f230:	200b883a 	mov	r5,r4
 800f234:	11000017 	ldw	r4,0(r2)
 800f238:	800dd141 	jmpi	800dd14 <___vfiprintf_internal_r>

0800f23c <__sbprintf>:
 800f23c:	2880030b 	ldhu	r2,12(r5)
 800f240:	2ac01917 	ldw	r11,100(r5)
 800f244:	2a80038b 	ldhu	r10,14(r5)
 800f248:	2a400717 	ldw	r9,28(r5)
 800f24c:	2a000917 	ldw	r8,36(r5)
 800f250:	defee204 	addi	sp,sp,-1144
 800f254:	00c10004 	movi	r3,1024
 800f258:	dc011a15 	stw	r16,1128(sp)
 800f25c:	10bfff4c 	andi	r2,r2,65533
 800f260:	2821883a 	mov	r16,r5
 800f264:	d8cb883a 	add	r5,sp,r3
 800f268:	dc811c15 	stw	r18,1136(sp)
 800f26c:	dc411b15 	stw	r17,1132(sp)
 800f270:	dfc11d15 	stw	ra,1140(sp)
 800f274:	2025883a 	mov	r18,r4
 800f278:	d881030d 	sth	r2,1036(sp)
 800f27c:	dac11915 	stw	r11,1124(sp)
 800f280:	da81038d 	sth	r10,1038(sp)
 800f284:	da410715 	stw	r9,1052(sp)
 800f288:	da010915 	stw	r8,1060(sp)
 800f28c:	dec10015 	stw	sp,1024(sp)
 800f290:	dec10415 	stw	sp,1040(sp)
 800f294:	d8c10215 	stw	r3,1032(sp)
 800f298:	d8c10515 	stw	r3,1044(sp)
 800f29c:	d8010615 	stw	zero,1048(sp)
 800f2a0:	800dd140 	call	800dd14 <___vfiprintf_internal_r>
 800f2a4:	1023883a 	mov	r17,r2
 800f2a8:	10000416 	blt	r2,zero,800f2bc <__sbprintf+0x80>
 800f2ac:	d9410004 	addi	r5,sp,1024
 800f2b0:	9009883a 	mov	r4,r18
 800f2b4:	800a4f00 	call	800a4f0 <_fflush_r>
 800f2b8:	10000d1e 	bne	r2,zero,800f2f0 <__sbprintf+0xb4>
 800f2bc:	d881030b 	ldhu	r2,1036(sp)
 800f2c0:	1080100c 	andi	r2,r2,64
 800f2c4:	10000326 	beq	r2,zero,800f2d4 <__sbprintf+0x98>
 800f2c8:	8080030b 	ldhu	r2,12(r16)
 800f2cc:	10801014 	ori	r2,r2,64
 800f2d0:	8080030d 	sth	r2,12(r16)
 800f2d4:	8805883a 	mov	r2,r17
 800f2d8:	dfc11d17 	ldw	ra,1140(sp)
 800f2dc:	dc811c17 	ldw	r18,1136(sp)
 800f2e0:	dc411b17 	ldw	r17,1132(sp)
 800f2e4:	dc011a17 	ldw	r16,1128(sp)
 800f2e8:	dec11e04 	addi	sp,sp,1144
 800f2ec:	f800283a 	ret
 800f2f0:	047fffc4 	movi	r17,-1
 800f2f4:	003ff106 	br	800f2bc <__alt_data_end+0xf800f2bc>

0800f2f8 <_write_r>:
 800f2f8:	defffd04 	addi	sp,sp,-12
 800f2fc:	2805883a 	mov	r2,r5
 800f300:	dc000015 	stw	r16,0(sp)
 800f304:	040200b4 	movhi	r16,2050
 800f308:	dc400115 	stw	r17,4(sp)
 800f30c:	300b883a 	mov	r5,r6
 800f310:	84220f04 	addi	r16,r16,-30660
 800f314:	2023883a 	mov	r17,r4
 800f318:	380d883a 	mov	r6,r7
 800f31c:	1009883a 	mov	r4,r2
 800f320:	dfc00215 	stw	ra,8(sp)
 800f324:	80000015 	stw	zero,0(r16)
 800f328:	8012d740 	call	8012d74 <write>
 800f32c:	00ffffc4 	movi	r3,-1
 800f330:	10c00526 	beq	r2,r3,800f348 <_write_r+0x50>
 800f334:	dfc00217 	ldw	ra,8(sp)
 800f338:	dc400117 	ldw	r17,4(sp)
 800f33c:	dc000017 	ldw	r16,0(sp)
 800f340:	dec00304 	addi	sp,sp,12
 800f344:	f800283a 	ret
 800f348:	80c00017 	ldw	r3,0(r16)
 800f34c:	183ff926 	beq	r3,zero,800f334 <__alt_data_end+0xf800f334>
 800f350:	88c00015 	stw	r3,0(r17)
 800f354:	003ff706 	br	800f334 <__alt_data_end+0xf800f334>

0800f358 <_close_r>:
 800f358:	defffd04 	addi	sp,sp,-12
 800f35c:	dc000015 	stw	r16,0(sp)
 800f360:	040200b4 	movhi	r16,2050
 800f364:	dc400115 	stw	r17,4(sp)
 800f368:	84220f04 	addi	r16,r16,-30660
 800f36c:	2023883a 	mov	r17,r4
 800f370:	2809883a 	mov	r4,r5
 800f374:	dfc00215 	stw	ra,8(sp)
 800f378:	80000015 	stw	zero,0(r16)
 800f37c:	80124380 	call	8012438 <close>
 800f380:	00ffffc4 	movi	r3,-1
 800f384:	10c00526 	beq	r2,r3,800f39c <_close_r+0x44>
 800f388:	dfc00217 	ldw	ra,8(sp)
 800f38c:	dc400117 	ldw	r17,4(sp)
 800f390:	dc000017 	ldw	r16,0(sp)
 800f394:	dec00304 	addi	sp,sp,12
 800f398:	f800283a 	ret
 800f39c:	80c00017 	ldw	r3,0(r16)
 800f3a0:	183ff926 	beq	r3,zero,800f388 <__alt_data_end+0xf800f388>
 800f3a4:	88c00015 	stw	r3,0(r17)
 800f3a8:	003ff706 	br	800f388 <__alt_data_end+0xf800f388>

0800f3ac <_calloc_r>:
 800f3ac:	defffe04 	addi	sp,sp,-8
 800f3b0:	2805883a 	mov	r2,r5
 800f3b4:	dc000015 	stw	r16,0(sp)
 800f3b8:	300b883a 	mov	r5,r6
 800f3bc:	2021883a 	mov	r16,r4
 800f3c0:	1009883a 	mov	r4,r2
 800f3c4:	dfc00115 	stw	ra,4(sp)
 800f3c8:	80054680 	call	8005468 <__mulsi3>
 800f3cc:	100b883a 	mov	r5,r2
 800f3d0:	8009883a 	mov	r4,r16
 800f3d4:	800b6480 	call	800b648 <_malloc_r>
 800f3d8:	10002926 	beq	r2,zero,800f480 <_calloc_r+0xd4>
 800f3dc:	11bfff17 	ldw	r6,-4(r2)
 800f3e0:	1021883a 	mov	r16,r2
 800f3e4:	00bfff04 	movi	r2,-4
 800f3e8:	308c703a 	and	r6,r6,r2
 800f3ec:	00c00904 	movi	r3,36
 800f3f0:	308d883a 	add	r6,r6,r2
 800f3f4:	19801636 	bltu	r3,r6,800f450 <_calloc_r+0xa4>
 800f3f8:	008004c4 	movi	r2,19
 800f3fc:	11800b2e 	bgeu	r2,r6,800f42c <_calloc_r+0x80>
 800f400:	80000015 	stw	zero,0(r16)
 800f404:	80000115 	stw	zero,4(r16)
 800f408:	008006c4 	movi	r2,27
 800f40c:	11801a2e 	bgeu	r2,r6,800f478 <_calloc_r+0xcc>
 800f410:	80000215 	stw	zero,8(r16)
 800f414:	80000315 	stw	zero,12(r16)
 800f418:	30c0151e 	bne	r6,r3,800f470 <_calloc_r+0xc4>
 800f41c:	80000415 	stw	zero,16(r16)
 800f420:	80800604 	addi	r2,r16,24
 800f424:	80000515 	stw	zero,20(r16)
 800f428:	00000106 	br	800f430 <_calloc_r+0x84>
 800f42c:	8005883a 	mov	r2,r16
 800f430:	10000015 	stw	zero,0(r2)
 800f434:	10000115 	stw	zero,4(r2)
 800f438:	10000215 	stw	zero,8(r2)
 800f43c:	8005883a 	mov	r2,r16
 800f440:	dfc00117 	ldw	ra,4(sp)
 800f444:	dc000017 	ldw	r16,0(sp)
 800f448:	dec00204 	addi	sp,sp,8
 800f44c:	f800283a 	ret
 800f450:	000b883a 	mov	r5,zero
 800f454:	8009883a 	mov	r4,r16
 800f458:	800c1dc0 	call	800c1dc <memset>
 800f45c:	8005883a 	mov	r2,r16
 800f460:	dfc00117 	ldw	ra,4(sp)
 800f464:	dc000017 	ldw	r16,0(sp)
 800f468:	dec00204 	addi	sp,sp,8
 800f46c:	f800283a 	ret
 800f470:	80800404 	addi	r2,r16,16
 800f474:	003fee06 	br	800f430 <__alt_data_end+0xf800f430>
 800f478:	80800204 	addi	r2,r16,8
 800f47c:	003fec06 	br	800f430 <__alt_data_end+0xf800f430>
 800f480:	0005883a 	mov	r2,zero
 800f484:	003fee06 	br	800f440 <__alt_data_end+0xf800f440>

0800f488 <_fclose_r>:
 800f488:	28003926 	beq	r5,zero,800f570 <_fclose_r+0xe8>
 800f48c:	defffc04 	addi	sp,sp,-16
 800f490:	dc400115 	stw	r17,4(sp)
 800f494:	dc000015 	stw	r16,0(sp)
 800f498:	dfc00315 	stw	ra,12(sp)
 800f49c:	dc800215 	stw	r18,8(sp)
 800f4a0:	2023883a 	mov	r17,r4
 800f4a4:	2821883a 	mov	r16,r5
 800f4a8:	20000226 	beq	r4,zero,800f4b4 <_fclose_r+0x2c>
 800f4ac:	20800e17 	ldw	r2,56(r4)
 800f4b0:	10002726 	beq	r2,zero,800f550 <_fclose_r+0xc8>
 800f4b4:	8080030f 	ldh	r2,12(r16)
 800f4b8:	1000071e 	bne	r2,zero,800f4d8 <_fclose_r+0x50>
 800f4bc:	0005883a 	mov	r2,zero
 800f4c0:	dfc00317 	ldw	ra,12(sp)
 800f4c4:	dc800217 	ldw	r18,8(sp)
 800f4c8:	dc400117 	ldw	r17,4(sp)
 800f4cc:	dc000017 	ldw	r16,0(sp)
 800f4d0:	dec00404 	addi	sp,sp,16
 800f4d4:	f800283a 	ret
 800f4d8:	800b883a 	mov	r5,r16
 800f4dc:	8809883a 	mov	r4,r17
 800f4e0:	800a2d40 	call	800a2d4 <__sflush_r>
 800f4e4:	1025883a 	mov	r18,r2
 800f4e8:	80800b17 	ldw	r2,44(r16)
 800f4ec:	10000426 	beq	r2,zero,800f500 <_fclose_r+0x78>
 800f4f0:	81400717 	ldw	r5,28(r16)
 800f4f4:	8809883a 	mov	r4,r17
 800f4f8:	103ee83a 	callr	r2
 800f4fc:	10001616 	blt	r2,zero,800f558 <_fclose_r+0xd0>
 800f500:	8080030b 	ldhu	r2,12(r16)
 800f504:	1080200c 	andi	r2,r2,128
 800f508:	1000151e 	bne	r2,zero,800f560 <_fclose_r+0xd8>
 800f50c:	81400c17 	ldw	r5,48(r16)
 800f510:	28000526 	beq	r5,zero,800f528 <_fclose_r+0xa0>
 800f514:	80801004 	addi	r2,r16,64
 800f518:	28800226 	beq	r5,r2,800f524 <_fclose_r+0x9c>
 800f51c:	8809883a 	mov	r4,r17
 800f520:	800aa500 	call	800aa50 <_free_r>
 800f524:	80000c15 	stw	zero,48(r16)
 800f528:	81401117 	ldw	r5,68(r16)
 800f52c:	28000326 	beq	r5,zero,800f53c <_fclose_r+0xb4>
 800f530:	8809883a 	mov	r4,r17
 800f534:	800aa500 	call	800aa50 <_free_r>
 800f538:	80001115 	stw	zero,68(r16)
 800f53c:	800a8ec0 	call	800a8ec <__sfp_lock_acquire>
 800f540:	8000030d 	sth	zero,12(r16)
 800f544:	800a8f00 	call	800a8f0 <__sfp_lock_release>
 800f548:	9005883a 	mov	r2,r18
 800f54c:	003fdc06 	br	800f4c0 <__alt_data_end+0xf800f4c0>
 800f550:	800a8dc0 	call	800a8dc <__sinit>
 800f554:	003fd706 	br	800f4b4 <__alt_data_end+0xf800f4b4>
 800f558:	04bfffc4 	movi	r18,-1
 800f55c:	003fe806 	br	800f500 <__alt_data_end+0xf800f500>
 800f560:	81400417 	ldw	r5,16(r16)
 800f564:	8809883a 	mov	r4,r17
 800f568:	800aa500 	call	800aa50 <_free_r>
 800f56c:	003fe706 	br	800f50c <__alt_data_end+0xf800f50c>
 800f570:	0005883a 	mov	r2,zero
 800f574:	f800283a 	ret

0800f578 <fclose>:
 800f578:	00820074 	movhi	r2,2049
 800f57c:	109b0804 	addi	r2,r2,27680
 800f580:	200b883a 	mov	r5,r4
 800f584:	11000017 	ldw	r4,0(r2)
 800f588:	800f4881 	jmpi	800f488 <_fclose_r>

0800f58c <__fputwc>:
 800f58c:	defff804 	addi	sp,sp,-32
 800f590:	dcc00415 	stw	r19,16(sp)
 800f594:	dc800315 	stw	r18,12(sp)
 800f598:	dc000115 	stw	r16,4(sp)
 800f59c:	dfc00715 	stw	ra,28(sp)
 800f5a0:	dd400615 	stw	r21,24(sp)
 800f5a4:	dd000515 	stw	r20,20(sp)
 800f5a8:	dc400215 	stw	r17,8(sp)
 800f5ac:	2027883a 	mov	r19,r4
 800f5b0:	2825883a 	mov	r18,r5
 800f5b4:	3021883a 	mov	r16,r6
 800f5b8:	800b4380 	call	800b438 <__locale_mb_cur_max>
 800f5bc:	00c00044 	movi	r3,1
 800f5c0:	10c03e26 	beq	r2,r3,800f6bc <__fputwc+0x130>
 800f5c4:	81c01704 	addi	r7,r16,92
 800f5c8:	900d883a 	mov	r6,r18
 800f5cc:	d80b883a 	mov	r5,sp
 800f5d0:	9809883a 	mov	r4,r19
 800f5d4:	800fa5c0 	call	800fa5c <_wcrtomb_r>
 800f5d8:	1029883a 	mov	r20,r2
 800f5dc:	00bfffc4 	movi	r2,-1
 800f5e0:	a0802026 	beq	r20,r2,800f664 <__fputwc+0xd8>
 800f5e4:	d9400003 	ldbu	r5,0(sp)
 800f5e8:	a0001c26 	beq	r20,zero,800f65c <__fputwc+0xd0>
 800f5ec:	0023883a 	mov	r17,zero
 800f5f0:	05400284 	movi	r21,10
 800f5f4:	00000906 	br	800f61c <__fputwc+0x90>
 800f5f8:	80800017 	ldw	r2,0(r16)
 800f5fc:	11400005 	stb	r5,0(r2)
 800f600:	80c00017 	ldw	r3,0(r16)
 800f604:	18c00044 	addi	r3,r3,1
 800f608:	80c00015 	stw	r3,0(r16)
 800f60c:	8c400044 	addi	r17,r17,1
 800f610:	dc45883a 	add	r2,sp,r17
 800f614:	8d00112e 	bgeu	r17,r20,800f65c <__fputwc+0xd0>
 800f618:	11400003 	ldbu	r5,0(r2)
 800f61c:	80c00217 	ldw	r3,8(r16)
 800f620:	18ffffc4 	addi	r3,r3,-1
 800f624:	80c00215 	stw	r3,8(r16)
 800f628:	183ff30e 	bge	r3,zero,800f5f8 <__alt_data_end+0xf800f5f8>
 800f62c:	80800617 	ldw	r2,24(r16)
 800f630:	18801916 	blt	r3,r2,800f698 <__fputwc+0x10c>
 800f634:	80800017 	ldw	r2,0(r16)
 800f638:	11400005 	stb	r5,0(r2)
 800f63c:	80800017 	ldw	r2,0(r16)
 800f640:	10c00003 	ldbu	r3,0(r2)
 800f644:	10800044 	addi	r2,r2,1
 800f648:	1d402326 	beq	r3,r21,800f6d8 <__fputwc+0x14c>
 800f64c:	80800015 	stw	r2,0(r16)
 800f650:	8c400044 	addi	r17,r17,1
 800f654:	dc45883a 	add	r2,sp,r17
 800f658:	8d3fef36 	bltu	r17,r20,800f618 <__alt_data_end+0xf800f618>
 800f65c:	9005883a 	mov	r2,r18
 800f660:	00000406 	br	800f674 <__fputwc+0xe8>
 800f664:	80c0030b 	ldhu	r3,12(r16)
 800f668:	a005883a 	mov	r2,r20
 800f66c:	18c01014 	ori	r3,r3,64
 800f670:	80c0030d 	sth	r3,12(r16)
 800f674:	dfc00717 	ldw	ra,28(sp)
 800f678:	dd400617 	ldw	r21,24(sp)
 800f67c:	dd000517 	ldw	r20,20(sp)
 800f680:	dcc00417 	ldw	r19,16(sp)
 800f684:	dc800317 	ldw	r18,12(sp)
 800f688:	dc400217 	ldw	r17,8(sp)
 800f68c:	dc000117 	ldw	r16,4(sp)
 800f690:	dec00804 	addi	sp,sp,32
 800f694:	f800283a 	ret
 800f698:	800d883a 	mov	r6,r16
 800f69c:	29403fcc 	andi	r5,r5,255
 800f6a0:	9809883a 	mov	r4,r19
 800f6a4:	800f9040 	call	800f904 <__swbuf_r>
 800f6a8:	10bfffe0 	cmpeqi	r2,r2,-1
 800f6ac:	10803fcc 	andi	r2,r2,255
 800f6b0:	103fd626 	beq	r2,zero,800f60c <__alt_data_end+0xf800f60c>
 800f6b4:	00bfffc4 	movi	r2,-1
 800f6b8:	003fee06 	br	800f674 <__alt_data_end+0xf800f674>
 800f6bc:	90ffffc4 	addi	r3,r18,-1
 800f6c0:	01003f84 	movi	r4,254
 800f6c4:	20ffbf36 	bltu	r4,r3,800f5c4 <__alt_data_end+0xf800f5c4>
 800f6c8:	900b883a 	mov	r5,r18
 800f6cc:	dc800005 	stb	r18,0(sp)
 800f6d0:	1029883a 	mov	r20,r2
 800f6d4:	003fc506 	br	800f5ec <__alt_data_end+0xf800f5ec>
 800f6d8:	800d883a 	mov	r6,r16
 800f6dc:	a80b883a 	mov	r5,r21
 800f6e0:	9809883a 	mov	r4,r19
 800f6e4:	800f9040 	call	800f904 <__swbuf_r>
 800f6e8:	10bfffe0 	cmpeqi	r2,r2,-1
 800f6ec:	003fef06 	br	800f6ac <__alt_data_end+0xf800f6ac>

0800f6f0 <_fputwc_r>:
 800f6f0:	3080030b 	ldhu	r2,12(r6)
 800f6f4:	10c8000c 	andi	r3,r2,8192
 800f6f8:	1800051e 	bne	r3,zero,800f710 <_fputwc_r+0x20>
 800f6fc:	30c01917 	ldw	r3,100(r6)
 800f700:	10880014 	ori	r2,r2,8192
 800f704:	3080030d 	sth	r2,12(r6)
 800f708:	18880014 	ori	r2,r3,8192
 800f70c:	30801915 	stw	r2,100(r6)
 800f710:	800f58c1 	jmpi	800f58c <__fputwc>

0800f714 <fputwc>:
 800f714:	00820074 	movhi	r2,2049
 800f718:	defffc04 	addi	sp,sp,-16
 800f71c:	109b0804 	addi	r2,r2,27680
 800f720:	dc000115 	stw	r16,4(sp)
 800f724:	14000017 	ldw	r16,0(r2)
 800f728:	dc400215 	stw	r17,8(sp)
 800f72c:	dfc00315 	stw	ra,12(sp)
 800f730:	2023883a 	mov	r17,r4
 800f734:	80000226 	beq	r16,zero,800f740 <fputwc+0x2c>
 800f738:	80800e17 	ldw	r2,56(r16)
 800f73c:	10001026 	beq	r2,zero,800f780 <fputwc+0x6c>
 800f740:	2880030b 	ldhu	r2,12(r5)
 800f744:	10c8000c 	andi	r3,r2,8192
 800f748:	1800051e 	bne	r3,zero,800f760 <fputwc+0x4c>
 800f74c:	28c01917 	ldw	r3,100(r5)
 800f750:	10880014 	ori	r2,r2,8192
 800f754:	2880030d 	sth	r2,12(r5)
 800f758:	18880014 	ori	r2,r3,8192
 800f75c:	28801915 	stw	r2,100(r5)
 800f760:	280d883a 	mov	r6,r5
 800f764:	8009883a 	mov	r4,r16
 800f768:	880b883a 	mov	r5,r17
 800f76c:	dfc00317 	ldw	ra,12(sp)
 800f770:	dc400217 	ldw	r17,8(sp)
 800f774:	dc000117 	ldw	r16,4(sp)
 800f778:	dec00404 	addi	sp,sp,16
 800f77c:	800f58c1 	jmpi	800f58c <__fputwc>
 800f780:	8009883a 	mov	r4,r16
 800f784:	d9400015 	stw	r5,0(sp)
 800f788:	800a8dc0 	call	800a8dc <__sinit>
 800f78c:	d9400017 	ldw	r5,0(sp)
 800f790:	003feb06 	br	800f740 <__alt_data_end+0xf800f740>

0800f794 <_fstat_r>:
 800f794:	defffd04 	addi	sp,sp,-12
 800f798:	2805883a 	mov	r2,r5
 800f79c:	dc000015 	stw	r16,0(sp)
 800f7a0:	040200b4 	movhi	r16,2050
 800f7a4:	dc400115 	stw	r17,4(sp)
 800f7a8:	84220f04 	addi	r16,r16,-30660
 800f7ac:	2023883a 	mov	r17,r4
 800f7b0:	300b883a 	mov	r5,r6
 800f7b4:	1009883a 	mov	r4,r2
 800f7b8:	dfc00215 	stw	ra,8(sp)
 800f7bc:	80000015 	stw	zero,0(r16)
 800f7c0:	80125780 	call	8012578 <fstat>
 800f7c4:	00ffffc4 	movi	r3,-1
 800f7c8:	10c00526 	beq	r2,r3,800f7e0 <_fstat_r+0x4c>
 800f7cc:	dfc00217 	ldw	ra,8(sp)
 800f7d0:	dc400117 	ldw	r17,4(sp)
 800f7d4:	dc000017 	ldw	r16,0(sp)
 800f7d8:	dec00304 	addi	sp,sp,12
 800f7dc:	f800283a 	ret
 800f7e0:	80c00017 	ldw	r3,0(r16)
 800f7e4:	183ff926 	beq	r3,zero,800f7cc <__alt_data_end+0xf800f7cc>
 800f7e8:	88c00015 	stw	r3,0(r17)
 800f7ec:	003ff706 	br	800f7cc <__alt_data_end+0xf800f7cc>

0800f7f0 <_isatty_r>:
 800f7f0:	defffd04 	addi	sp,sp,-12
 800f7f4:	dc000015 	stw	r16,0(sp)
 800f7f8:	040200b4 	movhi	r16,2050
 800f7fc:	dc400115 	stw	r17,4(sp)
 800f800:	84220f04 	addi	r16,r16,-30660
 800f804:	2023883a 	mov	r17,r4
 800f808:	2809883a 	mov	r4,r5
 800f80c:	dfc00215 	stw	ra,8(sp)
 800f810:	80000015 	stw	zero,0(r16)
 800f814:	801266c0 	call	801266c <isatty>
 800f818:	00ffffc4 	movi	r3,-1
 800f81c:	10c00526 	beq	r2,r3,800f834 <_isatty_r+0x44>
 800f820:	dfc00217 	ldw	ra,8(sp)
 800f824:	dc400117 	ldw	r17,4(sp)
 800f828:	dc000017 	ldw	r16,0(sp)
 800f82c:	dec00304 	addi	sp,sp,12
 800f830:	f800283a 	ret
 800f834:	80c00017 	ldw	r3,0(r16)
 800f838:	183ff926 	beq	r3,zero,800f820 <__alt_data_end+0xf800f820>
 800f83c:	88c00015 	stw	r3,0(r17)
 800f840:	003ff706 	br	800f820 <__alt_data_end+0xf800f820>

0800f844 <_lseek_r>:
 800f844:	defffd04 	addi	sp,sp,-12
 800f848:	2805883a 	mov	r2,r5
 800f84c:	dc000015 	stw	r16,0(sp)
 800f850:	040200b4 	movhi	r16,2050
 800f854:	dc400115 	stw	r17,4(sp)
 800f858:	300b883a 	mov	r5,r6
 800f85c:	84220f04 	addi	r16,r16,-30660
 800f860:	2023883a 	mov	r17,r4
 800f864:	380d883a 	mov	r6,r7
 800f868:	1009883a 	mov	r4,r2
 800f86c:	dfc00215 	stw	ra,8(sp)
 800f870:	80000015 	stw	zero,0(r16)
 800f874:	80128400 	call	8012840 <lseek>
 800f878:	00ffffc4 	movi	r3,-1
 800f87c:	10c00526 	beq	r2,r3,800f894 <_lseek_r+0x50>
 800f880:	dfc00217 	ldw	ra,8(sp)
 800f884:	dc400117 	ldw	r17,4(sp)
 800f888:	dc000017 	ldw	r16,0(sp)
 800f88c:	dec00304 	addi	sp,sp,12
 800f890:	f800283a 	ret
 800f894:	80c00017 	ldw	r3,0(r16)
 800f898:	183ff926 	beq	r3,zero,800f880 <__alt_data_end+0xf800f880>
 800f89c:	88c00015 	stw	r3,0(r17)
 800f8a0:	003ff706 	br	800f880 <__alt_data_end+0xf800f880>

0800f8a4 <_read_r>:
 800f8a4:	defffd04 	addi	sp,sp,-12
 800f8a8:	2805883a 	mov	r2,r5
 800f8ac:	dc000015 	stw	r16,0(sp)
 800f8b0:	040200b4 	movhi	r16,2050
 800f8b4:	dc400115 	stw	r17,4(sp)
 800f8b8:	300b883a 	mov	r5,r6
 800f8bc:	84220f04 	addi	r16,r16,-30660
 800f8c0:	2023883a 	mov	r17,r4
 800f8c4:	380d883a 	mov	r6,r7
 800f8c8:	1009883a 	mov	r4,r2
 800f8cc:	dfc00215 	stw	ra,8(sp)
 800f8d0:	80000015 	stw	zero,0(r16)
 800f8d4:	8012a1c0 	call	8012a1c <read>
 800f8d8:	00ffffc4 	movi	r3,-1
 800f8dc:	10c00526 	beq	r2,r3,800f8f4 <_read_r+0x50>
 800f8e0:	dfc00217 	ldw	ra,8(sp)
 800f8e4:	dc400117 	ldw	r17,4(sp)
 800f8e8:	dc000017 	ldw	r16,0(sp)
 800f8ec:	dec00304 	addi	sp,sp,12
 800f8f0:	f800283a 	ret
 800f8f4:	80c00017 	ldw	r3,0(r16)
 800f8f8:	183ff926 	beq	r3,zero,800f8e0 <__alt_data_end+0xf800f8e0>
 800f8fc:	88c00015 	stw	r3,0(r17)
 800f900:	003ff706 	br	800f8e0 <__alt_data_end+0xf800f8e0>

0800f904 <__swbuf_r>:
 800f904:	defffb04 	addi	sp,sp,-20
 800f908:	dcc00315 	stw	r19,12(sp)
 800f90c:	dc800215 	stw	r18,8(sp)
 800f910:	dc000015 	stw	r16,0(sp)
 800f914:	dfc00415 	stw	ra,16(sp)
 800f918:	dc400115 	stw	r17,4(sp)
 800f91c:	2025883a 	mov	r18,r4
 800f920:	2827883a 	mov	r19,r5
 800f924:	3021883a 	mov	r16,r6
 800f928:	20000226 	beq	r4,zero,800f934 <__swbuf_r+0x30>
 800f92c:	20800e17 	ldw	r2,56(r4)
 800f930:	10004226 	beq	r2,zero,800fa3c <__swbuf_r+0x138>
 800f934:	80800617 	ldw	r2,24(r16)
 800f938:	8100030b 	ldhu	r4,12(r16)
 800f93c:	80800215 	stw	r2,8(r16)
 800f940:	2080020c 	andi	r2,r4,8
 800f944:	10003626 	beq	r2,zero,800fa20 <__swbuf_r+0x11c>
 800f948:	80c00417 	ldw	r3,16(r16)
 800f94c:	18003426 	beq	r3,zero,800fa20 <__swbuf_r+0x11c>
 800f950:	2088000c 	andi	r2,r4,8192
 800f954:	9c403fcc 	andi	r17,r19,255
 800f958:	10001a26 	beq	r2,zero,800f9c4 <__swbuf_r+0xc0>
 800f95c:	80800017 	ldw	r2,0(r16)
 800f960:	81000517 	ldw	r4,20(r16)
 800f964:	10c7c83a 	sub	r3,r2,r3
 800f968:	1900200e 	bge	r3,r4,800f9ec <__swbuf_r+0xe8>
 800f96c:	18c00044 	addi	r3,r3,1
 800f970:	81000217 	ldw	r4,8(r16)
 800f974:	11400044 	addi	r5,r2,1
 800f978:	81400015 	stw	r5,0(r16)
 800f97c:	213fffc4 	addi	r4,r4,-1
 800f980:	81000215 	stw	r4,8(r16)
 800f984:	14c00005 	stb	r19,0(r2)
 800f988:	80800517 	ldw	r2,20(r16)
 800f98c:	10c01e26 	beq	r2,r3,800fa08 <__swbuf_r+0x104>
 800f990:	8080030b 	ldhu	r2,12(r16)
 800f994:	1080004c 	andi	r2,r2,1
 800f998:	10000226 	beq	r2,zero,800f9a4 <__swbuf_r+0xa0>
 800f99c:	00800284 	movi	r2,10
 800f9a0:	88801926 	beq	r17,r2,800fa08 <__swbuf_r+0x104>
 800f9a4:	8805883a 	mov	r2,r17
 800f9a8:	dfc00417 	ldw	ra,16(sp)
 800f9ac:	dcc00317 	ldw	r19,12(sp)
 800f9b0:	dc800217 	ldw	r18,8(sp)
 800f9b4:	dc400117 	ldw	r17,4(sp)
 800f9b8:	dc000017 	ldw	r16,0(sp)
 800f9bc:	dec00504 	addi	sp,sp,20
 800f9c0:	f800283a 	ret
 800f9c4:	81401917 	ldw	r5,100(r16)
 800f9c8:	00b7ffc4 	movi	r2,-8193
 800f9cc:	21080014 	ori	r4,r4,8192
 800f9d0:	2884703a 	and	r2,r5,r2
 800f9d4:	80801915 	stw	r2,100(r16)
 800f9d8:	80800017 	ldw	r2,0(r16)
 800f9dc:	8100030d 	sth	r4,12(r16)
 800f9e0:	81000517 	ldw	r4,20(r16)
 800f9e4:	10c7c83a 	sub	r3,r2,r3
 800f9e8:	193fe016 	blt	r3,r4,800f96c <__alt_data_end+0xf800f96c>
 800f9ec:	800b883a 	mov	r5,r16
 800f9f0:	9009883a 	mov	r4,r18
 800f9f4:	800a4f00 	call	800a4f0 <_fflush_r>
 800f9f8:	1000071e 	bne	r2,zero,800fa18 <__swbuf_r+0x114>
 800f9fc:	80800017 	ldw	r2,0(r16)
 800fa00:	00c00044 	movi	r3,1
 800fa04:	003fda06 	br	800f970 <__alt_data_end+0xf800f970>
 800fa08:	800b883a 	mov	r5,r16
 800fa0c:	9009883a 	mov	r4,r18
 800fa10:	800a4f00 	call	800a4f0 <_fflush_r>
 800fa14:	103fe326 	beq	r2,zero,800f9a4 <__alt_data_end+0xf800f9a4>
 800fa18:	00bfffc4 	movi	r2,-1
 800fa1c:	003fe206 	br	800f9a8 <__alt_data_end+0xf800f9a8>
 800fa20:	800b883a 	mov	r5,r16
 800fa24:	9009883a 	mov	r4,r18
 800fa28:	80088d00 	call	80088d0 <__swsetup_r>
 800fa2c:	103ffa1e 	bne	r2,zero,800fa18 <__alt_data_end+0xf800fa18>
 800fa30:	8100030b 	ldhu	r4,12(r16)
 800fa34:	80c00417 	ldw	r3,16(r16)
 800fa38:	003fc506 	br	800f950 <__alt_data_end+0xf800f950>
 800fa3c:	800a8dc0 	call	800a8dc <__sinit>
 800fa40:	003fbc06 	br	800f934 <__alt_data_end+0xf800f934>

0800fa44 <__swbuf>:
 800fa44:	00820074 	movhi	r2,2049
 800fa48:	109b0804 	addi	r2,r2,27680
 800fa4c:	280d883a 	mov	r6,r5
 800fa50:	200b883a 	mov	r5,r4
 800fa54:	11000017 	ldw	r4,0(r2)
 800fa58:	800f9041 	jmpi	800f904 <__swbuf_r>

0800fa5c <_wcrtomb_r>:
 800fa5c:	defff604 	addi	sp,sp,-40
 800fa60:	00820074 	movhi	r2,2049
 800fa64:	dc800815 	stw	r18,32(sp)
 800fa68:	dc400715 	stw	r17,28(sp)
 800fa6c:	dc000615 	stw	r16,24(sp)
 800fa70:	109b0c04 	addi	r2,r2,27696
 800fa74:	dfc00915 	stw	ra,36(sp)
 800fa78:	2021883a 	mov	r16,r4
 800fa7c:	3823883a 	mov	r17,r7
 800fa80:	14800017 	ldw	r18,0(r2)
 800fa84:	28001426 	beq	r5,zero,800fad8 <_wcrtomb_r+0x7c>
 800fa88:	d9400415 	stw	r5,16(sp)
 800fa8c:	d9800515 	stw	r6,20(sp)
 800fa90:	800b42c0 	call	800b42c <__locale_charset>
 800fa94:	d9800517 	ldw	r6,20(sp)
 800fa98:	d9400417 	ldw	r5,16(sp)
 800fa9c:	100f883a 	mov	r7,r2
 800faa0:	dc400015 	stw	r17,0(sp)
 800faa4:	8009883a 	mov	r4,r16
 800faa8:	903ee83a 	callr	r18
 800faac:	00ffffc4 	movi	r3,-1
 800fab0:	10c0031e 	bne	r2,r3,800fac0 <_wcrtomb_r+0x64>
 800fab4:	88000015 	stw	zero,0(r17)
 800fab8:	00c02284 	movi	r3,138
 800fabc:	80c00015 	stw	r3,0(r16)
 800fac0:	dfc00917 	ldw	ra,36(sp)
 800fac4:	dc800817 	ldw	r18,32(sp)
 800fac8:	dc400717 	ldw	r17,28(sp)
 800facc:	dc000617 	ldw	r16,24(sp)
 800fad0:	dec00a04 	addi	sp,sp,40
 800fad4:	f800283a 	ret
 800fad8:	800b42c0 	call	800b42c <__locale_charset>
 800fadc:	100f883a 	mov	r7,r2
 800fae0:	dc400015 	stw	r17,0(sp)
 800fae4:	000d883a 	mov	r6,zero
 800fae8:	d9400104 	addi	r5,sp,4
 800faec:	8009883a 	mov	r4,r16
 800faf0:	903ee83a 	callr	r18
 800faf4:	003fed06 	br	800faac <__alt_data_end+0xf800faac>

0800faf8 <wcrtomb>:
 800faf8:	defff604 	addi	sp,sp,-40
 800fafc:	00820074 	movhi	r2,2049
 800fb00:	dc800615 	stw	r18,24(sp)
 800fb04:	dc400515 	stw	r17,20(sp)
 800fb08:	109b0804 	addi	r2,r2,27680
 800fb0c:	dfc00915 	stw	ra,36(sp)
 800fb10:	dd000815 	stw	r20,32(sp)
 800fb14:	dcc00715 	stw	r19,28(sp)
 800fb18:	dc000415 	stw	r16,16(sp)
 800fb1c:	3025883a 	mov	r18,r6
 800fb20:	14400017 	ldw	r17,0(r2)
 800fb24:	20001926 	beq	r4,zero,800fb8c <wcrtomb+0x94>
 800fb28:	00820074 	movhi	r2,2049
 800fb2c:	109b0c04 	addi	r2,r2,27696
 800fb30:	15000017 	ldw	r20,0(r2)
 800fb34:	2021883a 	mov	r16,r4
 800fb38:	2827883a 	mov	r19,r5
 800fb3c:	800b42c0 	call	800b42c <__locale_charset>
 800fb40:	100f883a 	mov	r7,r2
 800fb44:	dc800015 	stw	r18,0(sp)
 800fb48:	980d883a 	mov	r6,r19
 800fb4c:	800b883a 	mov	r5,r16
 800fb50:	8809883a 	mov	r4,r17
 800fb54:	a03ee83a 	callr	r20
 800fb58:	00ffffc4 	movi	r3,-1
 800fb5c:	10c0031e 	bne	r2,r3,800fb6c <wcrtomb+0x74>
 800fb60:	90000015 	stw	zero,0(r18)
 800fb64:	00c02284 	movi	r3,138
 800fb68:	88c00015 	stw	r3,0(r17)
 800fb6c:	dfc00917 	ldw	ra,36(sp)
 800fb70:	dd000817 	ldw	r20,32(sp)
 800fb74:	dcc00717 	ldw	r19,28(sp)
 800fb78:	dc800617 	ldw	r18,24(sp)
 800fb7c:	dc400517 	ldw	r17,20(sp)
 800fb80:	dc000417 	ldw	r16,16(sp)
 800fb84:	dec00a04 	addi	sp,sp,40
 800fb88:	f800283a 	ret
 800fb8c:	00820074 	movhi	r2,2049
 800fb90:	109b0c04 	addi	r2,r2,27696
 800fb94:	14000017 	ldw	r16,0(r2)
 800fb98:	800b42c0 	call	800b42c <__locale_charset>
 800fb9c:	100f883a 	mov	r7,r2
 800fba0:	dc800015 	stw	r18,0(sp)
 800fba4:	000d883a 	mov	r6,zero
 800fba8:	d9400104 	addi	r5,sp,4
 800fbac:	8809883a 	mov	r4,r17
 800fbb0:	803ee83a 	callr	r16
 800fbb4:	003fe806 	br	800fb58 <__alt_data_end+0xf800fb58>

0800fbb8 <__ascii_wctomb>:
 800fbb8:	28000526 	beq	r5,zero,800fbd0 <__ascii_wctomb+0x18>
 800fbbc:	00803fc4 	movi	r2,255
 800fbc0:	11800536 	bltu	r2,r6,800fbd8 <__ascii_wctomb+0x20>
 800fbc4:	29800005 	stb	r6,0(r5)
 800fbc8:	00800044 	movi	r2,1
 800fbcc:	f800283a 	ret
 800fbd0:	0005883a 	mov	r2,zero
 800fbd4:	f800283a 	ret
 800fbd8:	00802284 	movi	r2,138
 800fbdc:	20800015 	stw	r2,0(r4)
 800fbe0:	00bfffc4 	movi	r2,-1
 800fbe4:	f800283a 	ret

0800fbe8 <_wctomb_r>:
 800fbe8:	00820074 	movhi	r2,2049
 800fbec:	defff904 	addi	sp,sp,-28
 800fbf0:	109b0c04 	addi	r2,r2,27696
 800fbf4:	dfc00615 	stw	ra,24(sp)
 800fbf8:	dc400515 	stw	r17,20(sp)
 800fbfc:	dc000415 	stw	r16,16(sp)
 800fc00:	3823883a 	mov	r17,r7
 800fc04:	14000017 	ldw	r16,0(r2)
 800fc08:	d9000115 	stw	r4,4(sp)
 800fc0c:	d9400215 	stw	r5,8(sp)
 800fc10:	d9800315 	stw	r6,12(sp)
 800fc14:	800b42c0 	call	800b42c <__locale_charset>
 800fc18:	d9800317 	ldw	r6,12(sp)
 800fc1c:	d9400217 	ldw	r5,8(sp)
 800fc20:	d9000117 	ldw	r4,4(sp)
 800fc24:	100f883a 	mov	r7,r2
 800fc28:	dc400015 	stw	r17,0(sp)
 800fc2c:	803ee83a 	callr	r16
 800fc30:	dfc00617 	ldw	ra,24(sp)
 800fc34:	dc400517 	ldw	r17,20(sp)
 800fc38:	dc000417 	ldw	r16,16(sp)
 800fc3c:	dec00704 	addi	sp,sp,28
 800fc40:	f800283a 	ret

0800fc44 <__udivdi3>:
 800fc44:	defff404 	addi	sp,sp,-48
 800fc48:	dcc00515 	stw	r19,20(sp)
 800fc4c:	dc000215 	stw	r16,8(sp)
 800fc50:	dfc00b15 	stw	ra,44(sp)
 800fc54:	df000a15 	stw	fp,40(sp)
 800fc58:	ddc00915 	stw	r23,36(sp)
 800fc5c:	dd800815 	stw	r22,32(sp)
 800fc60:	dd400715 	stw	r21,28(sp)
 800fc64:	dd000615 	stw	r20,24(sp)
 800fc68:	dc800415 	stw	r18,16(sp)
 800fc6c:	dc400315 	stw	r17,12(sp)
 800fc70:	2027883a 	mov	r19,r4
 800fc74:	2821883a 	mov	r16,r5
 800fc78:	3800461e 	bne	r7,zero,800fd94 <__udivdi3+0x150>
 800fc7c:	3023883a 	mov	r17,r6
 800fc80:	2025883a 	mov	r18,r4
 800fc84:	2980572e 	bgeu	r5,r6,800fde4 <__udivdi3+0x1a0>
 800fc88:	00bfffd4 	movui	r2,65535
 800fc8c:	282d883a 	mov	r22,r5
 800fc90:	1180b236 	bltu	r2,r6,800ff5c <__udivdi3+0x318>
 800fc94:	00803fc4 	movi	r2,255
 800fc98:	1185803a 	cmpltu	r2,r2,r6
 800fc9c:	100490fa 	slli	r2,r2,3
 800fca0:	3086d83a 	srl	r3,r6,r2
 800fca4:	01020074 	movhi	r4,2049
 800fca8:	21137244 	addi	r4,r4,19913
 800fcac:	20c7883a 	add	r3,r4,r3
 800fcb0:	18c00003 	ldbu	r3,0(r3)
 800fcb4:	1885883a 	add	r2,r3,r2
 800fcb8:	00c00804 	movi	r3,32
 800fcbc:	1887c83a 	sub	r3,r3,r2
 800fcc0:	18000526 	beq	r3,zero,800fcd8 <__udivdi3+0x94>
 800fcc4:	80e0983a 	sll	r16,r16,r3
 800fcc8:	9884d83a 	srl	r2,r19,r2
 800fccc:	30e2983a 	sll	r17,r6,r3
 800fcd0:	98e4983a 	sll	r18,r19,r3
 800fcd4:	142cb03a 	or	r22,r2,r16
 800fcd8:	882ad43a 	srli	r21,r17,16
 800fcdc:	b009883a 	mov	r4,r22
 800fce0:	8d3fffcc 	andi	r20,r17,65535
 800fce4:	a80b883a 	mov	r5,r21
 800fce8:	80062980 	call	8006298 <__umodsi3>
 800fcec:	b009883a 	mov	r4,r22
 800fcf0:	a80b883a 	mov	r5,r21
 800fcf4:	1027883a 	mov	r19,r2
 800fcf8:	80062340 	call	8006234 <__udivsi3>
 800fcfc:	100b883a 	mov	r5,r2
 800fd00:	a009883a 	mov	r4,r20
 800fd04:	102d883a 	mov	r22,r2
 800fd08:	80054680 	call	8005468 <__mulsi3>
 800fd0c:	9826943a 	slli	r19,r19,16
 800fd10:	9006d43a 	srli	r3,r18,16
 800fd14:	1cc6b03a 	or	r3,r3,r19
 800fd18:	1880052e 	bgeu	r3,r2,800fd30 <__udivdi3+0xec>
 800fd1c:	1c47883a 	add	r3,r3,r17
 800fd20:	b13fffc4 	addi	r4,r22,-1
 800fd24:	1c400136 	bltu	r3,r17,800fd2c <__udivdi3+0xe8>
 800fd28:	18814236 	bltu	r3,r2,8010234 <__udivdi3+0x5f0>
 800fd2c:	202d883a 	mov	r22,r4
 800fd30:	18a1c83a 	sub	r16,r3,r2
 800fd34:	8009883a 	mov	r4,r16
 800fd38:	a80b883a 	mov	r5,r21
 800fd3c:	80062980 	call	8006298 <__umodsi3>
 800fd40:	1027883a 	mov	r19,r2
 800fd44:	8009883a 	mov	r4,r16
 800fd48:	a80b883a 	mov	r5,r21
 800fd4c:	9826943a 	slli	r19,r19,16
 800fd50:	80062340 	call	8006234 <__udivsi3>
 800fd54:	100b883a 	mov	r5,r2
 800fd58:	a009883a 	mov	r4,r20
 800fd5c:	94bfffcc 	andi	r18,r18,65535
 800fd60:	1021883a 	mov	r16,r2
 800fd64:	94e4b03a 	or	r18,r18,r19
 800fd68:	80054680 	call	8005468 <__mulsi3>
 800fd6c:	9080052e 	bgeu	r18,r2,800fd84 <__udivdi3+0x140>
 800fd70:	8ca5883a 	add	r18,r17,r18
 800fd74:	80ffffc4 	addi	r3,r16,-1
 800fd78:	94410c36 	bltu	r18,r17,80101ac <__udivdi3+0x568>
 800fd7c:	90810b2e 	bgeu	r18,r2,80101ac <__udivdi3+0x568>
 800fd80:	843fff84 	addi	r16,r16,-2
 800fd84:	b004943a 	slli	r2,r22,16
 800fd88:	0007883a 	mov	r3,zero
 800fd8c:	1404b03a 	or	r2,r2,r16
 800fd90:	00005e06 	br	800ff0c <__udivdi3+0x2c8>
 800fd94:	29c05b36 	bltu	r5,r7,800ff04 <__udivdi3+0x2c0>
 800fd98:	00bfffd4 	movui	r2,65535
 800fd9c:	11c0672e 	bgeu	r2,r7,800ff3c <__udivdi3+0x2f8>
 800fda0:	00804034 	movhi	r2,256
 800fda4:	10bfffc4 	addi	r2,r2,-1
 800fda8:	11c10a36 	bltu	r2,r7,80101d4 <__udivdi3+0x590>
 800fdac:	00800404 	movi	r2,16
 800fdb0:	3886d83a 	srl	r3,r7,r2
 800fdb4:	01020074 	movhi	r4,2049
 800fdb8:	21137244 	addi	r4,r4,19913
 800fdbc:	20c7883a 	add	r3,r4,r3
 800fdc0:	18c00003 	ldbu	r3,0(r3)
 800fdc4:	05c00804 	movi	r23,32
 800fdc8:	1885883a 	add	r2,r3,r2
 800fdcc:	b8afc83a 	sub	r23,r23,r2
 800fdd0:	b800671e 	bne	r23,zero,800ff70 <__udivdi3+0x32c>
 800fdd4:	3c010536 	bltu	r7,r16,80101ec <__udivdi3+0x5a8>
 800fdd8:	9985403a 	cmpgeu	r2,r19,r6
 800fddc:	0007883a 	mov	r3,zero
 800fde0:	00004a06 	br	800ff0c <__udivdi3+0x2c8>
 800fde4:	3000041e 	bne	r6,zero,800fdf8 <__udivdi3+0x1b4>
 800fde8:	000b883a 	mov	r5,zero
 800fdec:	01000044 	movi	r4,1
 800fdf0:	80062340 	call	8006234 <__udivsi3>
 800fdf4:	1023883a 	mov	r17,r2
 800fdf8:	00bfffd4 	movui	r2,65535
 800fdfc:	1440532e 	bgeu	r2,r17,800ff4c <__udivdi3+0x308>
 800fe00:	00804034 	movhi	r2,256
 800fe04:	10bfffc4 	addi	r2,r2,-1
 800fe08:	1440f436 	bltu	r2,r17,80101dc <__udivdi3+0x598>
 800fe0c:	00800404 	movi	r2,16
 800fe10:	8886d83a 	srl	r3,r17,r2
 800fe14:	01020074 	movhi	r4,2049
 800fe18:	21137244 	addi	r4,r4,19913
 800fe1c:	20c7883a 	add	r3,r4,r3
 800fe20:	18c00003 	ldbu	r3,0(r3)
 800fe24:	1885883a 	add	r2,r3,r2
 800fe28:	00c00804 	movi	r3,32
 800fe2c:	1887c83a 	sub	r3,r3,r2
 800fe30:	1800a51e 	bne	r3,zero,80100c8 <__udivdi3+0x484>
 800fe34:	882ad43a 	srli	r21,r17,16
 800fe38:	8461c83a 	sub	r16,r16,r17
 800fe3c:	8d3fffcc 	andi	r20,r17,65535
 800fe40:	00c00044 	movi	r3,1
 800fe44:	a80b883a 	mov	r5,r21
 800fe48:	8009883a 	mov	r4,r16
 800fe4c:	d8c00115 	stw	r3,4(sp)
 800fe50:	80062980 	call	8006298 <__umodsi3>
 800fe54:	a80b883a 	mov	r5,r21
 800fe58:	8009883a 	mov	r4,r16
 800fe5c:	1027883a 	mov	r19,r2
 800fe60:	80062340 	call	8006234 <__udivsi3>
 800fe64:	a00b883a 	mov	r5,r20
 800fe68:	1009883a 	mov	r4,r2
 800fe6c:	102d883a 	mov	r22,r2
 800fe70:	80054680 	call	8005468 <__mulsi3>
 800fe74:	9826943a 	slli	r19,r19,16
 800fe78:	900ed43a 	srli	r7,r18,16
 800fe7c:	d8c00117 	ldw	r3,4(sp)
 800fe80:	3cceb03a 	or	r7,r7,r19
 800fe84:	3880052e 	bgeu	r7,r2,800fe9c <__udivdi3+0x258>
 800fe88:	3c4f883a 	add	r7,r7,r17
 800fe8c:	b13fffc4 	addi	r4,r22,-1
 800fe90:	3c400136 	bltu	r7,r17,800fe98 <__udivdi3+0x254>
 800fe94:	3880e436 	bltu	r7,r2,8010228 <__udivdi3+0x5e4>
 800fe98:	202d883a 	mov	r22,r4
 800fe9c:	38a1c83a 	sub	r16,r7,r2
 800fea0:	8009883a 	mov	r4,r16
 800fea4:	a80b883a 	mov	r5,r21
 800fea8:	d8c00115 	stw	r3,4(sp)
 800feac:	80062980 	call	8006298 <__umodsi3>
 800feb0:	1027883a 	mov	r19,r2
 800feb4:	8009883a 	mov	r4,r16
 800feb8:	a80b883a 	mov	r5,r21
 800febc:	9826943a 	slli	r19,r19,16
 800fec0:	80062340 	call	8006234 <__udivsi3>
 800fec4:	a00b883a 	mov	r5,r20
 800fec8:	1009883a 	mov	r4,r2
 800fecc:	94bfffcc 	andi	r18,r18,65535
 800fed0:	1021883a 	mov	r16,r2
 800fed4:	94e4b03a 	or	r18,r18,r19
 800fed8:	80054680 	call	8005468 <__mulsi3>
 800fedc:	d8c00117 	ldw	r3,4(sp)
 800fee0:	9080052e 	bgeu	r18,r2,800fef8 <__udivdi3+0x2b4>
 800fee4:	8ca5883a 	add	r18,r17,r18
 800fee8:	813fffc4 	addi	r4,r16,-1
 800feec:	9440ad36 	bltu	r18,r17,80101a4 <__udivdi3+0x560>
 800fef0:	9080ac2e 	bgeu	r18,r2,80101a4 <__udivdi3+0x560>
 800fef4:	843fff84 	addi	r16,r16,-2
 800fef8:	b004943a 	slli	r2,r22,16
 800fefc:	1404b03a 	or	r2,r2,r16
 800ff00:	00000206 	br	800ff0c <__udivdi3+0x2c8>
 800ff04:	0007883a 	mov	r3,zero
 800ff08:	0005883a 	mov	r2,zero
 800ff0c:	dfc00b17 	ldw	ra,44(sp)
 800ff10:	df000a17 	ldw	fp,40(sp)
 800ff14:	ddc00917 	ldw	r23,36(sp)
 800ff18:	dd800817 	ldw	r22,32(sp)
 800ff1c:	dd400717 	ldw	r21,28(sp)
 800ff20:	dd000617 	ldw	r20,24(sp)
 800ff24:	dcc00517 	ldw	r19,20(sp)
 800ff28:	dc800417 	ldw	r18,16(sp)
 800ff2c:	dc400317 	ldw	r17,12(sp)
 800ff30:	dc000217 	ldw	r16,8(sp)
 800ff34:	dec00c04 	addi	sp,sp,48
 800ff38:	f800283a 	ret
 800ff3c:	00803fc4 	movi	r2,255
 800ff40:	11c5803a 	cmpltu	r2,r2,r7
 800ff44:	100490fa 	slli	r2,r2,3
 800ff48:	003f9906 	br	800fdb0 <__alt_data_end+0xf800fdb0>
 800ff4c:	00803fc4 	movi	r2,255
 800ff50:	1445803a 	cmpltu	r2,r2,r17
 800ff54:	100490fa 	slli	r2,r2,3
 800ff58:	003fad06 	br	800fe10 <__alt_data_end+0xf800fe10>
 800ff5c:	00804034 	movhi	r2,256
 800ff60:	10bfffc4 	addi	r2,r2,-1
 800ff64:	11809f36 	bltu	r2,r6,80101e4 <__udivdi3+0x5a0>
 800ff68:	00800404 	movi	r2,16
 800ff6c:	003f4c06 	br	800fca0 <__alt_data_end+0xf800fca0>
 800ff70:	3dce983a 	sll	r7,r7,r23
 800ff74:	30b8d83a 	srl	fp,r6,r2
 800ff78:	80a2d83a 	srl	r17,r16,r2
 800ff7c:	35cc983a 	sll	r6,r6,r23
 800ff80:	3f38b03a 	or	fp,r7,fp
 800ff84:	e024d43a 	srli	r18,fp,16
 800ff88:	9884d83a 	srl	r2,r19,r2
 800ff8c:	85e0983a 	sll	r16,r16,r23
 800ff90:	8809883a 	mov	r4,r17
 800ff94:	900b883a 	mov	r5,r18
 800ff98:	d9800015 	stw	r6,0(sp)
 800ff9c:	1420b03a 	or	r16,r2,r16
 800ffa0:	80062980 	call	8006298 <__umodsi3>
 800ffa4:	900b883a 	mov	r5,r18
 800ffa8:	8809883a 	mov	r4,r17
 800ffac:	1029883a 	mov	r20,r2
 800ffb0:	e5bfffcc 	andi	r22,fp,65535
 800ffb4:	80062340 	call	8006234 <__udivsi3>
 800ffb8:	100b883a 	mov	r5,r2
 800ffbc:	b009883a 	mov	r4,r22
 800ffc0:	102b883a 	mov	r21,r2
 800ffc4:	80054680 	call	8005468 <__mulsi3>
 800ffc8:	a028943a 	slli	r20,r20,16
 800ffcc:	8006d43a 	srli	r3,r16,16
 800ffd0:	1d06b03a 	or	r3,r3,r20
 800ffd4:	1880042e 	bgeu	r3,r2,800ffe8 <__udivdi3+0x3a4>
 800ffd8:	1f07883a 	add	r3,r3,fp
 800ffdc:	a93fffc4 	addi	r4,r21,-1
 800ffe0:	1f00892e 	bgeu	r3,fp,8010208 <__udivdi3+0x5c4>
 800ffe4:	202b883a 	mov	r21,r4
 800ffe8:	18a3c83a 	sub	r17,r3,r2
 800ffec:	8809883a 	mov	r4,r17
 800fff0:	900b883a 	mov	r5,r18
 800fff4:	80062980 	call	8006298 <__umodsi3>
 800fff8:	1029883a 	mov	r20,r2
 800fffc:	8809883a 	mov	r4,r17
 8010000:	900b883a 	mov	r5,r18
 8010004:	a028943a 	slli	r20,r20,16
 8010008:	80062340 	call	8006234 <__udivsi3>
 801000c:	100b883a 	mov	r5,r2
 8010010:	b009883a 	mov	r4,r22
 8010014:	843fffcc 	andi	r16,r16,65535
 8010018:	1023883a 	mov	r17,r2
 801001c:	8520b03a 	or	r16,r16,r20
 8010020:	80054680 	call	8005468 <__mulsi3>
 8010024:	8080042e 	bgeu	r16,r2,8010038 <__udivdi3+0x3f4>
 8010028:	8721883a 	add	r16,r16,fp
 801002c:	88ffffc4 	addi	r3,r17,-1
 8010030:	8700712e 	bgeu	r16,fp,80101f8 <__udivdi3+0x5b4>
 8010034:	1823883a 	mov	r17,r3
 8010038:	a80e943a 	slli	r7,r21,16
 801003c:	d8c00017 	ldw	r3,0(sp)
 8010040:	80a1c83a 	sub	r16,r16,r2
 8010044:	3c64b03a 	or	r18,r7,r17
 8010048:	1d3fffcc 	andi	r20,r3,65535
 801004c:	9022d43a 	srli	r17,r18,16
 8010050:	95bfffcc 	andi	r22,r18,65535
 8010054:	a00b883a 	mov	r5,r20
 8010058:	b009883a 	mov	r4,r22
 801005c:	182ad43a 	srli	r21,r3,16
 8010060:	80054680 	call	8005468 <__mulsi3>
 8010064:	a00b883a 	mov	r5,r20
 8010068:	8809883a 	mov	r4,r17
 801006c:	1039883a 	mov	fp,r2
 8010070:	80054680 	call	8005468 <__mulsi3>
 8010074:	8809883a 	mov	r4,r17
 8010078:	a80b883a 	mov	r5,r21
 801007c:	1029883a 	mov	r20,r2
 8010080:	80054680 	call	8005468 <__mulsi3>
 8010084:	a80b883a 	mov	r5,r21
 8010088:	b009883a 	mov	r4,r22
 801008c:	1023883a 	mov	r17,r2
 8010090:	80054680 	call	8005468 <__mulsi3>
 8010094:	e006d43a 	srli	r3,fp,16
 8010098:	1505883a 	add	r2,r2,r20
 801009c:	1887883a 	add	r3,r3,r2
 80100a0:	1d00022e 	bgeu	r3,r20,80100ac <__udivdi3+0x468>
 80100a4:	00800074 	movhi	r2,1
 80100a8:	88a3883a 	add	r17,r17,r2
 80100ac:	1804d43a 	srli	r2,r3,16
 80100b0:	1463883a 	add	r17,r2,r17
 80100b4:	84404436 	bltu	r16,r17,80101c8 <__udivdi3+0x584>
 80100b8:	84403e26 	beq	r16,r17,80101b4 <__udivdi3+0x570>
 80100bc:	9005883a 	mov	r2,r18
 80100c0:	0007883a 	mov	r3,zero
 80100c4:	003f9106 	br	800ff0c <__alt_data_end+0xf800ff0c>
 80100c8:	88e2983a 	sll	r17,r17,r3
 80100cc:	80aed83a 	srl	r23,r16,r2
 80100d0:	80e0983a 	sll	r16,r16,r3
 80100d4:	882ad43a 	srli	r21,r17,16
 80100d8:	9884d83a 	srl	r2,r19,r2
 80100dc:	b809883a 	mov	r4,r23
 80100e0:	a80b883a 	mov	r5,r21
 80100e4:	98e4983a 	sll	r18,r19,r3
 80100e8:	142cb03a 	or	r22,r2,r16
 80100ec:	80062980 	call	8006298 <__umodsi3>
 80100f0:	b809883a 	mov	r4,r23
 80100f4:	a80b883a 	mov	r5,r21
 80100f8:	1027883a 	mov	r19,r2
 80100fc:	8d3fffcc 	andi	r20,r17,65535
 8010100:	80062340 	call	8006234 <__udivsi3>
 8010104:	a009883a 	mov	r4,r20
 8010108:	100b883a 	mov	r5,r2
 801010c:	102f883a 	mov	r23,r2
 8010110:	80054680 	call	8005468 <__mulsi3>
 8010114:	9826943a 	slli	r19,r19,16
 8010118:	b008d43a 	srli	r4,r22,16
 801011c:	24c8b03a 	or	r4,r4,r19
 8010120:	2080062e 	bgeu	r4,r2,801013c <__udivdi3+0x4f8>
 8010124:	2449883a 	add	r4,r4,r17
 8010128:	b8ffffc4 	addi	r3,r23,-1
 801012c:	24403c36 	bltu	r4,r17,8010220 <__udivdi3+0x5dc>
 8010130:	20803b2e 	bgeu	r4,r2,8010220 <__udivdi3+0x5dc>
 8010134:	bdffff84 	addi	r23,r23,-2
 8010138:	2449883a 	add	r4,r4,r17
 801013c:	20a1c83a 	sub	r16,r4,r2
 8010140:	a80b883a 	mov	r5,r21
 8010144:	8009883a 	mov	r4,r16
 8010148:	80062980 	call	8006298 <__umodsi3>
 801014c:	a80b883a 	mov	r5,r21
 8010150:	8009883a 	mov	r4,r16
 8010154:	1027883a 	mov	r19,r2
 8010158:	80062340 	call	8006234 <__udivsi3>
 801015c:	a009883a 	mov	r4,r20
 8010160:	100b883a 	mov	r5,r2
 8010164:	9826943a 	slli	r19,r19,16
 8010168:	1039883a 	mov	fp,r2
 801016c:	80054680 	call	8005468 <__mulsi3>
 8010170:	b13fffcc 	andi	r4,r22,65535
 8010174:	24c8b03a 	or	r4,r4,r19
 8010178:	2080062e 	bgeu	r4,r2,8010194 <__udivdi3+0x550>
 801017c:	2449883a 	add	r4,r4,r17
 8010180:	e0ffffc4 	addi	r3,fp,-1
 8010184:	24402436 	bltu	r4,r17,8010218 <__udivdi3+0x5d4>
 8010188:	2080232e 	bgeu	r4,r2,8010218 <__udivdi3+0x5d4>
 801018c:	e73fff84 	addi	fp,fp,-2
 8010190:	2449883a 	add	r4,r4,r17
 8010194:	b82e943a 	slli	r23,r23,16
 8010198:	20a1c83a 	sub	r16,r4,r2
 801019c:	bf06b03a 	or	r3,r23,fp
 80101a0:	003f2806 	br	800fe44 <__alt_data_end+0xf800fe44>
 80101a4:	2021883a 	mov	r16,r4
 80101a8:	003f5306 	br	800fef8 <__alt_data_end+0xf800fef8>
 80101ac:	1821883a 	mov	r16,r3
 80101b0:	003ef406 	br	800fd84 <__alt_data_end+0xf800fd84>
 80101b4:	1806943a 	slli	r3,r3,16
 80101b8:	9de6983a 	sll	r19,r19,r23
 80101bc:	e73fffcc 	andi	fp,fp,65535
 80101c0:	1f07883a 	add	r3,r3,fp
 80101c4:	98ffbd2e 	bgeu	r19,r3,80100bc <__alt_data_end+0xf80100bc>
 80101c8:	90bfffc4 	addi	r2,r18,-1
 80101cc:	0007883a 	mov	r3,zero
 80101d0:	003f4e06 	br	800ff0c <__alt_data_end+0xf800ff0c>
 80101d4:	00800604 	movi	r2,24
 80101d8:	003ef506 	br	800fdb0 <__alt_data_end+0xf800fdb0>
 80101dc:	00800604 	movi	r2,24
 80101e0:	003f0b06 	br	800fe10 <__alt_data_end+0xf800fe10>
 80101e4:	00800604 	movi	r2,24
 80101e8:	003ead06 	br	800fca0 <__alt_data_end+0xf800fca0>
 80101ec:	0007883a 	mov	r3,zero
 80101f0:	00800044 	movi	r2,1
 80101f4:	003f4506 	br	800ff0c <__alt_data_end+0xf800ff0c>
 80101f8:	80bf8e2e 	bgeu	r16,r2,8010034 <__alt_data_end+0xf8010034>
 80101fc:	8c7fff84 	addi	r17,r17,-2
 8010200:	8721883a 	add	r16,r16,fp
 8010204:	003f8c06 	br	8010038 <__alt_data_end+0xf8010038>
 8010208:	18bf762e 	bgeu	r3,r2,800ffe4 <__alt_data_end+0xf800ffe4>
 801020c:	ad7fff84 	addi	r21,r21,-2
 8010210:	1f07883a 	add	r3,r3,fp
 8010214:	003f7406 	br	800ffe8 <__alt_data_end+0xf800ffe8>
 8010218:	1839883a 	mov	fp,r3
 801021c:	003fdd06 	br	8010194 <__alt_data_end+0xf8010194>
 8010220:	182f883a 	mov	r23,r3
 8010224:	003fc506 	br	801013c <__alt_data_end+0xf801013c>
 8010228:	b5bfff84 	addi	r22,r22,-2
 801022c:	3c4f883a 	add	r7,r7,r17
 8010230:	003f1a06 	br	800fe9c <__alt_data_end+0xf800fe9c>
 8010234:	b5bfff84 	addi	r22,r22,-2
 8010238:	1c47883a 	add	r3,r3,r17
 801023c:	003ebc06 	br	800fd30 <__alt_data_end+0xf800fd30>

08010240 <__umoddi3>:
 8010240:	defff304 	addi	sp,sp,-52
 8010244:	df000b15 	stw	fp,44(sp)
 8010248:	dc400415 	stw	r17,16(sp)
 801024c:	dc000315 	stw	r16,12(sp)
 8010250:	dfc00c15 	stw	ra,48(sp)
 8010254:	ddc00a15 	stw	r23,40(sp)
 8010258:	dd800915 	stw	r22,36(sp)
 801025c:	dd400815 	stw	r21,32(sp)
 8010260:	dd000715 	stw	r20,28(sp)
 8010264:	dcc00615 	stw	r19,24(sp)
 8010268:	dc800515 	stw	r18,20(sp)
 801026c:	2021883a 	mov	r16,r4
 8010270:	2823883a 	mov	r17,r5
 8010274:	2839883a 	mov	fp,r5
 8010278:	3800401e 	bne	r7,zero,801037c <__umoddi3+0x13c>
 801027c:	3027883a 	mov	r19,r6
 8010280:	2029883a 	mov	r20,r4
 8010284:	2980552e 	bgeu	r5,r6,80103dc <__umoddi3+0x19c>
 8010288:	00bfffd4 	movui	r2,65535
 801028c:	1180a236 	bltu	r2,r6,8010518 <__umoddi3+0x2d8>
 8010290:	01003fc4 	movi	r4,255
 8010294:	2189803a 	cmpltu	r4,r4,r6
 8010298:	200890fa 	slli	r4,r4,3
 801029c:	3104d83a 	srl	r2,r6,r4
 80102a0:	00c20074 	movhi	r3,2049
 80102a4:	18d37244 	addi	r3,r3,19913
 80102a8:	1885883a 	add	r2,r3,r2
 80102ac:	10c00003 	ldbu	r3,0(r2)
 80102b0:	00800804 	movi	r2,32
 80102b4:	1909883a 	add	r4,r3,r4
 80102b8:	1125c83a 	sub	r18,r2,r4
 80102bc:	90000526 	beq	r18,zero,80102d4 <__umoddi3+0x94>
 80102c0:	8ca2983a 	sll	r17,r17,r18
 80102c4:	8108d83a 	srl	r4,r16,r4
 80102c8:	34a6983a 	sll	r19,r6,r18
 80102cc:	84a8983a 	sll	r20,r16,r18
 80102d0:	2478b03a 	or	fp,r4,r17
 80102d4:	982cd43a 	srli	r22,r19,16
 80102d8:	e009883a 	mov	r4,fp
 80102dc:	9dffffcc 	andi	r23,r19,65535
 80102e0:	b00b883a 	mov	r5,r22
 80102e4:	80062980 	call	8006298 <__umodsi3>
 80102e8:	b00b883a 	mov	r5,r22
 80102ec:	e009883a 	mov	r4,fp
 80102f0:	102b883a 	mov	r21,r2
 80102f4:	80062340 	call	8006234 <__udivsi3>
 80102f8:	100b883a 	mov	r5,r2
 80102fc:	b809883a 	mov	r4,r23
 8010300:	80054680 	call	8005468 <__mulsi3>
 8010304:	a82a943a 	slli	r21,r21,16
 8010308:	a006d43a 	srli	r3,r20,16
 801030c:	1d46b03a 	or	r3,r3,r21
 8010310:	1880032e 	bgeu	r3,r2,8010320 <__umoddi3+0xe0>
 8010314:	1cc7883a 	add	r3,r3,r19
 8010318:	1cc00136 	bltu	r3,r19,8010320 <__umoddi3+0xe0>
 801031c:	18813136 	bltu	r3,r2,80107e4 <__umoddi3+0x5a4>
 8010320:	18a1c83a 	sub	r16,r3,r2
 8010324:	b00b883a 	mov	r5,r22
 8010328:	8009883a 	mov	r4,r16
 801032c:	80062980 	call	8006298 <__umodsi3>
 8010330:	b00b883a 	mov	r5,r22
 8010334:	8009883a 	mov	r4,r16
 8010338:	1023883a 	mov	r17,r2
 801033c:	80062340 	call	8006234 <__udivsi3>
 8010340:	100b883a 	mov	r5,r2
 8010344:	b809883a 	mov	r4,r23
 8010348:	8822943a 	slli	r17,r17,16
 801034c:	80054680 	call	8005468 <__mulsi3>
 8010350:	a0ffffcc 	andi	r3,r20,65535
 8010354:	1c46b03a 	or	r3,r3,r17
 8010358:	1880042e 	bgeu	r3,r2,801036c <__umoddi3+0x12c>
 801035c:	1cc7883a 	add	r3,r3,r19
 8010360:	1cc00236 	bltu	r3,r19,801036c <__umoddi3+0x12c>
 8010364:	1880012e 	bgeu	r3,r2,801036c <__umoddi3+0x12c>
 8010368:	1cc7883a 	add	r3,r3,r19
 801036c:	1885c83a 	sub	r2,r3,r2
 8010370:	1484d83a 	srl	r2,r2,r18
 8010374:	0007883a 	mov	r3,zero
 8010378:	00005306 	br	80104c8 <__umoddi3+0x288>
 801037c:	29c05036 	bltu	r5,r7,80104c0 <__umoddi3+0x280>
 8010380:	00bfffd4 	movui	r2,65535
 8010384:	11c05c2e 	bgeu	r2,r7,80104f8 <__umoddi3+0x2b8>
 8010388:	00804034 	movhi	r2,256
 801038c:	10bfffc4 	addi	r2,r2,-1
 8010390:	11c10636 	bltu	r2,r7,80107ac <__umoddi3+0x56c>
 8010394:	01000404 	movi	r4,16
 8010398:	3904d83a 	srl	r2,r7,r4
 801039c:	00c20074 	movhi	r3,2049
 80103a0:	18d37244 	addi	r3,r3,19913
 80103a4:	1885883a 	add	r2,r3,r2
 80103a8:	14c00003 	ldbu	r19,0(r2)
 80103ac:	00c00804 	movi	r3,32
 80103b0:	9927883a 	add	r19,r19,r4
 80103b4:	1ce9c83a 	sub	r20,r3,r19
 80103b8:	a0005c1e 	bne	r20,zero,801052c <__umoddi3+0x2ec>
 80103bc:	3c400136 	bltu	r7,r17,80103c4 <__umoddi3+0x184>
 80103c0:	81810a36 	bltu	r16,r6,80107ec <__umoddi3+0x5ac>
 80103c4:	8185c83a 	sub	r2,r16,r6
 80103c8:	89e3c83a 	sub	r17,r17,r7
 80103cc:	8089803a 	cmpltu	r4,r16,r2
 80103d0:	8939c83a 	sub	fp,r17,r4
 80103d4:	e007883a 	mov	r3,fp
 80103d8:	00003b06 	br	80104c8 <__umoddi3+0x288>
 80103dc:	3000041e 	bne	r6,zero,80103f0 <__umoddi3+0x1b0>
 80103e0:	000b883a 	mov	r5,zero
 80103e4:	01000044 	movi	r4,1
 80103e8:	80062340 	call	8006234 <__udivsi3>
 80103ec:	1027883a 	mov	r19,r2
 80103f0:	00bfffd4 	movui	r2,65535
 80103f4:	14c0442e 	bgeu	r2,r19,8010508 <__umoddi3+0x2c8>
 80103f8:	00804034 	movhi	r2,256
 80103fc:	10bfffc4 	addi	r2,r2,-1
 8010400:	14c0ec36 	bltu	r2,r19,80107b4 <__umoddi3+0x574>
 8010404:	00800404 	movi	r2,16
 8010408:	9886d83a 	srl	r3,r19,r2
 801040c:	01020074 	movhi	r4,2049
 8010410:	21137244 	addi	r4,r4,19913
 8010414:	20c7883a 	add	r3,r4,r3
 8010418:	18c00003 	ldbu	r3,0(r3)
 801041c:	1887883a 	add	r3,r3,r2
 8010420:	00800804 	movi	r2,32
 8010424:	10e5c83a 	sub	r18,r2,r3
 8010428:	9000ab1e 	bne	r18,zero,80106d8 <__umoddi3+0x498>
 801042c:	982cd43a 	srli	r22,r19,16
 8010430:	8ce3c83a 	sub	r17,r17,r19
 8010434:	9dffffcc 	andi	r23,r19,65535
 8010438:	b00b883a 	mov	r5,r22
 801043c:	8809883a 	mov	r4,r17
 8010440:	80062980 	call	8006298 <__umodsi3>
 8010444:	b00b883a 	mov	r5,r22
 8010448:	8809883a 	mov	r4,r17
 801044c:	102b883a 	mov	r21,r2
 8010450:	80062340 	call	8006234 <__udivsi3>
 8010454:	b80b883a 	mov	r5,r23
 8010458:	1009883a 	mov	r4,r2
 801045c:	80054680 	call	8005468 <__mulsi3>
 8010460:	a82a943a 	slli	r21,r21,16
 8010464:	a006d43a 	srli	r3,r20,16
 8010468:	1d46b03a 	or	r3,r3,r21
 801046c:	1880042e 	bgeu	r3,r2,8010480 <__umoddi3+0x240>
 8010470:	1cc7883a 	add	r3,r3,r19
 8010474:	1cc00236 	bltu	r3,r19,8010480 <__umoddi3+0x240>
 8010478:	1880012e 	bgeu	r3,r2,8010480 <__umoddi3+0x240>
 801047c:	1cc7883a 	add	r3,r3,r19
 8010480:	18a1c83a 	sub	r16,r3,r2
 8010484:	b00b883a 	mov	r5,r22
 8010488:	8009883a 	mov	r4,r16
 801048c:	80062980 	call	8006298 <__umodsi3>
 8010490:	1023883a 	mov	r17,r2
 8010494:	b00b883a 	mov	r5,r22
 8010498:	8009883a 	mov	r4,r16
 801049c:	80062340 	call	8006234 <__udivsi3>
 80104a0:	8822943a 	slli	r17,r17,16
 80104a4:	b80b883a 	mov	r5,r23
 80104a8:	1009883a 	mov	r4,r2
 80104ac:	80054680 	call	8005468 <__mulsi3>
 80104b0:	a53fffcc 	andi	r20,r20,65535
 80104b4:	a446b03a 	or	r3,r20,r17
 80104b8:	18bfac2e 	bgeu	r3,r2,801036c <__alt_data_end+0xf801036c>
 80104bc:	003fa706 	br	801035c <__alt_data_end+0xf801035c>
 80104c0:	2005883a 	mov	r2,r4
 80104c4:	2807883a 	mov	r3,r5
 80104c8:	dfc00c17 	ldw	ra,48(sp)
 80104cc:	df000b17 	ldw	fp,44(sp)
 80104d0:	ddc00a17 	ldw	r23,40(sp)
 80104d4:	dd800917 	ldw	r22,36(sp)
 80104d8:	dd400817 	ldw	r21,32(sp)
 80104dc:	dd000717 	ldw	r20,28(sp)
 80104e0:	dcc00617 	ldw	r19,24(sp)
 80104e4:	dc800517 	ldw	r18,20(sp)
 80104e8:	dc400417 	ldw	r17,16(sp)
 80104ec:	dc000317 	ldw	r16,12(sp)
 80104f0:	dec00d04 	addi	sp,sp,52
 80104f4:	f800283a 	ret
 80104f8:	04c03fc4 	movi	r19,255
 80104fc:	99c9803a 	cmpltu	r4,r19,r7
 8010500:	200890fa 	slli	r4,r4,3
 8010504:	003fa406 	br	8010398 <__alt_data_end+0xf8010398>
 8010508:	00803fc4 	movi	r2,255
 801050c:	14c5803a 	cmpltu	r2,r2,r19
 8010510:	100490fa 	slli	r2,r2,3
 8010514:	003fbc06 	br	8010408 <__alt_data_end+0xf8010408>
 8010518:	00804034 	movhi	r2,256
 801051c:	10bfffc4 	addi	r2,r2,-1
 8010520:	1180a636 	bltu	r2,r6,80107bc <__umoddi3+0x57c>
 8010524:	01000404 	movi	r4,16
 8010528:	003f5c06 	br	801029c <__alt_data_end+0xf801029c>
 801052c:	3d0e983a 	sll	r7,r7,r20
 8010530:	34ead83a 	srl	r21,r6,r19
 8010534:	8cc6d83a 	srl	r3,r17,r19
 8010538:	8d10983a 	sll	r8,r17,r20
 801053c:	3d6ab03a 	or	r21,r7,r21
 8010540:	a82cd43a 	srli	r22,r21,16
 8010544:	84e2d83a 	srl	r17,r16,r19
 8010548:	1809883a 	mov	r4,r3
 801054c:	b00b883a 	mov	r5,r22
 8010550:	8a22b03a 	or	r17,r17,r8
 8010554:	3524983a 	sll	r18,r6,r20
 8010558:	dc400015 	stw	r17,0(sp)
 801055c:	d8c00115 	stw	r3,4(sp)
 8010560:	80062980 	call	8006298 <__umodsi3>
 8010564:	d8c00117 	ldw	r3,4(sp)
 8010568:	b00b883a 	mov	r5,r22
 801056c:	1039883a 	mov	fp,r2
 8010570:	1809883a 	mov	r4,r3
 8010574:	80062340 	call	8006234 <__udivsi3>
 8010578:	adffffcc 	andi	r23,r21,65535
 801057c:	100b883a 	mov	r5,r2
 8010580:	b809883a 	mov	r4,r23
 8010584:	1023883a 	mov	r17,r2
 8010588:	80054680 	call	8005468 <__mulsi3>
 801058c:	d9400017 	ldw	r5,0(sp)
 8010590:	e008943a 	slli	r4,fp,16
 8010594:	8520983a 	sll	r16,r16,r20
 8010598:	2806d43a 	srli	r3,r5,16
 801059c:	1906b03a 	or	r3,r3,r4
 80105a0:	1880042e 	bgeu	r3,r2,80105b4 <__umoddi3+0x374>
 80105a4:	1d47883a 	add	r3,r3,r21
 80105a8:	893fffc4 	addi	r4,r17,-1
 80105ac:	1d40892e 	bgeu	r3,r21,80107d4 <__umoddi3+0x594>
 80105b0:	2023883a 	mov	r17,r4
 80105b4:	18b9c83a 	sub	fp,r3,r2
 80105b8:	b00b883a 	mov	r5,r22
 80105bc:	e009883a 	mov	r4,fp
 80105c0:	80062980 	call	8006298 <__umodsi3>
 80105c4:	b00b883a 	mov	r5,r22
 80105c8:	e009883a 	mov	r4,fp
 80105cc:	d8800215 	stw	r2,8(sp)
 80105d0:	80062340 	call	8006234 <__udivsi3>
 80105d4:	100b883a 	mov	r5,r2
 80105d8:	b809883a 	mov	r4,r23
 80105dc:	102d883a 	mov	r22,r2
 80105e0:	80054680 	call	8005468 <__mulsi3>
 80105e4:	d9800217 	ldw	r6,8(sp)
 80105e8:	d8c00017 	ldw	r3,0(sp)
 80105ec:	300c943a 	slli	r6,r6,16
 80105f0:	1a3fffcc 	andi	r8,r3,65535
 80105f4:	4190b03a 	or	r8,r8,r6
 80105f8:	4080042e 	bgeu	r8,r2,801060c <__umoddi3+0x3cc>
 80105fc:	4551883a 	add	r8,r8,r21
 8010600:	b0ffffc4 	addi	r3,r22,-1
 8010604:	45406f2e 	bgeu	r8,r21,80107c4 <__umoddi3+0x584>
 8010608:	182d883a 	mov	r22,r3
 801060c:	880e943a 	slli	r7,r17,16
 8010610:	9006d43a 	srli	r3,r18,16
 8010614:	91bfffcc 	andi	r6,r18,65535
 8010618:	3dacb03a 	or	r22,r7,r22
 801061c:	b02ed43a 	srli	r23,r22,16
 8010620:	b5bfffcc 	andi	r22,r22,65535
 8010624:	300b883a 	mov	r5,r6
 8010628:	b009883a 	mov	r4,r22
 801062c:	40a3c83a 	sub	r17,r8,r2
 8010630:	d8c00115 	stw	r3,4(sp)
 8010634:	d9800215 	stw	r6,8(sp)
 8010638:	80054680 	call	8005468 <__mulsi3>
 801063c:	d9800217 	ldw	r6,8(sp)
 8010640:	b809883a 	mov	r4,r23
 8010644:	1039883a 	mov	fp,r2
 8010648:	300b883a 	mov	r5,r6
 801064c:	80054680 	call	8005468 <__mulsi3>
 8010650:	d8c00117 	ldw	r3,4(sp)
 8010654:	b809883a 	mov	r4,r23
 8010658:	d8800215 	stw	r2,8(sp)
 801065c:	180b883a 	mov	r5,r3
 8010660:	80054680 	call	8005468 <__mulsi3>
 8010664:	d8c00117 	ldw	r3,4(sp)
 8010668:	b009883a 	mov	r4,r22
 801066c:	102f883a 	mov	r23,r2
 8010670:	180b883a 	mov	r5,r3
 8010674:	80054680 	call	8005468 <__mulsi3>
 8010678:	d9800217 	ldw	r6,8(sp)
 801067c:	e006d43a 	srli	r3,fp,16
 8010680:	1185883a 	add	r2,r2,r6
 8010684:	1885883a 	add	r2,r3,r2
 8010688:	1180022e 	bgeu	r2,r6,8010694 <__umoddi3+0x454>
 801068c:	00c00074 	movhi	r3,1
 8010690:	b8ef883a 	add	r23,r23,r3
 8010694:	1006d43a 	srli	r3,r2,16
 8010698:	1004943a 	slli	r2,r2,16
 801069c:	e73fffcc 	andi	fp,fp,65535
 80106a0:	1dc7883a 	add	r3,r3,r23
 80106a4:	1739883a 	add	fp,r2,fp
 80106a8:	88c03a36 	bltu	r17,r3,8010794 <__umoddi3+0x554>
 80106ac:	88c05126 	beq	r17,r3,80107f4 <__umoddi3+0x5b4>
 80106b0:	88c9c83a 	sub	r4,r17,r3
 80106b4:	e00f883a 	mov	r7,fp
 80106b8:	81cfc83a 	sub	r7,r16,r7
 80106bc:	81c7803a 	cmpltu	r3,r16,r7
 80106c0:	20c7c83a 	sub	r3,r4,r3
 80106c4:	1cc4983a 	sll	r2,r3,r19
 80106c8:	3d0ed83a 	srl	r7,r7,r20
 80106cc:	1d06d83a 	srl	r3,r3,r20
 80106d0:	11c4b03a 	or	r2,r2,r7
 80106d4:	003f7c06 	br	80104c8 <__alt_data_end+0xf80104c8>
 80106d8:	9ca6983a 	sll	r19,r19,r18
 80106dc:	88f8d83a 	srl	fp,r17,r3
 80106e0:	80c4d83a 	srl	r2,r16,r3
 80106e4:	982cd43a 	srli	r22,r19,16
 80106e8:	8ca2983a 	sll	r17,r17,r18
 80106ec:	e009883a 	mov	r4,fp
 80106f0:	b00b883a 	mov	r5,r22
 80106f4:	146ab03a 	or	r21,r2,r17
 80106f8:	80062980 	call	8006298 <__umodsi3>
 80106fc:	b00b883a 	mov	r5,r22
 8010700:	e009883a 	mov	r4,fp
 8010704:	1029883a 	mov	r20,r2
 8010708:	9dffffcc 	andi	r23,r19,65535
 801070c:	80062340 	call	8006234 <__udivsi3>
 8010710:	b809883a 	mov	r4,r23
 8010714:	100b883a 	mov	r5,r2
 8010718:	80054680 	call	8005468 <__mulsi3>
 801071c:	a008943a 	slli	r4,r20,16
 8010720:	a806d43a 	srli	r3,r21,16
 8010724:	84a8983a 	sll	r20,r16,r18
 8010728:	1906b03a 	or	r3,r3,r4
 801072c:	1880042e 	bgeu	r3,r2,8010740 <__umoddi3+0x500>
 8010730:	1cc7883a 	add	r3,r3,r19
 8010734:	1cc00236 	bltu	r3,r19,8010740 <__umoddi3+0x500>
 8010738:	1880012e 	bgeu	r3,r2,8010740 <__umoddi3+0x500>
 801073c:	1cc7883a 	add	r3,r3,r19
 8010740:	18a3c83a 	sub	r17,r3,r2
 8010744:	b00b883a 	mov	r5,r22
 8010748:	8809883a 	mov	r4,r17
 801074c:	80062980 	call	8006298 <__umodsi3>
 8010750:	b00b883a 	mov	r5,r22
 8010754:	8809883a 	mov	r4,r17
 8010758:	1021883a 	mov	r16,r2
 801075c:	80062340 	call	8006234 <__udivsi3>
 8010760:	100b883a 	mov	r5,r2
 8010764:	b809883a 	mov	r4,r23
 8010768:	8020943a 	slli	r16,r16,16
 801076c:	80054680 	call	8005468 <__mulsi3>
 8010770:	a8ffffcc 	andi	r3,r21,65535
 8010774:	1c06b03a 	or	r3,r3,r16
 8010778:	1880042e 	bgeu	r3,r2,801078c <__umoddi3+0x54c>
 801077c:	1cc7883a 	add	r3,r3,r19
 8010780:	1cc00236 	bltu	r3,r19,801078c <__umoddi3+0x54c>
 8010784:	1880012e 	bgeu	r3,r2,801078c <__umoddi3+0x54c>
 8010788:	1cc7883a 	add	r3,r3,r19
 801078c:	18a3c83a 	sub	r17,r3,r2
 8010790:	003f2906 	br	8010438 <__alt_data_end+0xf8010438>
 8010794:	e48fc83a 	sub	r7,fp,r18
 8010798:	1d49c83a 	sub	r4,r3,r21
 801079c:	e1f9803a 	cmpltu	fp,fp,r7
 80107a0:	2739c83a 	sub	fp,r4,fp
 80107a4:	8f09c83a 	sub	r4,r17,fp
 80107a8:	003fc306 	br	80106b8 <__alt_data_end+0xf80106b8>
 80107ac:	01000604 	movi	r4,24
 80107b0:	003ef906 	br	8010398 <__alt_data_end+0xf8010398>
 80107b4:	00800604 	movi	r2,24
 80107b8:	003f1306 	br	8010408 <__alt_data_end+0xf8010408>
 80107bc:	01000604 	movi	r4,24
 80107c0:	003eb606 	br	801029c <__alt_data_end+0xf801029c>
 80107c4:	40bf902e 	bgeu	r8,r2,8010608 <__alt_data_end+0xf8010608>
 80107c8:	b5bfff84 	addi	r22,r22,-2
 80107cc:	4551883a 	add	r8,r8,r21
 80107d0:	003f8e06 	br	801060c <__alt_data_end+0xf801060c>
 80107d4:	18bf762e 	bgeu	r3,r2,80105b0 <__alt_data_end+0xf80105b0>
 80107d8:	8c7fff84 	addi	r17,r17,-2
 80107dc:	1d47883a 	add	r3,r3,r21
 80107e0:	003f7406 	br	80105b4 <__alt_data_end+0xf80105b4>
 80107e4:	1cc7883a 	add	r3,r3,r19
 80107e8:	003ecd06 	br	8010320 <__alt_data_end+0xf8010320>
 80107ec:	8005883a 	mov	r2,r16
 80107f0:	003ef806 	br	80103d4 <__alt_data_end+0xf80103d4>
 80107f4:	873fe736 	bltu	r16,fp,8010794 <__alt_data_end+0xf8010794>
 80107f8:	e00f883a 	mov	r7,fp
 80107fc:	0009883a 	mov	r4,zero
 8010800:	003fad06 	br	80106b8 <__alt_data_end+0xf80106b8>

08010804 <__adddf3>:
 8010804:	02c00434 	movhi	r11,16
 8010808:	5affffc4 	addi	r11,r11,-1
 801080c:	2806d7fa 	srli	r3,r5,31
 8010810:	2ad4703a 	and	r10,r5,r11
 8010814:	3ad2703a 	and	r9,r7,r11
 8010818:	3804d53a 	srli	r2,r7,20
 801081c:	3018d77a 	srli	r12,r6,29
 8010820:	280ad53a 	srli	r5,r5,20
 8010824:	501490fa 	slli	r10,r10,3
 8010828:	2010d77a 	srli	r8,r4,29
 801082c:	481290fa 	slli	r9,r9,3
 8010830:	380ed7fa 	srli	r7,r7,31
 8010834:	defffb04 	addi	sp,sp,-20
 8010838:	dc800215 	stw	r18,8(sp)
 801083c:	dc400115 	stw	r17,4(sp)
 8010840:	dc000015 	stw	r16,0(sp)
 8010844:	dfc00415 	stw	ra,16(sp)
 8010848:	dcc00315 	stw	r19,12(sp)
 801084c:	1c803fcc 	andi	r18,r3,255
 8010850:	2c01ffcc 	andi	r16,r5,2047
 8010854:	5210b03a 	or	r8,r10,r8
 8010858:	202290fa 	slli	r17,r4,3
 801085c:	1081ffcc 	andi	r2,r2,2047
 8010860:	4b12b03a 	or	r9,r9,r12
 8010864:	300c90fa 	slli	r6,r6,3
 8010868:	91c07526 	beq	r18,r7,8010a40 <__adddf3+0x23c>
 801086c:	8087c83a 	sub	r3,r16,r2
 8010870:	00c0ab0e 	bge	zero,r3,8010b20 <__adddf3+0x31c>
 8010874:	10002a1e 	bne	r2,zero,8010920 <__adddf3+0x11c>
 8010878:	4984b03a 	or	r2,r9,r6
 801087c:	1000961e 	bne	r2,zero,8010ad8 <__adddf3+0x2d4>
 8010880:	888001cc 	andi	r2,r17,7
 8010884:	10000726 	beq	r2,zero,80108a4 <__adddf3+0xa0>
 8010888:	888003cc 	andi	r2,r17,15
 801088c:	00c00104 	movi	r3,4
 8010890:	10c00426 	beq	r2,r3,80108a4 <__adddf3+0xa0>
 8010894:	88c7883a 	add	r3,r17,r3
 8010898:	1c63803a 	cmpltu	r17,r3,r17
 801089c:	4451883a 	add	r8,r8,r17
 80108a0:	1823883a 	mov	r17,r3
 80108a4:	4080202c 	andhi	r2,r8,128
 80108a8:	10005926 	beq	r2,zero,8010a10 <__adddf3+0x20c>
 80108ac:	84000044 	addi	r16,r16,1
 80108b0:	0081ffc4 	movi	r2,2047
 80108b4:	8080ba26 	beq	r16,r2,8010ba0 <__adddf3+0x39c>
 80108b8:	00bfe034 	movhi	r2,65408
 80108bc:	10bfffc4 	addi	r2,r2,-1
 80108c0:	4090703a 	and	r8,r8,r2
 80108c4:	4004977a 	slli	r2,r8,29
 80108c8:	4010927a 	slli	r8,r8,9
 80108cc:	8822d0fa 	srli	r17,r17,3
 80108d0:	8401ffcc 	andi	r16,r16,2047
 80108d4:	4010d33a 	srli	r8,r8,12
 80108d8:	9007883a 	mov	r3,r18
 80108dc:	1444b03a 	or	r2,r2,r17
 80108e0:	8401ffcc 	andi	r16,r16,2047
 80108e4:	8020953a 	slli	r16,r16,20
 80108e8:	18c03fcc 	andi	r3,r3,255
 80108ec:	01000434 	movhi	r4,16
 80108f0:	213fffc4 	addi	r4,r4,-1
 80108f4:	180697fa 	slli	r3,r3,31
 80108f8:	4110703a 	and	r8,r8,r4
 80108fc:	4410b03a 	or	r8,r8,r16
 8010900:	40c6b03a 	or	r3,r8,r3
 8010904:	dfc00417 	ldw	ra,16(sp)
 8010908:	dcc00317 	ldw	r19,12(sp)
 801090c:	dc800217 	ldw	r18,8(sp)
 8010910:	dc400117 	ldw	r17,4(sp)
 8010914:	dc000017 	ldw	r16,0(sp)
 8010918:	dec00504 	addi	sp,sp,20
 801091c:	f800283a 	ret
 8010920:	0081ffc4 	movi	r2,2047
 8010924:	80bfd626 	beq	r16,r2,8010880 <__alt_data_end+0xf8010880>
 8010928:	4a402034 	orhi	r9,r9,128
 801092c:	00800e04 	movi	r2,56
 8010930:	10c09f16 	blt	r2,r3,8010bb0 <__adddf3+0x3ac>
 8010934:	008007c4 	movi	r2,31
 8010938:	10c0c216 	blt	r2,r3,8010c44 <__adddf3+0x440>
 801093c:	00800804 	movi	r2,32
 8010940:	10c5c83a 	sub	r2,r2,r3
 8010944:	488a983a 	sll	r5,r9,r2
 8010948:	30c8d83a 	srl	r4,r6,r3
 801094c:	3084983a 	sll	r2,r6,r2
 8010950:	48c6d83a 	srl	r3,r9,r3
 8010954:	290cb03a 	or	r6,r5,r4
 8010958:	1004c03a 	cmpne	r2,r2,zero
 801095c:	308cb03a 	or	r6,r6,r2
 8010960:	898dc83a 	sub	r6,r17,r6
 8010964:	89a3803a 	cmpltu	r17,r17,r6
 8010968:	40d1c83a 	sub	r8,r8,r3
 801096c:	4451c83a 	sub	r8,r8,r17
 8010970:	3023883a 	mov	r17,r6
 8010974:	4080202c 	andhi	r2,r8,128
 8010978:	10002326 	beq	r2,zero,8010a08 <__adddf3+0x204>
 801097c:	04c02034 	movhi	r19,128
 8010980:	9cffffc4 	addi	r19,r19,-1
 8010984:	44e6703a 	and	r19,r8,r19
 8010988:	98007626 	beq	r19,zero,8010b64 <__adddf3+0x360>
 801098c:	9809883a 	mov	r4,r19
 8010990:	80060d80 	call	80060d8 <__clzsi2>
 8010994:	10fffe04 	addi	r3,r2,-8
 8010998:	010007c4 	movi	r4,31
 801099c:	20c07716 	blt	r4,r3,8010b7c <__adddf3+0x378>
 80109a0:	00800804 	movi	r2,32
 80109a4:	10c5c83a 	sub	r2,r2,r3
 80109a8:	8884d83a 	srl	r2,r17,r2
 80109ac:	98d0983a 	sll	r8,r19,r3
 80109b0:	88e2983a 	sll	r17,r17,r3
 80109b4:	1204b03a 	or	r2,r2,r8
 80109b8:	1c007416 	blt	r3,r16,8010b8c <__adddf3+0x388>
 80109bc:	1c21c83a 	sub	r16,r3,r16
 80109c0:	82000044 	addi	r8,r16,1
 80109c4:	00c007c4 	movi	r3,31
 80109c8:	1a009116 	blt	r3,r8,8010c10 <__adddf3+0x40c>
 80109cc:	00c00804 	movi	r3,32
 80109d0:	1a07c83a 	sub	r3,r3,r8
 80109d4:	8a08d83a 	srl	r4,r17,r8
 80109d8:	88e2983a 	sll	r17,r17,r3
 80109dc:	10c6983a 	sll	r3,r2,r3
 80109e0:	1210d83a 	srl	r8,r2,r8
 80109e4:	8804c03a 	cmpne	r2,r17,zero
 80109e8:	1906b03a 	or	r3,r3,r4
 80109ec:	18a2b03a 	or	r17,r3,r2
 80109f0:	0021883a 	mov	r16,zero
 80109f4:	003fa206 	br	8010880 <__alt_data_end+0xf8010880>
 80109f8:	1890b03a 	or	r8,r3,r2
 80109fc:	40017d26 	beq	r8,zero,8010ff4 <__adddf3+0x7f0>
 8010a00:	1011883a 	mov	r8,r2
 8010a04:	1823883a 	mov	r17,r3
 8010a08:	888001cc 	andi	r2,r17,7
 8010a0c:	103f9e1e 	bne	r2,zero,8010888 <__alt_data_end+0xf8010888>
 8010a10:	4004977a 	slli	r2,r8,29
 8010a14:	8822d0fa 	srli	r17,r17,3
 8010a18:	4010d0fa 	srli	r8,r8,3
 8010a1c:	9007883a 	mov	r3,r18
 8010a20:	1444b03a 	or	r2,r2,r17
 8010a24:	0101ffc4 	movi	r4,2047
 8010a28:	81002426 	beq	r16,r4,8010abc <__adddf3+0x2b8>
 8010a2c:	8120703a 	and	r16,r16,r4
 8010a30:	01000434 	movhi	r4,16
 8010a34:	213fffc4 	addi	r4,r4,-1
 8010a38:	4110703a 	and	r8,r8,r4
 8010a3c:	003fa806 	br	80108e0 <__alt_data_end+0xf80108e0>
 8010a40:	8089c83a 	sub	r4,r16,r2
 8010a44:	01005e0e 	bge	zero,r4,8010bc0 <__adddf3+0x3bc>
 8010a48:	10002b26 	beq	r2,zero,8010af8 <__adddf3+0x2f4>
 8010a4c:	0081ffc4 	movi	r2,2047
 8010a50:	80bf8b26 	beq	r16,r2,8010880 <__alt_data_end+0xf8010880>
 8010a54:	4a402034 	orhi	r9,r9,128
 8010a58:	00800e04 	movi	r2,56
 8010a5c:	1100a40e 	bge	r2,r4,8010cf0 <__adddf3+0x4ec>
 8010a60:	498cb03a 	or	r6,r9,r6
 8010a64:	300ac03a 	cmpne	r5,r6,zero
 8010a68:	0013883a 	mov	r9,zero
 8010a6c:	2c4b883a 	add	r5,r5,r17
 8010a70:	2c63803a 	cmpltu	r17,r5,r17
 8010a74:	4a11883a 	add	r8,r9,r8
 8010a78:	8a11883a 	add	r8,r17,r8
 8010a7c:	2823883a 	mov	r17,r5
 8010a80:	4080202c 	andhi	r2,r8,128
 8010a84:	103fe026 	beq	r2,zero,8010a08 <__alt_data_end+0xf8010a08>
 8010a88:	84000044 	addi	r16,r16,1
 8010a8c:	0081ffc4 	movi	r2,2047
 8010a90:	8080d226 	beq	r16,r2,8010ddc <__adddf3+0x5d8>
 8010a94:	00bfe034 	movhi	r2,65408
 8010a98:	10bfffc4 	addi	r2,r2,-1
 8010a9c:	4090703a 	and	r8,r8,r2
 8010aa0:	880ad07a 	srli	r5,r17,1
 8010aa4:	400897fa 	slli	r4,r8,31
 8010aa8:	88c0004c 	andi	r3,r17,1
 8010aac:	28e2b03a 	or	r17,r5,r3
 8010ab0:	4010d07a 	srli	r8,r8,1
 8010ab4:	2462b03a 	or	r17,r4,r17
 8010ab8:	003f7106 	br	8010880 <__alt_data_end+0xf8010880>
 8010abc:	4088b03a 	or	r4,r8,r2
 8010ac0:	20014526 	beq	r4,zero,8010fd8 <__adddf3+0x7d4>
 8010ac4:	01000434 	movhi	r4,16
 8010ac8:	42000234 	orhi	r8,r8,8
 8010acc:	213fffc4 	addi	r4,r4,-1
 8010ad0:	4110703a 	and	r8,r8,r4
 8010ad4:	003f8206 	br	80108e0 <__alt_data_end+0xf80108e0>
 8010ad8:	18ffffc4 	addi	r3,r3,-1
 8010adc:	1800491e 	bne	r3,zero,8010c04 <__adddf3+0x400>
 8010ae0:	898bc83a 	sub	r5,r17,r6
 8010ae4:	8963803a 	cmpltu	r17,r17,r5
 8010ae8:	4251c83a 	sub	r8,r8,r9
 8010aec:	4451c83a 	sub	r8,r8,r17
 8010af0:	2823883a 	mov	r17,r5
 8010af4:	003f9f06 	br	8010974 <__alt_data_end+0xf8010974>
 8010af8:	4984b03a 	or	r2,r9,r6
 8010afc:	103f6026 	beq	r2,zero,8010880 <__alt_data_end+0xf8010880>
 8010b00:	213fffc4 	addi	r4,r4,-1
 8010b04:	2000931e 	bne	r4,zero,8010d54 <__adddf3+0x550>
 8010b08:	898d883a 	add	r6,r17,r6
 8010b0c:	3463803a 	cmpltu	r17,r6,r17
 8010b10:	4251883a 	add	r8,r8,r9
 8010b14:	8a11883a 	add	r8,r17,r8
 8010b18:	3023883a 	mov	r17,r6
 8010b1c:	003fd806 	br	8010a80 <__alt_data_end+0xf8010a80>
 8010b20:	1800541e 	bne	r3,zero,8010c74 <__adddf3+0x470>
 8010b24:	80800044 	addi	r2,r16,1
 8010b28:	1081ffcc 	andi	r2,r2,2047
 8010b2c:	00c00044 	movi	r3,1
 8010b30:	1880a00e 	bge	r3,r2,8010db4 <__adddf3+0x5b0>
 8010b34:	8989c83a 	sub	r4,r17,r6
 8010b38:	8905803a 	cmpltu	r2,r17,r4
 8010b3c:	4267c83a 	sub	r19,r8,r9
 8010b40:	98a7c83a 	sub	r19,r19,r2
 8010b44:	9880202c 	andhi	r2,r19,128
 8010b48:	10006326 	beq	r2,zero,8010cd8 <__adddf3+0x4d4>
 8010b4c:	3463c83a 	sub	r17,r6,r17
 8010b50:	4a07c83a 	sub	r3,r9,r8
 8010b54:	344d803a 	cmpltu	r6,r6,r17
 8010b58:	19a7c83a 	sub	r19,r3,r6
 8010b5c:	3825883a 	mov	r18,r7
 8010b60:	983f8a1e 	bne	r19,zero,801098c <__alt_data_end+0xf801098c>
 8010b64:	8809883a 	mov	r4,r17
 8010b68:	80060d80 	call	80060d8 <__clzsi2>
 8010b6c:	10800804 	addi	r2,r2,32
 8010b70:	10fffe04 	addi	r3,r2,-8
 8010b74:	010007c4 	movi	r4,31
 8010b78:	20ff890e 	bge	r4,r3,80109a0 <__alt_data_end+0xf80109a0>
 8010b7c:	10bff604 	addi	r2,r2,-40
 8010b80:	8884983a 	sll	r2,r17,r2
 8010b84:	0023883a 	mov	r17,zero
 8010b88:	1c3f8c0e 	bge	r3,r16,80109bc <__alt_data_end+0xf80109bc>
 8010b8c:	023fe034 	movhi	r8,65408
 8010b90:	423fffc4 	addi	r8,r8,-1
 8010b94:	80e1c83a 	sub	r16,r16,r3
 8010b98:	1210703a 	and	r8,r2,r8
 8010b9c:	003f3806 	br	8010880 <__alt_data_end+0xf8010880>
 8010ba0:	9007883a 	mov	r3,r18
 8010ba4:	0011883a 	mov	r8,zero
 8010ba8:	0005883a 	mov	r2,zero
 8010bac:	003f4c06 	br	80108e0 <__alt_data_end+0xf80108e0>
 8010bb0:	498cb03a 	or	r6,r9,r6
 8010bb4:	300cc03a 	cmpne	r6,r6,zero
 8010bb8:	0007883a 	mov	r3,zero
 8010bbc:	003f6806 	br	8010960 <__alt_data_end+0xf8010960>
 8010bc0:	20009c1e 	bne	r4,zero,8010e34 <__adddf3+0x630>
 8010bc4:	80800044 	addi	r2,r16,1
 8010bc8:	1141ffcc 	andi	r5,r2,2047
 8010bcc:	01000044 	movi	r4,1
 8010bd0:	2140670e 	bge	r4,r5,8010d70 <__adddf3+0x56c>
 8010bd4:	0101ffc4 	movi	r4,2047
 8010bd8:	11007f26 	beq	r2,r4,8010dd8 <__adddf3+0x5d4>
 8010bdc:	898d883a 	add	r6,r17,r6
 8010be0:	4247883a 	add	r3,r8,r9
 8010be4:	3451803a 	cmpltu	r8,r6,r17
 8010be8:	40d1883a 	add	r8,r8,r3
 8010bec:	402297fa 	slli	r17,r8,31
 8010bf0:	300cd07a 	srli	r6,r6,1
 8010bf4:	4010d07a 	srli	r8,r8,1
 8010bf8:	1021883a 	mov	r16,r2
 8010bfc:	89a2b03a 	or	r17,r17,r6
 8010c00:	003f1f06 	br	8010880 <__alt_data_end+0xf8010880>
 8010c04:	0081ffc4 	movi	r2,2047
 8010c08:	80bf481e 	bne	r16,r2,801092c <__alt_data_end+0xf801092c>
 8010c0c:	003f1c06 	br	8010880 <__alt_data_end+0xf8010880>
 8010c10:	843ff844 	addi	r16,r16,-31
 8010c14:	01000804 	movi	r4,32
 8010c18:	1406d83a 	srl	r3,r2,r16
 8010c1c:	41005026 	beq	r8,r4,8010d60 <__adddf3+0x55c>
 8010c20:	01001004 	movi	r4,64
 8010c24:	2211c83a 	sub	r8,r4,r8
 8010c28:	1204983a 	sll	r2,r2,r8
 8010c2c:	88a2b03a 	or	r17,r17,r2
 8010c30:	8822c03a 	cmpne	r17,r17,zero
 8010c34:	1c62b03a 	or	r17,r3,r17
 8010c38:	0011883a 	mov	r8,zero
 8010c3c:	0021883a 	mov	r16,zero
 8010c40:	003f7106 	br	8010a08 <__alt_data_end+0xf8010a08>
 8010c44:	193ff804 	addi	r4,r3,-32
 8010c48:	00800804 	movi	r2,32
 8010c4c:	4908d83a 	srl	r4,r9,r4
 8010c50:	18804526 	beq	r3,r2,8010d68 <__adddf3+0x564>
 8010c54:	00801004 	movi	r2,64
 8010c58:	10c5c83a 	sub	r2,r2,r3
 8010c5c:	4886983a 	sll	r3,r9,r2
 8010c60:	198cb03a 	or	r6,r3,r6
 8010c64:	300cc03a 	cmpne	r6,r6,zero
 8010c68:	218cb03a 	or	r6,r4,r6
 8010c6c:	0007883a 	mov	r3,zero
 8010c70:	003f3b06 	br	8010960 <__alt_data_end+0xf8010960>
 8010c74:	80002a26 	beq	r16,zero,8010d20 <__adddf3+0x51c>
 8010c78:	0101ffc4 	movi	r4,2047
 8010c7c:	11006826 	beq	r2,r4,8010e20 <__adddf3+0x61c>
 8010c80:	00c7c83a 	sub	r3,zero,r3
 8010c84:	42002034 	orhi	r8,r8,128
 8010c88:	01000e04 	movi	r4,56
 8010c8c:	20c07c16 	blt	r4,r3,8010e80 <__adddf3+0x67c>
 8010c90:	010007c4 	movi	r4,31
 8010c94:	20c0da16 	blt	r4,r3,8011000 <__adddf3+0x7fc>
 8010c98:	01000804 	movi	r4,32
 8010c9c:	20c9c83a 	sub	r4,r4,r3
 8010ca0:	4114983a 	sll	r10,r8,r4
 8010ca4:	88cad83a 	srl	r5,r17,r3
 8010ca8:	8908983a 	sll	r4,r17,r4
 8010cac:	40c6d83a 	srl	r3,r8,r3
 8010cb0:	5162b03a 	or	r17,r10,r5
 8010cb4:	2008c03a 	cmpne	r4,r4,zero
 8010cb8:	8922b03a 	or	r17,r17,r4
 8010cbc:	3463c83a 	sub	r17,r6,r17
 8010cc0:	48c7c83a 	sub	r3,r9,r3
 8010cc4:	344d803a 	cmpltu	r6,r6,r17
 8010cc8:	1991c83a 	sub	r8,r3,r6
 8010ccc:	1021883a 	mov	r16,r2
 8010cd0:	3825883a 	mov	r18,r7
 8010cd4:	003f2706 	br	8010974 <__alt_data_end+0xf8010974>
 8010cd8:	24d0b03a 	or	r8,r4,r19
 8010cdc:	40001b1e 	bne	r8,zero,8010d4c <__adddf3+0x548>
 8010ce0:	0005883a 	mov	r2,zero
 8010ce4:	0007883a 	mov	r3,zero
 8010ce8:	0021883a 	mov	r16,zero
 8010cec:	003f4d06 	br	8010a24 <__alt_data_end+0xf8010a24>
 8010cf0:	008007c4 	movi	r2,31
 8010cf4:	11003c16 	blt	r2,r4,8010de8 <__adddf3+0x5e4>
 8010cf8:	00800804 	movi	r2,32
 8010cfc:	1105c83a 	sub	r2,r2,r4
 8010d00:	488e983a 	sll	r7,r9,r2
 8010d04:	310ad83a 	srl	r5,r6,r4
 8010d08:	3084983a 	sll	r2,r6,r2
 8010d0c:	4912d83a 	srl	r9,r9,r4
 8010d10:	394ab03a 	or	r5,r7,r5
 8010d14:	1004c03a 	cmpne	r2,r2,zero
 8010d18:	288ab03a 	or	r5,r5,r2
 8010d1c:	003f5306 	br	8010a6c <__alt_data_end+0xf8010a6c>
 8010d20:	4448b03a 	or	r4,r8,r17
 8010d24:	20003e26 	beq	r4,zero,8010e20 <__adddf3+0x61c>
 8010d28:	00c6303a 	nor	r3,zero,r3
 8010d2c:	18003a1e 	bne	r3,zero,8010e18 <__adddf3+0x614>
 8010d30:	3463c83a 	sub	r17,r6,r17
 8010d34:	4a07c83a 	sub	r3,r9,r8
 8010d38:	344d803a 	cmpltu	r6,r6,r17
 8010d3c:	1991c83a 	sub	r8,r3,r6
 8010d40:	1021883a 	mov	r16,r2
 8010d44:	3825883a 	mov	r18,r7
 8010d48:	003f0a06 	br	8010974 <__alt_data_end+0xf8010974>
 8010d4c:	2023883a 	mov	r17,r4
 8010d50:	003f0d06 	br	8010988 <__alt_data_end+0xf8010988>
 8010d54:	0081ffc4 	movi	r2,2047
 8010d58:	80bf3f1e 	bne	r16,r2,8010a58 <__alt_data_end+0xf8010a58>
 8010d5c:	003ec806 	br	8010880 <__alt_data_end+0xf8010880>
 8010d60:	0005883a 	mov	r2,zero
 8010d64:	003fb106 	br	8010c2c <__alt_data_end+0xf8010c2c>
 8010d68:	0007883a 	mov	r3,zero
 8010d6c:	003fbc06 	br	8010c60 <__alt_data_end+0xf8010c60>
 8010d70:	4444b03a 	or	r2,r8,r17
 8010d74:	8000871e 	bne	r16,zero,8010f94 <__adddf3+0x790>
 8010d78:	1000ba26 	beq	r2,zero,8011064 <__adddf3+0x860>
 8010d7c:	4984b03a 	or	r2,r9,r6
 8010d80:	103ebf26 	beq	r2,zero,8010880 <__alt_data_end+0xf8010880>
 8010d84:	8985883a 	add	r2,r17,r6
 8010d88:	4247883a 	add	r3,r8,r9
 8010d8c:	1451803a 	cmpltu	r8,r2,r17
 8010d90:	40d1883a 	add	r8,r8,r3
 8010d94:	40c0202c 	andhi	r3,r8,128
 8010d98:	1023883a 	mov	r17,r2
 8010d9c:	183f1a26 	beq	r3,zero,8010a08 <__alt_data_end+0xf8010a08>
 8010da0:	00bfe034 	movhi	r2,65408
 8010da4:	10bfffc4 	addi	r2,r2,-1
 8010da8:	2021883a 	mov	r16,r4
 8010dac:	4090703a 	and	r8,r8,r2
 8010db0:	003eb306 	br	8010880 <__alt_data_end+0xf8010880>
 8010db4:	4444b03a 	or	r2,r8,r17
 8010db8:	8000291e 	bne	r16,zero,8010e60 <__adddf3+0x65c>
 8010dbc:	10004b1e 	bne	r2,zero,8010eec <__adddf3+0x6e8>
 8010dc0:	4990b03a 	or	r8,r9,r6
 8010dc4:	40008b26 	beq	r8,zero,8010ff4 <__adddf3+0x7f0>
 8010dc8:	4811883a 	mov	r8,r9
 8010dcc:	3023883a 	mov	r17,r6
 8010dd0:	3825883a 	mov	r18,r7
 8010dd4:	003eaa06 	br	8010880 <__alt_data_end+0xf8010880>
 8010dd8:	1021883a 	mov	r16,r2
 8010ddc:	0011883a 	mov	r8,zero
 8010de0:	0005883a 	mov	r2,zero
 8010de4:	003f0f06 	br	8010a24 <__alt_data_end+0xf8010a24>
 8010de8:	217ff804 	addi	r5,r4,-32
 8010dec:	00800804 	movi	r2,32
 8010df0:	494ad83a 	srl	r5,r9,r5
 8010df4:	20807d26 	beq	r4,r2,8010fec <__adddf3+0x7e8>
 8010df8:	00801004 	movi	r2,64
 8010dfc:	1109c83a 	sub	r4,r2,r4
 8010e00:	4912983a 	sll	r9,r9,r4
 8010e04:	498cb03a 	or	r6,r9,r6
 8010e08:	300cc03a 	cmpne	r6,r6,zero
 8010e0c:	298ab03a 	or	r5,r5,r6
 8010e10:	0013883a 	mov	r9,zero
 8010e14:	003f1506 	br	8010a6c <__alt_data_end+0xf8010a6c>
 8010e18:	0101ffc4 	movi	r4,2047
 8010e1c:	113f9a1e 	bne	r2,r4,8010c88 <__alt_data_end+0xf8010c88>
 8010e20:	4811883a 	mov	r8,r9
 8010e24:	3023883a 	mov	r17,r6
 8010e28:	1021883a 	mov	r16,r2
 8010e2c:	3825883a 	mov	r18,r7
 8010e30:	003e9306 	br	8010880 <__alt_data_end+0xf8010880>
 8010e34:	8000161e 	bne	r16,zero,8010e90 <__adddf3+0x68c>
 8010e38:	444ab03a 	or	r5,r8,r17
 8010e3c:	28005126 	beq	r5,zero,8010f84 <__adddf3+0x780>
 8010e40:	0108303a 	nor	r4,zero,r4
 8010e44:	20004d1e 	bne	r4,zero,8010f7c <__adddf3+0x778>
 8010e48:	89a3883a 	add	r17,r17,r6
 8010e4c:	4253883a 	add	r9,r8,r9
 8010e50:	898d803a 	cmpltu	r6,r17,r6
 8010e54:	3251883a 	add	r8,r6,r9
 8010e58:	1021883a 	mov	r16,r2
 8010e5c:	003f0806 	br	8010a80 <__alt_data_end+0xf8010a80>
 8010e60:	1000301e 	bne	r2,zero,8010f24 <__adddf3+0x720>
 8010e64:	4984b03a 	or	r2,r9,r6
 8010e68:	10007126 	beq	r2,zero,8011030 <__adddf3+0x82c>
 8010e6c:	4811883a 	mov	r8,r9
 8010e70:	3023883a 	mov	r17,r6
 8010e74:	3825883a 	mov	r18,r7
 8010e78:	0401ffc4 	movi	r16,2047
 8010e7c:	003e8006 	br	8010880 <__alt_data_end+0xf8010880>
 8010e80:	4462b03a 	or	r17,r8,r17
 8010e84:	8822c03a 	cmpne	r17,r17,zero
 8010e88:	0007883a 	mov	r3,zero
 8010e8c:	003f8b06 	br	8010cbc <__alt_data_end+0xf8010cbc>
 8010e90:	0141ffc4 	movi	r5,2047
 8010e94:	11403b26 	beq	r2,r5,8010f84 <__adddf3+0x780>
 8010e98:	0109c83a 	sub	r4,zero,r4
 8010e9c:	42002034 	orhi	r8,r8,128
 8010ea0:	01400e04 	movi	r5,56
 8010ea4:	29006716 	blt	r5,r4,8011044 <__adddf3+0x840>
 8010ea8:	014007c4 	movi	r5,31
 8010eac:	29007016 	blt	r5,r4,8011070 <__adddf3+0x86c>
 8010eb0:	01400804 	movi	r5,32
 8010eb4:	290bc83a 	sub	r5,r5,r4
 8010eb8:	4154983a 	sll	r10,r8,r5
 8010ebc:	890ed83a 	srl	r7,r17,r4
 8010ec0:	894a983a 	sll	r5,r17,r5
 8010ec4:	4108d83a 	srl	r4,r8,r4
 8010ec8:	51e2b03a 	or	r17,r10,r7
 8010ecc:	280ac03a 	cmpne	r5,r5,zero
 8010ed0:	8962b03a 	or	r17,r17,r5
 8010ed4:	89a3883a 	add	r17,r17,r6
 8010ed8:	2253883a 	add	r9,r4,r9
 8010edc:	898d803a 	cmpltu	r6,r17,r6
 8010ee0:	3251883a 	add	r8,r6,r9
 8010ee4:	1021883a 	mov	r16,r2
 8010ee8:	003ee506 	br	8010a80 <__alt_data_end+0xf8010a80>
 8010eec:	4984b03a 	or	r2,r9,r6
 8010ef0:	103e6326 	beq	r2,zero,8010880 <__alt_data_end+0xf8010880>
 8010ef4:	8987c83a 	sub	r3,r17,r6
 8010ef8:	88c9803a 	cmpltu	r4,r17,r3
 8010efc:	4245c83a 	sub	r2,r8,r9
 8010f00:	1105c83a 	sub	r2,r2,r4
 8010f04:	1100202c 	andhi	r4,r2,128
 8010f08:	203ebb26 	beq	r4,zero,80109f8 <__alt_data_end+0xf80109f8>
 8010f0c:	3463c83a 	sub	r17,r6,r17
 8010f10:	4a07c83a 	sub	r3,r9,r8
 8010f14:	344d803a 	cmpltu	r6,r6,r17
 8010f18:	1991c83a 	sub	r8,r3,r6
 8010f1c:	3825883a 	mov	r18,r7
 8010f20:	003e5706 	br	8010880 <__alt_data_end+0xf8010880>
 8010f24:	4984b03a 	or	r2,r9,r6
 8010f28:	10002e26 	beq	r2,zero,8010fe4 <__adddf3+0x7e0>
 8010f2c:	4004d0fa 	srli	r2,r8,3
 8010f30:	8822d0fa 	srli	r17,r17,3
 8010f34:	4010977a 	slli	r8,r8,29
 8010f38:	10c0022c 	andhi	r3,r2,8
 8010f3c:	4462b03a 	or	r17,r8,r17
 8010f40:	18000826 	beq	r3,zero,8010f64 <__adddf3+0x760>
 8010f44:	4808d0fa 	srli	r4,r9,3
 8010f48:	20c0022c 	andhi	r3,r4,8
 8010f4c:	1800051e 	bne	r3,zero,8010f64 <__adddf3+0x760>
 8010f50:	300cd0fa 	srli	r6,r6,3
 8010f54:	4806977a 	slli	r3,r9,29
 8010f58:	2005883a 	mov	r2,r4
 8010f5c:	3825883a 	mov	r18,r7
 8010f60:	19a2b03a 	or	r17,r3,r6
 8010f64:	8810d77a 	srli	r8,r17,29
 8010f68:	100490fa 	slli	r2,r2,3
 8010f6c:	882290fa 	slli	r17,r17,3
 8010f70:	0401ffc4 	movi	r16,2047
 8010f74:	4090b03a 	or	r8,r8,r2
 8010f78:	003e4106 	br	8010880 <__alt_data_end+0xf8010880>
 8010f7c:	0141ffc4 	movi	r5,2047
 8010f80:	117fc71e 	bne	r2,r5,8010ea0 <__alt_data_end+0xf8010ea0>
 8010f84:	4811883a 	mov	r8,r9
 8010f88:	3023883a 	mov	r17,r6
 8010f8c:	1021883a 	mov	r16,r2
 8010f90:	003e3b06 	br	8010880 <__alt_data_end+0xf8010880>
 8010f94:	10002f26 	beq	r2,zero,8011054 <__adddf3+0x850>
 8010f98:	4984b03a 	or	r2,r9,r6
 8010f9c:	10001126 	beq	r2,zero,8010fe4 <__adddf3+0x7e0>
 8010fa0:	4004d0fa 	srli	r2,r8,3
 8010fa4:	8822d0fa 	srli	r17,r17,3
 8010fa8:	4010977a 	slli	r8,r8,29
 8010fac:	10c0022c 	andhi	r3,r2,8
 8010fb0:	4462b03a 	or	r17,r8,r17
 8010fb4:	183feb26 	beq	r3,zero,8010f64 <__alt_data_end+0xf8010f64>
 8010fb8:	4808d0fa 	srli	r4,r9,3
 8010fbc:	20c0022c 	andhi	r3,r4,8
 8010fc0:	183fe81e 	bne	r3,zero,8010f64 <__alt_data_end+0xf8010f64>
 8010fc4:	300cd0fa 	srli	r6,r6,3
 8010fc8:	4806977a 	slli	r3,r9,29
 8010fcc:	2005883a 	mov	r2,r4
 8010fd0:	19a2b03a 	or	r17,r3,r6
 8010fd4:	003fe306 	br	8010f64 <__alt_data_end+0xf8010f64>
 8010fd8:	0011883a 	mov	r8,zero
 8010fdc:	0005883a 	mov	r2,zero
 8010fe0:	003e3f06 	br	80108e0 <__alt_data_end+0xf80108e0>
 8010fe4:	0401ffc4 	movi	r16,2047
 8010fe8:	003e2506 	br	8010880 <__alt_data_end+0xf8010880>
 8010fec:	0013883a 	mov	r9,zero
 8010ff0:	003f8406 	br	8010e04 <__alt_data_end+0xf8010e04>
 8010ff4:	0005883a 	mov	r2,zero
 8010ff8:	0007883a 	mov	r3,zero
 8010ffc:	003e8906 	br	8010a24 <__alt_data_end+0xf8010a24>
 8011000:	197ff804 	addi	r5,r3,-32
 8011004:	01000804 	movi	r4,32
 8011008:	414ad83a 	srl	r5,r8,r5
 801100c:	19002426 	beq	r3,r4,80110a0 <__adddf3+0x89c>
 8011010:	01001004 	movi	r4,64
 8011014:	20c7c83a 	sub	r3,r4,r3
 8011018:	40c6983a 	sll	r3,r8,r3
 801101c:	1c46b03a 	or	r3,r3,r17
 8011020:	1806c03a 	cmpne	r3,r3,zero
 8011024:	28e2b03a 	or	r17,r5,r3
 8011028:	0007883a 	mov	r3,zero
 801102c:	003f2306 	br	8010cbc <__alt_data_end+0xf8010cbc>
 8011030:	0007883a 	mov	r3,zero
 8011034:	5811883a 	mov	r8,r11
 8011038:	00bfffc4 	movi	r2,-1
 801103c:	0401ffc4 	movi	r16,2047
 8011040:	003e7806 	br	8010a24 <__alt_data_end+0xf8010a24>
 8011044:	4462b03a 	or	r17,r8,r17
 8011048:	8822c03a 	cmpne	r17,r17,zero
 801104c:	0009883a 	mov	r4,zero
 8011050:	003fa006 	br	8010ed4 <__alt_data_end+0xf8010ed4>
 8011054:	4811883a 	mov	r8,r9
 8011058:	3023883a 	mov	r17,r6
 801105c:	0401ffc4 	movi	r16,2047
 8011060:	003e0706 	br	8010880 <__alt_data_end+0xf8010880>
 8011064:	4811883a 	mov	r8,r9
 8011068:	3023883a 	mov	r17,r6
 801106c:	003e0406 	br	8010880 <__alt_data_end+0xf8010880>
 8011070:	21fff804 	addi	r7,r4,-32
 8011074:	01400804 	movi	r5,32
 8011078:	41ced83a 	srl	r7,r8,r7
 801107c:	21400a26 	beq	r4,r5,80110a8 <__adddf3+0x8a4>
 8011080:	01401004 	movi	r5,64
 8011084:	2909c83a 	sub	r4,r5,r4
 8011088:	4108983a 	sll	r4,r8,r4
 801108c:	2448b03a 	or	r4,r4,r17
 8011090:	2008c03a 	cmpne	r4,r4,zero
 8011094:	3922b03a 	or	r17,r7,r4
 8011098:	0009883a 	mov	r4,zero
 801109c:	003f8d06 	br	8010ed4 <__alt_data_end+0xf8010ed4>
 80110a0:	0007883a 	mov	r3,zero
 80110a4:	003fdd06 	br	801101c <__alt_data_end+0xf801101c>
 80110a8:	0009883a 	mov	r4,zero
 80110ac:	003ff706 	br	801108c <__alt_data_end+0xf801108c>

080110b0 <__eqdf2>:
 80110b0:	2804d53a 	srli	r2,r5,20
 80110b4:	3806d53a 	srli	r3,r7,20
 80110b8:	02000434 	movhi	r8,16
 80110bc:	423fffc4 	addi	r8,r8,-1
 80110c0:	1081ffcc 	andi	r2,r2,2047
 80110c4:	0281ffc4 	movi	r10,2047
 80110c8:	2a12703a 	and	r9,r5,r8
 80110cc:	18c1ffcc 	andi	r3,r3,2047
 80110d0:	3a10703a 	and	r8,r7,r8
 80110d4:	280ad7fa 	srli	r5,r5,31
 80110d8:	380ed7fa 	srli	r7,r7,31
 80110dc:	12801026 	beq	r2,r10,8011120 <__eqdf2+0x70>
 80110e0:	0281ffc4 	movi	r10,2047
 80110e4:	1a800a26 	beq	r3,r10,8011110 <__eqdf2+0x60>
 80110e8:	10c00226 	beq	r2,r3,80110f4 <__eqdf2+0x44>
 80110ec:	00800044 	movi	r2,1
 80110f0:	f800283a 	ret
 80110f4:	4a3ffd1e 	bne	r9,r8,80110ec <__alt_data_end+0xf80110ec>
 80110f8:	21bffc1e 	bne	r4,r6,80110ec <__alt_data_end+0xf80110ec>
 80110fc:	29c00c26 	beq	r5,r7,8011130 <__eqdf2+0x80>
 8011100:	103ffa1e 	bne	r2,zero,80110ec <__alt_data_end+0xf80110ec>
 8011104:	2244b03a 	or	r2,r4,r9
 8011108:	1004c03a 	cmpne	r2,r2,zero
 801110c:	f800283a 	ret
 8011110:	3214b03a 	or	r10,r6,r8
 8011114:	503ff426 	beq	r10,zero,80110e8 <__alt_data_end+0xf80110e8>
 8011118:	00800044 	movi	r2,1
 801111c:	f800283a 	ret
 8011120:	2254b03a 	or	r10,r4,r9
 8011124:	503fee26 	beq	r10,zero,80110e0 <__alt_data_end+0xf80110e0>
 8011128:	00800044 	movi	r2,1
 801112c:	f800283a 	ret
 8011130:	0005883a 	mov	r2,zero
 8011134:	f800283a 	ret

08011138 <__gedf2>:
 8011138:	2804d53a 	srli	r2,r5,20
 801113c:	3806d53a 	srli	r3,r7,20
 8011140:	02000434 	movhi	r8,16
 8011144:	423fffc4 	addi	r8,r8,-1
 8011148:	1081ffcc 	andi	r2,r2,2047
 801114c:	0241ffc4 	movi	r9,2047
 8011150:	2a14703a 	and	r10,r5,r8
 8011154:	18c1ffcc 	andi	r3,r3,2047
 8011158:	3a10703a 	and	r8,r7,r8
 801115c:	280ad7fa 	srli	r5,r5,31
 8011160:	380ed7fa 	srli	r7,r7,31
 8011164:	12401d26 	beq	r2,r9,80111dc <__gedf2+0xa4>
 8011168:	0241ffc4 	movi	r9,2047
 801116c:	1a401226 	beq	r3,r9,80111b8 <__gedf2+0x80>
 8011170:	1000081e 	bne	r2,zero,8011194 <__gedf2+0x5c>
 8011174:	2296b03a 	or	r11,r4,r10
 8011178:	5813003a 	cmpeq	r9,r11,zero
 801117c:	1800091e 	bne	r3,zero,80111a4 <__gedf2+0x6c>
 8011180:	3218b03a 	or	r12,r6,r8
 8011184:	6000071e 	bne	r12,zero,80111a4 <__gedf2+0x6c>
 8011188:	0005883a 	mov	r2,zero
 801118c:	5800101e 	bne	r11,zero,80111d0 <__gedf2+0x98>
 8011190:	f800283a 	ret
 8011194:	18000c1e 	bne	r3,zero,80111c8 <__gedf2+0x90>
 8011198:	3212b03a 	or	r9,r6,r8
 801119c:	48000c26 	beq	r9,zero,80111d0 <__gedf2+0x98>
 80111a0:	0013883a 	mov	r9,zero
 80111a4:	39c03fcc 	andi	r7,r7,255
 80111a8:	48000826 	beq	r9,zero,80111cc <__gedf2+0x94>
 80111ac:	38000926 	beq	r7,zero,80111d4 <__gedf2+0x9c>
 80111b0:	00800044 	movi	r2,1
 80111b4:	f800283a 	ret
 80111b8:	3212b03a 	or	r9,r6,r8
 80111bc:	483fec26 	beq	r9,zero,8011170 <__alt_data_end+0xf8011170>
 80111c0:	00bfff84 	movi	r2,-2
 80111c4:	f800283a 	ret
 80111c8:	39c03fcc 	andi	r7,r7,255
 80111cc:	29c00626 	beq	r5,r7,80111e8 <__gedf2+0xb0>
 80111d0:	283ff726 	beq	r5,zero,80111b0 <__alt_data_end+0xf80111b0>
 80111d4:	00bfffc4 	movi	r2,-1
 80111d8:	f800283a 	ret
 80111dc:	2292b03a 	or	r9,r4,r10
 80111e0:	483fe126 	beq	r9,zero,8011168 <__alt_data_end+0xf8011168>
 80111e4:	003ff606 	br	80111c0 <__alt_data_end+0xf80111c0>
 80111e8:	18bff916 	blt	r3,r2,80111d0 <__alt_data_end+0xf80111d0>
 80111ec:	10c00316 	blt	r2,r3,80111fc <__gedf2+0xc4>
 80111f0:	42bff736 	bltu	r8,r10,80111d0 <__alt_data_end+0xf80111d0>
 80111f4:	52000326 	beq	r10,r8,8011204 <__gedf2+0xcc>
 80111f8:	5200042e 	bgeu	r10,r8,801120c <__gedf2+0xd4>
 80111fc:	283fec1e 	bne	r5,zero,80111b0 <__alt_data_end+0xf80111b0>
 8011200:	003ff406 	br	80111d4 <__alt_data_end+0xf80111d4>
 8011204:	313ff236 	bltu	r6,r4,80111d0 <__alt_data_end+0xf80111d0>
 8011208:	21bffc36 	bltu	r4,r6,80111fc <__alt_data_end+0xf80111fc>
 801120c:	0005883a 	mov	r2,zero
 8011210:	f800283a 	ret

08011214 <__muldf3>:
 8011214:	deffee04 	addi	sp,sp,-72
 8011218:	dd000c15 	stw	r20,48(sp)
 801121c:	2828d53a 	srli	r20,r5,20
 8011220:	ddc00f15 	stw	r23,60(sp)
 8011224:	282ed7fa 	srli	r23,r5,31
 8011228:	dc000815 	stw	r16,32(sp)
 801122c:	04000434 	movhi	r16,16
 8011230:	dcc00b15 	stw	r19,44(sp)
 8011234:	843fffc4 	addi	r16,r16,-1
 8011238:	dfc01115 	stw	ra,68(sp)
 801123c:	df001015 	stw	fp,64(sp)
 8011240:	dd800e15 	stw	r22,56(sp)
 8011244:	dd400d15 	stw	r21,52(sp)
 8011248:	dc800a15 	stw	r18,40(sp)
 801124c:	dc400915 	stw	r17,36(sp)
 8011250:	a501ffcc 	andi	r20,r20,2047
 8011254:	2c20703a 	and	r16,r5,r16
 8011258:	b827883a 	mov	r19,r23
 801125c:	ba403fcc 	andi	r9,r23,255
 8011260:	a0006026 	beq	r20,zero,80113e4 <__muldf3+0x1d0>
 8011264:	0081ffc4 	movi	r2,2047
 8011268:	202d883a 	mov	r22,r4
 801126c:	a0803626 	beq	r20,r2,8011348 <__muldf3+0x134>
 8011270:	84000434 	orhi	r16,r16,16
 8011274:	200ad77a 	srli	r5,r4,29
 8011278:	800490fa 	slli	r2,r16,3
 801127c:	202c90fa 	slli	r22,r4,3
 8011280:	a53f0044 	addi	r20,r20,-1023
 8011284:	28a0b03a 	or	r16,r5,r2
 8011288:	002b883a 	mov	r21,zero
 801128c:	000b883a 	mov	r5,zero
 8011290:	3804d53a 	srli	r2,r7,20
 8011294:	3838d7fa 	srli	fp,r7,31
 8011298:	04400434 	movhi	r17,16
 801129c:	8c7fffc4 	addi	r17,r17,-1
 80112a0:	1081ffcc 	andi	r2,r2,2047
 80112a4:	3025883a 	mov	r18,r6
 80112a8:	3c62703a 	and	r17,r7,r17
 80112ac:	e2803fcc 	andi	r10,fp,255
 80112b0:	10006d26 	beq	r2,zero,8011468 <__muldf3+0x254>
 80112b4:	00c1ffc4 	movi	r3,2047
 80112b8:	10c06526 	beq	r2,r3,8011450 <__muldf3+0x23c>
 80112bc:	8c400434 	orhi	r17,r17,16
 80112c0:	300ed77a 	srli	r7,r6,29
 80112c4:	880690fa 	slli	r3,r17,3
 80112c8:	302490fa 	slli	r18,r6,3
 80112cc:	10bf0044 	addi	r2,r2,-1023
 80112d0:	38e2b03a 	or	r17,r7,r3
 80112d4:	000f883a 	mov	r7,zero
 80112d8:	a087883a 	add	r3,r20,r2
 80112dc:	010003c4 	movi	r4,15
 80112e0:	3d44b03a 	or	r2,r7,r21
 80112e4:	e5ccf03a 	xor	r6,fp,r23
 80112e8:	1a000044 	addi	r8,r3,1
 80112ec:	20809b36 	bltu	r4,r2,801155c <__muldf3+0x348>
 80112f0:	100490ba 	slli	r2,r2,2
 80112f4:	01020074 	movhi	r4,2049
 80112f8:	2104c204 	addi	r4,r4,4872
 80112fc:	1105883a 	add	r2,r2,r4
 8011300:	10800017 	ldw	r2,0(r2)
 8011304:	1000683a 	jmp	r2
 8011308:	0801155c 	xori	zero,at,1109
 801130c:	08011368 	cmpgeui	zero,at,1101
 8011310:	08011368 	cmpgeui	zero,at,1101
 8011314:	08011364 	muli	zero,at,1101
 8011318:	08011538 	rdprs	zero,at,1108
 801131c:	08011538 	rdprs	zero,at,1108
 8011320:	08011520 	cmpeqi	zero,at,1108
 8011324:	08011364 	muli	zero,at,1101
 8011328:	08011538 	rdprs	zero,at,1108
 801132c:	08011520 	cmpeqi	zero,at,1108
 8011330:	08011538 	rdprs	zero,at,1108
 8011334:	08011364 	muli	zero,at,1101
 8011338:	08011548 	cmpgei	zero,at,1109
 801133c:	08011548 	cmpgei	zero,at,1109
 8011340:	08011548 	cmpgei	zero,at,1109
 8011344:	080118a8 	cmpgeui	zero,at,1122
 8011348:	2404b03a 	or	r2,r4,r16
 801134c:	1000711e 	bne	r2,zero,8011514 <__muldf3+0x300>
 8011350:	05400204 	movi	r21,8
 8011354:	0021883a 	mov	r16,zero
 8011358:	002d883a 	mov	r22,zero
 801135c:	01400084 	movi	r5,2
 8011360:	003fcb06 	br	8011290 <__alt_data_end+0xf8011290>
 8011364:	500d883a 	mov	r6,r10
 8011368:	00800084 	movi	r2,2
 801136c:	38805926 	beq	r7,r2,80114d4 <__muldf3+0x2c0>
 8011370:	008000c4 	movi	r2,3
 8011374:	3881bb26 	beq	r7,r2,8011a64 <__muldf3+0x850>
 8011378:	00800044 	movi	r2,1
 801137c:	3881961e 	bne	r7,r2,80119d8 <__muldf3+0x7c4>
 8011380:	3027883a 	mov	r19,r6
 8011384:	0005883a 	mov	r2,zero
 8011388:	0021883a 	mov	r16,zero
 801138c:	002d883a 	mov	r22,zero
 8011390:	1004953a 	slli	r2,r2,20
 8011394:	98c03fcc 	andi	r3,r19,255
 8011398:	04400434 	movhi	r17,16
 801139c:	8c7fffc4 	addi	r17,r17,-1
 80113a0:	180697fa 	slli	r3,r3,31
 80113a4:	8460703a 	and	r16,r16,r17
 80113a8:	80a0b03a 	or	r16,r16,r2
 80113ac:	80c6b03a 	or	r3,r16,r3
 80113b0:	b005883a 	mov	r2,r22
 80113b4:	dfc01117 	ldw	ra,68(sp)
 80113b8:	df001017 	ldw	fp,64(sp)
 80113bc:	ddc00f17 	ldw	r23,60(sp)
 80113c0:	dd800e17 	ldw	r22,56(sp)
 80113c4:	dd400d17 	ldw	r21,52(sp)
 80113c8:	dd000c17 	ldw	r20,48(sp)
 80113cc:	dcc00b17 	ldw	r19,44(sp)
 80113d0:	dc800a17 	ldw	r18,40(sp)
 80113d4:	dc400917 	ldw	r17,36(sp)
 80113d8:	dc000817 	ldw	r16,32(sp)
 80113dc:	dec01204 	addi	sp,sp,72
 80113e0:	f800283a 	ret
 80113e4:	2404b03a 	or	r2,r4,r16
 80113e8:	202b883a 	mov	r21,r4
 80113ec:	10004426 	beq	r2,zero,8011500 <__muldf3+0x2ec>
 80113f0:	80015126 	beq	r16,zero,8011938 <__muldf3+0x724>
 80113f4:	8009883a 	mov	r4,r16
 80113f8:	d9800715 	stw	r6,28(sp)
 80113fc:	d9c00215 	stw	r7,8(sp)
 8011400:	da400415 	stw	r9,16(sp)
 8011404:	80060d80 	call	80060d8 <__clzsi2>
 8011408:	d9800717 	ldw	r6,28(sp)
 801140c:	d9c00217 	ldw	r7,8(sp)
 8011410:	da400417 	ldw	r9,16(sp)
 8011414:	113ffd44 	addi	r4,r2,-11
 8011418:	00c00704 	movi	r3,28
 801141c:	19014216 	blt	r3,r4,8011928 <__muldf3+0x714>
 8011420:	00c00744 	movi	r3,29
 8011424:	15bffe04 	addi	r22,r2,-8
 8011428:	1907c83a 	sub	r3,r3,r4
 801142c:	85a0983a 	sll	r16,r16,r22
 8011430:	a8c6d83a 	srl	r3,r21,r3
 8011434:	adac983a 	sll	r22,r21,r22
 8011438:	1c20b03a 	or	r16,r3,r16
 801143c:	1080fcc4 	addi	r2,r2,1011
 8011440:	00a9c83a 	sub	r20,zero,r2
 8011444:	002b883a 	mov	r21,zero
 8011448:	000b883a 	mov	r5,zero
 801144c:	003f9006 	br	8011290 <__alt_data_end+0xf8011290>
 8011450:	3446b03a 	or	r3,r6,r17
 8011454:	1800281e 	bne	r3,zero,80114f8 <__muldf3+0x2e4>
 8011458:	0023883a 	mov	r17,zero
 801145c:	0025883a 	mov	r18,zero
 8011460:	01c00084 	movi	r7,2
 8011464:	003f9c06 	br	80112d8 <__alt_data_end+0xf80112d8>
 8011468:	3446b03a 	or	r3,r6,r17
 801146c:	18001e26 	beq	r3,zero,80114e8 <__muldf3+0x2d4>
 8011470:	88012126 	beq	r17,zero,80118f8 <__muldf3+0x6e4>
 8011474:	8809883a 	mov	r4,r17
 8011478:	d9400215 	stw	r5,8(sp)
 801147c:	d9800715 	stw	r6,28(sp)
 8011480:	da400415 	stw	r9,16(sp)
 8011484:	da800315 	stw	r10,12(sp)
 8011488:	80060d80 	call	80060d8 <__clzsi2>
 801148c:	d9400217 	ldw	r5,8(sp)
 8011490:	d9800717 	ldw	r6,28(sp)
 8011494:	da400417 	ldw	r9,16(sp)
 8011498:	da800317 	ldw	r10,12(sp)
 801149c:	113ffd44 	addi	r4,r2,-11
 80114a0:	00c00704 	movi	r3,28
 80114a4:	19011016 	blt	r3,r4,80118e8 <__muldf3+0x6d4>
 80114a8:	00c00744 	movi	r3,29
 80114ac:	14bffe04 	addi	r18,r2,-8
 80114b0:	1907c83a 	sub	r3,r3,r4
 80114b4:	8ca2983a 	sll	r17,r17,r18
 80114b8:	30c6d83a 	srl	r3,r6,r3
 80114bc:	34a4983a 	sll	r18,r6,r18
 80114c0:	1c62b03a 	or	r17,r3,r17
 80114c4:	1080fcc4 	addi	r2,r2,1011
 80114c8:	0085c83a 	sub	r2,zero,r2
 80114cc:	000f883a 	mov	r7,zero
 80114d0:	003f8106 	br	80112d8 <__alt_data_end+0xf80112d8>
 80114d4:	3027883a 	mov	r19,r6
 80114d8:	0081ffc4 	movi	r2,2047
 80114dc:	0021883a 	mov	r16,zero
 80114e0:	002d883a 	mov	r22,zero
 80114e4:	003faa06 	br	8011390 <__alt_data_end+0xf8011390>
 80114e8:	0023883a 	mov	r17,zero
 80114ec:	0025883a 	mov	r18,zero
 80114f0:	01c00044 	movi	r7,1
 80114f4:	003f7806 	br	80112d8 <__alt_data_end+0xf80112d8>
 80114f8:	01c000c4 	movi	r7,3
 80114fc:	003f7606 	br	80112d8 <__alt_data_end+0xf80112d8>
 8011500:	05400104 	movi	r21,4
 8011504:	0021883a 	mov	r16,zero
 8011508:	002d883a 	mov	r22,zero
 801150c:	01400044 	movi	r5,1
 8011510:	003f5f06 	br	8011290 <__alt_data_end+0xf8011290>
 8011514:	05400304 	movi	r21,12
 8011518:	014000c4 	movi	r5,3
 801151c:	003f5c06 	br	8011290 <__alt_data_end+0xf8011290>
 8011520:	04000434 	movhi	r16,16
 8011524:	0027883a 	mov	r19,zero
 8011528:	843fffc4 	addi	r16,r16,-1
 801152c:	05bfffc4 	movi	r22,-1
 8011530:	0081ffc4 	movi	r2,2047
 8011534:	003f9606 	br	8011390 <__alt_data_end+0xf8011390>
 8011538:	8023883a 	mov	r17,r16
 801153c:	b025883a 	mov	r18,r22
 8011540:	280f883a 	mov	r7,r5
 8011544:	003f8806 	br	8011368 <__alt_data_end+0xf8011368>
 8011548:	8023883a 	mov	r17,r16
 801154c:	b025883a 	mov	r18,r22
 8011550:	480d883a 	mov	r6,r9
 8011554:	280f883a 	mov	r7,r5
 8011558:	003f8306 	br	8011368 <__alt_data_end+0xf8011368>
 801155c:	b026d43a 	srli	r19,r22,16
 8011560:	902ed43a 	srli	r23,r18,16
 8011564:	b5bfffcc 	andi	r22,r22,65535
 8011568:	94bfffcc 	andi	r18,r18,65535
 801156c:	b00b883a 	mov	r5,r22
 8011570:	9009883a 	mov	r4,r18
 8011574:	d8c00515 	stw	r3,20(sp)
 8011578:	d9800715 	stw	r6,28(sp)
 801157c:	da000615 	stw	r8,24(sp)
 8011580:	80054680 	call	8005468 <__mulsi3>
 8011584:	980b883a 	mov	r5,r19
 8011588:	9009883a 	mov	r4,r18
 801158c:	1029883a 	mov	r20,r2
 8011590:	80054680 	call	8005468 <__mulsi3>
 8011594:	b80b883a 	mov	r5,r23
 8011598:	9809883a 	mov	r4,r19
 801159c:	102b883a 	mov	r21,r2
 80115a0:	80054680 	call	8005468 <__mulsi3>
 80115a4:	b809883a 	mov	r4,r23
 80115a8:	b00b883a 	mov	r5,r22
 80115ac:	1039883a 	mov	fp,r2
 80115b0:	80054680 	call	8005468 <__mulsi3>
 80115b4:	a008d43a 	srli	r4,r20,16
 80115b8:	1545883a 	add	r2,r2,r21
 80115bc:	d8c00517 	ldw	r3,20(sp)
 80115c0:	2085883a 	add	r2,r4,r2
 80115c4:	d9800717 	ldw	r6,28(sp)
 80115c8:	da000617 	ldw	r8,24(sp)
 80115cc:	1540022e 	bgeu	r2,r21,80115d8 <__muldf3+0x3c4>
 80115d0:	01000074 	movhi	r4,1
 80115d4:	e139883a 	add	fp,fp,r4
 80115d8:	100e943a 	slli	r7,r2,16
 80115dc:	1004d43a 	srli	r2,r2,16
 80115e0:	882ad43a 	srli	r21,r17,16
 80115e4:	a53fffcc 	andi	r20,r20,65535
 80115e8:	8c7fffcc 	andi	r17,r17,65535
 80115ec:	3d29883a 	add	r20,r7,r20
 80115f0:	b00b883a 	mov	r5,r22
 80115f4:	8809883a 	mov	r4,r17
 80115f8:	d8c00515 	stw	r3,20(sp)
 80115fc:	d9800715 	stw	r6,28(sp)
 8011600:	da000615 	stw	r8,24(sp)
 8011604:	dd000115 	stw	r20,4(sp)
 8011608:	d8800015 	stw	r2,0(sp)
 801160c:	80054680 	call	8005468 <__mulsi3>
 8011610:	980b883a 	mov	r5,r19
 8011614:	8809883a 	mov	r4,r17
 8011618:	d8800215 	stw	r2,8(sp)
 801161c:	80054680 	call	8005468 <__mulsi3>
 8011620:	9809883a 	mov	r4,r19
 8011624:	a80b883a 	mov	r5,r21
 8011628:	1029883a 	mov	r20,r2
 801162c:	80054680 	call	8005468 <__mulsi3>
 8011630:	b00b883a 	mov	r5,r22
 8011634:	a809883a 	mov	r4,r21
 8011638:	d8800415 	stw	r2,16(sp)
 801163c:	80054680 	call	8005468 <__mulsi3>
 8011640:	d9c00217 	ldw	r7,8(sp)
 8011644:	1505883a 	add	r2,r2,r20
 8011648:	d8c00517 	ldw	r3,20(sp)
 801164c:	3826d43a 	srli	r19,r7,16
 8011650:	d9800717 	ldw	r6,28(sp)
 8011654:	da000617 	ldw	r8,24(sp)
 8011658:	9885883a 	add	r2,r19,r2
 801165c:	da400417 	ldw	r9,16(sp)
 8011660:	1500022e 	bgeu	r2,r20,801166c <__muldf3+0x458>
 8011664:	01000074 	movhi	r4,1
 8011668:	4913883a 	add	r9,r9,r4
 801166c:	1028d43a 	srli	r20,r2,16
 8011670:	1004943a 	slli	r2,r2,16
 8011674:	802cd43a 	srli	r22,r16,16
 8011678:	843fffcc 	andi	r16,r16,65535
 801167c:	3cffffcc 	andi	r19,r7,65535
 8011680:	9009883a 	mov	r4,r18
 8011684:	800b883a 	mov	r5,r16
 8011688:	a269883a 	add	r20,r20,r9
 801168c:	d8c00515 	stw	r3,20(sp)
 8011690:	d9800715 	stw	r6,28(sp)
 8011694:	da000615 	stw	r8,24(sp)
 8011698:	14e7883a 	add	r19,r2,r19
 801169c:	80054680 	call	8005468 <__mulsi3>
 80116a0:	9009883a 	mov	r4,r18
 80116a4:	b00b883a 	mov	r5,r22
 80116a8:	d8800315 	stw	r2,12(sp)
 80116ac:	80054680 	call	8005468 <__mulsi3>
 80116b0:	b809883a 	mov	r4,r23
 80116b4:	b00b883a 	mov	r5,r22
 80116b8:	d8800215 	stw	r2,8(sp)
 80116bc:	80054680 	call	8005468 <__mulsi3>
 80116c0:	b80b883a 	mov	r5,r23
 80116c4:	8009883a 	mov	r4,r16
 80116c8:	d8800415 	stw	r2,16(sp)
 80116cc:	80054680 	call	8005468 <__mulsi3>
 80116d0:	da800317 	ldw	r10,12(sp)
 80116d4:	d9c00217 	ldw	r7,8(sp)
 80116d8:	d9000017 	ldw	r4,0(sp)
 80116dc:	502ed43a 	srli	r23,r10,16
 80116e0:	11c5883a 	add	r2,r2,r7
 80116e4:	24e5883a 	add	r18,r4,r19
 80116e8:	b885883a 	add	r2,r23,r2
 80116ec:	d8c00517 	ldw	r3,20(sp)
 80116f0:	d9800717 	ldw	r6,28(sp)
 80116f4:	da000617 	ldw	r8,24(sp)
 80116f8:	da400417 	ldw	r9,16(sp)
 80116fc:	11c0022e 	bgeu	r2,r7,8011708 <__muldf3+0x4f4>
 8011700:	01000074 	movhi	r4,1
 8011704:	4913883a 	add	r9,r9,r4
 8011708:	100ed43a 	srli	r7,r2,16
 801170c:	1004943a 	slli	r2,r2,16
 8011710:	55ffffcc 	andi	r23,r10,65535
 8011714:	3a53883a 	add	r9,r7,r9
 8011718:	8809883a 	mov	r4,r17
 801171c:	800b883a 	mov	r5,r16
 8011720:	d8c00515 	stw	r3,20(sp)
 8011724:	d9800715 	stw	r6,28(sp)
 8011728:	da000615 	stw	r8,24(sp)
 801172c:	da400415 	stw	r9,16(sp)
 8011730:	15ef883a 	add	r23,r2,r23
 8011734:	80054680 	call	8005468 <__mulsi3>
 8011738:	8809883a 	mov	r4,r17
 801173c:	b00b883a 	mov	r5,r22
 8011740:	d8800215 	stw	r2,8(sp)
 8011744:	80054680 	call	8005468 <__mulsi3>
 8011748:	b00b883a 	mov	r5,r22
 801174c:	a809883a 	mov	r4,r21
 8011750:	d8800315 	stw	r2,12(sp)
 8011754:	80054680 	call	8005468 <__mulsi3>
 8011758:	8009883a 	mov	r4,r16
 801175c:	a80b883a 	mov	r5,r21
 8011760:	1023883a 	mov	r17,r2
 8011764:	80054680 	call	8005468 <__mulsi3>
 8011768:	d9c00217 	ldw	r7,8(sp)
 801176c:	da800317 	ldw	r10,12(sp)
 8011770:	d8c00517 	ldw	r3,20(sp)
 8011774:	3808d43a 	srli	r4,r7,16
 8011778:	1285883a 	add	r2,r2,r10
 801177c:	d9800717 	ldw	r6,28(sp)
 8011780:	2085883a 	add	r2,r4,r2
 8011784:	da000617 	ldw	r8,24(sp)
 8011788:	da400417 	ldw	r9,16(sp)
 801178c:	1280022e 	bgeu	r2,r10,8011798 <__muldf3+0x584>
 8011790:	01000074 	movhi	r4,1
 8011794:	8923883a 	add	r17,r17,r4
 8011798:	1008943a 	slli	r4,r2,16
 801179c:	39ffffcc 	andi	r7,r7,65535
 80117a0:	e4b9883a 	add	fp,fp,r18
 80117a4:	21cf883a 	add	r7,r4,r7
 80117a8:	e4e7803a 	cmpltu	r19,fp,r19
 80117ac:	3d0f883a 	add	r7,r7,r20
 80117b0:	bf39883a 	add	fp,r23,fp
 80117b4:	99c9883a 	add	r4,r19,r7
 80117b8:	e5ef803a 	cmpltu	r23,fp,r23
 80117bc:	490b883a 	add	r5,r9,r4
 80117c0:	1004d43a 	srli	r2,r2,16
 80117c4:	b965883a 	add	r18,r23,r5
 80117c8:	24c9803a 	cmpltu	r4,r4,r19
 80117cc:	3d29803a 	cmpltu	r20,r7,r20
 80117d0:	a128b03a 	or	r20,r20,r4
 80117d4:	95ef803a 	cmpltu	r23,r18,r23
 80117d8:	2a53803a 	cmpltu	r9,r5,r9
 80117dc:	a0a9883a 	add	r20,r20,r2
 80117e0:	4deeb03a 	or	r23,r9,r23
 80117e4:	a5ef883a 	add	r23,r20,r23
 80117e8:	bc63883a 	add	r17,r23,r17
 80117ec:	e004927a 	slli	r2,fp,9
 80117f0:	d9000117 	ldw	r4,4(sp)
 80117f4:	882e927a 	slli	r23,r17,9
 80117f8:	9022d5fa 	srli	r17,r18,23
 80117fc:	e038d5fa 	srli	fp,fp,23
 8011800:	1104b03a 	or	r2,r2,r4
 8011804:	9024927a 	slli	r18,r18,9
 8011808:	1004c03a 	cmpne	r2,r2,zero
 801180c:	bc62b03a 	or	r17,r23,r17
 8011810:	1738b03a 	or	fp,r2,fp
 8011814:	8880402c 	andhi	r2,r17,256
 8011818:	e4a4b03a 	or	r18,fp,r18
 801181c:	10000726 	beq	r2,zero,801183c <__muldf3+0x628>
 8011820:	9006d07a 	srli	r3,r18,1
 8011824:	880497fa 	slli	r2,r17,31
 8011828:	9480004c 	andi	r18,r18,1
 801182c:	8822d07a 	srli	r17,r17,1
 8011830:	1ca4b03a 	or	r18,r3,r18
 8011834:	14a4b03a 	or	r18,r2,r18
 8011838:	4007883a 	mov	r3,r8
 801183c:	1880ffc4 	addi	r2,r3,1023
 8011840:	0080460e 	bge	zero,r2,801195c <__muldf3+0x748>
 8011844:	910001cc 	andi	r4,r18,7
 8011848:	20000726 	beq	r4,zero,8011868 <__muldf3+0x654>
 801184c:	910003cc 	andi	r4,r18,15
 8011850:	01400104 	movi	r5,4
 8011854:	21400426 	beq	r4,r5,8011868 <__muldf3+0x654>
 8011858:	9149883a 	add	r4,r18,r5
 801185c:	24a5803a 	cmpltu	r18,r4,r18
 8011860:	8ca3883a 	add	r17,r17,r18
 8011864:	2025883a 	mov	r18,r4
 8011868:	8900402c 	andhi	r4,r17,256
 801186c:	20000426 	beq	r4,zero,8011880 <__muldf3+0x66c>
 8011870:	18810004 	addi	r2,r3,1024
 8011874:	00ffc034 	movhi	r3,65280
 8011878:	18ffffc4 	addi	r3,r3,-1
 801187c:	88e2703a 	and	r17,r17,r3
 8011880:	00c1ff84 	movi	r3,2046
 8011884:	18bf1316 	blt	r3,r2,80114d4 <__alt_data_end+0xf80114d4>
 8011888:	882c977a 	slli	r22,r17,29
 801188c:	9024d0fa 	srli	r18,r18,3
 8011890:	8822927a 	slli	r17,r17,9
 8011894:	1081ffcc 	andi	r2,r2,2047
 8011898:	b4acb03a 	or	r22,r22,r18
 801189c:	8820d33a 	srli	r16,r17,12
 80118a0:	3027883a 	mov	r19,r6
 80118a4:	003eba06 	br	8011390 <__alt_data_end+0xf8011390>
 80118a8:	8080022c 	andhi	r2,r16,8
 80118ac:	10000926 	beq	r2,zero,80118d4 <__muldf3+0x6c0>
 80118b0:	8880022c 	andhi	r2,r17,8
 80118b4:	1000071e 	bne	r2,zero,80118d4 <__muldf3+0x6c0>
 80118b8:	00800434 	movhi	r2,16
 80118bc:	8c000234 	orhi	r16,r17,8
 80118c0:	10bfffc4 	addi	r2,r2,-1
 80118c4:	e027883a 	mov	r19,fp
 80118c8:	80a0703a 	and	r16,r16,r2
 80118cc:	902d883a 	mov	r22,r18
 80118d0:	003f1706 	br	8011530 <__alt_data_end+0xf8011530>
 80118d4:	00800434 	movhi	r2,16
 80118d8:	84000234 	orhi	r16,r16,8
 80118dc:	10bfffc4 	addi	r2,r2,-1
 80118e0:	80a0703a 	and	r16,r16,r2
 80118e4:	003f1206 	br	8011530 <__alt_data_end+0xf8011530>
 80118e8:	147ff604 	addi	r17,r2,-40
 80118ec:	3462983a 	sll	r17,r6,r17
 80118f0:	0025883a 	mov	r18,zero
 80118f4:	003ef306 	br	80114c4 <__alt_data_end+0xf80114c4>
 80118f8:	3009883a 	mov	r4,r6
 80118fc:	d9400215 	stw	r5,8(sp)
 8011900:	d9800715 	stw	r6,28(sp)
 8011904:	da400415 	stw	r9,16(sp)
 8011908:	da800315 	stw	r10,12(sp)
 801190c:	80060d80 	call	80060d8 <__clzsi2>
 8011910:	10800804 	addi	r2,r2,32
 8011914:	da800317 	ldw	r10,12(sp)
 8011918:	da400417 	ldw	r9,16(sp)
 801191c:	d9800717 	ldw	r6,28(sp)
 8011920:	d9400217 	ldw	r5,8(sp)
 8011924:	003edd06 	br	801149c <__alt_data_end+0xf801149c>
 8011928:	143ff604 	addi	r16,r2,-40
 801192c:	ac20983a 	sll	r16,r21,r16
 8011930:	002d883a 	mov	r22,zero
 8011934:	003ec106 	br	801143c <__alt_data_end+0xf801143c>
 8011938:	d9800715 	stw	r6,28(sp)
 801193c:	d9c00215 	stw	r7,8(sp)
 8011940:	da400415 	stw	r9,16(sp)
 8011944:	80060d80 	call	80060d8 <__clzsi2>
 8011948:	10800804 	addi	r2,r2,32
 801194c:	da400417 	ldw	r9,16(sp)
 8011950:	d9c00217 	ldw	r7,8(sp)
 8011954:	d9800717 	ldw	r6,28(sp)
 8011958:	003eae06 	br	8011414 <__alt_data_end+0xf8011414>
 801195c:	00c00044 	movi	r3,1
 8011960:	1887c83a 	sub	r3,r3,r2
 8011964:	01000e04 	movi	r4,56
 8011968:	20fe8516 	blt	r4,r3,8011380 <__alt_data_end+0xf8011380>
 801196c:	010007c4 	movi	r4,31
 8011970:	20c01b16 	blt	r4,r3,80119e0 <__muldf3+0x7cc>
 8011974:	00800804 	movi	r2,32
 8011978:	10c5c83a 	sub	r2,r2,r3
 801197c:	888a983a 	sll	r5,r17,r2
 8011980:	90c8d83a 	srl	r4,r18,r3
 8011984:	9084983a 	sll	r2,r18,r2
 8011988:	88e2d83a 	srl	r17,r17,r3
 801198c:	2906b03a 	or	r3,r5,r4
 8011990:	1004c03a 	cmpne	r2,r2,zero
 8011994:	1886b03a 	or	r3,r3,r2
 8011998:	188001cc 	andi	r2,r3,7
 801199c:	10000726 	beq	r2,zero,80119bc <__muldf3+0x7a8>
 80119a0:	188003cc 	andi	r2,r3,15
 80119a4:	01000104 	movi	r4,4
 80119a8:	11000426 	beq	r2,r4,80119bc <__muldf3+0x7a8>
 80119ac:	1805883a 	mov	r2,r3
 80119b0:	10c00104 	addi	r3,r2,4
 80119b4:	1885803a 	cmpltu	r2,r3,r2
 80119b8:	88a3883a 	add	r17,r17,r2
 80119bc:	8880202c 	andhi	r2,r17,128
 80119c0:	10001c26 	beq	r2,zero,8011a34 <__muldf3+0x820>
 80119c4:	3027883a 	mov	r19,r6
 80119c8:	00800044 	movi	r2,1
 80119cc:	0021883a 	mov	r16,zero
 80119d0:	002d883a 	mov	r22,zero
 80119d4:	003e6e06 	br	8011390 <__alt_data_end+0xf8011390>
 80119d8:	4007883a 	mov	r3,r8
 80119dc:	003f9706 	br	801183c <__alt_data_end+0xf801183c>
 80119e0:	017ff844 	movi	r5,-31
 80119e4:	2885c83a 	sub	r2,r5,r2
 80119e8:	888ad83a 	srl	r5,r17,r2
 80119ec:	00800804 	movi	r2,32
 80119f0:	18801a26 	beq	r3,r2,8011a5c <__muldf3+0x848>
 80119f4:	01001004 	movi	r4,64
 80119f8:	20c7c83a 	sub	r3,r4,r3
 80119fc:	88e2983a 	sll	r17,r17,r3
 8011a00:	8ca4b03a 	or	r18,r17,r18
 8011a04:	9004c03a 	cmpne	r2,r18,zero
 8011a08:	2884b03a 	or	r2,r5,r2
 8011a0c:	144001cc 	andi	r17,r2,7
 8011a10:	88000d1e 	bne	r17,zero,8011a48 <__muldf3+0x834>
 8011a14:	0021883a 	mov	r16,zero
 8011a18:	102cd0fa 	srli	r22,r2,3
 8011a1c:	3027883a 	mov	r19,r6
 8011a20:	0005883a 	mov	r2,zero
 8011a24:	b46cb03a 	or	r22,r22,r17
 8011a28:	003e5906 	br	8011390 <__alt_data_end+0xf8011390>
 8011a2c:	1007883a 	mov	r3,r2
 8011a30:	0023883a 	mov	r17,zero
 8011a34:	8820927a 	slli	r16,r17,9
 8011a38:	1805883a 	mov	r2,r3
 8011a3c:	8822977a 	slli	r17,r17,29
 8011a40:	8020d33a 	srli	r16,r16,12
 8011a44:	003ff406 	br	8011a18 <__alt_data_end+0xf8011a18>
 8011a48:	10c003cc 	andi	r3,r2,15
 8011a4c:	01000104 	movi	r4,4
 8011a50:	193ff626 	beq	r3,r4,8011a2c <__alt_data_end+0xf8011a2c>
 8011a54:	0023883a 	mov	r17,zero
 8011a58:	003fd506 	br	80119b0 <__alt_data_end+0xf80119b0>
 8011a5c:	0023883a 	mov	r17,zero
 8011a60:	003fe706 	br	8011a00 <__alt_data_end+0xf8011a00>
 8011a64:	00800434 	movhi	r2,16
 8011a68:	8c000234 	orhi	r16,r17,8
 8011a6c:	10bfffc4 	addi	r2,r2,-1
 8011a70:	3027883a 	mov	r19,r6
 8011a74:	80a0703a 	and	r16,r16,r2
 8011a78:	902d883a 	mov	r22,r18
 8011a7c:	003eac06 	br	8011530 <__alt_data_end+0xf8011530>

08011a80 <__subdf3>:
 8011a80:	02000434 	movhi	r8,16
 8011a84:	423fffc4 	addi	r8,r8,-1
 8011a88:	defffb04 	addi	sp,sp,-20
 8011a8c:	2a14703a 	and	r10,r5,r8
 8011a90:	3812d53a 	srli	r9,r7,20
 8011a94:	3a10703a 	and	r8,r7,r8
 8011a98:	2006d77a 	srli	r3,r4,29
 8011a9c:	3004d77a 	srli	r2,r6,29
 8011aa0:	dc000015 	stw	r16,0(sp)
 8011aa4:	501490fa 	slli	r10,r10,3
 8011aa8:	2820d53a 	srli	r16,r5,20
 8011aac:	401090fa 	slli	r8,r8,3
 8011ab0:	dc800215 	stw	r18,8(sp)
 8011ab4:	dc400115 	stw	r17,4(sp)
 8011ab8:	dfc00415 	stw	ra,16(sp)
 8011abc:	202290fa 	slli	r17,r4,3
 8011ac0:	dcc00315 	stw	r19,12(sp)
 8011ac4:	4a41ffcc 	andi	r9,r9,2047
 8011ac8:	0101ffc4 	movi	r4,2047
 8011acc:	2824d7fa 	srli	r18,r5,31
 8011ad0:	8401ffcc 	andi	r16,r16,2047
 8011ad4:	50c6b03a 	or	r3,r10,r3
 8011ad8:	380ed7fa 	srli	r7,r7,31
 8011adc:	408ab03a 	or	r5,r8,r2
 8011ae0:	300c90fa 	slli	r6,r6,3
 8011ae4:	49009626 	beq	r9,r4,8011d40 <__subdf3+0x2c0>
 8011ae8:	39c0005c 	xori	r7,r7,1
 8011aec:	8245c83a 	sub	r2,r16,r9
 8011af0:	3c807426 	beq	r7,r18,8011cc4 <__subdf3+0x244>
 8011af4:	0080af0e 	bge	zero,r2,8011db4 <__subdf3+0x334>
 8011af8:	48002a1e 	bne	r9,zero,8011ba4 <__subdf3+0x124>
 8011afc:	2988b03a 	or	r4,r5,r6
 8011b00:	20009a1e 	bne	r4,zero,8011d6c <__subdf3+0x2ec>
 8011b04:	888001cc 	andi	r2,r17,7
 8011b08:	10000726 	beq	r2,zero,8011b28 <__subdf3+0xa8>
 8011b0c:	888003cc 	andi	r2,r17,15
 8011b10:	01000104 	movi	r4,4
 8011b14:	11000426 	beq	r2,r4,8011b28 <__subdf3+0xa8>
 8011b18:	890b883a 	add	r5,r17,r4
 8011b1c:	2c63803a 	cmpltu	r17,r5,r17
 8011b20:	1c47883a 	add	r3,r3,r17
 8011b24:	2823883a 	mov	r17,r5
 8011b28:	1880202c 	andhi	r2,r3,128
 8011b2c:	10005926 	beq	r2,zero,8011c94 <__subdf3+0x214>
 8011b30:	84000044 	addi	r16,r16,1
 8011b34:	0081ffc4 	movi	r2,2047
 8011b38:	8080be26 	beq	r16,r2,8011e34 <__subdf3+0x3b4>
 8011b3c:	017fe034 	movhi	r5,65408
 8011b40:	297fffc4 	addi	r5,r5,-1
 8011b44:	1946703a 	and	r3,r3,r5
 8011b48:	1804977a 	slli	r2,r3,29
 8011b4c:	1806927a 	slli	r3,r3,9
 8011b50:	8822d0fa 	srli	r17,r17,3
 8011b54:	8401ffcc 	andi	r16,r16,2047
 8011b58:	180ad33a 	srli	r5,r3,12
 8011b5c:	9100004c 	andi	r4,r18,1
 8011b60:	1444b03a 	or	r2,r2,r17
 8011b64:	80c1ffcc 	andi	r3,r16,2047
 8011b68:	1820953a 	slli	r16,r3,20
 8011b6c:	20c03fcc 	andi	r3,r4,255
 8011b70:	180897fa 	slli	r4,r3,31
 8011b74:	00c00434 	movhi	r3,16
 8011b78:	18ffffc4 	addi	r3,r3,-1
 8011b7c:	28c6703a 	and	r3,r5,r3
 8011b80:	1c06b03a 	or	r3,r3,r16
 8011b84:	1906b03a 	or	r3,r3,r4
 8011b88:	dfc00417 	ldw	ra,16(sp)
 8011b8c:	dcc00317 	ldw	r19,12(sp)
 8011b90:	dc800217 	ldw	r18,8(sp)
 8011b94:	dc400117 	ldw	r17,4(sp)
 8011b98:	dc000017 	ldw	r16,0(sp)
 8011b9c:	dec00504 	addi	sp,sp,20
 8011ba0:	f800283a 	ret
 8011ba4:	0101ffc4 	movi	r4,2047
 8011ba8:	813fd626 	beq	r16,r4,8011b04 <__alt_data_end+0xf8011b04>
 8011bac:	29402034 	orhi	r5,r5,128
 8011bb0:	01000e04 	movi	r4,56
 8011bb4:	2080a316 	blt	r4,r2,8011e44 <__subdf3+0x3c4>
 8011bb8:	010007c4 	movi	r4,31
 8011bbc:	2080c616 	blt	r4,r2,8011ed8 <__subdf3+0x458>
 8011bc0:	01000804 	movi	r4,32
 8011bc4:	2089c83a 	sub	r4,r4,r2
 8011bc8:	2910983a 	sll	r8,r5,r4
 8011bcc:	308ed83a 	srl	r7,r6,r2
 8011bd0:	3108983a 	sll	r4,r6,r4
 8011bd4:	2884d83a 	srl	r2,r5,r2
 8011bd8:	41ccb03a 	or	r6,r8,r7
 8011bdc:	2008c03a 	cmpne	r4,r4,zero
 8011be0:	310cb03a 	or	r6,r6,r4
 8011be4:	898dc83a 	sub	r6,r17,r6
 8011be8:	89a3803a 	cmpltu	r17,r17,r6
 8011bec:	1887c83a 	sub	r3,r3,r2
 8011bf0:	1c47c83a 	sub	r3,r3,r17
 8011bf4:	3023883a 	mov	r17,r6
 8011bf8:	1880202c 	andhi	r2,r3,128
 8011bfc:	10002326 	beq	r2,zero,8011c8c <__subdf3+0x20c>
 8011c00:	04c02034 	movhi	r19,128
 8011c04:	9cffffc4 	addi	r19,r19,-1
 8011c08:	1ce6703a 	and	r19,r3,r19
 8011c0c:	98007a26 	beq	r19,zero,8011df8 <__subdf3+0x378>
 8011c10:	9809883a 	mov	r4,r19
 8011c14:	80060d80 	call	80060d8 <__clzsi2>
 8011c18:	113ffe04 	addi	r4,r2,-8
 8011c1c:	00c007c4 	movi	r3,31
 8011c20:	19007b16 	blt	r3,r4,8011e10 <__subdf3+0x390>
 8011c24:	00800804 	movi	r2,32
 8011c28:	1105c83a 	sub	r2,r2,r4
 8011c2c:	8884d83a 	srl	r2,r17,r2
 8011c30:	9906983a 	sll	r3,r19,r4
 8011c34:	8922983a 	sll	r17,r17,r4
 8011c38:	10c4b03a 	or	r2,r2,r3
 8011c3c:	24007816 	blt	r4,r16,8011e20 <__subdf3+0x3a0>
 8011c40:	2421c83a 	sub	r16,r4,r16
 8011c44:	80c00044 	addi	r3,r16,1
 8011c48:	010007c4 	movi	r4,31
 8011c4c:	20c09516 	blt	r4,r3,8011ea4 <__subdf3+0x424>
 8011c50:	01400804 	movi	r5,32
 8011c54:	28cbc83a 	sub	r5,r5,r3
 8011c58:	88c8d83a 	srl	r4,r17,r3
 8011c5c:	8962983a 	sll	r17,r17,r5
 8011c60:	114a983a 	sll	r5,r2,r5
 8011c64:	10c6d83a 	srl	r3,r2,r3
 8011c68:	8804c03a 	cmpne	r2,r17,zero
 8011c6c:	290ab03a 	or	r5,r5,r4
 8011c70:	28a2b03a 	or	r17,r5,r2
 8011c74:	0021883a 	mov	r16,zero
 8011c78:	003fa206 	br	8011b04 <__alt_data_end+0xf8011b04>
 8011c7c:	2090b03a 	or	r8,r4,r2
 8011c80:	40018e26 	beq	r8,zero,80122bc <__subdf3+0x83c>
 8011c84:	1007883a 	mov	r3,r2
 8011c88:	2023883a 	mov	r17,r4
 8011c8c:	888001cc 	andi	r2,r17,7
 8011c90:	103f9e1e 	bne	r2,zero,8011b0c <__alt_data_end+0xf8011b0c>
 8011c94:	1804977a 	slli	r2,r3,29
 8011c98:	8822d0fa 	srli	r17,r17,3
 8011c9c:	1810d0fa 	srli	r8,r3,3
 8011ca0:	9100004c 	andi	r4,r18,1
 8011ca4:	1444b03a 	or	r2,r2,r17
 8011ca8:	00c1ffc4 	movi	r3,2047
 8011cac:	80c02826 	beq	r16,r3,8011d50 <__subdf3+0x2d0>
 8011cb0:	01400434 	movhi	r5,16
 8011cb4:	297fffc4 	addi	r5,r5,-1
 8011cb8:	80e0703a 	and	r16,r16,r3
 8011cbc:	414a703a 	and	r5,r8,r5
 8011cc0:	003fa806 	br	8011b64 <__alt_data_end+0xf8011b64>
 8011cc4:	0080630e 	bge	zero,r2,8011e54 <__subdf3+0x3d4>
 8011cc8:	48003026 	beq	r9,zero,8011d8c <__subdf3+0x30c>
 8011ccc:	0101ffc4 	movi	r4,2047
 8011cd0:	813f8c26 	beq	r16,r4,8011b04 <__alt_data_end+0xf8011b04>
 8011cd4:	29402034 	orhi	r5,r5,128
 8011cd8:	01000e04 	movi	r4,56
 8011cdc:	2080a90e 	bge	r4,r2,8011f84 <__subdf3+0x504>
 8011ce0:	298cb03a 	or	r6,r5,r6
 8011ce4:	3012c03a 	cmpne	r9,r6,zero
 8011ce8:	0005883a 	mov	r2,zero
 8011cec:	4c53883a 	add	r9,r9,r17
 8011cf0:	4c63803a 	cmpltu	r17,r9,r17
 8011cf4:	10c7883a 	add	r3,r2,r3
 8011cf8:	88c7883a 	add	r3,r17,r3
 8011cfc:	4823883a 	mov	r17,r9
 8011d00:	1880202c 	andhi	r2,r3,128
 8011d04:	1000d026 	beq	r2,zero,8012048 <__subdf3+0x5c8>
 8011d08:	84000044 	addi	r16,r16,1
 8011d0c:	0081ffc4 	movi	r2,2047
 8011d10:	8080fe26 	beq	r16,r2,801210c <__subdf3+0x68c>
 8011d14:	00bfe034 	movhi	r2,65408
 8011d18:	10bfffc4 	addi	r2,r2,-1
 8011d1c:	1886703a 	and	r3,r3,r2
 8011d20:	880ad07a 	srli	r5,r17,1
 8011d24:	180497fa 	slli	r2,r3,31
 8011d28:	8900004c 	andi	r4,r17,1
 8011d2c:	2922b03a 	or	r17,r5,r4
 8011d30:	1806d07a 	srli	r3,r3,1
 8011d34:	1462b03a 	or	r17,r2,r17
 8011d38:	3825883a 	mov	r18,r7
 8011d3c:	003f7106 	br	8011b04 <__alt_data_end+0xf8011b04>
 8011d40:	2984b03a 	or	r2,r5,r6
 8011d44:	103f6826 	beq	r2,zero,8011ae8 <__alt_data_end+0xf8011ae8>
 8011d48:	39c03fcc 	andi	r7,r7,255
 8011d4c:	003f6706 	br	8011aec <__alt_data_end+0xf8011aec>
 8011d50:	4086b03a 	or	r3,r8,r2
 8011d54:	18015226 	beq	r3,zero,80122a0 <__subdf3+0x820>
 8011d58:	00c00434 	movhi	r3,16
 8011d5c:	41400234 	orhi	r5,r8,8
 8011d60:	18ffffc4 	addi	r3,r3,-1
 8011d64:	28ca703a 	and	r5,r5,r3
 8011d68:	003f7e06 	br	8011b64 <__alt_data_end+0xf8011b64>
 8011d6c:	10bfffc4 	addi	r2,r2,-1
 8011d70:	1000491e 	bne	r2,zero,8011e98 <__subdf3+0x418>
 8011d74:	898fc83a 	sub	r7,r17,r6
 8011d78:	89e3803a 	cmpltu	r17,r17,r7
 8011d7c:	1947c83a 	sub	r3,r3,r5
 8011d80:	1c47c83a 	sub	r3,r3,r17
 8011d84:	3823883a 	mov	r17,r7
 8011d88:	003f9b06 	br	8011bf8 <__alt_data_end+0xf8011bf8>
 8011d8c:	2988b03a 	or	r4,r5,r6
 8011d90:	203f5c26 	beq	r4,zero,8011b04 <__alt_data_end+0xf8011b04>
 8011d94:	10bfffc4 	addi	r2,r2,-1
 8011d98:	1000931e 	bne	r2,zero,8011fe8 <__subdf3+0x568>
 8011d9c:	898d883a 	add	r6,r17,r6
 8011da0:	3463803a 	cmpltu	r17,r6,r17
 8011da4:	1947883a 	add	r3,r3,r5
 8011da8:	88c7883a 	add	r3,r17,r3
 8011dac:	3023883a 	mov	r17,r6
 8011db0:	003fd306 	br	8011d00 <__alt_data_end+0xf8011d00>
 8011db4:	1000541e 	bne	r2,zero,8011f08 <__subdf3+0x488>
 8011db8:	80800044 	addi	r2,r16,1
 8011dbc:	1081ffcc 	andi	r2,r2,2047
 8011dc0:	01000044 	movi	r4,1
 8011dc4:	2080a20e 	bge	r4,r2,8012050 <__subdf3+0x5d0>
 8011dc8:	8989c83a 	sub	r4,r17,r6
 8011dcc:	8905803a 	cmpltu	r2,r17,r4
 8011dd0:	1967c83a 	sub	r19,r3,r5
 8011dd4:	98a7c83a 	sub	r19,r19,r2
 8011dd8:	9880202c 	andhi	r2,r19,128
 8011ddc:	10006326 	beq	r2,zero,8011f6c <__subdf3+0x4ec>
 8011de0:	3463c83a 	sub	r17,r6,r17
 8011de4:	28c7c83a 	sub	r3,r5,r3
 8011de8:	344d803a 	cmpltu	r6,r6,r17
 8011dec:	19a7c83a 	sub	r19,r3,r6
 8011df0:	3825883a 	mov	r18,r7
 8011df4:	983f861e 	bne	r19,zero,8011c10 <__alt_data_end+0xf8011c10>
 8011df8:	8809883a 	mov	r4,r17
 8011dfc:	80060d80 	call	80060d8 <__clzsi2>
 8011e00:	10800804 	addi	r2,r2,32
 8011e04:	113ffe04 	addi	r4,r2,-8
 8011e08:	00c007c4 	movi	r3,31
 8011e0c:	193f850e 	bge	r3,r4,8011c24 <__alt_data_end+0xf8011c24>
 8011e10:	10bff604 	addi	r2,r2,-40
 8011e14:	8884983a 	sll	r2,r17,r2
 8011e18:	0023883a 	mov	r17,zero
 8011e1c:	243f880e 	bge	r4,r16,8011c40 <__alt_data_end+0xf8011c40>
 8011e20:	00ffe034 	movhi	r3,65408
 8011e24:	18ffffc4 	addi	r3,r3,-1
 8011e28:	8121c83a 	sub	r16,r16,r4
 8011e2c:	10c6703a 	and	r3,r2,r3
 8011e30:	003f3406 	br	8011b04 <__alt_data_end+0xf8011b04>
 8011e34:	9100004c 	andi	r4,r18,1
 8011e38:	000b883a 	mov	r5,zero
 8011e3c:	0005883a 	mov	r2,zero
 8011e40:	003f4806 	br	8011b64 <__alt_data_end+0xf8011b64>
 8011e44:	298cb03a 	or	r6,r5,r6
 8011e48:	300cc03a 	cmpne	r6,r6,zero
 8011e4c:	0005883a 	mov	r2,zero
 8011e50:	003f6406 	br	8011be4 <__alt_data_end+0xf8011be4>
 8011e54:	10009a1e 	bne	r2,zero,80120c0 <__subdf3+0x640>
 8011e58:	82400044 	addi	r9,r16,1
 8011e5c:	4881ffcc 	andi	r2,r9,2047
 8011e60:	02800044 	movi	r10,1
 8011e64:	5080670e 	bge	r10,r2,8012004 <__subdf3+0x584>
 8011e68:	0081ffc4 	movi	r2,2047
 8011e6c:	4880af26 	beq	r9,r2,801212c <__subdf3+0x6ac>
 8011e70:	898d883a 	add	r6,r17,r6
 8011e74:	1945883a 	add	r2,r3,r5
 8011e78:	3447803a 	cmpltu	r3,r6,r17
 8011e7c:	1887883a 	add	r3,r3,r2
 8011e80:	182297fa 	slli	r17,r3,31
 8011e84:	300cd07a 	srli	r6,r6,1
 8011e88:	1806d07a 	srli	r3,r3,1
 8011e8c:	4821883a 	mov	r16,r9
 8011e90:	89a2b03a 	or	r17,r17,r6
 8011e94:	003f1b06 	br	8011b04 <__alt_data_end+0xf8011b04>
 8011e98:	0101ffc4 	movi	r4,2047
 8011e9c:	813f441e 	bne	r16,r4,8011bb0 <__alt_data_end+0xf8011bb0>
 8011ea0:	003f1806 	br	8011b04 <__alt_data_end+0xf8011b04>
 8011ea4:	843ff844 	addi	r16,r16,-31
 8011ea8:	01400804 	movi	r5,32
 8011eac:	1408d83a 	srl	r4,r2,r16
 8011eb0:	19405026 	beq	r3,r5,8011ff4 <__subdf3+0x574>
 8011eb4:	01401004 	movi	r5,64
 8011eb8:	28c7c83a 	sub	r3,r5,r3
 8011ebc:	10c4983a 	sll	r2,r2,r3
 8011ec0:	88a2b03a 	or	r17,r17,r2
 8011ec4:	8822c03a 	cmpne	r17,r17,zero
 8011ec8:	2462b03a 	or	r17,r4,r17
 8011ecc:	0007883a 	mov	r3,zero
 8011ed0:	0021883a 	mov	r16,zero
 8011ed4:	003f6d06 	br	8011c8c <__alt_data_end+0xf8011c8c>
 8011ed8:	11fff804 	addi	r7,r2,-32
 8011edc:	01000804 	movi	r4,32
 8011ee0:	29ced83a 	srl	r7,r5,r7
 8011ee4:	11004526 	beq	r2,r4,8011ffc <__subdf3+0x57c>
 8011ee8:	01001004 	movi	r4,64
 8011eec:	2089c83a 	sub	r4,r4,r2
 8011ef0:	2904983a 	sll	r2,r5,r4
 8011ef4:	118cb03a 	or	r6,r2,r6
 8011ef8:	300cc03a 	cmpne	r6,r6,zero
 8011efc:	398cb03a 	or	r6,r7,r6
 8011f00:	0005883a 	mov	r2,zero
 8011f04:	003f3706 	br	8011be4 <__alt_data_end+0xf8011be4>
 8011f08:	80002a26 	beq	r16,zero,8011fb4 <__subdf3+0x534>
 8011f0c:	0101ffc4 	movi	r4,2047
 8011f10:	49006626 	beq	r9,r4,80120ac <__subdf3+0x62c>
 8011f14:	0085c83a 	sub	r2,zero,r2
 8011f18:	18c02034 	orhi	r3,r3,128
 8011f1c:	01000e04 	movi	r4,56
 8011f20:	20807e16 	blt	r4,r2,801211c <__subdf3+0x69c>
 8011f24:	010007c4 	movi	r4,31
 8011f28:	2080e716 	blt	r4,r2,80122c8 <__subdf3+0x848>
 8011f2c:	01000804 	movi	r4,32
 8011f30:	2089c83a 	sub	r4,r4,r2
 8011f34:	1914983a 	sll	r10,r3,r4
 8011f38:	8890d83a 	srl	r8,r17,r2
 8011f3c:	8908983a 	sll	r4,r17,r4
 8011f40:	1884d83a 	srl	r2,r3,r2
 8011f44:	5222b03a 	or	r17,r10,r8
 8011f48:	2006c03a 	cmpne	r3,r4,zero
 8011f4c:	88e2b03a 	or	r17,r17,r3
 8011f50:	3463c83a 	sub	r17,r6,r17
 8011f54:	2885c83a 	sub	r2,r5,r2
 8011f58:	344d803a 	cmpltu	r6,r6,r17
 8011f5c:	1187c83a 	sub	r3,r2,r6
 8011f60:	4821883a 	mov	r16,r9
 8011f64:	3825883a 	mov	r18,r7
 8011f68:	003f2306 	br	8011bf8 <__alt_data_end+0xf8011bf8>
 8011f6c:	24d0b03a 	or	r8,r4,r19
 8011f70:	40001b1e 	bne	r8,zero,8011fe0 <__subdf3+0x560>
 8011f74:	0005883a 	mov	r2,zero
 8011f78:	0009883a 	mov	r4,zero
 8011f7c:	0021883a 	mov	r16,zero
 8011f80:	003f4906 	br	8011ca8 <__alt_data_end+0xf8011ca8>
 8011f84:	010007c4 	movi	r4,31
 8011f88:	20803a16 	blt	r4,r2,8012074 <__subdf3+0x5f4>
 8011f8c:	01000804 	movi	r4,32
 8011f90:	2089c83a 	sub	r4,r4,r2
 8011f94:	2912983a 	sll	r9,r5,r4
 8011f98:	3090d83a 	srl	r8,r6,r2
 8011f9c:	3108983a 	sll	r4,r6,r4
 8011fa0:	2884d83a 	srl	r2,r5,r2
 8011fa4:	4a12b03a 	or	r9,r9,r8
 8011fa8:	2008c03a 	cmpne	r4,r4,zero
 8011fac:	4912b03a 	or	r9,r9,r4
 8011fb0:	003f4e06 	br	8011cec <__alt_data_end+0xf8011cec>
 8011fb4:	1c48b03a 	or	r4,r3,r17
 8011fb8:	20003c26 	beq	r4,zero,80120ac <__subdf3+0x62c>
 8011fbc:	0084303a 	nor	r2,zero,r2
 8011fc0:	1000381e 	bne	r2,zero,80120a4 <__subdf3+0x624>
 8011fc4:	3463c83a 	sub	r17,r6,r17
 8011fc8:	28c5c83a 	sub	r2,r5,r3
 8011fcc:	344d803a 	cmpltu	r6,r6,r17
 8011fd0:	1187c83a 	sub	r3,r2,r6
 8011fd4:	4821883a 	mov	r16,r9
 8011fd8:	3825883a 	mov	r18,r7
 8011fdc:	003f0606 	br	8011bf8 <__alt_data_end+0xf8011bf8>
 8011fe0:	2023883a 	mov	r17,r4
 8011fe4:	003f0906 	br	8011c0c <__alt_data_end+0xf8011c0c>
 8011fe8:	0101ffc4 	movi	r4,2047
 8011fec:	813f3a1e 	bne	r16,r4,8011cd8 <__alt_data_end+0xf8011cd8>
 8011ff0:	003ec406 	br	8011b04 <__alt_data_end+0xf8011b04>
 8011ff4:	0005883a 	mov	r2,zero
 8011ff8:	003fb106 	br	8011ec0 <__alt_data_end+0xf8011ec0>
 8011ffc:	0005883a 	mov	r2,zero
 8012000:	003fbc06 	br	8011ef4 <__alt_data_end+0xf8011ef4>
 8012004:	1c44b03a 	or	r2,r3,r17
 8012008:	80008e1e 	bne	r16,zero,8012244 <__subdf3+0x7c4>
 801200c:	1000c826 	beq	r2,zero,8012330 <__subdf3+0x8b0>
 8012010:	2984b03a 	or	r2,r5,r6
 8012014:	103ebb26 	beq	r2,zero,8011b04 <__alt_data_end+0xf8011b04>
 8012018:	8989883a 	add	r4,r17,r6
 801201c:	1945883a 	add	r2,r3,r5
 8012020:	2447803a 	cmpltu	r3,r4,r17
 8012024:	1887883a 	add	r3,r3,r2
 8012028:	1880202c 	andhi	r2,r3,128
 801202c:	2023883a 	mov	r17,r4
 8012030:	103f1626 	beq	r2,zero,8011c8c <__alt_data_end+0xf8011c8c>
 8012034:	00bfe034 	movhi	r2,65408
 8012038:	10bfffc4 	addi	r2,r2,-1
 801203c:	5021883a 	mov	r16,r10
 8012040:	1886703a 	and	r3,r3,r2
 8012044:	003eaf06 	br	8011b04 <__alt_data_end+0xf8011b04>
 8012048:	3825883a 	mov	r18,r7
 801204c:	003f0f06 	br	8011c8c <__alt_data_end+0xf8011c8c>
 8012050:	1c44b03a 	or	r2,r3,r17
 8012054:	8000251e 	bne	r16,zero,80120ec <__subdf3+0x66c>
 8012058:	1000661e 	bne	r2,zero,80121f4 <__subdf3+0x774>
 801205c:	2990b03a 	or	r8,r5,r6
 8012060:	40009626 	beq	r8,zero,80122bc <__subdf3+0x83c>
 8012064:	2807883a 	mov	r3,r5
 8012068:	3023883a 	mov	r17,r6
 801206c:	3825883a 	mov	r18,r7
 8012070:	003ea406 	br	8011b04 <__alt_data_end+0xf8011b04>
 8012074:	127ff804 	addi	r9,r2,-32
 8012078:	01000804 	movi	r4,32
 801207c:	2a52d83a 	srl	r9,r5,r9
 8012080:	11008c26 	beq	r2,r4,80122b4 <__subdf3+0x834>
 8012084:	01001004 	movi	r4,64
 8012088:	2085c83a 	sub	r2,r4,r2
 801208c:	2884983a 	sll	r2,r5,r2
 8012090:	118cb03a 	or	r6,r2,r6
 8012094:	300cc03a 	cmpne	r6,r6,zero
 8012098:	4992b03a 	or	r9,r9,r6
 801209c:	0005883a 	mov	r2,zero
 80120a0:	003f1206 	br	8011cec <__alt_data_end+0xf8011cec>
 80120a4:	0101ffc4 	movi	r4,2047
 80120a8:	493f9c1e 	bne	r9,r4,8011f1c <__alt_data_end+0xf8011f1c>
 80120ac:	2807883a 	mov	r3,r5
 80120b0:	3023883a 	mov	r17,r6
 80120b4:	4821883a 	mov	r16,r9
 80120b8:	3825883a 	mov	r18,r7
 80120bc:	003e9106 	br	8011b04 <__alt_data_end+0xf8011b04>
 80120c0:	80001f1e 	bne	r16,zero,8012140 <__subdf3+0x6c0>
 80120c4:	1c48b03a 	or	r4,r3,r17
 80120c8:	20005a26 	beq	r4,zero,8012234 <__subdf3+0x7b4>
 80120cc:	0084303a 	nor	r2,zero,r2
 80120d0:	1000561e 	bne	r2,zero,801222c <__subdf3+0x7ac>
 80120d4:	89a3883a 	add	r17,r17,r6
 80120d8:	1945883a 	add	r2,r3,r5
 80120dc:	898d803a 	cmpltu	r6,r17,r6
 80120e0:	3087883a 	add	r3,r6,r2
 80120e4:	4821883a 	mov	r16,r9
 80120e8:	003f0506 	br	8011d00 <__alt_data_end+0xf8011d00>
 80120ec:	10002b1e 	bne	r2,zero,801219c <__subdf3+0x71c>
 80120f0:	2984b03a 	or	r2,r5,r6
 80120f4:	10008026 	beq	r2,zero,80122f8 <__subdf3+0x878>
 80120f8:	2807883a 	mov	r3,r5
 80120fc:	3023883a 	mov	r17,r6
 8012100:	3825883a 	mov	r18,r7
 8012104:	0401ffc4 	movi	r16,2047
 8012108:	003e7e06 	br	8011b04 <__alt_data_end+0xf8011b04>
 801210c:	3809883a 	mov	r4,r7
 8012110:	0011883a 	mov	r8,zero
 8012114:	0005883a 	mov	r2,zero
 8012118:	003ee306 	br	8011ca8 <__alt_data_end+0xf8011ca8>
 801211c:	1c62b03a 	or	r17,r3,r17
 8012120:	8822c03a 	cmpne	r17,r17,zero
 8012124:	0005883a 	mov	r2,zero
 8012128:	003f8906 	br	8011f50 <__alt_data_end+0xf8011f50>
 801212c:	3809883a 	mov	r4,r7
 8012130:	4821883a 	mov	r16,r9
 8012134:	0011883a 	mov	r8,zero
 8012138:	0005883a 	mov	r2,zero
 801213c:	003eda06 	br	8011ca8 <__alt_data_end+0xf8011ca8>
 8012140:	0101ffc4 	movi	r4,2047
 8012144:	49003b26 	beq	r9,r4,8012234 <__subdf3+0x7b4>
 8012148:	0085c83a 	sub	r2,zero,r2
 801214c:	18c02034 	orhi	r3,r3,128
 8012150:	01000e04 	movi	r4,56
 8012154:	20806e16 	blt	r4,r2,8012310 <__subdf3+0x890>
 8012158:	010007c4 	movi	r4,31
 801215c:	20807716 	blt	r4,r2,801233c <__subdf3+0x8bc>
 8012160:	01000804 	movi	r4,32
 8012164:	2089c83a 	sub	r4,r4,r2
 8012168:	1914983a 	sll	r10,r3,r4
 801216c:	8890d83a 	srl	r8,r17,r2
 8012170:	8908983a 	sll	r4,r17,r4
 8012174:	1884d83a 	srl	r2,r3,r2
 8012178:	5222b03a 	or	r17,r10,r8
 801217c:	2006c03a 	cmpne	r3,r4,zero
 8012180:	88e2b03a 	or	r17,r17,r3
 8012184:	89a3883a 	add	r17,r17,r6
 8012188:	1145883a 	add	r2,r2,r5
 801218c:	898d803a 	cmpltu	r6,r17,r6
 8012190:	3087883a 	add	r3,r6,r2
 8012194:	4821883a 	mov	r16,r9
 8012198:	003ed906 	br	8011d00 <__alt_data_end+0xf8011d00>
 801219c:	2984b03a 	or	r2,r5,r6
 80121a0:	10004226 	beq	r2,zero,80122ac <__subdf3+0x82c>
 80121a4:	1808d0fa 	srli	r4,r3,3
 80121a8:	8822d0fa 	srli	r17,r17,3
 80121ac:	1806977a 	slli	r3,r3,29
 80121b0:	2080022c 	andhi	r2,r4,8
 80121b4:	1c62b03a 	or	r17,r3,r17
 80121b8:	10000826 	beq	r2,zero,80121dc <__subdf3+0x75c>
 80121bc:	2812d0fa 	srli	r9,r5,3
 80121c0:	4880022c 	andhi	r2,r9,8
 80121c4:	1000051e 	bne	r2,zero,80121dc <__subdf3+0x75c>
 80121c8:	300cd0fa 	srli	r6,r6,3
 80121cc:	2804977a 	slli	r2,r5,29
 80121d0:	4809883a 	mov	r4,r9
 80121d4:	3825883a 	mov	r18,r7
 80121d8:	11a2b03a 	or	r17,r2,r6
 80121dc:	8806d77a 	srli	r3,r17,29
 80121e0:	200890fa 	slli	r4,r4,3
 80121e4:	882290fa 	slli	r17,r17,3
 80121e8:	0401ffc4 	movi	r16,2047
 80121ec:	1906b03a 	or	r3,r3,r4
 80121f0:	003e4406 	br	8011b04 <__alt_data_end+0xf8011b04>
 80121f4:	2984b03a 	or	r2,r5,r6
 80121f8:	103e4226 	beq	r2,zero,8011b04 <__alt_data_end+0xf8011b04>
 80121fc:	8989c83a 	sub	r4,r17,r6
 8012200:	8911803a 	cmpltu	r8,r17,r4
 8012204:	1945c83a 	sub	r2,r3,r5
 8012208:	1205c83a 	sub	r2,r2,r8
 801220c:	1200202c 	andhi	r8,r2,128
 8012210:	403e9a26 	beq	r8,zero,8011c7c <__alt_data_end+0xf8011c7c>
 8012214:	3463c83a 	sub	r17,r6,r17
 8012218:	28c5c83a 	sub	r2,r5,r3
 801221c:	344d803a 	cmpltu	r6,r6,r17
 8012220:	1187c83a 	sub	r3,r2,r6
 8012224:	3825883a 	mov	r18,r7
 8012228:	003e3606 	br	8011b04 <__alt_data_end+0xf8011b04>
 801222c:	0101ffc4 	movi	r4,2047
 8012230:	493fc71e 	bne	r9,r4,8012150 <__alt_data_end+0xf8012150>
 8012234:	2807883a 	mov	r3,r5
 8012238:	3023883a 	mov	r17,r6
 801223c:	4821883a 	mov	r16,r9
 8012240:	003e3006 	br	8011b04 <__alt_data_end+0xf8011b04>
 8012244:	10003626 	beq	r2,zero,8012320 <__subdf3+0x8a0>
 8012248:	2984b03a 	or	r2,r5,r6
 801224c:	10001726 	beq	r2,zero,80122ac <__subdf3+0x82c>
 8012250:	1808d0fa 	srli	r4,r3,3
 8012254:	8822d0fa 	srli	r17,r17,3
 8012258:	1806977a 	slli	r3,r3,29
 801225c:	2080022c 	andhi	r2,r4,8
 8012260:	1c62b03a 	or	r17,r3,r17
 8012264:	10000726 	beq	r2,zero,8012284 <__subdf3+0x804>
 8012268:	2812d0fa 	srli	r9,r5,3
 801226c:	4880022c 	andhi	r2,r9,8
 8012270:	1000041e 	bne	r2,zero,8012284 <__subdf3+0x804>
 8012274:	300cd0fa 	srli	r6,r6,3
 8012278:	2804977a 	slli	r2,r5,29
 801227c:	4809883a 	mov	r4,r9
 8012280:	11a2b03a 	or	r17,r2,r6
 8012284:	8806d77a 	srli	r3,r17,29
 8012288:	200890fa 	slli	r4,r4,3
 801228c:	882290fa 	slli	r17,r17,3
 8012290:	3825883a 	mov	r18,r7
 8012294:	1906b03a 	or	r3,r3,r4
 8012298:	0401ffc4 	movi	r16,2047
 801229c:	003e1906 	br	8011b04 <__alt_data_end+0xf8011b04>
 80122a0:	000b883a 	mov	r5,zero
 80122a4:	0005883a 	mov	r2,zero
 80122a8:	003e2e06 	br	8011b64 <__alt_data_end+0xf8011b64>
 80122ac:	0401ffc4 	movi	r16,2047
 80122b0:	003e1406 	br	8011b04 <__alt_data_end+0xf8011b04>
 80122b4:	0005883a 	mov	r2,zero
 80122b8:	003f7506 	br	8012090 <__alt_data_end+0xf8012090>
 80122bc:	0005883a 	mov	r2,zero
 80122c0:	0009883a 	mov	r4,zero
 80122c4:	003e7806 	br	8011ca8 <__alt_data_end+0xf8011ca8>
 80122c8:	123ff804 	addi	r8,r2,-32
 80122cc:	01000804 	movi	r4,32
 80122d0:	1a10d83a 	srl	r8,r3,r8
 80122d4:	11002526 	beq	r2,r4,801236c <__subdf3+0x8ec>
 80122d8:	01001004 	movi	r4,64
 80122dc:	2085c83a 	sub	r2,r4,r2
 80122e0:	1884983a 	sll	r2,r3,r2
 80122e4:	1444b03a 	or	r2,r2,r17
 80122e8:	1004c03a 	cmpne	r2,r2,zero
 80122ec:	40a2b03a 	or	r17,r8,r2
 80122f0:	0005883a 	mov	r2,zero
 80122f4:	003f1606 	br	8011f50 <__alt_data_end+0xf8011f50>
 80122f8:	02000434 	movhi	r8,16
 80122fc:	0009883a 	mov	r4,zero
 8012300:	423fffc4 	addi	r8,r8,-1
 8012304:	00bfffc4 	movi	r2,-1
 8012308:	0401ffc4 	movi	r16,2047
 801230c:	003e6606 	br	8011ca8 <__alt_data_end+0xf8011ca8>
 8012310:	1c62b03a 	or	r17,r3,r17
 8012314:	8822c03a 	cmpne	r17,r17,zero
 8012318:	0005883a 	mov	r2,zero
 801231c:	003f9906 	br	8012184 <__alt_data_end+0xf8012184>
 8012320:	2807883a 	mov	r3,r5
 8012324:	3023883a 	mov	r17,r6
 8012328:	0401ffc4 	movi	r16,2047
 801232c:	003df506 	br	8011b04 <__alt_data_end+0xf8011b04>
 8012330:	2807883a 	mov	r3,r5
 8012334:	3023883a 	mov	r17,r6
 8012338:	003df206 	br	8011b04 <__alt_data_end+0xf8011b04>
 801233c:	123ff804 	addi	r8,r2,-32
 8012340:	01000804 	movi	r4,32
 8012344:	1a10d83a 	srl	r8,r3,r8
 8012348:	11000a26 	beq	r2,r4,8012374 <__subdf3+0x8f4>
 801234c:	01001004 	movi	r4,64
 8012350:	2085c83a 	sub	r2,r4,r2
 8012354:	1884983a 	sll	r2,r3,r2
 8012358:	1444b03a 	or	r2,r2,r17
 801235c:	1004c03a 	cmpne	r2,r2,zero
 8012360:	40a2b03a 	or	r17,r8,r2
 8012364:	0005883a 	mov	r2,zero
 8012368:	003f8606 	br	8012184 <__alt_data_end+0xf8012184>
 801236c:	0005883a 	mov	r2,zero
 8012370:	003fdc06 	br	80122e4 <__alt_data_end+0xf80122e4>
 8012374:	0005883a 	mov	r2,zero
 8012378:	003ff706 	br	8012358 <__alt_data_end+0xf8012358>

0801237c <__fixdfsi>:
 801237c:	280cd53a 	srli	r6,r5,20
 8012380:	00c00434 	movhi	r3,16
 8012384:	18ffffc4 	addi	r3,r3,-1
 8012388:	3181ffcc 	andi	r6,r6,2047
 801238c:	01c0ff84 	movi	r7,1022
 8012390:	28c6703a 	and	r3,r5,r3
 8012394:	280ad7fa 	srli	r5,r5,31
 8012398:	3980120e 	bge	r7,r6,80123e4 <__fixdfsi+0x68>
 801239c:	00810744 	movi	r2,1053
 80123a0:	11800c16 	blt	r2,r6,80123d4 <__fixdfsi+0x58>
 80123a4:	00810cc4 	movi	r2,1075
 80123a8:	1185c83a 	sub	r2,r2,r6
 80123ac:	01c007c4 	movi	r7,31
 80123b0:	18c00434 	orhi	r3,r3,16
 80123b4:	38800d16 	blt	r7,r2,80123ec <__fixdfsi+0x70>
 80123b8:	31befb44 	addi	r6,r6,-1043
 80123bc:	2084d83a 	srl	r2,r4,r2
 80123c0:	1986983a 	sll	r3,r3,r6
 80123c4:	1884b03a 	or	r2,r3,r2
 80123c8:	28000726 	beq	r5,zero,80123e8 <__fixdfsi+0x6c>
 80123cc:	0085c83a 	sub	r2,zero,r2
 80123d0:	f800283a 	ret
 80123d4:	00a00034 	movhi	r2,32768
 80123d8:	10bfffc4 	addi	r2,r2,-1
 80123dc:	2885883a 	add	r2,r5,r2
 80123e0:	f800283a 	ret
 80123e4:	0005883a 	mov	r2,zero
 80123e8:	f800283a 	ret
 80123ec:	008104c4 	movi	r2,1043
 80123f0:	1185c83a 	sub	r2,r2,r6
 80123f4:	1884d83a 	srl	r2,r3,r2
 80123f8:	003ff306 	br	80123c8 <__alt_data_end+0xf80123c8>

080123fc <alt_get_errno>:
#undef errno

extern int errno;

static ALT_INLINE int* alt_get_errno(void)
{
 80123fc:	defffe04 	addi	sp,sp,-8
 8012400:	dfc00115 	stw	ra,4(sp)
 8012404:	df000015 	stw	fp,0(sp)
 8012408:	d839883a 	mov	fp,sp
  return ((alt_errno) ? alt_errno() : &errno);
 801240c:	d0a03417 	ldw	r2,-32560(gp)
 8012410:	10000326 	beq	r2,zero,8012420 <alt_get_errno+0x24>
 8012414:	d0a03417 	ldw	r2,-32560(gp)
 8012418:	103ee83a 	callr	r2
 801241c:	00000106 	br	8012424 <alt_get_errno+0x28>
 8012420:	d0a73104 	addi	r2,gp,-25404
}
 8012424:	e037883a 	mov	sp,fp
 8012428:	dfc00117 	ldw	ra,4(sp)
 801242c:	df000017 	ldw	fp,0(sp)
 8012430:	dec00204 	addi	sp,sp,8
 8012434:	f800283a 	ret

08012438 <close>:
 *
 * ALT_CLOSE is mapped onto the close() system call in alt_syscall.h
 */
 
int ALT_CLOSE (int fildes)
{
 8012438:	defffb04 	addi	sp,sp,-20
 801243c:	dfc00415 	stw	ra,16(sp)
 8012440:	df000315 	stw	fp,12(sp)
 8012444:	df000304 	addi	fp,sp,12
 8012448:	e13fff15 	stw	r4,-4(fp)
   * A common error case is that when the file descriptor was created, the call
   * to open() failed resulting in a negative file descriptor. This is trapped
   * below so that we don't try and process an invalid file descriptor.
   */

  fd = (fildes < 0) ? NULL : &alt_fd_list[fildes];
 801244c:	e0bfff17 	ldw	r2,-4(fp)
 8012450:	10000816 	blt	r2,zero,8012474 <close+0x3c>
 8012454:	01400304 	movi	r5,12
 8012458:	e13fff17 	ldw	r4,-4(fp)
 801245c:	80054680 	call	8005468 <__mulsi3>
 8012460:	1007883a 	mov	r3,r2
 8012464:	00820074 	movhi	r2,2049
 8012468:	10966604 	addi	r2,r2,22936
 801246c:	1885883a 	add	r2,r3,r2
 8012470:	00000106 	br	8012478 <close+0x40>
 8012474:	0005883a 	mov	r2,zero
 8012478:	e0bffd15 	stw	r2,-12(fp)

  if (fd)
 801247c:	e0bffd17 	ldw	r2,-12(fp)
 8012480:	10001926 	beq	r2,zero,80124e8 <close+0xb0>
    /*
     * If the associated file system/device has a close function, call it so 
     * that any necessary cleanup code can run.
     */

    rval = (fd->dev->close) ? fd->dev->close(fd) : 0;
 8012484:	e0bffd17 	ldw	r2,-12(fp)
 8012488:	10800017 	ldw	r2,0(r2)
 801248c:	10800417 	ldw	r2,16(r2)
 8012490:	10000626 	beq	r2,zero,80124ac <close+0x74>
 8012494:	e0bffd17 	ldw	r2,-12(fp)
 8012498:	10800017 	ldw	r2,0(r2)
 801249c:	10800417 	ldw	r2,16(r2)
 80124a0:	e13ffd17 	ldw	r4,-12(fp)
 80124a4:	103ee83a 	callr	r2
 80124a8:	00000106 	br	80124b0 <close+0x78>
 80124ac:	0005883a 	mov	r2,zero
 80124b0:	e0bffe15 	stw	r2,-8(fp)

    /* Free the file descriptor structure and return. */

    alt_release_fd (fildes);
 80124b4:	e13fff17 	ldw	r4,-4(fp)
 80124b8:	8012b200 	call	8012b20 <alt_release_fd>
    if (rval < 0)
 80124bc:	e0bffe17 	ldw	r2,-8(fp)
 80124c0:	1000070e 	bge	r2,zero,80124e0 <close+0xa8>
    {
      ALT_ERRNO = -rval;
 80124c4:	80123fc0 	call	80123fc <alt_get_errno>
 80124c8:	1007883a 	mov	r3,r2
 80124cc:	e0bffe17 	ldw	r2,-8(fp)
 80124d0:	0085c83a 	sub	r2,zero,r2
 80124d4:	18800015 	stw	r2,0(r3)
      return -1;
 80124d8:	00bfffc4 	movi	r2,-1
 80124dc:	00000706 	br	80124fc <close+0xc4>
    }
    return 0;
 80124e0:	0005883a 	mov	r2,zero
 80124e4:	00000506 	br	80124fc <close+0xc4>
  }
  else
  {
    ALT_ERRNO = EBADFD;
 80124e8:	80123fc0 	call	80123fc <alt_get_errno>
 80124ec:	1007883a 	mov	r3,r2
 80124f0:	00801444 	movi	r2,81
 80124f4:	18800015 	stw	r2,0(r3)
    return -1;
 80124f8:	00bfffc4 	movi	r2,-1
  }
}
 80124fc:	e037883a 	mov	sp,fp
 8012500:	dfc00117 	ldw	ra,4(sp)
 8012504:	df000017 	ldw	fp,0(sp)
 8012508:	dec00204 	addi	sp,sp,8
 801250c:	f800283a 	ret

08012510 <alt_dev_null_write>:
 * by the alt_dev_null device. It simple discards all data passed to it, and
 * indicates that the data has been successfully transmitted.
 */

static int alt_dev_null_write (alt_fd* fd, const char* ptr, int len)
{
 8012510:	defffc04 	addi	sp,sp,-16
 8012514:	df000315 	stw	fp,12(sp)
 8012518:	df000304 	addi	fp,sp,12
 801251c:	e13ffd15 	stw	r4,-12(fp)
 8012520:	e17ffe15 	stw	r5,-8(fp)
 8012524:	e1bfff15 	stw	r6,-4(fp)
  return len;
 8012528:	e0bfff17 	ldw	r2,-4(fp)
}
 801252c:	e037883a 	mov	sp,fp
 8012530:	df000017 	ldw	fp,0(sp)
 8012534:	dec00104 	addi	sp,sp,4
 8012538:	f800283a 	ret

0801253c <alt_get_errno>:
#undef errno

extern int errno;

static ALT_INLINE int* alt_get_errno(void)
{
 801253c:	defffe04 	addi	sp,sp,-8
 8012540:	dfc00115 	stw	ra,4(sp)
 8012544:	df000015 	stw	fp,0(sp)
 8012548:	d839883a 	mov	fp,sp
  return ((alt_errno) ? alt_errno() : &errno);
 801254c:	d0a03417 	ldw	r2,-32560(gp)
 8012550:	10000326 	beq	r2,zero,8012560 <alt_get_errno+0x24>
 8012554:	d0a03417 	ldw	r2,-32560(gp)
 8012558:	103ee83a 	callr	r2
 801255c:	00000106 	br	8012564 <alt_get_errno+0x28>
 8012560:	d0a73104 	addi	r2,gp,-25404
}
 8012564:	e037883a 	mov	sp,fp
 8012568:	dfc00117 	ldw	ra,4(sp)
 801256c:	df000017 	ldw	fp,0(sp)
 8012570:	dec00204 	addi	sp,sp,8
 8012574:	f800283a 	ret

08012578 <fstat>:
}

#else /* !ALT_USE_DIRECT_DRIVERS */

int ALT_FSTAT (int file, struct stat *st)
{
 8012578:	defffb04 	addi	sp,sp,-20
 801257c:	dfc00415 	stw	ra,16(sp)
 8012580:	df000315 	stw	fp,12(sp)
 8012584:	df000304 	addi	fp,sp,12
 8012588:	e13ffe15 	stw	r4,-8(fp)
 801258c:	e17fff15 	stw	r5,-4(fp)
   * A common error case is that when the file descriptor was created, the call
   * to open() failed resulting in a negative file descriptor. This is trapped
   * below so that we don't try and process an invalid file descriptor.
   */

  fd = (file < 0) ? NULL : &alt_fd_list[file];
 8012590:	e0bffe17 	ldw	r2,-8(fp)
 8012594:	10000816 	blt	r2,zero,80125b8 <fstat+0x40>
 8012598:	01400304 	movi	r5,12
 801259c:	e13ffe17 	ldw	r4,-8(fp)
 80125a0:	80054680 	call	8005468 <__mulsi3>
 80125a4:	1007883a 	mov	r3,r2
 80125a8:	00820074 	movhi	r2,2049
 80125ac:	10966604 	addi	r2,r2,22936
 80125b0:	1885883a 	add	r2,r3,r2
 80125b4:	00000106 	br	80125bc <fstat+0x44>
 80125b8:	0005883a 	mov	r2,zero
 80125bc:	e0bffd15 	stw	r2,-12(fp)
  
  if (fd)
 80125c0:	e0bffd17 	ldw	r2,-12(fp)
 80125c4:	10001026 	beq	r2,zero,8012608 <fstat+0x90>
  {
    /* Call the drivers fstat() function to fill out the "st" structure. */

    if (fd->dev->fstat)
 80125c8:	e0bffd17 	ldw	r2,-12(fp)
 80125cc:	10800017 	ldw	r2,0(r2)
 80125d0:	10800817 	ldw	r2,32(r2)
 80125d4:	10000726 	beq	r2,zero,80125f4 <fstat+0x7c>
    {
      return fd->dev->fstat(fd, st);
 80125d8:	e0bffd17 	ldw	r2,-12(fp)
 80125dc:	10800017 	ldw	r2,0(r2)
 80125e0:	10800817 	ldw	r2,32(r2)
 80125e4:	e17fff17 	ldw	r5,-4(fp)
 80125e8:	e13ffd17 	ldw	r4,-12(fp)
 80125ec:	103ee83a 	callr	r2
 80125f0:	00000a06 	br	801261c <fstat+0xa4>
     * device.
     */
 
    else
    {
      st->st_mode = _IFCHR;
 80125f4:	e0bfff17 	ldw	r2,-4(fp)
 80125f8:	00c80004 	movi	r3,8192
 80125fc:	10c00115 	stw	r3,4(r2)
      return 0;
 8012600:	0005883a 	mov	r2,zero
 8012604:	00000506 	br	801261c <fstat+0xa4>
    }
  }
  else
  {
    ALT_ERRNO = EBADFD;
 8012608:	801253c0 	call	801253c <alt_get_errno>
 801260c:	1007883a 	mov	r3,r2
 8012610:	00801444 	movi	r2,81
 8012614:	18800015 	stw	r2,0(r3)
    return -1;
 8012618:	00bfffc4 	movi	r2,-1
  }
}
 801261c:	e037883a 	mov	sp,fp
 8012620:	dfc00117 	ldw	ra,4(sp)
 8012624:	df000017 	ldw	fp,0(sp)
 8012628:	dec00204 	addi	sp,sp,8
 801262c:	f800283a 	ret

08012630 <alt_get_errno>:
#undef errno

extern int errno;

static ALT_INLINE int* alt_get_errno(void)
{
 8012630:	defffe04 	addi	sp,sp,-8
 8012634:	dfc00115 	stw	ra,4(sp)
 8012638:	df000015 	stw	fp,0(sp)
 801263c:	d839883a 	mov	fp,sp
  return ((alt_errno) ? alt_errno() : &errno);
 8012640:	d0a03417 	ldw	r2,-32560(gp)
 8012644:	10000326 	beq	r2,zero,8012654 <alt_get_errno+0x24>
 8012648:	d0a03417 	ldw	r2,-32560(gp)
 801264c:	103ee83a 	callr	r2
 8012650:	00000106 	br	8012658 <alt_get_errno+0x28>
 8012654:	d0a73104 	addi	r2,gp,-25404
}
 8012658:	e037883a 	mov	sp,fp
 801265c:	dfc00117 	ldw	ra,4(sp)
 8012660:	df000017 	ldw	fp,0(sp)
 8012664:	dec00204 	addi	sp,sp,8
 8012668:	f800283a 	ret

0801266c <isatty>:
 *
 * ALT_ISATTY is mapped onto the isatty() system call in alt_syscall.h
 */
 
int ALT_ISATTY (int file)
{
 801266c:	deffed04 	addi	sp,sp,-76
 8012670:	dfc01215 	stw	ra,72(sp)
 8012674:	df001115 	stw	fp,68(sp)
 8012678:	df001104 	addi	fp,sp,68
 801267c:	e13fff15 	stw	r4,-4(fp)
   * A common error case is that when the file descriptor was created, the call
   * to open() failed resulting in a negative file descriptor. This is trapped
   * below so that we don't try and process an invalid file descriptor.
   */

  fd = (file < 0) ? NULL : &alt_fd_list[file];
 8012680:	e0bfff17 	ldw	r2,-4(fp)
 8012684:	10000816 	blt	r2,zero,80126a8 <isatty+0x3c>
 8012688:	01400304 	movi	r5,12
 801268c:	e13fff17 	ldw	r4,-4(fp)
 8012690:	80054680 	call	8005468 <__mulsi3>
 8012694:	1007883a 	mov	r3,r2
 8012698:	00820074 	movhi	r2,2049
 801269c:	10966604 	addi	r2,r2,22936
 80126a0:	1885883a 	add	r2,r3,r2
 80126a4:	00000106 	br	80126ac <isatty+0x40>
 80126a8:	0005883a 	mov	r2,zero
 80126ac:	e0bfef15 	stw	r2,-68(fp)
  
  if (fd)
 80126b0:	e0bfef17 	ldw	r2,-68(fp)
 80126b4:	10000e26 	beq	r2,zero,80126f0 <isatty+0x84>
    /*
     * If a device driver does not provide an fstat() function, then it is 
     * treated as a terminal device by default.
     */

    if (!fd->dev->fstat)
 80126b8:	e0bfef17 	ldw	r2,-68(fp)
 80126bc:	10800017 	ldw	r2,0(r2)
 80126c0:	10800817 	ldw	r2,32(r2)
 80126c4:	1000021e 	bne	r2,zero,80126d0 <isatty+0x64>
    {
      return 1;
 80126c8:	00800044 	movi	r2,1
 80126cc:	00000d06 	br	8012704 <isatty+0x98>
     * this is called so that the device can identify itself.
     */ 

    else
    {
      fstat (file, &stat);
 80126d0:	e0bff004 	addi	r2,fp,-64
 80126d4:	100b883a 	mov	r5,r2
 80126d8:	e13fff17 	ldw	r4,-4(fp)
 80126dc:	80125780 	call	8012578 <fstat>
      return (stat.st_mode == _IFCHR) ? 1 : 0;
 80126e0:	e0bff117 	ldw	r2,-60(fp)
 80126e4:	10880020 	cmpeqi	r2,r2,8192
 80126e8:	10803fcc 	andi	r2,r2,255
 80126ec:	00000506 	br	8012704 <isatty+0x98>
    }
  }
  else
  {
    ALT_ERRNO = EBADFD;
 80126f0:	80126300 	call	8012630 <alt_get_errno>
 80126f4:	1007883a 	mov	r3,r2
 80126f8:	00801444 	movi	r2,81
 80126fc:	18800015 	stw	r2,0(r3)
    return 0;
 8012700:	0005883a 	mov	r2,zero
  }
}
 8012704:	e037883a 	mov	sp,fp
 8012708:	dfc00117 	ldw	ra,4(sp)
 801270c:	df000017 	ldw	fp,0(sp)
 8012710:	dec00204 	addi	sp,sp,8
 8012714:	f800283a 	ret

08012718 <alt_load_section>:
 */

static void ALT_INLINE alt_load_section (alt_u32* from, 
                                         alt_u32* to, 
                                         alt_u32* end)
{
 8012718:	defffc04 	addi	sp,sp,-16
 801271c:	df000315 	stw	fp,12(sp)
 8012720:	df000304 	addi	fp,sp,12
 8012724:	e13ffd15 	stw	r4,-12(fp)
 8012728:	e17ffe15 	stw	r5,-8(fp)
 801272c:	e1bfff15 	stw	r6,-4(fp)
  if (to != from)
 8012730:	e0fffe17 	ldw	r3,-8(fp)
 8012734:	e0bffd17 	ldw	r2,-12(fp)
 8012738:	18800c26 	beq	r3,r2,801276c <alt_load_section+0x54>
  {
    while( to != end )
 801273c:	00000806 	br	8012760 <alt_load_section+0x48>
    {
      *to++ = *from++;
 8012740:	e0bffe17 	ldw	r2,-8(fp)
 8012744:	10c00104 	addi	r3,r2,4
 8012748:	e0fffe15 	stw	r3,-8(fp)
 801274c:	e0fffd17 	ldw	r3,-12(fp)
 8012750:	19000104 	addi	r4,r3,4
 8012754:	e13ffd15 	stw	r4,-12(fp)
 8012758:	18c00017 	ldw	r3,0(r3)
 801275c:	10c00015 	stw	r3,0(r2)
                                         alt_u32* to, 
                                         alt_u32* end)
{
  if (to != from)
  {
    while( to != end )
 8012760:	e0fffe17 	ldw	r3,-8(fp)
 8012764:	e0bfff17 	ldw	r2,-4(fp)
 8012768:	18bff51e 	bne	r3,r2,8012740 <__alt_data_end+0xf8012740>
    {
      *to++ = *from++;
    }
  }
}
 801276c:	0001883a 	nop
 8012770:	e037883a 	mov	sp,fp
 8012774:	df000017 	ldw	fp,0(sp)
 8012778:	dec00104 	addi	sp,sp,4
 801277c:	f800283a 	ret

08012780 <alt_load>:
 * there is no bootloader, so this application is responsible for loading to
 * RAM any sections that are required.
 */  

void alt_load (void)
{
 8012780:	defffe04 	addi	sp,sp,-8
 8012784:	dfc00115 	stw	ra,4(sp)
 8012788:	df000015 	stw	fp,0(sp)
 801278c:	d839883a 	mov	fp,sp
  /* 
   * Copy the .rwdata section. 
   */

  alt_load_section (&__flash_rwdata_start, 
 8012790:	01820074 	movhi	r6,2049
 8012794:	319b1704 	addi	r6,r6,27740
 8012798:	01420074 	movhi	r5,2049
 801279c:	29543304 	addi	r5,r5,20684
 80127a0:	01020074 	movhi	r4,2049
 80127a4:	211b1704 	addi	r4,r4,27740
 80127a8:	80127180 	call	8012718 <alt_load_section>

  /*
   * Copy the exception handler.
   */

  alt_load_section (&__flash_exceptions_start, 
 80127ac:	01820034 	movhi	r6,2048
 80127b0:	31808c04 	addi	r6,r6,560
 80127b4:	01420034 	movhi	r5,2048
 80127b8:	29400804 	addi	r5,r5,32
 80127bc:	01020034 	movhi	r4,2048
 80127c0:	21000804 	addi	r4,r4,32
 80127c4:	80127180 	call	8012718 <alt_load_section>

  /*
   * Copy the .rodata section.
   */

  alt_load_section (&__flash_rodata_start, 
 80127c8:	01820074 	movhi	r6,2049
 80127cc:	31943304 	addi	r6,r6,20684
 80127d0:	01420074 	movhi	r5,2049
 80127d4:	29533404 	addi	r5,r5,19664
 80127d8:	01020074 	movhi	r4,2049
 80127dc:	21133404 	addi	r4,r4,19664
 80127e0:	80127180 	call	8012718 <alt_load_section>
  
  /*
   * Now ensure that the caches are in synch.
   */
  
  alt_dcache_flush_all();
 80127e4:	8013c180 	call	8013c18 <alt_dcache_flush_all>
  alt_icache_flush_all();
 80127e8:	8013dd80 	call	8013dd8 <alt_icache_flush_all>
}
 80127ec:	0001883a 	nop
 80127f0:	e037883a 	mov	sp,fp
 80127f4:	dfc00117 	ldw	ra,4(sp)
 80127f8:	df000017 	ldw	fp,0(sp)
 80127fc:	dec00204 	addi	sp,sp,8
 8012800:	f800283a 	ret

08012804 <alt_get_errno>:
#undef errno

extern int errno;

static ALT_INLINE int* alt_get_errno(void)
{
 8012804:	defffe04 	addi	sp,sp,-8
 8012808:	dfc00115 	stw	ra,4(sp)
 801280c:	df000015 	stw	fp,0(sp)
 8012810:	d839883a 	mov	fp,sp
  return ((alt_errno) ? alt_errno() : &errno);
 8012814:	d0a03417 	ldw	r2,-32560(gp)
 8012818:	10000326 	beq	r2,zero,8012828 <alt_get_errno+0x24>
 801281c:	d0a03417 	ldw	r2,-32560(gp)
 8012820:	103ee83a 	callr	r2
 8012824:	00000106 	br	801282c <alt_get_errno+0x28>
 8012828:	d0a73104 	addi	r2,gp,-25404
}
 801282c:	e037883a 	mov	sp,fp
 8012830:	dfc00117 	ldw	ra,4(sp)
 8012834:	df000017 	ldw	fp,0(sp)
 8012838:	dec00204 	addi	sp,sp,8
 801283c:	f800283a 	ret

08012840 <lseek>:
 * ALT_LSEEK is mapped onto the lseek() system call in alt_syscall.h
 *
 */

off_t ALT_LSEEK (int file, off_t ptr, int dir)
{
 8012840:	defff904 	addi	sp,sp,-28
 8012844:	dfc00615 	stw	ra,24(sp)
 8012848:	df000515 	stw	fp,20(sp)
 801284c:	df000504 	addi	fp,sp,20
 8012850:	e13ffd15 	stw	r4,-12(fp)
 8012854:	e17ffe15 	stw	r5,-8(fp)
 8012858:	e1bfff15 	stw	r6,-4(fp)
  alt_fd* fd;
  off_t   rc = 0; 
 801285c:	e03ffb15 	stw	zero,-20(fp)
   * A common error case is that when the file descriptor was created, the call
   * to open() failed resulting in a negative file descriptor. This is trapped
   * below so that we don't try and process an invalid file descriptor.
   */

  fd = (file < 0) ? NULL : &alt_fd_list[file];
 8012860:	e0bffd17 	ldw	r2,-12(fp)
 8012864:	10000816 	blt	r2,zero,8012888 <lseek+0x48>
 8012868:	01400304 	movi	r5,12
 801286c:	e13ffd17 	ldw	r4,-12(fp)
 8012870:	80054680 	call	8005468 <__mulsi3>
 8012874:	1007883a 	mov	r3,r2
 8012878:	00820074 	movhi	r2,2049
 801287c:	10966604 	addi	r2,r2,22936
 8012880:	1885883a 	add	r2,r3,r2
 8012884:	00000106 	br	801288c <lseek+0x4c>
 8012888:	0005883a 	mov	r2,zero
 801288c:	e0bffc15 	stw	r2,-16(fp)
  
  if (fd) 
 8012890:	e0bffc17 	ldw	r2,-16(fp)
 8012894:	10001026 	beq	r2,zero,80128d8 <lseek+0x98>
    /*
     * If the device driver provides an implementation of the lseek() function,
     * then call that to process the request.
     */
 
    if (fd->dev->lseek)
 8012898:	e0bffc17 	ldw	r2,-16(fp)
 801289c:	10800017 	ldw	r2,0(r2)
 80128a0:	10800717 	ldw	r2,28(r2)
 80128a4:	10000926 	beq	r2,zero,80128cc <lseek+0x8c>
    {
      rc = fd->dev->lseek(fd, ptr, dir);
 80128a8:	e0bffc17 	ldw	r2,-16(fp)
 80128ac:	10800017 	ldw	r2,0(r2)
 80128b0:	10800717 	ldw	r2,28(r2)
 80128b4:	e1bfff17 	ldw	r6,-4(fp)
 80128b8:	e17ffe17 	ldw	r5,-8(fp)
 80128bc:	e13ffc17 	ldw	r4,-16(fp)
 80128c0:	103ee83a 	callr	r2
 80128c4:	e0bffb15 	stw	r2,-20(fp)
 80128c8:	00000506 	br	80128e0 <lseek+0xa0>
     * Otherwise return an error.
     */

    else
    {
      rc = -ENOTSUP;
 80128cc:	00bfde84 	movi	r2,-134
 80128d0:	e0bffb15 	stw	r2,-20(fp)
 80128d4:	00000206 	br	80128e0 <lseek+0xa0>
    }
  }
  else  
  {
    rc = -EBADFD;
 80128d8:	00bfebc4 	movi	r2,-81
 80128dc:	e0bffb15 	stw	r2,-20(fp)
  }

  if (rc < 0)
 80128e0:	e0bffb17 	ldw	r2,-20(fp)
 80128e4:	1000070e 	bge	r2,zero,8012904 <lseek+0xc4>
  {
    ALT_ERRNO = -rc;
 80128e8:	80128040 	call	8012804 <alt_get_errno>
 80128ec:	1007883a 	mov	r3,r2
 80128f0:	e0bffb17 	ldw	r2,-20(fp)
 80128f4:	0085c83a 	sub	r2,zero,r2
 80128f8:	18800015 	stw	r2,0(r3)
    rc = -1;
 80128fc:	00bfffc4 	movi	r2,-1
 8012900:	e0bffb15 	stw	r2,-20(fp)
  }

  return rc;
 8012904:	e0bffb17 	ldw	r2,-20(fp)
}
 8012908:	e037883a 	mov	sp,fp
 801290c:	dfc00117 	ldw	ra,4(sp)
 8012910:	df000017 	ldw	fp,0(sp)
 8012914:	dec00204 	addi	sp,sp,8
 8012918:	f800283a 	ret

0801291c <alt_main>:
 * devices/filesystems/components in the system; and call the entry point for
 * the users application, i.e. main().
 */

void alt_main (void)
{
 801291c:	defffd04 	addi	sp,sp,-12
 8012920:	dfc00215 	stw	ra,8(sp)
 8012924:	df000115 	stw	fp,4(sp)
 8012928:	df000104 	addi	fp,sp,4
#endif

  /* ALT LOG - please see HAL/sys/alt_log_printf.h for details */
  ALT_LOG_PRINT_BOOT("[alt_main.c] Entering alt_main, calling alt_irq_init.\r\n");
  /* Initialize the interrupt controller. */
  alt_irq_init (NULL);
 801292c:	0009883a 	mov	r4,zero
 8012930:	8012ea80 	call	8012ea8 <alt_irq_init>

  /* Initialize the operating system */
  ALT_LOG_PRINT_BOOT("[alt_main.c] Done alt_irq_init, calling alt_os_init.\r\n");
  ALT_OS_INIT();
 8012934:	0001883a 	nop
  ALT_LOG_PRINT_BOOT("[alt_main.c] Done OS Init, calling alt_sem_create.\r\n");
  ALT_SEM_CREATE (&alt_fd_list_lock, 1);

  /* Initialize the device drivers/software components. */
  ALT_LOG_PRINT_BOOT("[alt_main.c] Calling alt_sys_init.\r\n");
  alt_sys_init();
 8012938:	8012ee00 	call	8012ee0 <alt_sys_init>
   * devices be present (not equal to /dev/null) and if direct drivers
   * aren't being used.
   */

    ALT_LOG_PRINT_BOOT("[alt_main.c] Redirecting IO.\r\n");
    alt_io_redirect(ALT_STDOUT, ALT_STDIN, ALT_STDERR);
 801293c:	01820074 	movhi	r6,2049
 8012940:	31942904 	addi	r6,r6,20644
 8012944:	01420074 	movhi	r5,2049
 8012948:	29542904 	addi	r5,r5,20644
 801294c:	01020074 	movhi	r4,2049
 8012950:	21142904 	addi	r4,r4,20644
 8012954:	801417c0 	call	801417c <alt_io_redirect>
  /* 
   * Call the C++ constructors 
   */

  ALT_LOG_PRINT_BOOT("[alt_main.c] Calling C++ constructors.\r\n");
  _do_ctors ();
 8012958:	8013d180 	call	8013d18 <_do_ctors>
   * redefined as _exit()). This is in the interest of reducing code footprint,
   * in that the atexit() overhead is removed when it's not needed.
   */

  ALT_LOG_PRINT_BOOT("[alt_main.c] Calling atexit.\r\n");
  atexit (_do_dtors);
 801295c:	01020074 	movhi	r4,2049
 8012960:	210f5e04 	addi	r4,r4,15736
 8012964:	801493c0 	call	801493c <atexit>
  ALT_LOG_PRINT_BOOT("[alt_main.c] Calling main.\r\n");

#ifdef ALT_NO_EXIT
  main (alt_argc, alt_argv, alt_envp);
#else
  result = main (alt_argc, alt_argv, alt_envp);
 8012968:	d0a73217 	ldw	r2,-25400(gp)
 801296c:	d0e73317 	ldw	r3,-25396(gp)
 8012970:	d1273417 	ldw	r4,-25392(gp)
 8012974:	200d883a 	mov	r6,r4
 8012978:	180b883a 	mov	r5,r3
 801297c:	1009883a 	mov	r4,r2
 8012980:	80020f80 	call	80020f8 <main>
 8012984:	e0bfff15 	stw	r2,-4(fp)
  close(STDOUT_FILENO);
 8012988:	01000044 	movi	r4,1
 801298c:	80124380 	call	8012438 <close>
  exit (result);
 8012990:	e13fff17 	ldw	r4,-4(fp)
 8012994:	80149500 	call	8014950 <exit>

08012998 <__malloc_lock>:
 * configuration is single threaded, so there is nothing to do here. Note that 
 * this requires that malloc is never called by an interrupt service routine.
 */

void __malloc_lock ( struct _reent *_r )
{
 8012998:	defffe04 	addi	sp,sp,-8
 801299c:	df000115 	stw	fp,4(sp)
 80129a0:	df000104 	addi	fp,sp,4
 80129a4:	e13fff15 	stw	r4,-4(fp)
}
 80129a8:	0001883a 	nop
 80129ac:	e037883a 	mov	sp,fp
 80129b0:	df000017 	ldw	fp,0(sp)
 80129b4:	dec00104 	addi	sp,sp,4
 80129b8:	f800283a 	ret

080129bc <__malloc_unlock>:
/*
 *
 */

void __malloc_unlock ( struct _reent *_r )
{
 80129bc:	defffe04 	addi	sp,sp,-8
 80129c0:	df000115 	stw	fp,4(sp)
 80129c4:	df000104 	addi	fp,sp,4
 80129c8:	e13fff15 	stw	r4,-4(fp)
}
 80129cc:	0001883a 	nop
 80129d0:	e037883a 	mov	sp,fp
 80129d4:	df000017 	ldw	fp,0(sp)
 80129d8:	dec00104 	addi	sp,sp,4
 80129dc:	f800283a 	ret

080129e0 <alt_get_errno>:
#undef errno

extern int errno;

static ALT_INLINE int* alt_get_errno(void)
{
 80129e0:	defffe04 	addi	sp,sp,-8
 80129e4:	dfc00115 	stw	ra,4(sp)
 80129e8:	df000015 	stw	fp,0(sp)
 80129ec:	d839883a 	mov	fp,sp
  return ((alt_errno) ? alt_errno() : &errno);
 80129f0:	d0a03417 	ldw	r2,-32560(gp)
 80129f4:	10000326 	beq	r2,zero,8012a04 <alt_get_errno+0x24>
 80129f8:	d0a03417 	ldw	r2,-32560(gp)
 80129fc:	103ee83a 	callr	r2
 8012a00:	00000106 	br	8012a08 <alt_get_errno+0x28>
 8012a04:	d0a73104 	addi	r2,gp,-25404
}
 8012a08:	e037883a 	mov	sp,fp
 8012a0c:	dfc00117 	ldw	ra,4(sp)
 8012a10:	df000017 	ldw	fp,0(sp)
 8012a14:	dec00204 	addi	sp,sp,8
 8012a18:	f800283a 	ret

08012a1c <read>:
}

#else /* !ALT_USE_DIRECT_DRIVERS */

int ALT_READ (int file, void *ptr, size_t len)
{
 8012a1c:	defff904 	addi	sp,sp,-28
 8012a20:	dfc00615 	stw	ra,24(sp)
 8012a24:	df000515 	stw	fp,20(sp)
 8012a28:	df000504 	addi	fp,sp,20
 8012a2c:	e13ffd15 	stw	r4,-12(fp)
 8012a30:	e17ffe15 	stw	r5,-8(fp)
 8012a34:	e1bfff15 	stw	r6,-4(fp)
   * A common error case is that when the file descriptor was created, the call
   * to open() failed resulting in a negative file descriptor. This is trapped
   * below so that we don't try and process an invalid file descriptor.
   */

  fd = (file < 0) ? NULL : &alt_fd_list[file];
 8012a38:	e0bffd17 	ldw	r2,-12(fp)
 8012a3c:	10000816 	blt	r2,zero,8012a60 <read+0x44>
 8012a40:	01400304 	movi	r5,12
 8012a44:	e13ffd17 	ldw	r4,-12(fp)
 8012a48:	80054680 	call	8005468 <__mulsi3>
 8012a4c:	1007883a 	mov	r3,r2
 8012a50:	00820074 	movhi	r2,2049
 8012a54:	10966604 	addi	r2,r2,22936
 8012a58:	1885883a 	add	r2,r3,r2
 8012a5c:	00000106 	br	8012a64 <read+0x48>
 8012a60:	0005883a 	mov	r2,zero
 8012a64:	e0bffb15 	stw	r2,-20(fp)
  
  if (fd)
 8012a68:	e0bffb17 	ldw	r2,-20(fp)
 8012a6c:	10002226 	beq	r2,zero,8012af8 <read+0xdc>
     * If the file has not been opened with read access, or if the driver does
     * not provide an implementation of read(), generate an error. Otherwise
     * call the drivers read() function to process the request.
     */

    if (((fd->fd_flags & O_ACCMODE) != O_WRONLY) && 
 8012a70:	e0bffb17 	ldw	r2,-20(fp)
 8012a74:	10800217 	ldw	r2,8(r2)
 8012a78:	108000cc 	andi	r2,r2,3
 8012a7c:	10800060 	cmpeqi	r2,r2,1
 8012a80:	1000181e 	bne	r2,zero,8012ae4 <read+0xc8>
        (fd->dev->read))
 8012a84:	e0bffb17 	ldw	r2,-20(fp)
 8012a88:	10800017 	ldw	r2,0(r2)
 8012a8c:	10800517 	ldw	r2,20(r2)
     * If the file has not been opened with read access, or if the driver does
     * not provide an implementation of read(), generate an error. Otherwise
     * call the drivers read() function to process the request.
     */

    if (((fd->fd_flags & O_ACCMODE) != O_WRONLY) && 
 8012a90:	10001426 	beq	r2,zero,8012ae4 <read+0xc8>
        (fd->dev->read))
      {
        if ((rval = fd->dev->read(fd, ptr, len)) < 0)
 8012a94:	e0bffb17 	ldw	r2,-20(fp)
 8012a98:	10800017 	ldw	r2,0(r2)
 8012a9c:	10800517 	ldw	r2,20(r2)
 8012aa0:	e0ffff17 	ldw	r3,-4(fp)
 8012aa4:	180d883a 	mov	r6,r3
 8012aa8:	e17ffe17 	ldw	r5,-8(fp)
 8012aac:	e13ffb17 	ldw	r4,-20(fp)
 8012ab0:	103ee83a 	callr	r2
 8012ab4:	e0bffc15 	stw	r2,-16(fp)
 8012ab8:	e0bffc17 	ldw	r2,-16(fp)
 8012abc:	1000070e 	bge	r2,zero,8012adc <read+0xc0>
        {
          ALT_ERRNO = -rval;
 8012ac0:	80129e00 	call	80129e0 <alt_get_errno>
 8012ac4:	1007883a 	mov	r3,r2
 8012ac8:	e0bffc17 	ldw	r2,-16(fp)
 8012acc:	0085c83a 	sub	r2,zero,r2
 8012ad0:	18800015 	stw	r2,0(r3)
          return -1;
 8012ad4:	00bfffc4 	movi	r2,-1
 8012ad8:	00000c06 	br	8012b0c <read+0xf0>
        }
        return rval;
 8012adc:	e0bffc17 	ldw	r2,-16(fp)
 8012ae0:	00000a06 	br	8012b0c <read+0xf0>
      }
      else
      {
        ALT_ERRNO = EACCES;
 8012ae4:	80129e00 	call	80129e0 <alt_get_errno>
 8012ae8:	1007883a 	mov	r3,r2
 8012aec:	00800344 	movi	r2,13
 8012af0:	18800015 	stw	r2,0(r3)
 8012af4:	00000406 	br	8012b08 <read+0xec>
      }
    }
  else
  {
    ALT_ERRNO = EBADFD;
 8012af8:	80129e00 	call	80129e0 <alt_get_errno>
 8012afc:	1007883a 	mov	r3,r2
 8012b00:	00801444 	movi	r2,81
 8012b04:	18800015 	stw	r2,0(r3)
  }
  return -1;
 8012b08:	00bfffc4 	movi	r2,-1
}
 8012b0c:	e037883a 	mov	sp,fp
 8012b10:	dfc00117 	ldw	ra,4(sp)
 8012b14:	df000017 	ldw	fp,0(sp)
 8012b18:	dec00204 	addi	sp,sp,8
 8012b1c:	f800283a 	ret

08012b20 <alt_release_fd>:
 * File descriptors correcponding to standard in, standard out and standard 
 * error cannont be released backed to the pool. They are always reserved.
 */

void alt_release_fd (int fd)
{
 8012b20:	defffc04 	addi	sp,sp,-16
 8012b24:	dfc00315 	stw	ra,12(sp)
 8012b28:	df000215 	stw	fp,8(sp)
 8012b2c:	dc000115 	stw	r16,4(sp)
 8012b30:	df000204 	addi	fp,sp,8
 8012b34:	e13ffe15 	stw	r4,-8(fp)
  if (fd > 2)
 8012b38:	e0bffe17 	ldw	r2,-8(fp)
 8012b3c:	108000d0 	cmplti	r2,r2,3
 8012b40:	1000111e 	bne	r2,zero,8012b88 <alt_release_fd+0x68>
  {
    alt_fd_list[fd].fd_flags = 0;
 8012b44:	04020074 	movhi	r16,2049
 8012b48:	84166604 	addi	r16,r16,22936
 8012b4c:	e0bffe17 	ldw	r2,-8(fp)
 8012b50:	01400304 	movi	r5,12
 8012b54:	1009883a 	mov	r4,r2
 8012b58:	80054680 	call	8005468 <__mulsi3>
 8012b5c:	8085883a 	add	r2,r16,r2
 8012b60:	10800204 	addi	r2,r2,8
 8012b64:	10000015 	stw	zero,0(r2)
    alt_fd_list[fd].dev      = 0;
 8012b68:	04020074 	movhi	r16,2049
 8012b6c:	84166604 	addi	r16,r16,22936
 8012b70:	e0bffe17 	ldw	r2,-8(fp)
 8012b74:	01400304 	movi	r5,12
 8012b78:	1009883a 	mov	r4,r2
 8012b7c:	80054680 	call	8005468 <__mulsi3>
 8012b80:	8085883a 	add	r2,r16,r2
 8012b84:	10000015 	stw	zero,0(r2)
  }
}
 8012b88:	0001883a 	nop
 8012b8c:	e6ffff04 	addi	sp,fp,-4
 8012b90:	dfc00217 	ldw	ra,8(sp)
 8012b94:	df000117 	ldw	fp,4(sp)
 8012b98:	dc000017 	ldw	r16,0(sp)
 8012b9c:	dec00304 	addi	sp,sp,12
 8012ba0:	f800283a 	ret

08012ba4 <sbrk>:
#endif
 
caddr_t ALT_SBRK (int incr) __attribute__ ((no_instrument_function ));

caddr_t ALT_SBRK (int incr)
{ 
 8012ba4:	defff904 	addi	sp,sp,-28
 8012ba8:	df000615 	stw	fp,24(sp)
 8012bac:	df000604 	addi	fp,sp,24
 8012bb0:	e13fff15 	stw	r4,-4(fp)
static ALT_INLINE alt_irq_context ALT_ALWAYS_INLINE 
       alt_irq_disable_all (void)
{
  alt_irq_context context;

  NIOS2_READ_STATUS (context);
 8012bb4:	0005303a 	rdctl	r2,status
 8012bb8:	e0bffe15 	stw	r2,-8(fp)

  NIOS2_WRITE_STATUS (context & ~NIOS2_STATUS_PIE_MSK);
 8012bbc:	e0fffe17 	ldw	r3,-8(fp)
 8012bc0:	00bfff84 	movi	r2,-2
 8012bc4:	1884703a 	and	r2,r3,r2
 8012bc8:	1001703a 	wrctl	status,r2
  
  return context;
 8012bcc:	e0bffe17 	ldw	r2,-8(fp)
  alt_irq_context context;
  char *prev_heap_end; 

  context = alt_irq_disable_all();
 8012bd0:	e0bffb15 	stw	r2,-20(fp)

  /* Always return data aligned on a word boundary */
  heap_end = (char *)(((unsigned int)heap_end + 3) & ~3);
 8012bd4:	d0a03517 	ldw	r2,-32556(gp)
 8012bd8:	10c000c4 	addi	r3,r2,3
 8012bdc:	00bfff04 	movi	r2,-4
 8012be0:	1884703a 	and	r2,r3,r2
 8012be4:	d0a03515 	stw	r2,-32556(gp)
  if (((heap_end + incr) - __alt_heap_start) > ALT_MAX_HEAP_BYTES) {
    alt_irq_enable_all(context);
    return (caddr_t)-1;
  }
#else
  if ((heap_end + incr) > __alt_heap_limit) {
 8012be8:	d0e03517 	ldw	r3,-32556(gp)
 8012bec:	e0bfff17 	ldw	r2,-4(fp)
 8012bf0:	1887883a 	add	r3,r3,r2
 8012bf4:	00840034 	movhi	r2,4096
 8012bf8:	10800004 	addi	r2,r2,0
 8012bfc:	10c0062e 	bgeu	r2,r3,8012c18 <sbrk+0x74>
 8012c00:	e0bffb17 	ldw	r2,-20(fp)
 8012c04:	e0bffa15 	stw	r2,-24(fp)
  status &= ~NIOS2_STATUS_PIE_MSK;
  status |= (context & NIOS2_STATUS_PIE_MSK);
  
  NIOS2_WRITE_STATUS (status);
#else
  NIOS2_WRITE_STATUS (context);
 8012c08:	e0bffa17 	ldw	r2,-24(fp)
 8012c0c:	1001703a 	wrctl	status,r2
    alt_irq_enable_all(context);
    return (caddr_t)-1;
 8012c10:	00bfffc4 	movi	r2,-1
 8012c14:	00000b06 	br	8012c44 <sbrk+0xa0>
  }
#endif

  prev_heap_end = heap_end; 
 8012c18:	d0a03517 	ldw	r2,-32556(gp)
 8012c1c:	e0bffd15 	stw	r2,-12(fp)
  heap_end += incr; 
 8012c20:	d0e03517 	ldw	r3,-32556(gp)
 8012c24:	e0bfff17 	ldw	r2,-4(fp)
 8012c28:	1885883a 	add	r2,r3,r2
 8012c2c:	d0a03515 	stw	r2,-32556(gp)
 8012c30:	e0bffb17 	ldw	r2,-20(fp)
 8012c34:	e0bffc15 	stw	r2,-16(fp)
 8012c38:	e0bffc17 	ldw	r2,-16(fp)
 8012c3c:	1001703a 	wrctl	status,r2

#endif

  alt_irq_enable_all(context);

  return (caddr_t) prev_heap_end; 
 8012c40:	e0bffd17 	ldw	r2,-12(fp)
} 
 8012c44:	e037883a 	mov	sp,fp
 8012c48:	df000017 	ldw	fp,0(sp)
 8012c4c:	dec00104 	addi	sp,sp,4
 8012c50:	f800283a 	ret

08012c54 <alt_get_errno>:
#undef errno

extern int errno;

static ALT_INLINE int* alt_get_errno(void)
{
 8012c54:	defffe04 	addi	sp,sp,-8
 8012c58:	dfc00115 	stw	ra,4(sp)
 8012c5c:	df000015 	stw	fp,0(sp)
 8012c60:	d839883a 	mov	fp,sp
  return ((alt_errno) ? alt_errno() : &errno);
 8012c64:	d0a03417 	ldw	r2,-32560(gp)
 8012c68:	10000326 	beq	r2,zero,8012c78 <alt_get_errno+0x24>
 8012c6c:	d0a03417 	ldw	r2,-32560(gp)
 8012c70:	103ee83a 	callr	r2
 8012c74:	00000106 	br	8012c7c <alt_get_errno+0x28>
 8012c78:	d0a73104 	addi	r2,gp,-25404
}
 8012c7c:	e037883a 	mov	sp,fp
 8012c80:	dfc00117 	ldw	ra,4(sp)
 8012c84:	df000017 	ldw	fp,0(sp)
 8012c88:	dec00204 	addi	sp,sp,8
 8012c8c:	f800283a 	ret

08012c90 <times>:
 *
 * ALT_TIMES is mapped onto the times() system call in alt_syscall.h
 */
 
clock_t ALT_TIMES (struct tms *buf)
{
 8012c90:	defffc04 	addi	sp,sp,-16
 8012c94:	dfc00315 	stw	ra,12(sp)
 8012c98:	df000215 	stw	fp,8(sp)
 8012c9c:	df000204 	addi	fp,sp,8
 8012ca0:	e13fff15 	stw	r4,-4(fp)
 * alt_nticks() returns the elapsed number of system clock ticks since reset.
 */

static ALT_INLINE alt_u32 ALT_ALWAYS_INLINE alt_nticks (void)
{
  return _alt_nticks;
 8012ca4:	d0a73717 	ldw	r2,-25380(gp)
  clock_t ticks = alt_nticks(); 
 8012ca8:	e0bffe15 	stw	r2,-8(fp)
 * Obtain the system clock rate in ticks/s. 
 */

static ALT_INLINE alt_u32 ALT_ALWAYS_INLINE alt_ticks_per_second (void)
{
  return _alt_tick_rate;
 8012cac:	d0a73617 	ldw	r2,-25384(gp)

  /* If there is no system clock present, generate an error */

  if (!alt_ticks_per_second())
 8012cb0:	1000061e 	bne	r2,zero,8012ccc <times+0x3c>
  {
    ALT_ERRNO = ENOSYS;
 8012cb4:	8012c540 	call	8012c54 <alt_get_errno>
 8012cb8:	1007883a 	mov	r3,r2
 8012cbc:	00801604 	movi	r2,88
 8012cc0:	18800015 	stw	r2,0(r3)
    return 0;
 8012cc4:	0005883a 	mov	r2,zero
 8012cc8:	00000a06 	br	8012cf4 <times+0x64>
  }

  /* Otherwise return the elapsed time */

  buf->tms_utime  = 0;
 8012ccc:	e0bfff17 	ldw	r2,-4(fp)
 8012cd0:	10000015 	stw	zero,0(r2)
  buf->tms_stime  = ticks;
 8012cd4:	e0bfff17 	ldw	r2,-4(fp)
 8012cd8:	e0fffe17 	ldw	r3,-8(fp)
 8012cdc:	10c00115 	stw	r3,4(r2)
  buf->tms_cutime = 0;
 8012ce0:	e0bfff17 	ldw	r2,-4(fp)
 8012ce4:	10000215 	stw	zero,8(r2)
  buf->tms_cstime = 0;
 8012ce8:	e0bfff17 	ldw	r2,-4(fp)
 8012cec:	10000315 	stw	zero,12(r2)

  return ticks;
 8012cf0:	e0bffe17 	ldw	r2,-8(fp)
}
 8012cf4:	e037883a 	mov	sp,fp
 8012cf8:	dfc00117 	ldw	ra,4(sp)
 8012cfc:	df000017 	ldw	fp,0(sp)
 8012d00:	dec00204 	addi	sp,sp,8
 8012d04:	f800283a 	ret

08012d08 <usleep>:
#if defined (__GNUC__) && __GNUC__ >= 4
int ALT_USLEEP (useconds_t us)
#else
unsigned int ALT_USLEEP (unsigned int us)
#endif
{
 8012d08:	defffd04 	addi	sp,sp,-12
 8012d0c:	dfc00215 	stw	ra,8(sp)
 8012d10:	df000115 	stw	fp,4(sp)
 8012d14:	df000104 	addi	fp,sp,4
 8012d18:	e13fff15 	stw	r4,-4(fp)
  return alt_busy_sleep(us);
 8012d1c:	e13fff17 	ldw	r4,-4(fp)
 8012d20:	8013ac00 	call	8013ac0 <alt_busy_sleep>
}
 8012d24:	e037883a 	mov	sp,fp
 8012d28:	dfc00117 	ldw	ra,4(sp)
 8012d2c:	df000017 	ldw	fp,0(sp)
 8012d30:	dec00204 	addi	sp,sp,8
 8012d34:	f800283a 	ret

08012d38 <alt_get_errno>:
#undef errno

extern int errno;

static ALT_INLINE int* alt_get_errno(void)
{
 8012d38:	defffe04 	addi	sp,sp,-8
 8012d3c:	dfc00115 	stw	ra,4(sp)
 8012d40:	df000015 	stw	fp,0(sp)
 8012d44:	d839883a 	mov	fp,sp
  return ((alt_errno) ? alt_errno() : &errno);
 8012d48:	d0a03417 	ldw	r2,-32560(gp)
 8012d4c:	10000326 	beq	r2,zero,8012d5c <alt_get_errno+0x24>
 8012d50:	d0a03417 	ldw	r2,-32560(gp)
 8012d54:	103ee83a 	callr	r2
 8012d58:	00000106 	br	8012d60 <alt_get_errno+0x28>
 8012d5c:	d0a73104 	addi	r2,gp,-25404
}
 8012d60:	e037883a 	mov	sp,fp
 8012d64:	dfc00117 	ldw	ra,4(sp)
 8012d68:	df000017 	ldw	fp,0(sp)
 8012d6c:	dec00204 	addi	sp,sp,8
 8012d70:	f800283a 	ret

08012d74 <write>:
}

#else /* !ALT_USE_DIRECT_DRIVERS */

int ALT_WRITE (int file, const void *ptr, size_t len)
{
 8012d74:	defff904 	addi	sp,sp,-28
 8012d78:	dfc00615 	stw	ra,24(sp)
 8012d7c:	df000515 	stw	fp,20(sp)
 8012d80:	df000504 	addi	fp,sp,20
 8012d84:	e13ffd15 	stw	r4,-12(fp)
 8012d88:	e17ffe15 	stw	r5,-8(fp)
 8012d8c:	e1bfff15 	stw	r6,-4(fp)
   * A common error case is that when the file descriptor was created, the call
   * to open() failed resulting in a negative file descriptor. This is trapped
   * below so that we don't try and process an invalid file descriptor.
   */

  fd = (file < 0) ? NULL : &alt_fd_list[file];
 8012d90:	e0bffd17 	ldw	r2,-12(fp)
 8012d94:	10000816 	blt	r2,zero,8012db8 <write+0x44>
 8012d98:	01400304 	movi	r5,12
 8012d9c:	e13ffd17 	ldw	r4,-12(fp)
 8012da0:	80054680 	call	8005468 <__mulsi3>
 8012da4:	1007883a 	mov	r3,r2
 8012da8:	00820074 	movhi	r2,2049
 8012dac:	10966604 	addi	r2,r2,22936
 8012db0:	1885883a 	add	r2,r3,r2
 8012db4:	00000106 	br	8012dbc <write+0x48>
 8012db8:	0005883a 	mov	r2,zero
 8012dbc:	e0bffb15 	stw	r2,-20(fp)
  
  if (fd)
 8012dc0:	e0bffb17 	ldw	r2,-20(fp)
 8012dc4:	10002126 	beq	r2,zero,8012e4c <write+0xd8>
     * If the file has not been opened with write access, or if the driver does
     * not provide an implementation of write(), generate an error. Otherwise
     * call the drivers write() function to process the request.
     */

    if (((fd->fd_flags & O_ACCMODE) != O_RDONLY) && fd->dev->write)
 8012dc8:	e0bffb17 	ldw	r2,-20(fp)
 8012dcc:	10800217 	ldw	r2,8(r2)
 8012dd0:	108000cc 	andi	r2,r2,3
 8012dd4:	10001826 	beq	r2,zero,8012e38 <write+0xc4>
 8012dd8:	e0bffb17 	ldw	r2,-20(fp)
 8012ddc:	10800017 	ldw	r2,0(r2)
 8012de0:	10800617 	ldw	r2,24(r2)
 8012de4:	10001426 	beq	r2,zero,8012e38 <write+0xc4>
    {
      
      /* ALT_LOG - see altera_hal/HAL/inc/sys/alt_log_printf.h */
      ALT_LOG_WRITE_FUNCTION(ptr,len);

      if ((rval = fd->dev->write(fd, ptr, len)) < 0)
 8012de8:	e0bffb17 	ldw	r2,-20(fp)
 8012dec:	10800017 	ldw	r2,0(r2)
 8012df0:	10800617 	ldw	r2,24(r2)
 8012df4:	e0ffff17 	ldw	r3,-4(fp)
 8012df8:	180d883a 	mov	r6,r3
 8012dfc:	e17ffe17 	ldw	r5,-8(fp)
 8012e00:	e13ffb17 	ldw	r4,-20(fp)
 8012e04:	103ee83a 	callr	r2
 8012e08:	e0bffc15 	stw	r2,-16(fp)
 8012e0c:	e0bffc17 	ldw	r2,-16(fp)
 8012e10:	1000070e 	bge	r2,zero,8012e30 <write+0xbc>
      {
        ALT_ERRNO = -rval;
 8012e14:	8012d380 	call	8012d38 <alt_get_errno>
 8012e18:	1007883a 	mov	r3,r2
 8012e1c:	e0bffc17 	ldw	r2,-16(fp)
 8012e20:	0085c83a 	sub	r2,zero,r2
 8012e24:	18800015 	stw	r2,0(r3)
        return -1;
 8012e28:	00bfffc4 	movi	r2,-1
 8012e2c:	00000c06 	br	8012e60 <write+0xec>
      }
      return rval;
 8012e30:	e0bffc17 	ldw	r2,-16(fp)
 8012e34:	00000a06 	br	8012e60 <write+0xec>
    }
    else
    {
      ALT_ERRNO = EACCES;
 8012e38:	8012d380 	call	8012d38 <alt_get_errno>
 8012e3c:	1007883a 	mov	r3,r2
 8012e40:	00800344 	movi	r2,13
 8012e44:	18800015 	stw	r2,0(r3)
 8012e48:	00000406 	br	8012e5c <write+0xe8>
    }
  }
  else  
  {
    ALT_ERRNO = EBADFD;
 8012e4c:	8012d380 	call	8012d38 <alt_get_errno>
 8012e50:	1007883a 	mov	r3,r2
 8012e54:	00801444 	movi	r2,81
 8012e58:	18800015 	stw	r2,0(r3)
  }
  return -1;
 8012e5c:	00bfffc4 	movi	r2,-1
}
 8012e60:	e037883a 	mov	sp,fp
 8012e64:	dfc00117 	ldw	ra,4(sp)
 8012e68:	df000017 	ldw	fp,0(sp)
 8012e6c:	dec00204 	addi	sp,sp,8
 8012e70:	f800283a 	ret

08012e74 <alt_dev_reg>:
 */

extern int alt_fs_reg  (alt_dev* dev); 

static ALT_INLINE int alt_dev_reg (alt_dev* dev)
{
 8012e74:	defffd04 	addi	sp,sp,-12
 8012e78:	dfc00215 	stw	ra,8(sp)
 8012e7c:	df000115 	stw	fp,4(sp)
 8012e80:	df000104 	addi	fp,sp,4
 8012e84:	e13fff15 	stw	r4,-4(fp)
  extern alt_llist alt_dev_list;

  return alt_dev_llist_insert ((alt_dev_llist*) dev, &alt_dev_list);
 8012e88:	d1603104 	addi	r5,gp,-32572
 8012e8c:	e13fff17 	ldw	r4,-4(fp)
 8012e90:	8013c740 	call	8013c74 <alt_dev_llist_insert>
}
 8012e94:	e037883a 	mov	sp,fp
 8012e98:	dfc00117 	ldw	ra,4(sp)
 8012e9c:	df000017 	ldw	fp,0(sp)
 8012ea0:	dec00204 	addi	sp,sp,8
 8012ea4:	f800283a 	ret

08012ea8 <alt_irq_init>:
 * The "base" parameter is ignored and only
 * present for backwards-compatibility.
 */

void alt_irq_init ( const void* base )
{
 8012ea8:	defffd04 	addi	sp,sp,-12
 8012eac:	dfc00215 	stw	ra,8(sp)
 8012eb0:	df000115 	stw	fp,4(sp)
 8012eb4:	df000104 	addi	fp,sp,4
 8012eb8:	e13fff15 	stw	r4,-4(fp)
    ALTERA_NIOS2_GEN2_IRQ_INIT ( NIOS2_GEN2_0, nios2_gen2_0);
 8012ebc:	80146200 	call	8014620 <altera_nios2_gen2_irq_init>
 * alt_irq_cpu_enable_interrupts() enables the CPU to start taking interrupts.
 */
static ALT_INLINE void ALT_ALWAYS_INLINE 
       alt_irq_cpu_enable_interrupts (void)
{
    NIOS2_WRITE_STATUS(NIOS2_STATUS_PIE_MSK
 8012ec0:	00800044 	movi	r2,1
 8012ec4:	1001703a 	wrctl	status,r2
    alt_irq_cpu_enable_interrupts();
}
 8012ec8:	0001883a 	nop
 8012ecc:	e037883a 	mov	sp,fp
 8012ed0:	dfc00117 	ldw	ra,4(sp)
 8012ed4:	df000017 	ldw	fp,0(sp)
 8012ed8:	dec00204 	addi	sp,sp,8
 8012edc:	f800283a 	ret

08012ee0 <alt_sys_init>:
 * Initialize the non-interrupt controller devices.
 * Called after alt_irq_init().
 */

void alt_sys_init( void )
{
 8012ee0:	defffe04 	addi	sp,sp,-8
 8012ee4:	dfc00115 	stw	ra,4(sp)
 8012ee8:	df000015 	stw	fp,0(sp)
 8012eec:	d839883a 	mov	fp,sp
    ALTERA_AVALON_JTAG_UART_INIT ( JTAG_UART_0, jtag_uart_0);
 8012ef0:	000d883a 	mov	r6,zero
 8012ef4:	000b883a 	mov	r5,zero
 8012ef8:	01020074 	movhi	r4,2049
 8012efc:	2116d004 	addi	r4,r4,23360
 8012f00:	80130900 	call	8013090 <altera_avalon_jtag_uart_init>
 8012f04:	01020074 	movhi	r4,2049
 8012f08:	2116c604 	addi	r4,r4,23320
 8012f0c:	8012e740 	call	8012e74 <alt_dev_reg>
    ALTERA_AVALON_SYSID_QSYS_INIT ( SYSID_QSYS_0, sysid_qsys_0);
 8012f10:	0001883a 	nop
}
 8012f14:	0001883a 	nop
 8012f18:	e037883a 	mov	sp,fp
 8012f1c:	dfc00117 	ldw	ra,4(sp)
 8012f20:	df000017 	ldw	fp,0(sp)
 8012f24:	dec00204 	addi	sp,sp,8
 8012f28:	f800283a 	ret

08012f2c <altera_avalon_jtag_uart_read_fd>:
 *
 */

int 
altera_avalon_jtag_uart_read_fd(alt_fd* fd, char* buffer, int space)
{
 8012f2c:	defffa04 	addi	sp,sp,-24
 8012f30:	dfc00515 	stw	ra,20(sp)
 8012f34:	df000415 	stw	fp,16(sp)
 8012f38:	df000404 	addi	fp,sp,16
 8012f3c:	e13ffd15 	stw	r4,-12(fp)
 8012f40:	e17ffe15 	stw	r5,-8(fp)
 8012f44:	e1bfff15 	stw	r6,-4(fp)
    altera_avalon_jtag_uart_dev* dev = (altera_avalon_jtag_uart_dev*) fd->dev; 
 8012f48:	e0bffd17 	ldw	r2,-12(fp)
 8012f4c:	10800017 	ldw	r2,0(r2)
 8012f50:	e0bffc15 	stw	r2,-16(fp)

    return altera_avalon_jtag_uart_read(&dev->state, buffer, space,
 8012f54:	e0bffc17 	ldw	r2,-16(fp)
 8012f58:	10c00a04 	addi	r3,r2,40
 8012f5c:	e0bffd17 	ldw	r2,-12(fp)
 8012f60:	10800217 	ldw	r2,8(r2)
 8012f64:	100f883a 	mov	r7,r2
 8012f68:	e1bfff17 	ldw	r6,-4(fp)
 8012f6c:	e17ffe17 	ldw	r5,-8(fp)
 8012f70:	1809883a 	mov	r4,r3
 8012f74:	80135540 	call	8013554 <altera_avalon_jtag_uart_read>
      fd->fd_flags);
}
 8012f78:	e037883a 	mov	sp,fp
 8012f7c:	dfc00117 	ldw	ra,4(sp)
 8012f80:	df000017 	ldw	fp,0(sp)
 8012f84:	dec00204 	addi	sp,sp,8
 8012f88:	f800283a 	ret

08012f8c <altera_avalon_jtag_uart_write_fd>:

int 
altera_avalon_jtag_uart_write_fd(alt_fd* fd, const char* buffer, int space)
{
 8012f8c:	defffa04 	addi	sp,sp,-24
 8012f90:	dfc00515 	stw	ra,20(sp)
 8012f94:	df000415 	stw	fp,16(sp)
 8012f98:	df000404 	addi	fp,sp,16
 8012f9c:	e13ffd15 	stw	r4,-12(fp)
 8012fa0:	e17ffe15 	stw	r5,-8(fp)
 8012fa4:	e1bfff15 	stw	r6,-4(fp)
    altera_avalon_jtag_uart_dev* dev = (altera_avalon_jtag_uart_dev*) fd->dev; 
 8012fa8:	e0bffd17 	ldw	r2,-12(fp)
 8012fac:	10800017 	ldw	r2,0(r2)
 8012fb0:	e0bffc15 	stw	r2,-16(fp)

    return altera_avalon_jtag_uart_write(&dev->state, buffer, space,
 8012fb4:	e0bffc17 	ldw	r2,-16(fp)
 8012fb8:	10c00a04 	addi	r3,r2,40
 8012fbc:	e0bffd17 	ldw	r2,-12(fp)
 8012fc0:	10800217 	ldw	r2,8(r2)
 8012fc4:	100f883a 	mov	r7,r2
 8012fc8:	e1bfff17 	ldw	r6,-4(fp)
 8012fcc:	e17ffe17 	ldw	r5,-8(fp)
 8012fd0:	1809883a 	mov	r4,r3
 8012fd4:	80137700 	call	8013770 <altera_avalon_jtag_uart_write>
      fd->fd_flags);
}
 8012fd8:	e037883a 	mov	sp,fp
 8012fdc:	dfc00117 	ldw	ra,4(sp)
 8012fe0:	df000017 	ldw	fp,0(sp)
 8012fe4:	dec00204 	addi	sp,sp,8
 8012fe8:	f800283a 	ret

08012fec <altera_avalon_jtag_uart_close_fd>:

#ifndef ALTERA_AVALON_JTAG_UART_SMALL

int 
altera_avalon_jtag_uart_close_fd(alt_fd* fd)
{
 8012fec:	defffc04 	addi	sp,sp,-16
 8012ff0:	dfc00315 	stw	ra,12(sp)
 8012ff4:	df000215 	stw	fp,8(sp)
 8012ff8:	df000204 	addi	fp,sp,8
 8012ffc:	e13fff15 	stw	r4,-4(fp)
    altera_avalon_jtag_uart_dev* dev = (altera_avalon_jtag_uart_dev*) fd->dev; 
 8013000:	e0bfff17 	ldw	r2,-4(fp)
 8013004:	10800017 	ldw	r2,0(r2)
 8013008:	e0bffe15 	stw	r2,-8(fp)

    return altera_avalon_jtag_uart_close(&dev->state, fd->fd_flags);
 801300c:	e0bffe17 	ldw	r2,-8(fp)
 8013010:	10c00a04 	addi	r3,r2,40
 8013014:	e0bfff17 	ldw	r2,-4(fp)
 8013018:	10800217 	ldw	r2,8(r2)
 801301c:	100b883a 	mov	r5,r2
 8013020:	1809883a 	mov	r4,r3
 8013024:	80133fc0 	call	80133fc <altera_avalon_jtag_uart_close>
}
 8013028:	e037883a 	mov	sp,fp
 801302c:	dfc00117 	ldw	ra,4(sp)
 8013030:	df000017 	ldw	fp,0(sp)
 8013034:	dec00204 	addi	sp,sp,8
 8013038:	f800283a 	ret

0801303c <altera_avalon_jtag_uart_ioctl_fd>:

int 
altera_avalon_jtag_uart_ioctl_fd(alt_fd* fd, int req, void* arg)
{
 801303c:	defffa04 	addi	sp,sp,-24
 8013040:	dfc00515 	stw	ra,20(sp)
 8013044:	df000415 	stw	fp,16(sp)
 8013048:	df000404 	addi	fp,sp,16
 801304c:	e13ffd15 	stw	r4,-12(fp)
 8013050:	e17ffe15 	stw	r5,-8(fp)
 8013054:	e1bfff15 	stw	r6,-4(fp)
    altera_avalon_jtag_uart_dev* dev = (altera_avalon_jtag_uart_dev*) fd->dev;
 8013058:	e0bffd17 	ldw	r2,-12(fp)
 801305c:	10800017 	ldw	r2,0(r2)
 8013060:	e0bffc15 	stw	r2,-16(fp)

    return altera_avalon_jtag_uart_ioctl(&dev->state, req, arg);
 8013064:	e0bffc17 	ldw	r2,-16(fp)
 8013068:	10800a04 	addi	r2,r2,40
 801306c:	e1bfff17 	ldw	r6,-4(fp)
 8013070:	e17ffe17 	ldw	r5,-8(fp)
 8013074:	1009883a 	mov	r4,r2
 8013078:	80134640 	call	8013464 <altera_avalon_jtag_uart_ioctl>
}
 801307c:	e037883a 	mov	sp,fp
 8013080:	dfc00117 	ldw	ra,4(sp)
 8013084:	df000017 	ldw	fp,0(sp)
 8013088:	dec00204 	addi	sp,sp,8
 801308c:	f800283a 	ret

08013090 <altera_avalon_jtag_uart_init>:
 * Return 1 on sucessful IRQ register and 0 on failure.
 */

void altera_avalon_jtag_uart_init(altera_avalon_jtag_uart_state* sp, 
                                  int irq_controller_id, int irq)
{
 8013090:	defffa04 	addi	sp,sp,-24
 8013094:	dfc00515 	stw	ra,20(sp)
 8013098:	df000415 	stw	fp,16(sp)
 801309c:	df000404 	addi	fp,sp,16
 80130a0:	e13ffd15 	stw	r4,-12(fp)
 80130a4:	e17ffe15 	stw	r5,-8(fp)
 80130a8:	e1bfff15 	stw	r6,-4(fp)
  ALT_FLAG_CREATE(&sp->events, 0);
  ALT_SEM_CREATE(&sp->read_lock, 1);
  ALT_SEM_CREATE(&sp->write_lock, 1);

  /* enable read interrupts at the device */
  sp->irq_enable = ALTERA_AVALON_JTAG_UART_CONTROL_RE_MSK;
 80130ac:	e0bffd17 	ldw	r2,-12(fp)
 80130b0:	00c00044 	movi	r3,1
 80130b4:	10c00815 	stw	r3,32(r2)

  IOWR_ALTERA_AVALON_JTAG_UART_CONTROL(sp->base, sp->irq_enable); 
 80130b8:	e0bffd17 	ldw	r2,-12(fp)
 80130bc:	10800017 	ldw	r2,0(r2)
 80130c0:	10800104 	addi	r2,r2,4
 80130c4:	1007883a 	mov	r3,r2
 80130c8:	e0bffd17 	ldw	r2,-12(fp)
 80130cc:	10800817 	ldw	r2,32(r2)
 80130d0:	18800035 	stwio	r2,0(r3)
  
  /* register the interrupt handler */
#ifdef ALT_ENHANCED_INTERRUPT_API_PRESENT
  alt_ic_isr_register(irq_controller_id, irq, altera_avalon_jtag_uart_irq, 
 80130d4:	e0bffe17 	ldw	r2,-8(fp)
 80130d8:	e0ffff17 	ldw	r3,-4(fp)
 80130dc:	d8000015 	stw	zero,0(sp)
 80130e0:	e1fffd17 	ldw	r7,-12(fp)
 80130e4:	01820074 	movhi	r6,2049
 80130e8:	318c5404 	addi	r6,r6,12624
 80130ec:	180b883a 	mov	r5,r3
 80130f0:	1009883a 	mov	r4,r2
 80130f4:	8013df80 	call	8013df8 <alt_ic_isr_register>
#else
  alt_irq_register(irq, sp, altera_avalon_jtag_uart_irq);
#endif  

  /* Register an alarm to go off every second to check for presence of host */
  sp->host_inactive = 0;
 80130f8:	e0bffd17 	ldw	r2,-12(fp)
 80130fc:	10000915 	stw	zero,36(r2)

  if (alt_alarm_start(&sp->alarm, alt_ticks_per_second(), 
 8013100:	e0bffd17 	ldw	r2,-12(fp)
 8013104:	10800204 	addi	r2,r2,8
 8013108:	d0e73617 	ldw	r3,-25384(gp)
 801310c:	e1fffd17 	ldw	r7,-12(fp)
 8013110:	01820074 	movhi	r6,2049
 8013114:	318cd704 	addi	r6,r6,13148
 8013118:	180b883a 	mov	r5,r3
 801311c:	1009883a 	mov	r4,r2
 8013120:	80139940 	call	8013994 <alt_alarm_start>
 8013124:	1000040e 	bge	r2,zero,8013138 <altera_avalon_jtag_uart_init+0xa8>
    &altera_avalon_jtag_uart_timeout, sp) < 0)
  {
    /* If we can't set the alarm then record "don't know if host present" 
     * and behave as though the host is present.
     */
    sp->timeout = INT_MAX;
 8013128:	e0fffd17 	ldw	r3,-12(fp)
 801312c:	00a00034 	movhi	r2,32768
 8013130:	10bfffc4 	addi	r2,r2,-1
 8013134:	18800115 	stw	r2,4(r3)
  }

  /* ALT_LOG - see altera_hal/HAL/inc/sys/alt_log_printf.h */ 
  ALT_LOG_JTAG_UART_ALARM_REGISTER(sp, sp->base);
}
 8013138:	0001883a 	nop
 801313c:	e037883a 	mov	sp,fp
 8013140:	dfc00117 	ldw	ra,4(sp)
 8013144:	df000017 	ldw	fp,0(sp)
 8013148:	dec00204 	addi	sp,sp,8
 801314c:	f800283a 	ret

08013150 <altera_avalon_jtag_uart_irq>:
#ifdef ALT_ENHANCED_INTERRUPT_API_PRESENT
static void altera_avalon_jtag_uart_irq(void* context)
#else
static void altera_avalon_jtag_uart_irq(void* context, alt_u32 id)
#endif
{
 8013150:	defff804 	addi	sp,sp,-32
 8013154:	df000715 	stw	fp,28(sp)
 8013158:	df000704 	addi	fp,sp,28
 801315c:	e13fff15 	stw	r4,-4(fp)
  altera_avalon_jtag_uart_state* sp = (altera_avalon_jtag_uart_state*) context;
 8013160:	e0bfff17 	ldw	r2,-4(fp)
 8013164:	e0bffb15 	stw	r2,-20(fp)
  unsigned int base = sp->base;
 8013168:	e0bffb17 	ldw	r2,-20(fp)
 801316c:	10800017 	ldw	r2,0(r2)
 8013170:	e0bffc15 	stw	r2,-16(fp)
  /* ALT_LOG - see altera_hal/HAL/inc/sys/alt_log_printf.h */ 
  ALT_LOG_JTAG_UART_ISR_FUNCTION(base, sp);

  for ( ; ; )
  {
    unsigned int control = IORD_ALTERA_AVALON_JTAG_UART_CONTROL(base);
 8013174:	e0bffc17 	ldw	r2,-16(fp)
 8013178:	10800104 	addi	r2,r2,4
 801317c:	10800037 	ldwio	r2,0(r2)
 8013180:	e0bffd15 	stw	r2,-12(fp)

    /* Return once nothing more to do */
    if ((control & (ALTERA_AVALON_JTAG_UART_CONTROL_RI_MSK | ALTERA_AVALON_JTAG_UART_CONTROL_WI_MSK)) == 0)
 8013184:	e0bffd17 	ldw	r2,-12(fp)
 8013188:	1080c00c 	andi	r2,r2,768
 801318c:	10006d26 	beq	r2,zero,8013344 <altera_avalon_jtag_uart_irq+0x1f4>
      break;

    if (control & ALTERA_AVALON_JTAG_UART_CONTROL_RI_MSK)
 8013190:	e0bffd17 	ldw	r2,-12(fp)
 8013194:	1080400c 	andi	r2,r2,256
 8013198:	10003526 	beq	r2,zero,8013270 <altera_avalon_jtag_uart_irq+0x120>
    {
      /* process a read irq.  Start by assuming that there is data in the
       * receive FIFO (otherwise why would we have been interrupted?)
       */
      unsigned int data = 1 << ALTERA_AVALON_JTAG_UART_DATA_RAVAIL_OFST;
 801319c:	00800074 	movhi	r2,1
 80131a0:	e0bff915 	stw	r2,-28(fp)
      for ( ; ; )
      {
        /* Check whether there is space in the buffer.  If not then we must not
         * read any characters from the buffer as they will be lost.
         */
        unsigned int next = (sp->rx_in + 1) % ALTERA_AVALON_JTAG_UART_BUF_LEN;
 80131a4:	e0bffb17 	ldw	r2,-20(fp)
 80131a8:	10800a17 	ldw	r2,40(r2)
 80131ac:	10800044 	addi	r2,r2,1
 80131b0:	1081ffcc 	andi	r2,r2,2047
 80131b4:	e0bffe15 	stw	r2,-8(fp)
        if (next == sp->rx_out)
 80131b8:	e0bffb17 	ldw	r2,-20(fp)
 80131bc:	10c00b17 	ldw	r3,44(r2)
 80131c0:	e0bffe17 	ldw	r2,-8(fp)
 80131c4:	18801526 	beq	r3,r2,801321c <altera_avalon_jtag_uart_irq+0xcc>
          break;

        /* Try to remove a character from the FIFO and find out whether there
         * are any more characters remaining.
         */
        data = IORD_ALTERA_AVALON_JTAG_UART_DATA(base);
 80131c8:	e0bffc17 	ldw	r2,-16(fp)
 80131cc:	10800037 	ldwio	r2,0(r2)
 80131d0:	e0bff915 	stw	r2,-28(fp)
        
        if ((data & ALTERA_AVALON_JTAG_UART_DATA_RVALID_MSK) == 0)
 80131d4:	e0bff917 	ldw	r2,-28(fp)
 80131d8:	10a0000c 	andi	r2,r2,32768
 80131dc:	10001126 	beq	r2,zero,8013224 <altera_avalon_jtag_uart_irq+0xd4>
          break;

        sp->rx_buf[sp->rx_in] = (data & ALTERA_AVALON_JTAG_UART_DATA_DATA_MSK) >> ALTERA_AVALON_JTAG_UART_DATA_DATA_OFST;
 80131e0:	e0bffb17 	ldw	r2,-20(fp)
 80131e4:	10800a17 	ldw	r2,40(r2)
 80131e8:	e0fff917 	ldw	r3,-28(fp)
 80131ec:	1809883a 	mov	r4,r3
 80131f0:	e0fffb17 	ldw	r3,-20(fp)
 80131f4:	1885883a 	add	r2,r3,r2
 80131f8:	10800e04 	addi	r2,r2,56
 80131fc:	11000005 	stb	r4,0(r2)
        sp->rx_in = (sp->rx_in + 1) % ALTERA_AVALON_JTAG_UART_BUF_LEN;
 8013200:	e0bffb17 	ldw	r2,-20(fp)
 8013204:	10800a17 	ldw	r2,40(r2)
 8013208:	10800044 	addi	r2,r2,1
 801320c:	10c1ffcc 	andi	r3,r2,2047
 8013210:	e0bffb17 	ldw	r2,-20(fp)
 8013214:	10c00a15 	stw	r3,40(r2)

        /* Post an event to notify jtag_uart_read that a character has been read */
        ALT_FLAG_POST (sp->events, ALT_JTAG_UART_READ_RDY, OS_FLAG_SET);
      }
 8013218:	003fe206 	br	80131a4 <__alt_data_end+0xf80131a4>
        /* Check whether there is space in the buffer.  If not then we must not
         * read any characters from the buffer as they will be lost.
         */
        unsigned int next = (sp->rx_in + 1) % ALTERA_AVALON_JTAG_UART_BUF_LEN;
        if (next == sp->rx_out)
          break;
 801321c:	0001883a 	nop
 8013220:	00000106 	br	8013228 <altera_avalon_jtag_uart_irq+0xd8>
         * are any more characters remaining.
         */
        data = IORD_ALTERA_AVALON_JTAG_UART_DATA(base);
        
        if ((data & ALTERA_AVALON_JTAG_UART_DATA_RVALID_MSK) == 0)
          break;
 8013224:	0001883a 	nop

        /* Post an event to notify jtag_uart_read that a character has been read */
        ALT_FLAG_POST (sp->events, ALT_JTAG_UART_READ_RDY, OS_FLAG_SET);
      }

      if (data & ALTERA_AVALON_JTAG_UART_DATA_RAVAIL_MSK)
 8013228:	e0bff917 	ldw	r2,-28(fp)
 801322c:	10bfffec 	andhi	r2,r2,65535
 8013230:	10000f26 	beq	r2,zero,8013270 <altera_avalon_jtag_uart_irq+0x120>
      {
        /* If there is still data available here then the buffer is full 
         * so turn off receive interrupts until some space becomes available.
         */
        sp->irq_enable &= ~ALTERA_AVALON_JTAG_UART_CONTROL_RE_MSK;
 8013234:	e0bffb17 	ldw	r2,-20(fp)
 8013238:	10c00817 	ldw	r3,32(r2)
 801323c:	00bfff84 	movi	r2,-2
 8013240:	1886703a 	and	r3,r3,r2
 8013244:	e0bffb17 	ldw	r2,-20(fp)
 8013248:	10c00815 	stw	r3,32(r2)
        IOWR_ALTERA_AVALON_JTAG_UART_CONTROL(base, sp->irq_enable);
 801324c:	e0bffc17 	ldw	r2,-16(fp)
 8013250:	10800104 	addi	r2,r2,4
 8013254:	1007883a 	mov	r3,r2
 8013258:	e0bffb17 	ldw	r2,-20(fp)
 801325c:	10800817 	ldw	r2,32(r2)
 8013260:	18800035 	stwio	r2,0(r3)
        
        /* Dummy read to ensure IRQ is cleared prior to ISR completion */
        IORD_ALTERA_AVALON_JTAG_UART_CONTROL(base);
 8013264:	e0bffc17 	ldw	r2,-16(fp)
 8013268:	10800104 	addi	r2,r2,4
 801326c:	10800037 	ldwio	r2,0(r2)
      }
    }

    if (control & ALTERA_AVALON_JTAG_UART_CONTROL_WI_MSK)
 8013270:	e0bffd17 	ldw	r2,-12(fp)
 8013274:	1080800c 	andi	r2,r2,512
 8013278:	103fbe26 	beq	r2,zero,8013174 <__alt_data_end+0xf8013174>
    {
      /* process a write irq */
      unsigned int space = (control & ALTERA_AVALON_JTAG_UART_CONTROL_WSPACE_MSK) >> ALTERA_AVALON_JTAG_UART_CONTROL_WSPACE_OFST;
 801327c:	e0bffd17 	ldw	r2,-12(fp)
 8013280:	1004d43a 	srli	r2,r2,16
 8013284:	e0bffa15 	stw	r2,-24(fp)

      while (space > 0 && sp->tx_out != sp->tx_in)
 8013288:	00001406 	br	80132dc <altera_avalon_jtag_uart_irq+0x18c>
      {
        IOWR_ALTERA_AVALON_JTAG_UART_DATA(base, sp->tx_buf[sp->tx_out]);
 801328c:	e0bffc17 	ldw	r2,-16(fp)
 8013290:	e0fffb17 	ldw	r3,-20(fp)
 8013294:	18c00d17 	ldw	r3,52(r3)
 8013298:	e13ffb17 	ldw	r4,-20(fp)
 801329c:	20c7883a 	add	r3,r4,r3
 80132a0:	18c20e04 	addi	r3,r3,2104
 80132a4:	18c00003 	ldbu	r3,0(r3)
 80132a8:	18c03fcc 	andi	r3,r3,255
 80132ac:	18c0201c 	xori	r3,r3,128
 80132b0:	18ffe004 	addi	r3,r3,-128
 80132b4:	10c00035 	stwio	r3,0(r2)

        sp->tx_out = (sp->tx_out + 1) % ALTERA_AVALON_JTAG_UART_BUF_LEN;
 80132b8:	e0bffb17 	ldw	r2,-20(fp)
 80132bc:	10800d17 	ldw	r2,52(r2)
 80132c0:	10800044 	addi	r2,r2,1
 80132c4:	10c1ffcc 	andi	r3,r2,2047
 80132c8:	e0bffb17 	ldw	r2,-20(fp)
 80132cc:	10c00d15 	stw	r3,52(r2)

        /* Post an event to notify jtag_uart_write that a character has been written */
        ALT_FLAG_POST (sp->events, ALT_JTAG_UART_WRITE_RDY, OS_FLAG_SET);

        space--;
 80132d0:	e0bffa17 	ldw	r2,-24(fp)
 80132d4:	10bfffc4 	addi	r2,r2,-1
 80132d8:	e0bffa15 	stw	r2,-24(fp)
    if (control & ALTERA_AVALON_JTAG_UART_CONTROL_WI_MSK)
    {
      /* process a write irq */
      unsigned int space = (control & ALTERA_AVALON_JTAG_UART_CONTROL_WSPACE_MSK) >> ALTERA_AVALON_JTAG_UART_CONTROL_WSPACE_OFST;

      while (space > 0 && sp->tx_out != sp->tx_in)
 80132dc:	e0bffa17 	ldw	r2,-24(fp)
 80132e0:	10000526 	beq	r2,zero,80132f8 <altera_avalon_jtag_uart_irq+0x1a8>
 80132e4:	e0bffb17 	ldw	r2,-20(fp)
 80132e8:	10c00d17 	ldw	r3,52(r2)
 80132ec:	e0bffb17 	ldw	r2,-20(fp)
 80132f0:	10800c17 	ldw	r2,48(r2)
 80132f4:	18bfe51e 	bne	r3,r2,801328c <__alt_data_end+0xf801328c>
        ALT_FLAG_POST (sp->events, ALT_JTAG_UART_WRITE_RDY, OS_FLAG_SET);

        space--;
      }

      if (space > 0)
 80132f8:	e0bffa17 	ldw	r2,-24(fp)
 80132fc:	103f9d26 	beq	r2,zero,8013174 <__alt_data_end+0xf8013174>
      {
        /* If we don't have any more data available then turn off the TX interrupt */
        sp->irq_enable &= ~ALTERA_AVALON_JTAG_UART_CONTROL_WE_MSK;
 8013300:	e0bffb17 	ldw	r2,-20(fp)
 8013304:	10c00817 	ldw	r3,32(r2)
 8013308:	00bfff44 	movi	r2,-3
 801330c:	1886703a 	and	r3,r3,r2
 8013310:	e0bffb17 	ldw	r2,-20(fp)
 8013314:	10c00815 	stw	r3,32(r2)
        IOWR_ALTERA_AVALON_JTAG_UART_CONTROL(sp->base, sp->irq_enable);
 8013318:	e0bffb17 	ldw	r2,-20(fp)
 801331c:	10800017 	ldw	r2,0(r2)
 8013320:	10800104 	addi	r2,r2,4
 8013324:	1007883a 	mov	r3,r2
 8013328:	e0bffb17 	ldw	r2,-20(fp)
 801332c:	10800817 	ldw	r2,32(r2)
 8013330:	18800035 	stwio	r2,0(r3)
        
        /* Dummy read to ensure IRQ is cleared prior to ISR completion */
        IORD_ALTERA_AVALON_JTAG_UART_CONTROL(base);
 8013334:	e0bffc17 	ldw	r2,-16(fp)
 8013338:	10800104 	addi	r2,r2,4
 801333c:	10800037 	ldwio	r2,0(r2)
      }
    }
  }
 8013340:	003f8c06 	br	8013174 <__alt_data_end+0xf8013174>
  {
    unsigned int control = IORD_ALTERA_AVALON_JTAG_UART_CONTROL(base);

    /* Return once nothing more to do */
    if ((control & (ALTERA_AVALON_JTAG_UART_CONTROL_RI_MSK | ALTERA_AVALON_JTAG_UART_CONTROL_WI_MSK)) == 0)
      break;
 8013344:	0001883a 	nop
        /* Dummy read to ensure IRQ is cleared prior to ISR completion */
        IORD_ALTERA_AVALON_JTAG_UART_CONTROL(base);
      }
    }
  }
}
 8013348:	0001883a 	nop
 801334c:	e037883a 	mov	sp,fp
 8013350:	df000017 	ldw	fp,0(sp)
 8013354:	dec00104 	addi	sp,sp,4
 8013358:	f800283a 	ret

0801335c <altera_avalon_jtag_uart_timeout>:
 * Timeout routine is called every second
 */

static alt_u32 
altera_avalon_jtag_uart_timeout(void* context) 
{
 801335c:	defff804 	addi	sp,sp,-32
 8013360:	df000715 	stw	fp,28(sp)
 8013364:	df000704 	addi	fp,sp,28
 8013368:	e13ffb15 	stw	r4,-20(fp)
  altera_avalon_jtag_uart_state* sp = (altera_avalon_jtag_uart_state *) context;
 801336c:	e0bffb17 	ldw	r2,-20(fp)
 8013370:	e0bff915 	stw	r2,-28(fp)

  unsigned int control = IORD_ALTERA_AVALON_JTAG_UART_CONTROL(sp->base);
 8013374:	e0bff917 	ldw	r2,-28(fp)
 8013378:	10800017 	ldw	r2,0(r2)
 801337c:	10800104 	addi	r2,r2,4
 8013380:	10800037 	ldwio	r2,0(r2)
 8013384:	e0bffa15 	stw	r2,-24(fp)

  if (control & ALTERA_AVALON_JTAG_UART_CONTROL_AC_MSK)
 8013388:	e0bffa17 	ldw	r2,-24(fp)
 801338c:	1081000c 	andi	r2,r2,1024
 8013390:	10000b26 	beq	r2,zero,80133c0 <altera_avalon_jtag_uart_timeout+0x64>
  {
    IOWR_ALTERA_AVALON_JTAG_UART_CONTROL(sp->base, sp->irq_enable | ALTERA_AVALON_JTAG_UART_CONTROL_AC_MSK);
 8013394:	e0bff917 	ldw	r2,-28(fp)
 8013398:	10800017 	ldw	r2,0(r2)
 801339c:	10800104 	addi	r2,r2,4
 80133a0:	1007883a 	mov	r3,r2
 80133a4:	e0bff917 	ldw	r2,-28(fp)
 80133a8:	10800817 	ldw	r2,32(r2)
 80133ac:	10810014 	ori	r2,r2,1024
 80133b0:	18800035 	stwio	r2,0(r3)
    sp->host_inactive = 0;
 80133b4:	e0bff917 	ldw	r2,-28(fp)
 80133b8:	10000915 	stw	zero,36(r2)
 80133bc:	00000a06 	br	80133e8 <altera_avalon_jtag_uart_timeout+0x8c>
  }
  else if (sp->host_inactive < INT_MAX - 2) {
 80133c0:	e0bff917 	ldw	r2,-28(fp)
 80133c4:	10c00917 	ldw	r3,36(r2)
 80133c8:	00a00034 	movhi	r2,32768
 80133cc:	10bfff04 	addi	r2,r2,-4
 80133d0:	10c00536 	bltu	r2,r3,80133e8 <altera_avalon_jtag_uart_timeout+0x8c>
    sp->host_inactive++;
 80133d4:	e0bff917 	ldw	r2,-28(fp)
 80133d8:	10800917 	ldw	r2,36(r2)
 80133dc:	10c00044 	addi	r3,r2,1
 80133e0:	e0bff917 	ldw	r2,-28(fp)
 80133e4:	10c00915 	stw	r3,36(r2)
 80133e8:	d0a73617 	ldw	r2,-25384(gp)
      ALT_FLAG_POST (sp->events, ALT_JTAG_UART_TIMEOUT, OS_FLAG_SET);
    }
  }

  return alt_ticks_per_second();
}
 80133ec:	e037883a 	mov	sp,fp
 80133f0:	df000017 	ldw	fp,0(sp)
 80133f4:	dec00104 	addi	sp,sp,4
 80133f8:	f800283a 	ret

080133fc <altera_avalon_jtag_uart_close>:
 * The close routine is not implemented for the small driver; instead it will
 * map to null. This is because the small driver simply waits while characters
 * are transmitted; there is no interrupt-serviced buffer to empty 
 */
int altera_avalon_jtag_uart_close(altera_avalon_jtag_uart_state* sp, int flags)
{
 80133fc:	defffd04 	addi	sp,sp,-12
 8013400:	df000215 	stw	fp,8(sp)
 8013404:	df000204 	addi	fp,sp,8
 8013408:	e13ffe15 	stw	r4,-8(fp)
 801340c:	e17fff15 	stw	r5,-4(fp)
  /* 
   * Wait for all transmit data to be emptied by the JTAG UART ISR, or
   * for a host-inactivity timeout, in which case transmit data will be lost
   */
  while ( (sp->tx_out != sp->tx_in) && (sp->host_inactive < sp->timeout) ) {
 8013410:	00000506 	br	8013428 <altera_avalon_jtag_uart_close+0x2c>
    if (flags & O_NONBLOCK) {
 8013414:	e0bfff17 	ldw	r2,-4(fp)
 8013418:	1090000c 	andi	r2,r2,16384
 801341c:	10000226 	beq	r2,zero,8013428 <altera_avalon_jtag_uart_close+0x2c>
      return -EWOULDBLOCK; 
 8013420:	00bffd44 	movi	r2,-11
 8013424:	00000b06 	br	8013454 <altera_avalon_jtag_uart_close+0x58>
{
  /* 
   * Wait for all transmit data to be emptied by the JTAG UART ISR, or
   * for a host-inactivity timeout, in which case transmit data will be lost
   */
  while ( (sp->tx_out != sp->tx_in) && (sp->host_inactive < sp->timeout) ) {
 8013428:	e0bffe17 	ldw	r2,-8(fp)
 801342c:	10c00d17 	ldw	r3,52(r2)
 8013430:	e0bffe17 	ldw	r2,-8(fp)
 8013434:	10800c17 	ldw	r2,48(r2)
 8013438:	18800526 	beq	r3,r2,8013450 <altera_avalon_jtag_uart_close+0x54>
 801343c:	e0bffe17 	ldw	r2,-8(fp)
 8013440:	10c00917 	ldw	r3,36(r2)
 8013444:	e0bffe17 	ldw	r2,-8(fp)
 8013448:	10800117 	ldw	r2,4(r2)
 801344c:	18bff136 	bltu	r3,r2,8013414 <__alt_data_end+0xf8013414>
    if (flags & O_NONBLOCK) {
      return -EWOULDBLOCK; 
    }
  }

  return 0;
 8013450:	0005883a 	mov	r2,zero
}
 8013454:	e037883a 	mov	sp,fp
 8013458:	df000017 	ldw	fp,0(sp)
 801345c:	dec00104 	addi	sp,sp,4
 8013460:	f800283a 	ret

08013464 <altera_avalon_jtag_uart_ioctl>:
/* ----------------------------------------------------------- */

int 
altera_avalon_jtag_uart_ioctl(altera_avalon_jtag_uart_state* sp, int req,
  void* arg)
{
 8013464:	defffa04 	addi	sp,sp,-24
 8013468:	df000515 	stw	fp,20(sp)
 801346c:	df000504 	addi	fp,sp,20
 8013470:	e13ffd15 	stw	r4,-12(fp)
 8013474:	e17ffe15 	stw	r5,-8(fp)
 8013478:	e1bfff15 	stw	r6,-4(fp)
  int rc = -ENOTTY;
 801347c:	00bff9c4 	movi	r2,-25
 8013480:	e0bffb15 	stw	r2,-20(fp)

  switch (req)
 8013484:	e0bffe17 	ldw	r2,-8(fp)
 8013488:	10da8060 	cmpeqi	r3,r2,27137
 801348c:	1800031e 	bne	r3,zero,801349c <altera_avalon_jtag_uart_ioctl+0x38>
 8013490:	109a80a0 	cmpeqi	r2,r2,27138
 8013494:	1000181e 	bne	r2,zero,80134f8 <altera_avalon_jtag_uart_ioctl+0x94>
      rc = 0;
    }
    break;

  default:
    break;
 8013498:	00002906 	br	8013540 <altera_avalon_jtag_uart_ioctl+0xdc>

  switch (req)
  {
  case TIOCSTIMEOUT:
    /* Set the time to wait until assuming host is not connected */
    if (sp->timeout != INT_MAX)
 801349c:	e0bffd17 	ldw	r2,-12(fp)
 80134a0:	10c00117 	ldw	r3,4(r2)
 80134a4:	00a00034 	movhi	r2,32768
 80134a8:	10bfffc4 	addi	r2,r2,-1
 80134ac:	18802126 	beq	r3,r2,8013534 <altera_avalon_jtag_uart_ioctl+0xd0>
    {
      int timeout = *((int *)arg);
 80134b0:	e0bfff17 	ldw	r2,-4(fp)
 80134b4:	10800017 	ldw	r2,0(r2)
 80134b8:	e0bffc15 	stw	r2,-16(fp)
      sp->timeout = (timeout >= 2 && timeout < INT_MAX) ? timeout : INT_MAX - 1;
 80134bc:	e0bffc17 	ldw	r2,-16(fp)
 80134c0:	10800090 	cmplti	r2,r2,2
 80134c4:	1000061e 	bne	r2,zero,80134e0 <altera_avalon_jtag_uart_ioctl+0x7c>
 80134c8:	e0fffc17 	ldw	r3,-16(fp)
 80134cc:	00a00034 	movhi	r2,32768
 80134d0:	10bfffc4 	addi	r2,r2,-1
 80134d4:	18800226 	beq	r3,r2,80134e0 <altera_avalon_jtag_uart_ioctl+0x7c>
 80134d8:	e0bffc17 	ldw	r2,-16(fp)
 80134dc:	00000206 	br	80134e8 <altera_avalon_jtag_uart_ioctl+0x84>
 80134e0:	00a00034 	movhi	r2,32768
 80134e4:	10bfff84 	addi	r2,r2,-2
 80134e8:	e0fffd17 	ldw	r3,-12(fp)
 80134ec:	18800115 	stw	r2,4(r3)
      rc = 0;
 80134f0:	e03ffb15 	stw	zero,-20(fp)
    }
    break;
 80134f4:	00000f06 	br	8013534 <altera_avalon_jtag_uart_ioctl+0xd0>

  case TIOCGCONNECTED:
    /* Find out whether host is connected */
    if (sp->timeout != INT_MAX)
 80134f8:	e0bffd17 	ldw	r2,-12(fp)
 80134fc:	10c00117 	ldw	r3,4(r2)
 8013500:	00a00034 	movhi	r2,32768
 8013504:	10bfffc4 	addi	r2,r2,-1
 8013508:	18800c26 	beq	r3,r2,801353c <altera_avalon_jtag_uart_ioctl+0xd8>
    {
      *((int *)arg) = (sp->host_inactive < sp->timeout) ? 1 : 0;
 801350c:	e0bffd17 	ldw	r2,-12(fp)
 8013510:	10c00917 	ldw	r3,36(r2)
 8013514:	e0bffd17 	ldw	r2,-12(fp)
 8013518:	10800117 	ldw	r2,4(r2)
 801351c:	1885803a 	cmpltu	r2,r3,r2
 8013520:	10c03fcc 	andi	r3,r2,255
 8013524:	e0bfff17 	ldw	r2,-4(fp)
 8013528:	10c00015 	stw	r3,0(r2)
      rc = 0;
 801352c:	e03ffb15 	stw	zero,-20(fp)
    }
    break;
 8013530:	00000206 	br	801353c <altera_avalon_jtag_uart_ioctl+0xd8>
    {
      int timeout = *((int *)arg);
      sp->timeout = (timeout >= 2 && timeout < INT_MAX) ? timeout : INT_MAX - 1;
      rc = 0;
    }
    break;
 8013534:	0001883a 	nop
 8013538:	00000106 	br	8013540 <altera_avalon_jtag_uart_ioctl+0xdc>
    if (sp->timeout != INT_MAX)
    {
      *((int *)arg) = (sp->host_inactive < sp->timeout) ? 1 : 0;
      rc = 0;
    }
    break;
 801353c:	0001883a 	nop

  default:
    break;
  }

  return rc;
 8013540:	e0bffb17 	ldw	r2,-20(fp)
}
 8013544:	e037883a 	mov	sp,fp
 8013548:	df000017 	ldw	fp,0(sp)
 801354c:	dec00104 	addi	sp,sp,4
 8013550:	f800283a 	ret

08013554 <altera_avalon_jtag_uart_read>:
/* ----------------------------------------------------------- */

int 
altera_avalon_jtag_uart_read(altera_avalon_jtag_uart_state* sp, 
  char * buffer, int space, int flags)
{
 8013554:	defff304 	addi	sp,sp,-52
 8013558:	dfc00c15 	stw	ra,48(sp)
 801355c:	df000b15 	stw	fp,44(sp)
 8013560:	df000b04 	addi	fp,sp,44
 8013564:	e13ffc15 	stw	r4,-16(fp)
 8013568:	e17ffd15 	stw	r5,-12(fp)
 801356c:	e1bffe15 	stw	r6,-8(fp)
 8013570:	e1ffff15 	stw	r7,-4(fp)
  char * ptr = buffer;
 8013574:	e0bffd17 	ldw	r2,-12(fp)
 8013578:	e0bff515 	stw	r2,-44(fp)
   * When running in a multi threaded environment, obtain the "read_lock"
   * semaphore. This ensures that reading from the device is thread-safe.
   */
  ALT_SEM_PEND (sp->read_lock, 0);

  while (space > 0)
 801357c:	00004706 	br	801369c <altera_avalon_jtag_uart_read+0x148>
    unsigned int in, out;

    /* Read as much data as possible */
    do
    {
      in  = sp->rx_in;
 8013580:	e0bffc17 	ldw	r2,-16(fp)
 8013584:	10800a17 	ldw	r2,40(r2)
 8013588:	e0bff715 	stw	r2,-36(fp)
      out = sp->rx_out;
 801358c:	e0bffc17 	ldw	r2,-16(fp)
 8013590:	10800b17 	ldw	r2,44(r2)
 8013594:	e0bff815 	stw	r2,-32(fp)

      if (in >= out)
 8013598:	e0fff717 	ldw	r3,-36(fp)
 801359c:	e0bff817 	ldw	r2,-32(fp)
 80135a0:	18800536 	bltu	r3,r2,80135b8 <altera_avalon_jtag_uart_read+0x64>
        n = in - out;
 80135a4:	e0fff717 	ldw	r3,-36(fp)
 80135a8:	e0bff817 	ldw	r2,-32(fp)
 80135ac:	1885c83a 	sub	r2,r3,r2
 80135b0:	e0bff615 	stw	r2,-40(fp)
 80135b4:	00000406 	br	80135c8 <altera_avalon_jtag_uart_read+0x74>
      else
        n = ALTERA_AVALON_JTAG_UART_BUF_LEN - out;
 80135b8:	00c20004 	movi	r3,2048
 80135bc:	e0bff817 	ldw	r2,-32(fp)
 80135c0:	1885c83a 	sub	r2,r3,r2
 80135c4:	e0bff615 	stw	r2,-40(fp)

      if (n == 0)
 80135c8:	e0bff617 	ldw	r2,-40(fp)
 80135cc:	10001e26 	beq	r2,zero,8013648 <altera_avalon_jtag_uart_read+0xf4>
        break; /* No more data available */

      if (n > space)
 80135d0:	e0fffe17 	ldw	r3,-8(fp)
 80135d4:	e0bff617 	ldw	r2,-40(fp)
 80135d8:	1880022e 	bgeu	r3,r2,80135e4 <altera_avalon_jtag_uart_read+0x90>
        n = space;
 80135dc:	e0bffe17 	ldw	r2,-8(fp)
 80135e0:	e0bff615 	stw	r2,-40(fp)

      memcpy(ptr, sp->rx_buf + out, n);
 80135e4:	e0bffc17 	ldw	r2,-16(fp)
 80135e8:	10c00e04 	addi	r3,r2,56
 80135ec:	e0bff817 	ldw	r2,-32(fp)
 80135f0:	1885883a 	add	r2,r3,r2
 80135f4:	e1bff617 	ldw	r6,-40(fp)
 80135f8:	100b883a 	mov	r5,r2
 80135fc:	e13ff517 	ldw	r4,-44(fp)
 8013600:	800bf380 	call	800bf38 <memcpy>
      ptr   += n;
 8013604:	e0fff517 	ldw	r3,-44(fp)
 8013608:	e0bff617 	ldw	r2,-40(fp)
 801360c:	1885883a 	add	r2,r3,r2
 8013610:	e0bff515 	stw	r2,-44(fp)
      space -= n;
 8013614:	e0fffe17 	ldw	r3,-8(fp)
 8013618:	e0bff617 	ldw	r2,-40(fp)
 801361c:	1885c83a 	sub	r2,r3,r2
 8013620:	e0bffe15 	stw	r2,-8(fp)

      sp->rx_out = (out + n) % ALTERA_AVALON_JTAG_UART_BUF_LEN;
 8013624:	e0fff817 	ldw	r3,-32(fp)
 8013628:	e0bff617 	ldw	r2,-40(fp)
 801362c:	1885883a 	add	r2,r3,r2
 8013630:	10c1ffcc 	andi	r3,r2,2047
 8013634:	e0bffc17 	ldw	r2,-16(fp)
 8013638:	10c00b15 	stw	r3,44(r2)
    }
    while (space > 0);
 801363c:	e0bffe17 	ldw	r2,-8(fp)
 8013640:	00bfcf16 	blt	zero,r2,8013580 <__alt_data_end+0xf8013580>
 8013644:	00000106 	br	801364c <altera_avalon_jtag_uart_read+0xf8>
        n = in - out;
      else
        n = ALTERA_AVALON_JTAG_UART_BUF_LEN - out;

      if (n == 0)
        break; /* No more data available */
 8013648:	0001883a 	nop
      sp->rx_out = (out + n) % ALTERA_AVALON_JTAG_UART_BUF_LEN;
    }
    while (space > 0);

    /* If we read any data then return it */
    if (ptr != buffer)
 801364c:	e0fff517 	ldw	r3,-44(fp)
 8013650:	e0bffd17 	ldw	r2,-12(fp)
 8013654:	1880141e 	bne	r3,r2,80136a8 <altera_avalon_jtag_uart_read+0x154>
      break;

    /* If in non-blocking mode then return error */
    if (flags & O_NONBLOCK)
 8013658:	e0bfff17 	ldw	r2,-4(fp)
 801365c:	1090000c 	andi	r2,r2,16384
 8013660:	1000131e 	bne	r2,zero,80136b0 <altera_avalon_jtag_uart_read+0x15c>
      while (in == sp->rx_in && sp->host_inactive < sp->timeout)
        ;
    }
#else
    /* No OS: Always spin */
    while (in == sp->rx_in && sp->host_inactive < sp->timeout)
 8013664:	0001883a 	nop
 8013668:	e0bffc17 	ldw	r2,-16(fp)
 801366c:	10c00a17 	ldw	r3,40(r2)
 8013670:	e0bff717 	ldw	r2,-36(fp)
 8013674:	1880051e 	bne	r3,r2,801368c <altera_avalon_jtag_uart_read+0x138>
 8013678:	e0bffc17 	ldw	r2,-16(fp)
 801367c:	10c00917 	ldw	r3,36(r2)
 8013680:	e0bffc17 	ldw	r2,-16(fp)
 8013684:	10800117 	ldw	r2,4(r2)
 8013688:	18bff736 	bltu	r3,r2,8013668 <__alt_data_end+0xf8013668>
      ;
#endif /* __ucosii__ */

    if (in == sp->rx_in)
 801368c:	e0bffc17 	ldw	r2,-16(fp)
 8013690:	10c00a17 	ldw	r3,40(r2)
 8013694:	e0bff717 	ldw	r2,-36(fp)
 8013698:	18800726 	beq	r3,r2,80136b8 <altera_avalon_jtag_uart_read+0x164>
   * When running in a multi threaded environment, obtain the "read_lock"
   * semaphore. This ensures that reading from the device is thread-safe.
   */
  ALT_SEM_PEND (sp->read_lock, 0);

  while (space > 0)
 801369c:	e0bffe17 	ldw	r2,-8(fp)
 80136a0:	00bfb716 	blt	zero,r2,8013580 <__alt_data_end+0xf8013580>
 80136a4:	00000506 	br	80136bc <altera_avalon_jtag_uart_read+0x168>
    }
    while (space > 0);

    /* If we read any data then return it */
    if (ptr != buffer)
      break;
 80136a8:	0001883a 	nop
 80136ac:	00000306 	br	80136bc <altera_avalon_jtag_uart_read+0x168>

    /* If in non-blocking mode then return error */
    if (flags & O_NONBLOCK)
      break;
 80136b0:	0001883a 	nop
 80136b4:	00000106 	br	80136bc <altera_avalon_jtag_uart_read+0x168>
    while (in == sp->rx_in && sp->host_inactive < sp->timeout)
      ;
#endif /* __ucosii__ */

    if (in == sp->rx_in)
      break;
 80136b8:	0001883a 	nop
   * semaphore so that other threads can access the buffer.
   */

  ALT_SEM_POST (sp->read_lock);

  if (ptr != buffer)
 80136bc:	e0fff517 	ldw	r3,-44(fp)
 80136c0:	e0bffd17 	ldw	r2,-12(fp)
 80136c4:	18801826 	beq	r3,r2,8013728 <altera_avalon_jtag_uart_read+0x1d4>
static ALT_INLINE alt_irq_context ALT_ALWAYS_INLINE 
       alt_irq_disable_all (void)
{
  alt_irq_context context;

  NIOS2_READ_STATUS (context);
 80136c8:	0005303a 	rdctl	r2,status
 80136cc:	e0bffb15 	stw	r2,-20(fp)

  NIOS2_WRITE_STATUS (context & ~NIOS2_STATUS_PIE_MSK);
 80136d0:	e0fffb17 	ldw	r3,-20(fp)
 80136d4:	00bfff84 	movi	r2,-2
 80136d8:	1884703a 	and	r2,r3,r2
 80136dc:	1001703a 	wrctl	status,r2
  
  return context;
 80136e0:	e0bffb17 	ldw	r2,-20(fp)
  {
    /* If we read any data then there is space in the buffer so enable interrupts */
    context = alt_irq_disable_all();
 80136e4:	e0bffa15 	stw	r2,-24(fp)
    sp->irq_enable |= ALTERA_AVALON_JTAG_UART_CONTROL_RE_MSK;
 80136e8:	e0bffc17 	ldw	r2,-16(fp)
 80136ec:	10800817 	ldw	r2,32(r2)
 80136f0:	10c00054 	ori	r3,r2,1
 80136f4:	e0bffc17 	ldw	r2,-16(fp)
 80136f8:	10c00815 	stw	r3,32(r2)
    IOWR_ALTERA_AVALON_JTAG_UART_CONTROL(sp->base, sp->irq_enable);
 80136fc:	e0bffc17 	ldw	r2,-16(fp)
 8013700:	10800017 	ldw	r2,0(r2)
 8013704:	10800104 	addi	r2,r2,4
 8013708:	1007883a 	mov	r3,r2
 801370c:	e0bffc17 	ldw	r2,-16(fp)
 8013710:	10800817 	ldw	r2,32(r2)
 8013714:	18800035 	stwio	r2,0(r3)
 8013718:	e0bffa17 	ldw	r2,-24(fp)
 801371c:	e0bff915 	stw	r2,-28(fp)
  status &= ~NIOS2_STATUS_PIE_MSK;
  status |= (context & NIOS2_STATUS_PIE_MSK);
  
  NIOS2_WRITE_STATUS (status);
#else
  NIOS2_WRITE_STATUS (context);
 8013720:	e0bff917 	ldw	r2,-28(fp)
 8013724:	1001703a 	wrctl	status,r2
    alt_irq_enable_all(context);
  }

  if (ptr != buffer)
 8013728:	e0fff517 	ldw	r3,-44(fp)
 801372c:	e0bffd17 	ldw	r2,-12(fp)
 8013730:	18800426 	beq	r3,r2,8013744 <altera_avalon_jtag_uart_read+0x1f0>
    return ptr - buffer;
 8013734:	e0fff517 	ldw	r3,-44(fp)
 8013738:	e0bffd17 	ldw	r2,-12(fp)
 801373c:	1885c83a 	sub	r2,r3,r2
 8013740:	00000606 	br	801375c <altera_avalon_jtag_uart_read+0x208>
  else if (flags & O_NONBLOCK)
 8013744:	e0bfff17 	ldw	r2,-4(fp)
 8013748:	1090000c 	andi	r2,r2,16384
 801374c:	10000226 	beq	r2,zero,8013758 <altera_avalon_jtag_uart_read+0x204>
    return -EWOULDBLOCK;
 8013750:	00bffd44 	movi	r2,-11
 8013754:	00000106 	br	801375c <altera_avalon_jtag_uart_read+0x208>
  else
    return -EIO;
 8013758:	00bffec4 	movi	r2,-5
}
 801375c:	e037883a 	mov	sp,fp
 8013760:	dfc00117 	ldw	ra,4(sp)
 8013764:	df000017 	ldw	fp,0(sp)
 8013768:	dec00204 	addi	sp,sp,8
 801376c:	f800283a 	ret

08013770 <altera_avalon_jtag_uart_write>:
/* ----------------------------------------------------------- */

int 
altera_avalon_jtag_uart_write(altera_avalon_jtag_uart_state* sp, 
  const char * ptr, int count, int flags)
{
 8013770:	defff304 	addi	sp,sp,-52
 8013774:	dfc00c15 	stw	ra,48(sp)
 8013778:	df000b15 	stw	fp,44(sp)
 801377c:	df000b04 	addi	fp,sp,44
 8013780:	e13ffc15 	stw	r4,-16(fp)
 8013784:	e17ffd15 	stw	r5,-12(fp)
 8013788:	e1bffe15 	stw	r6,-8(fp)
 801378c:	e1ffff15 	stw	r7,-4(fp)
  /* Remove warning at optimisation level 03 by seting out to 0 */
  unsigned int in, out=0;
 8013790:	e03ff515 	stw	zero,-44(fp)
  unsigned int n;
  alt_irq_context context;

  const char * start = ptr;
 8013794:	e0bffd17 	ldw	r2,-12(fp)
 8013798:	e0bff715 	stw	r2,-36(fp)
  ALT_SEM_PEND (sp->write_lock, 0);

  do
  {
    /* Copy as much as we can into the transmit buffer */
    while (count > 0)
 801379c:	00003706 	br	801387c <altera_avalon_jtag_uart_write+0x10c>
    {
      /* We need a stable value of the out pointer to calculate the space available */
      in  = sp->tx_in;
 80137a0:	e0bffc17 	ldw	r2,-16(fp)
 80137a4:	10800c17 	ldw	r2,48(r2)
 80137a8:	e0bff915 	stw	r2,-28(fp)
      out = sp->tx_out;
 80137ac:	e0bffc17 	ldw	r2,-16(fp)
 80137b0:	10800d17 	ldw	r2,52(r2)
 80137b4:	e0bff515 	stw	r2,-44(fp)

      if (in < out)
 80137b8:	e0fff917 	ldw	r3,-28(fp)
 80137bc:	e0bff517 	ldw	r2,-44(fp)
 80137c0:	1880062e 	bgeu	r3,r2,80137dc <altera_avalon_jtag_uart_write+0x6c>
        n = out - 1 - in;
 80137c4:	e0fff517 	ldw	r3,-44(fp)
 80137c8:	e0bff917 	ldw	r2,-28(fp)
 80137cc:	1885c83a 	sub	r2,r3,r2
 80137d0:	10bfffc4 	addi	r2,r2,-1
 80137d4:	e0bff615 	stw	r2,-40(fp)
 80137d8:	00000b06 	br	8013808 <altera_avalon_jtag_uart_write+0x98>
      else if (out > 0)
 80137dc:	e0bff517 	ldw	r2,-44(fp)
 80137e0:	10000526 	beq	r2,zero,80137f8 <altera_avalon_jtag_uart_write+0x88>
        n = ALTERA_AVALON_JTAG_UART_BUF_LEN - in;
 80137e4:	00c20004 	movi	r3,2048
 80137e8:	e0bff917 	ldw	r2,-28(fp)
 80137ec:	1885c83a 	sub	r2,r3,r2
 80137f0:	e0bff615 	stw	r2,-40(fp)
 80137f4:	00000406 	br	8013808 <altera_avalon_jtag_uart_write+0x98>
      else
        n = ALTERA_AVALON_JTAG_UART_BUF_LEN - 1 - in;
 80137f8:	00c1ffc4 	movi	r3,2047
 80137fc:	e0bff917 	ldw	r2,-28(fp)
 8013800:	1885c83a 	sub	r2,r3,r2
 8013804:	e0bff615 	stw	r2,-40(fp)

      if (n == 0)
 8013808:	e0bff617 	ldw	r2,-40(fp)
 801380c:	10001e26 	beq	r2,zero,8013888 <altera_avalon_jtag_uart_write+0x118>
        break;

      if (n > count)
 8013810:	e0fffe17 	ldw	r3,-8(fp)
 8013814:	e0bff617 	ldw	r2,-40(fp)
 8013818:	1880022e 	bgeu	r3,r2,8013824 <altera_avalon_jtag_uart_write+0xb4>
        n = count;
 801381c:	e0bffe17 	ldw	r2,-8(fp)
 8013820:	e0bff615 	stw	r2,-40(fp)

      memcpy(sp->tx_buf + in, ptr, n);
 8013824:	e0bffc17 	ldw	r2,-16(fp)
 8013828:	10c20e04 	addi	r3,r2,2104
 801382c:	e0bff917 	ldw	r2,-28(fp)
 8013830:	1885883a 	add	r2,r3,r2
 8013834:	e1bff617 	ldw	r6,-40(fp)
 8013838:	e17ffd17 	ldw	r5,-12(fp)
 801383c:	1009883a 	mov	r4,r2
 8013840:	800bf380 	call	800bf38 <memcpy>
      ptr   += n;
 8013844:	e0fffd17 	ldw	r3,-12(fp)
 8013848:	e0bff617 	ldw	r2,-40(fp)
 801384c:	1885883a 	add	r2,r3,r2
 8013850:	e0bffd15 	stw	r2,-12(fp)
      count -= n;
 8013854:	e0fffe17 	ldw	r3,-8(fp)
 8013858:	e0bff617 	ldw	r2,-40(fp)
 801385c:	1885c83a 	sub	r2,r3,r2
 8013860:	e0bffe15 	stw	r2,-8(fp)

      sp->tx_in = (in + n) % ALTERA_AVALON_JTAG_UART_BUF_LEN;
 8013864:	e0fff917 	ldw	r3,-28(fp)
 8013868:	e0bff617 	ldw	r2,-40(fp)
 801386c:	1885883a 	add	r2,r3,r2
 8013870:	10c1ffcc 	andi	r3,r2,2047
 8013874:	e0bffc17 	ldw	r2,-16(fp)
 8013878:	10c00c15 	stw	r3,48(r2)
  ALT_SEM_PEND (sp->write_lock, 0);

  do
  {
    /* Copy as much as we can into the transmit buffer */
    while (count > 0)
 801387c:	e0bffe17 	ldw	r2,-8(fp)
 8013880:	00bfc716 	blt	zero,r2,80137a0 <__alt_data_end+0xf80137a0>
 8013884:	00000106 	br	801388c <altera_avalon_jtag_uart_write+0x11c>
        n = ALTERA_AVALON_JTAG_UART_BUF_LEN - in;
      else
        n = ALTERA_AVALON_JTAG_UART_BUF_LEN - 1 - in;

      if (n == 0)
        break;
 8013888:	0001883a 	nop
static ALT_INLINE alt_irq_context ALT_ALWAYS_INLINE 
       alt_irq_disable_all (void)
{
  alt_irq_context context;

  NIOS2_READ_STATUS (context);
 801388c:	0005303a 	rdctl	r2,status
 8013890:	e0bffb15 	stw	r2,-20(fp)

  NIOS2_WRITE_STATUS (context & ~NIOS2_STATUS_PIE_MSK);
 8013894:	e0fffb17 	ldw	r3,-20(fp)
 8013898:	00bfff84 	movi	r2,-2
 801389c:	1884703a 	and	r2,r3,r2
 80138a0:	1001703a 	wrctl	status,r2
  
  return context;
 80138a4:	e0bffb17 	ldw	r2,-20(fp)
     * to enable interrupts if there is no space left in the FIFO
     *
     * For now kick the interrupt routine every time to make it transmit 
     * the data 
     */
    context = alt_irq_disable_all();
 80138a8:	e0bffa15 	stw	r2,-24(fp)
    sp->irq_enable |= ALTERA_AVALON_JTAG_UART_CONTROL_WE_MSK;
 80138ac:	e0bffc17 	ldw	r2,-16(fp)
 80138b0:	10800817 	ldw	r2,32(r2)
 80138b4:	10c00094 	ori	r3,r2,2
 80138b8:	e0bffc17 	ldw	r2,-16(fp)
 80138bc:	10c00815 	stw	r3,32(r2)
    IOWR_ALTERA_AVALON_JTAG_UART_CONTROL(sp->base, sp->irq_enable);
 80138c0:	e0bffc17 	ldw	r2,-16(fp)
 80138c4:	10800017 	ldw	r2,0(r2)
 80138c8:	10800104 	addi	r2,r2,4
 80138cc:	1007883a 	mov	r3,r2
 80138d0:	e0bffc17 	ldw	r2,-16(fp)
 80138d4:	10800817 	ldw	r2,32(r2)
 80138d8:	18800035 	stwio	r2,0(r3)
 80138dc:	e0bffa17 	ldw	r2,-24(fp)
 80138e0:	e0bff815 	stw	r2,-32(fp)
  status &= ~NIOS2_STATUS_PIE_MSK;
  status |= (context & NIOS2_STATUS_PIE_MSK);
  
  NIOS2_WRITE_STATUS (status);
#else
  NIOS2_WRITE_STATUS (context);
 80138e4:	e0bff817 	ldw	r2,-32(fp)
 80138e8:	1001703a 	wrctl	status,r2
    /* 
     * If there is any data left then either return now or block until 
     * some has been sent 
     */
    /* consider: test whether there is anything there while doing this and delay for at most 2s. */
    if (count > 0)
 80138ec:	e0bffe17 	ldw	r2,-8(fp)
 80138f0:	0080100e 	bge	zero,r2,8013934 <altera_avalon_jtag_uart_write+0x1c4>
    {
      if (flags & O_NONBLOCK)
 80138f4:	e0bfff17 	ldw	r2,-4(fp)
 80138f8:	1090000c 	andi	r2,r2,16384
 80138fc:	1000101e 	bne	r2,zero,8013940 <altera_avalon_jtag_uart_write+0x1d0>
      /*
       * No OS present: Always wait for data to be removed from buffer.  Once
       * the interrupt routine has removed some data then we will be able to
       * insert some more.
       */
      while (out == sp->tx_out && sp->host_inactive < sp->timeout)
 8013900:	0001883a 	nop
 8013904:	e0bffc17 	ldw	r2,-16(fp)
 8013908:	10c00d17 	ldw	r3,52(r2)
 801390c:	e0bff517 	ldw	r2,-44(fp)
 8013910:	1880051e 	bne	r3,r2,8013928 <altera_avalon_jtag_uart_write+0x1b8>
 8013914:	e0bffc17 	ldw	r2,-16(fp)
 8013918:	10c00917 	ldw	r3,36(r2)
 801391c:	e0bffc17 	ldw	r2,-16(fp)
 8013920:	10800117 	ldw	r2,4(r2)
 8013924:	18bff736 	bltu	r3,r2,8013904 <__alt_data_end+0xf8013904>
        ;
#endif /* __ucosii__ */

      if  (sp->host_inactive)
 8013928:	e0bffc17 	ldw	r2,-16(fp)
 801392c:	10800917 	ldw	r2,36(r2)
 8013930:	1000051e 	bne	r2,zero,8013948 <altera_avalon_jtag_uart_write+0x1d8>
         break;
    }
  }
  while (count > 0);
 8013934:	e0bffe17 	ldw	r2,-8(fp)
 8013938:	00bfd016 	blt	zero,r2,801387c <__alt_data_end+0xf801387c>
 801393c:	00000306 	br	801394c <altera_avalon_jtag_uart_write+0x1dc>
     */
    /* consider: test whether there is anything there while doing this and delay for at most 2s. */
    if (count > 0)
    {
      if (flags & O_NONBLOCK)
        break;
 8013940:	0001883a 	nop
 8013944:	00000106 	br	801394c <altera_avalon_jtag_uart_write+0x1dc>
      while (out == sp->tx_out && sp->host_inactive < sp->timeout)
        ;
#endif /* __ucosii__ */

      if  (sp->host_inactive)
         break;
 8013948:	0001883a 	nop
   * Now that access to the circular buffer is complete, release the write
   * semaphore so that other threads can access the buffer.
   */
  ALT_SEM_POST (sp->write_lock);

  if (ptr != start)
 801394c:	e0fffd17 	ldw	r3,-12(fp)
 8013950:	e0bff717 	ldw	r2,-36(fp)
 8013954:	18800426 	beq	r3,r2,8013968 <altera_avalon_jtag_uart_write+0x1f8>
    return ptr - start;
 8013958:	e0fffd17 	ldw	r3,-12(fp)
 801395c:	e0bff717 	ldw	r2,-36(fp)
 8013960:	1885c83a 	sub	r2,r3,r2
 8013964:	00000606 	br	8013980 <altera_avalon_jtag_uart_write+0x210>
  else if (flags & O_NONBLOCK)
 8013968:	e0bfff17 	ldw	r2,-4(fp)
 801396c:	1090000c 	andi	r2,r2,16384
 8013970:	10000226 	beq	r2,zero,801397c <altera_avalon_jtag_uart_write+0x20c>
    return -EWOULDBLOCK;
 8013974:	00bffd44 	movi	r2,-11
 8013978:	00000106 	br	8013980 <altera_avalon_jtag_uart_write+0x210>
    sp->tx_out = sp->tx_in = 0;
    return ptr - start + count;
  }
#endif
  else
    return -EIO; /* Host not connected */
 801397c:	00bffec4 	movi	r2,-5
}
 8013980:	e037883a 	mov	sp,fp
 8013984:	dfc00117 	ldw	ra,4(sp)
 8013988:	df000017 	ldw	fp,0(sp)
 801398c:	dec00204 	addi	sp,sp,8
 8013990:	f800283a 	ret

08013994 <alt_alarm_start>:
 */ 

int alt_alarm_start (alt_alarm* alarm, alt_u32 nticks,
                     alt_u32 (*callback) (void* context),
                     void* context)
{
 8013994:	defff504 	addi	sp,sp,-44
 8013998:	df000a15 	stw	fp,40(sp)
 801399c:	df000a04 	addi	fp,sp,40
 80139a0:	e13ffc15 	stw	r4,-16(fp)
 80139a4:	e17ffd15 	stw	r5,-12(fp)
 80139a8:	e1bffe15 	stw	r6,-8(fp)
 80139ac:	e1ffff15 	stw	r7,-4(fp)
  alt_irq_context irq_context;
  alt_u32 current_nticks = 0;
 80139b0:	e03ff615 	stw	zero,-40(fp)
 80139b4:	d0a73617 	ldw	r2,-25384(gp)
  
  if (alt_ticks_per_second ())
 80139b8:	10003c26 	beq	r2,zero,8013aac <alt_alarm_start+0x118>
  {
    if (alarm)
 80139bc:	e0bffc17 	ldw	r2,-16(fp)
 80139c0:	10003826 	beq	r2,zero,8013aa4 <alt_alarm_start+0x110>
    {
      alarm->callback = callback;
 80139c4:	e0bffc17 	ldw	r2,-16(fp)
 80139c8:	e0fffe17 	ldw	r3,-8(fp)
 80139cc:	10c00315 	stw	r3,12(r2)
      alarm->context  = context;
 80139d0:	e0bffc17 	ldw	r2,-16(fp)
 80139d4:	e0ffff17 	ldw	r3,-4(fp)
 80139d8:	10c00515 	stw	r3,20(r2)
static ALT_INLINE alt_irq_context ALT_ALWAYS_INLINE 
       alt_irq_disable_all (void)
{
  alt_irq_context context;

  NIOS2_READ_STATUS (context);
 80139dc:	0005303a 	rdctl	r2,status
 80139e0:	e0bff915 	stw	r2,-28(fp)

  NIOS2_WRITE_STATUS (context & ~NIOS2_STATUS_PIE_MSK);
 80139e4:	e0fff917 	ldw	r3,-28(fp)
 80139e8:	00bfff84 	movi	r2,-2
 80139ec:	1884703a 	and	r2,r3,r2
 80139f0:	1001703a 	wrctl	status,r2
  
  return context;
 80139f4:	e0bff917 	ldw	r2,-28(fp)
 
      irq_context = alt_irq_disable_all ();
 80139f8:	e0bff815 	stw	r2,-32(fp)
 * alt_nticks() returns the elapsed number of system clock ticks since reset.
 */

static ALT_INLINE alt_u32 ALT_ALWAYS_INLINE alt_nticks (void)
{
  return _alt_nticks;
 80139fc:	d0a73717 	ldw	r2,-25380(gp)
      
      current_nticks = alt_nticks();
 8013a00:	e0bff615 	stw	r2,-40(fp)
      
      alarm->time = nticks + current_nticks + 1; 
 8013a04:	e0fffd17 	ldw	r3,-12(fp)
 8013a08:	e0bff617 	ldw	r2,-40(fp)
 8013a0c:	1885883a 	add	r2,r3,r2
 8013a10:	10c00044 	addi	r3,r2,1
 8013a14:	e0bffc17 	ldw	r2,-16(fp)
 8013a18:	10c00215 	stw	r3,8(r2)
      /* 
       * If the desired alarm time causes a roll-over, set the rollover
       * flag. This will prevent the subsequent tick event from causing
       * an alarm too early.
       */
      if(alarm->time < current_nticks)
 8013a1c:	e0bffc17 	ldw	r2,-16(fp)
 8013a20:	10c00217 	ldw	r3,8(r2)
 8013a24:	e0bff617 	ldw	r2,-40(fp)
 8013a28:	1880042e 	bgeu	r3,r2,8013a3c <alt_alarm_start+0xa8>
      {
        alarm->rollover = 1;
 8013a2c:	e0bffc17 	ldw	r2,-16(fp)
 8013a30:	00c00044 	movi	r3,1
 8013a34:	10c00405 	stb	r3,16(r2)
 8013a38:	00000206 	br	8013a44 <alt_alarm_start+0xb0>
      }
      else
      {
        alarm->rollover = 0;
 8013a3c:	e0bffc17 	ldw	r2,-16(fp)
 8013a40:	10000405 	stb	zero,16(r2)
      }
    
      alt_llist_insert (&alt_alarm_list, &alarm->llist);
 8013a44:	e0bffc17 	ldw	r2,-16(fp)
 8013a48:	d0e03704 	addi	r3,gp,-32548
 8013a4c:	e0fffa15 	stw	r3,-24(fp)
 8013a50:	e0bffb15 	stw	r2,-20(fp)
 */

static ALT_INLINE void ALT_ALWAYS_INLINE alt_llist_insert(alt_llist* list, 
                alt_llist* entry)
{
  entry->previous = list;
 8013a54:	e0bffb17 	ldw	r2,-20(fp)
 8013a58:	e0fffa17 	ldw	r3,-24(fp)
 8013a5c:	10c00115 	stw	r3,4(r2)
  entry->next     = list->next;
 8013a60:	e0bffa17 	ldw	r2,-24(fp)
 8013a64:	10c00017 	ldw	r3,0(r2)
 8013a68:	e0bffb17 	ldw	r2,-20(fp)
 8013a6c:	10c00015 	stw	r3,0(r2)

  list->next->previous = entry;
 8013a70:	e0bffa17 	ldw	r2,-24(fp)
 8013a74:	10800017 	ldw	r2,0(r2)
 8013a78:	e0fffb17 	ldw	r3,-20(fp)
 8013a7c:	10c00115 	stw	r3,4(r2)
  list->next           = entry;
 8013a80:	e0bffa17 	ldw	r2,-24(fp)
 8013a84:	e0fffb17 	ldw	r3,-20(fp)
 8013a88:	10c00015 	stw	r3,0(r2)
 8013a8c:	e0bff817 	ldw	r2,-32(fp)
 8013a90:	e0bff715 	stw	r2,-36(fp)
  status &= ~NIOS2_STATUS_PIE_MSK;
  status |= (context & NIOS2_STATUS_PIE_MSK);
  
  NIOS2_WRITE_STATUS (status);
#else
  NIOS2_WRITE_STATUS (context);
 8013a94:	e0bff717 	ldw	r2,-36(fp)
 8013a98:	1001703a 	wrctl	status,r2
      alt_irq_enable_all (irq_context);

      return 0;
 8013a9c:	0005883a 	mov	r2,zero
 8013aa0:	00000306 	br	8013ab0 <alt_alarm_start+0x11c>
    }
    else
    {
      return -EINVAL;
 8013aa4:	00bffa84 	movi	r2,-22
 8013aa8:	00000106 	br	8013ab0 <alt_alarm_start+0x11c>
    }
  }
  else
  {
    return -ENOTSUP;
 8013aac:	00bfde84 	movi	r2,-134
  }
}
 8013ab0:	e037883a 	mov	sp,fp
 8013ab4:	df000017 	ldw	fp,0(sp)
 8013ab8:	dec00104 	addi	sp,sp,4
 8013abc:	f800283a 	ret

08013ac0 <alt_busy_sleep>:
#include "alt_types.h"

#include "priv/alt_busy_sleep.h"

unsigned int alt_busy_sleep (unsigned int us)
{
 8013ac0:	defffa04 	addi	sp,sp,-24
 8013ac4:	dfc00515 	stw	ra,20(sp)
 8013ac8:	df000415 	stw	fp,16(sp)
 8013acc:	df000404 	addi	fp,sp,16
 8013ad0:	e13fff15 	stw	r4,-4(fp)
  int big_loops;
  alt_u32 cycles_per_loop;
  
  if (!strcmp(NIOS2_CPU_IMPLEMENTATION,"tiny"))
  {
    cycles_per_loop = 9;
 8013ad4:	00800244 	movi	r2,9
 8013ad8:	e0bffd15 	stw	r2,-12(fp)
    cycles_per_loop = 3;
  }
  

  big_loops = us / (INT_MAX/
  (ALT_CPU_FREQ/(cycles_per_loop * 1000000)));
 8013adc:	014003f4 	movhi	r5,15
 8013ae0:	29509004 	addi	r5,r5,16960
 8013ae4:	e13ffd17 	ldw	r4,-12(fp)
 8013ae8:	80054680 	call	8005468 <__mulsi3>
 8013aec:	100b883a 	mov	r5,r2
 8013af0:	0100bef4 	movhi	r4,763
 8013af4:	213c2004 	addi	r4,r4,-3968
 8013af8:	80062340 	call	8006234 <__udivsi3>
  {
    cycles_per_loop = 3;
  }
  

  big_loops = us / (INT_MAX/
 8013afc:	100b883a 	mov	r5,r2
 8013b00:	01200034 	movhi	r4,32768
 8013b04:	213fffc4 	addi	r4,r4,-1
 8013b08:	80062340 	call	8006234 <__udivsi3>
 8013b0c:	100b883a 	mov	r5,r2
 8013b10:	e13fff17 	ldw	r4,-4(fp)
 8013b14:	80062340 	call	8006234 <__udivsi3>
 8013b18:	e0bffe15 	stw	r2,-8(fp)
  (ALT_CPU_FREQ/(cycles_per_loop * 1000000)));

  if (big_loops)
 8013b1c:	e0bffe17 	ldw	r2,-8(fp)
 8013b20:	10002a26 	beq	r2,zero,8013bcc <alt_busy_sleep+0x10c>
  {
    for(i=0;i<big_loops;i++)
 8013b24:	e03ffc15 	stw	zero,-16(fp)
 8013b28:	00001706 	br	8013b88 <alt_busy_sleep+0xc8>
      /*
      * Do NOT Try to single step the asm statement below 
      * (single step will never return)
      * Step out of this function or set a breakpoint after the asm statements
      */
      __asm__ volatile (
 8013b2c:	00a00034 	movhi	r2,32768
 8013b30:	10bfffc4 	addi	r2,r2,-1
 8013b34:	10bfffc4 	addi	r2,r2,-1
 8013b38:	103ffe1e 	bne	r2,zero,8013b34 <__alt_data_end+0xf8013b34>
        "\n\t.pushsection .debug_alt_sim_info"
        "\n\t.int 4, 0, 0b, 1b"
        "\n\t.popsection"
        :: "r" (INT_MAX));
      us -= (INT_MAX/(ALT_CPU_FREQ/
      (cycles_per_loop * 1000000)));
 8013b3c:	014003f4 	movhi	r5,15
 8013b40:	29509004 	addi	r5,r5,16960
 8013b44:	e13ffd17 	ldw	r4,-12(fp)
 8013b48:	80054680 	call	8005468 <__mulsi3>
        "\n1:"
        "\n\t.pushsection .debug_alt_sim_info"
        "\n\t.int 4, 0, 0b, 1b"
        "\n\t.popsection"
        :: "r" (INT_MAX));
      us -= (INT_MAX/(ALT_CPU_FREQ/
 8013b4c:	100b883a 	mov	r5,r2
 8013b50:	0100bef4 	movhi	r4,763
 8013b54:	213c2004 	addi	r4,r4,-3968
 8013b58:	80062340 	call	8006234 <__udivsi3>
 8013b5c:	100b883a 	mov	r5,r2
 8013b60:	01200034 	movhi	r4,32768
 8013b64:	213fffc4 	addi	r4,r4,-1
 8013b68:	80062340 	call	8006234 <__udivsi3>
 8013b6c:	1007883a 	mov	r3,r2
 8013b70:	e0bfff17 	ldw	r2,-4(fp)
 8013b74:	10c5c83a 	sub	r2,r2,r3
 8013b78:	e0bfff15 	stw	r2,-4(fp)
  big_loops = us / (INT_MAX/
  (ALT_CPU_FREQ/(cycles_per_loop * 1000000)));

  if (big_loops)
  {
    for(i=0;i<big_loops;i++)
 8013b7c:	e0bffc17 	ldw	r2,-16(fp)
 8013b80:	10800044 	addi	r2,r2,1
 8013b84:	e0bffc15 	stw	r2,-16(fp)
 8013b88:	e0fffc17 	ldw	r3,-16(fp)
 8013b8c:	e0bffe17 	ldw	r2,-8(fp)
 8013b90:	18bfe616 	blt	r3,r2,8013b2c <__alt_data_end+0xf8013b2c>
      "\n\tbne %0,zero,0b"
      "\n1:"
      "\n\t.pushsection .debug_alt_sim_info"
      "\n\t.int 4, 0, 0b, 1b"
      "\n\t.popsection"
      :: "r" (us*(ALT_CPU_FREQ/(cycles_per_loop * 1000000))));
 8013b94:	014003f4 	movhi	r5,15
 8013b98:	29509004 	addi	r5,r5,16960
 8013b9c:	e13ffd17 	ldw	r4,-12(fp)
 8013ba0:	80054680 	call	8005468 <__mulsi3>
 8013ba4:	100b883a 	mov	r5,r2
 8013ba8:	0100bef4 	movhi	r4,763
 8013bac:	213c2004 	addi	r4,r4,-3968
 8013bb0:	80062340 	call	8006234 <__udivsi3>
 8013bb4:	e17fff17 	ldw	r5,-4(fp)
 8013bb8:	1009883a 	mov	r4,r2
 8013bbc:	80054680 	call	8005468 <__mulsi3>
    /*
    * Do NOT Try to single step the asm statement below 
    * (single step will never return)
    * Step out of this function or set a breakpoint after the asm statements
    */
    __asm__ volatile (
 8013bc0:	10bfffc4 	addi	r2,r2,-1
 8013bc4:	103ffe1e 	bne	r2,zero,8013bc0 <__alt_data_end+0xf8013bc0>
 8013bc8:	00000d06 	br	8013c00 <alt_busy_sleep+0x140>
      "\n\tbgt %0,zero,0b"
      "\n1:"
      "\n\t.pushsection .debug_alt_sim_info"
      "\n\t.int 4, 0, 0b, 1b"
      "\n\t.popsection"
      :: "r" (us*(ALT_CPU_FREQ/(cycles_per_loop * 1000000))));
 8013bcc:	014003f4 	movhi	r5,15
 8013bd0:	29509004 	addi	r5,r5,16960
 8013bd4:	e13ffd17 	ldw	r4,-12(fp)
 8013bd8:	80054680 	call	8005468 <__mulsi3>
 8013bdc:	100b883a 	mov	r5,r2
 8013be0:	0100bef4 	movhi	r4,763
 8013be4:	213c2004 	addi	r4,r4,-3968
 8013be8:	80062340 	call	8006234 <__udivsi3>
 8013bec:	e17fff17 	ldw	r5,-4(fp)
 8013bf0:	1009883a 	mov	r4,r2
 8013bf4:	80054680 	call	8005468 <__mulsi3>
    /*
    * Do NOT Try to single step the asm statement below 
    * (single step will never return)
    * Step out of this function or set a breakpoint after the asm statements
    */
    __asm__ volatile (
 8013bf8:	10bfffc4 	addi	r2,r2,-1
 8013bfc:	00bffe16 	blt	zero,r2,8013bf8 <__alt_data_end+0xf8013bf8>
      "\n\t.int 4, 0, 0b, 1b"
      "\n\t.popsection"
      :: "r" (us*(ALT_CPU_FREQ/(cycles_per_loop * 1000000))));
  }
#endif /* #ifndef ALT_SIM_OPTIMIZE */
  return 0;
 8013c00:	0005883a 	mov	r2,zero
}
 8013c04:	e037883a 	mov	sp,fp
 8013c08:	dfc00117 	ldw	ra,4(sp)
 8013c0c:	df000017 	ldw	fp,0(sp)
 8013c10:	dec00204 	addi	sp,sp,8
 8013c14:	f800283a 	ret

08013c18 <alt_dcache_flush_all>:
/*
 * alt_dcache_flush_all() is called to flush the entire data cache.
 */

void alt_dcache_flush_all (void)
{
 8013c18:	deffff04 	addi	sp,sp,-4
 8013c1c:	df000015 	stw	fp,0(sp)
 8013c20:	d839883a 	mov	fp,sp
  for (i = (char*) 0; i < (char*) NIOS2_DCACHE_SIZE; i+= NIOS2_DCACHE_LINE_SIZE)
  { 
    __asm__ volatile ("flushd (%0)" :: "r" (i));
  }
#endif /* NIOS2_DCACHE_SIZE > 0 */
}
 8013c24:	0001883a 	nop
 8013c28:	e037883a 	mov	sp,fp
 8013c2c:	df000017 	ldw	fp,0(sp)
 8013c30:	dec00104 	addi	sp,sp,4
 8013c34:	f800283a 	ret

08013c38 <alt_get_errno>:
#undef errno

extern int errno;

static ALT_INLINE int* alt_get_errno(void)
{
 8013c38:	defffe04 	addi	sp,sp,-8
 8013c3c:	dfc00115 	stw	ra,4(sp)
 8013c40:	df000015 	stw	fp,0(sp)
 8013c44:	d839883a 	mov	fp,sp
  return ((alt_errno) ? alt_errno() : &errno);
 8013c48:	d0a03417 	ldw	r2,-32560(gp)
 8013c4c:	10000326 	beq	r2,zero,8013c5c <alt_get_errno+0x24>
 8013c50:	d0a03417 	ldw	r2,-32560(gp)
 8013c54:	103ee83a 	callr	r2
 8013c58:	00000106 	br	8013c60 <alt_get_errno+0x28>
 8013c5c:	d0a73104 	addi	r2,gp,-25404
}
 8013c60:	e037883a 	mov	sp,fp
 8013c64:	dfc00117 	ldw	ra,4(sp)
 8013c68:	df000017 	ldw	fp,0(sp)
 8013c6c:	dec00204 	addi	sp,sp,8
 8013c70:	f800283a 	ret

08013c74 <alt_dev_llist_insert>:
/*
 *
 */

int alt_dev_llist_insert (alt_dev_llist* dev, alt_llist* list)
{
 8013c74:	defffa04 	addi	sp,sp,-24
 8013c78:	dfc00515 	stw	ra,20(sp)
 8013c7c:	df000415 	stw	fp,16(sp)
 8013c80:	df000404 	addi	fp,sp,16
 8013c84:	e13ffe15 	stw	r4,-8(fp)
 8013c88:	e17fff15 	stw	r5,-4(fp)
  /*
   * check that the device exists, and that it has a valid name.
   */

  if (!dev || !dev->name)
 8013c8c:	e0bffe17 	ldw	r2,-8(fp)
 8013c90:	10000326 	beq	r2,zero,8013ca0 <alt_dev_llist_insert+0x2c>
 8013c94:	e0bffe17 	ldw	r2,-8(fp)
 8013c98:	10800217 	ldw	r2,8(r2)
 8013c9c:	1000061e 	bne	r2,zero,8013cb8 <alt_dev_llist_insert+0x44>
  {
    ALT_ERRNO = EINVAL;
 8013ca0:	8013c380 	call	8013c38 <alt_get_errno>
 8013ca4:	1007883a 	mov	r3,r2
 8013ca8:	00800584 	movi	r2,22
 8013cac:	18800015 	stw	r2,0(r3)
    return -EINVAL;
 8013cb0:	00bffa84 	movi	r2,-22
 8013cb4:	00001306 	br	8013d04 <alt_dev_llist_insert+0x90>
  
  /*
   * register the device.
   */
  
  alt_llist_insert(list, &dev->llist);
 8013cb8:	e0bffe17 	ldw	r2,-8(fp)
 8013cbc:	e0ffff17 	ldw	r3,-4(fp)
 8013cc0:	e0fffc15 	stw	r3,-16(fp)
 8013cc4:	e0bffd15 	stw	r2,-12(fp)
 */

static ALT_INLINE void ALT_ALWAYS_INLINE alt_llist_insert(alt_llist* list, 
                alt_llist* entry)
{
  entry->previous = list;
 8013cc8:	e0bffd17 	ldw	r2,-12(fp)
 8013ccc:	e0fffc17 	ldw	r3,-16(fp)
 8013cd0:	10c00115 	stw	r3,4(r2)
  entry->next     = list->next;
 8013cd4:	e0bffc17 	ldw	r2,-16(fp)
 8013cd8:	10c00017 	ldw	r3,0(r2)
 8013cdc:	e0bffd17 	ldw	r2,-12(fp)
 8013ce0:	10c00015 	stw	r3,0(r2)

  list->next->previous = entry;
 8013ce4:	e0bffc17 	ldw	r2,-16(fp)
 8013ce8:	10800017 	ldw	r2,0(r2)
 8013cec:	e0fffd17 	ldw	r3,-12(fp)
 8013cf0:	10c00115 	stw	r3,4(r2)
  list->next           = entry;
 8013cf4:	e0bffc17 	ldw	r2,-16(fp)
 8013cf8:	e0fffd17 	ldw	r3,-12(fp)
 8013cfc:	10c00015 	stw	r3,0(r2)

  return 0;  
 8013d00:	0005883a 	mov	r2,zero
}
 8013d04:	e037883a 	mov	sp,fp
 8013d08:	dfc00117 	ldw	ra,4(sp)
 8013d0c:	df000017 	ldw	fp,0(sp)
 8013d10:	dec00204 	addi	sp,sp,8
 8013d14:	f800283a 	ret

08013d18 <_do_ctors>:
/*
 * Run the C++ static constructors.
 */

void _do_ctors(void)
{
 8013d18:	defffd04 	addi	sp,sp,-12
 8013d1c:	dfc00215 	stw	ra,8(sp)
 8013d20:	df000115 	stw	fp,4(sp)
 8013d24:	df000104 	addi	fp,sp,4
  constructor* ctor;

  for (ctor = &__CTOR_END__[-1]; ctor >= __CTOR_LIST__; ctor--)
 8013d28:	00820074 	movhi	r2,2049
 8013d2c:	10933304 	addi	r2,r2,19660
 8013d30:	e0bfff15 	stw	r2,-4(fp)
 8013d34:	00000606 	br	8013d50 <_do_ctors+0x38>
        (*ctor) (); 
 8013d38:	e0bfff17 	ldw	r2,-4(fp)
 8013d3c:	10800017 	ldw	r2,0(r2)
 8013d40:	103ee83a 	callr	r2

void _do_ctors(void)
{
  constructor* ctor;

  for (ctor = &__CTOR_END__[-1]; ctor >= __CTOR_LIST__; ctor--)
 8013d44:	e0bfff17 	ldw	r2,-4(fp)
 8013d48:	10bfff04 	addi	r2,r2,-4
 8013d4c:	e0bfff15 	stw	r2,-4(fp)
 8013d50:	e0ffff17 	ldw	r3,-4(fp)
 8013d54:	00820074 	movhi	r2,2049
 8013d58:	10933404 	addi	r2,r2,19664
 8013d5c:	18bff62e 	bgeu	r3,r2,8013d38 <__alt_data_end+0xf8013d38>
        (*ctor) (); 
}
 8013d60:	0001883a 	nop
 8013d64:	e037883a 	mov	sp,fp
 8013d68:	dfc00117 	ldw	ra,4(sp)
 8013d6c:	df000017 	ldw	fp,0(sp)
 8013d70:	dec00204 	addi	sp,sp,8
 8013d74:	f800283a 	ret

08013d78 <_do_dtors>:
/*
 * Run the C++ static destructors.
 */

void _do_dtors(void)
{
 8013d78:	defffd04 	addi	sp,sp,-12
 8013d7c:	dfc00215 	stw	ra,8(sp)
 8013d80:	df000115 	stw	fp,4(sp)
 8013d84:	df000104 	addi	fp,sp,4
  destructor* dtor;

  for (dtor = &__DTOR_END__[-1]; dtor >= __DTOR_LIST__; dtor--)
 8013d88:	00820074 	movhi	r2,2049
 8013d8c:	10933304 	addi	r2,r2,19660
 8013d90:	e0bfff15 	stw	r2,-4(fp)
 8013d94:	00000606 	br	8013db0 <_do_dtors+0x38>
        (*dtor) (); 
 8013d98:	e0bfff17 	ldw	r2,-4(fp)
 8013d9c:	10800017 	ldw	r2,0(r2)
 8013da0:	103ee83a 	callr	r2

void _do_dtors(void)
{
  destructor* dtor;

  for (dtor = &__DTOR_END__[-1]; dtor >= __DTOR_LIST__; dtor--)
 8013da4:	e0bfff17 	ldw	r2,-4(fp)
 8013da8:	10bfff04 	addi	r2,r2,-4
 8013dac:	e0bfff15 	stw	r2,-4(fp)
 8013db0:	e0ffff17 	ldw	r3,-4(fp)
 8013db4:	00820074 	movhi	r2,2049
 8013db8:	10933404 	addi	r2,r2,19664
 8013dbc:	18bff62e 	bgeu	r3,r2,8013d98 <__alt_data_end+0xf8013d98>
        (*dtor) (); 
}
 8013dc0:	0001883a 	nop
 8013dc4:	e037883a 	mov	sp,fp
 8013dc8:	dfc00117 	ldw	ra,4(sp)
 8013dcc:	df000017 	ldw	fp,0(sp)
 8013dd0:	dec00204 	addi	sp,sp,8
 8013dd4:	f800283a 	ret

08013dd8 <alt_icache_flush_all>:
/*
 * alt_icache_flush_all() is called to flush the entire instruction cache.
 */

void alt_icache_flush_all (void)
{
 8013dd8:	deffff04 	addi	sp,sp,-4
 8013ddc:	df000015 	stw	fp,0(sp)
 8013de0:	d839883a 	mov	fp,sp
#if NIOS2_ICACHE_SIZE > 0
  alt_icache_flush (0, NIOS2_ICACHE_SIZE);
#endif
}
 8013de4:	0001883a 	nop
 8013de8:	e037883a 	mov	sp,fp
 8013dec:	df000017 	ldw	fp,0(sp)
 8013df0:	dec00104 	addi	sp,sp,4
 8013df4:	f800283a 	ret

08013df8 <alt_ic_isr_register>:
  * @param irq              IRQ number
  * @return                 0 if successful, else error (-1)
  */
int alt_ic_isr_register(alt_u32 ic_id, alt_u32 irq, alt_isr_func isr, 
  void *isr_context, void *flags)
{
 8013df8:	defff904 	addi	sp,sp,-28
 8013dfc:	dfc00615 	stw	ra,24(sp)
 8013e00:	df000515 	stw	fp,20(sp)
 8013e04:	df000504 	addi	fp,sp,20
 8013e08:	e13ffc15 	stw	r4,-16(fp)
 8013e0c:	e17ffd15 	stw	r5,-12(fp)
 8013e10:	e1bffe15 	stw	r6,-8(fp)
 8013e14:	e1ffff15 	stw	r7,-4(fp)
    return alt_iic_isr_register(ic_id, irq, isr, isr_context, flags);
 8013e18:	e0800217 	ldw	r2,8(fp)
 8013e1c:	d8800015 	stw	r2,0(sp)
 8013e20:	e1ffff17 	ldw	r7,-4(fp)
 8013e24:	e1bffe17 	ldw	r6,-8(fp)
 8013e28:	e17ffd17 	ldw	r5,-12(fp)
 8013e2c:	e13ffc17 	ldw	r4,-16(fp)
 8013e30:	8013fa80 	call	8013fa8 <alt_iic_isr_register>
}  
 8013e34:	e037883a 	mov	sp,fp
 8013e38:	dfc00117 	ldw	ra,4(sp)
 8013e3c:	df000017 	ldw	fp,0(sp)
 8013e40:	dec00204 	addi	sp,sp,8
 8013e44:	f800283a 	ret

08013e48 <alt_ic_irq_enable>:
  * @param ic_id            Ignored.
  * @param irq              IRQ number
  * @return                 0 if successful, else error (-1)
  */
int alt_ic_irq_enable (alt_u32 ic_id, alt_u32 irq)
{
 8013e48:	defff904 	addi	sp,sp,-28
 8013e4c:	df000615 	stw	fp,24(sp)
 8013e50:	df000604 	addi	fp,sp,24
 8013e54:	e13ffe15 	stw	r4,-8(fp)
 8013e58:	e17fff15 	stw	r5,-4(fp)
 8013e5c:	e0bfff17 	ldw	r2,-4(fp)
 8013e60:	e0bffa15 	stw	r2,-24(fp)
static ALT_INLINE alt_irq_context ALT_ALWAYS_INLINE 
       alt_irq_disable_all (void)
{
  alt_irq_context context;

  NIOS2_READ_STATUS (context);
 8013e64:	0005303a 	rdctl	r2,status
 8013e68:	e0bffb15 	stw	r2,-20(fp)

  NIOS2_WRITE_STATUS (context & ~NIOS2_STATUS_PIE_MSK);
 8013e6c:	e0fffb17 	ldw	r3,-20(fp)
 8013e70:	00bfff84 	movi	r2,-2
 8013e74:	1884703a 	and	r2,r3,r2
 8013e78:	1001703a 	wrctl	status,r2
  
  return context;
 8013e7c:	e0bffb17 	ldw	r2,-20(fp)
static ALT_INLINE int ALT_ALWAYS_INLINE alt_irq_enable (alt_u32 id)
{
  alt_irq_context  status;
  extern volatile alt_u32 alt_irq_active;

  status = alt_irq_disable_all ();
 8013e80:	e0bffc15 	stw	r2,-16(fp)

  alt_irq_active |= (1 << id);
 8013e84:	00c00044 	movi	r3,1
 8013e88:	e0bffa17 	ldw	r2,-24(fp)
 8013e8c:	1884983a 	sll	r2,r3,r2
 8013e90:	1007883a 	mov	r3,r2
 8013e94:	d0a73517 	ldw	r2,-25388(gp)
 8013e98:	1884b03a 	or	r2,r3,r2
 8013e9c:	d0a73515 	stw	r2,-25388(gp)
  NIOS2_WRITE_IENABLE (alt_irq_active);
 8013ea0:	d0a73517 	ldw	r2,-25388(gp)
 8013ea4:	100170fa 	wrctl	ienable,r2
 8013ea8:	e0bffc17 	ldw	r2,-16(fp)
 8013eac:	e0bffd15 	stw	r2,-12(fp)
  status &= ~NIOS2_STATUS_PIE_MSK;
  status |= (context & NIOS2_STATUS_PIE_MSK);
  
  NIOS2_WRITE_STATUS (status);
#else
  NIOS2_WRITE_STATUS (context);
 8013eb0:	e0bffd17 	ldw	r2,-12(fp)
 8013eb4:	1001703a 	wrctl	status,r2

  alt_irq_enable_all(status);

  return 0;
 8013eb8:	0005883a 	mov	r2,zero
    return alt_irq_enable(irq);
 8013ebc:	0001883a 	nop
}
 8013ec0:	e037883a 	mov	sp,fp
 8013ec4:	df000017 	ldw	fp,0(sp)
 8013ec8:	dec00104 	addi	sp,sp,4
 8013ecc:	f800283a 	ret

08013ed0 <alt_ic_irq_disable>:
  * @param ic_id            Ignored.
  * @param irq              IRQ number
  * @return                 0 if successful, else error (-1)
  */
int alt_ic_irq_disable(alt_u32 ic_id, alt_u32 irq)
{
 8013ed0:	defff904 	addi	sp,sp,-28
 8013ed4:	df000615 	stw	fp,24(sp)
 8013ed8:	df000604 	addi	fp,sp,24
 8013edc:	e13ffe15 	stw	r4,-8(fp)
 8013ee0:	e17fff15 	stw	r5,-4(fp)
 8013ee4:	e0bfff17 	ldw	r2,-4(fp)
 8013ee8:	e0bffa15 	stw	r2,-24(fp)
static ALT_INLINE alt_irq_context ALT_ALWAYS_INLINE 
       alt_irq_disable_all (void)
{
  alt_irq_context context;

  NIOS2_READ_STATUS (context);
 8013eec:	0005303a 	rdctl	r2,status
 8013ef0:	e0bffb15 	stw	r2,-20(fp)

  NIOS2_WRITE_STATUS (context & ~NIOS2_STATUS_PIE_MSK);
 8013ef4:	e0fffb17 	ldw	r3,-20(fp)
 8013ef8:	00bfff84 	movi	r2,-2
 8013efc:	1884703a 	and	r2,r3,r2
 8013f00:	1001703a 	wrctl	status,r2
  
  return context;
 8013f04:	e0bffb17 	ldw	r2,-20(fp)
static ALT_INLINE int ALT_ALWAYS_INLINE alt_irq_disable (alt_u32 id)
{
  alt_irq_context  status;
  extern volatile alt_u32 alt_irq_active;

  status = alt_irq_disable_all ();
 8013f08:	e0bffc15 	stw	r2,-16(fp)

  alt_irq_active &= ~(1 << id);
 8013f0c:	00c00044 	movi	r3,1
 8013f10:	e0bffa17 	ldw	r2,-24(fp)
 8013f14:	1884983a 	sll	r2,r3,r2
 8013f18:	0084303a 	nor	r2,zero,r2
 8013f1c:	1007883a 	mov	r3,r2
 8013f20:	d0a73517 	ldw	r2,-25388(gp)
 8013f24:	1884703a 	and	r2,r3,r2
 8013f28:	d0a73515 	stw	r2,-25388(gp)
  NIOS2_WRITE_IENABLE (alt_irq_active);
 8013f2c:	d0a73517 	ldw	r2,-25388(gp)
 8013f30:	100170fa 	wrctl	ienable,r2
 8013f34:	e0bffc17 	ldw	r2,-16(fp)
 8013f38:	e0bffd15 	stw	r2,-12(fp)
  status &= ~NIOS2_STATUS_PIE_MSK;
  status |= (context & NIOS2_STATUS_PIE_MSK);
  
  NIOS2_WRITE_STATUS (status);
#else
  NIOS2_WRITE_STATUS (context);
 8013f3c:	e0bffd17 	ldw	r2,-12(fp)
 8013f40:	1001703a 	wrctl	status,r2

  alt_irq_enable_all(status);

  return 0;
 8013f44:	0005883a 	mov	r2,zero
    return alt_irq_disable(irq);
 8013f48:	0001883a 	nop
}
 8013f4c:	e037883a 	mov	sp,fp
 8013f50:	df000017 	ldw	fp,0(sp)
 8013f54:	dec00104 	addi	sp,sp,4
 8013f58:	f800283a 	ret

08013f5c <alt_ic_irq_enabled>:
  * @param irq              IRQ number
  * @return                 Zero if corresponding interrupt is disabled and
  *                         non-zero otherwise.
  */
alt_u32 alt_ic_irq_enabled(alt_u32 ic_id, alt_u32 irq)
{
 8013f5c:	defffc04 	addi	sp,sp,-16
 8013f60:	df000315 	stw	fp,12(sp)
 8013f64:	df000304 	addi	fp,sp,12
 8013f68:	e13ffe15 	stw	r4,-8(fp)
 8013f6c:	e17fff15 	stw	r5,-4(fp)
    alt_u32 irq_enabled;

    NIOS2_READ_IENABLE(irq_enabled);
 8013f70:	000530fa 	rdctl	r2,ienable
 8013f74:	e0bffd15 	stw	r2,-12(fp)

    return (irq_enabled & (1 << irq)) ? 1: 0;
 8013f78:	00c00044 	movi	r3,1
 8013f7c:	e0bfff17 	ldw	r2,-4(fp)
 8013f80:	1884983a 	sll	r2,r3,r2
 8013f84:	1007883a 	mov	r3,r2
 8013f88:	e0bffd17 	ldw	r2,-12(fp)
 8013f8c:	1884703a 	and	r2,r3,r2
 8013f90:	1004c03a 	cmpne	r2,r2,zero
 8013f94:	10803fcc 	andi	r2,r2,255
}
 8013f98:	e037883a 	mov	sp,fp
 8013f9c:	df000017 	ldw	fp,0(sp)
 8013fa0:	dec00104 	addi	sp,sp,4
 8013fa4:	f800283a 	ret

08013fa8 <alt_iic_isr_register>:
  * @param flags            
  * @return                 0 if successful, else error (-1)
  */
int alt_iic_isr_register(alt_u32 ic_id, alt_u32 irq, alt_isr_func isr, 
  void *isr_context, void *flags)
{
 8013fa8:	defff504 	addi	sp,sp,-44
 8013fac:	dfc00a15 	stw	ra,40(sp)
 8013fb0:	df000915 	stw	fp,36(sp)
 8013fb4:	df000904 	addi	fp,sp,36
 8013fb8:	e13ffc15 	stw	r4,-16(fp)
 8013fbc:	e17ffd15 	stw	r5,-12(fp)
 8013fc0:	e1bffe15 	stw	r6,-8(fp)
 8013fc4:	e1ffff15 	stw	r7,-4(fp)
  int rc = -EINVAL;  
 8013fc8:	00bffa84 	movi	r2,-22
 8013fcc:	e0bff715 	stw	r2,-36(fp)
  int id = irq;             /* IRQ interpreted as the interrupt ID. */
 8013fd0:	e0bffd17 	ldw	r2,-12(fp)
 8013fd4:	e0bff815 	stw	r2,-32(fp)
  alt_irq_context status;

  if (id < ALT_NIRQ)
 8013fd8:	e0bff817 	ldw	r2,-32(fp)
 8013fdc:	10800808 	cmpgei	r2,r2,32
 8013fe0:	1000271e 	bne	r2,zero,8014080 <alt_iic_isr_register+0xd8>
static ALT_INLINE alt_irq_context ALT_ALWAYS_INLINE 
       alt_irq_disable_all (void)
{
  alt_irq_context context;

  NIOS2_READ_STATUS (context);
 8013fe4:	0005303a 	rdctl	r2,status
 8013fe8:	e0bffb15 	stw	r2,-20(fp)

  NIOS2_WRITE_STATUS (context & ~NIOS2_STATUS_PIE_MSK);
 8013fec:	e0fffb17 	ldw	r3,-20(fp)
 8013ff0:	00bfff84 	movi	r2,-2
 8013ff4:	1884703a 	and	r2,r3,r2
 8013ff8:	1001703a 	wrctl	status,r2
  
  return context;
 8013ffc:	e0bffb17 	ldw	r2,-20(fp)
     * interrupts are disabled while the handler tables are updated to ensure
     * that an interrupt doesn't occur while the tables are in an inconsistant
     * state.
     */

    status = alt_irq_disable_all();
 8014000:	e0bffa15 	stw	r2,-24(fp)

    alt_irq[id].handler = isr;
 8014004:	008200b4 	movhi	r2,2050
 8014008:	10a22104 	addi	r2,r2,-30588
 801400c:	e0fff817 	ldw	r3,-32(fp)
 8014010:	180690fa 	slli	r3,r3,3
 8014014:	10c5883a 	add	r2,r2,r3
 8014018:	e0fffe17 	ldw	r3,-8(fp)
 801401c:	10c00015 	stw	r3,0(r2)
    alt_irq[id].context = isr_context;
 8014020:	008200b4 	movhi	r2,2050
 8014024:	10a22104 	addi	r2,r2,-30588
 8014028:	e0fff817 	ldw	r3,-32(fp)
 801402c:	180690fa 	slli	r3,r3,3
 8014030:	10c5883a 	add	r2,r2,r3
 8014034:	10800104 	addi	r2,r2,4
 8014038:	e0ffff17 	ldw	r3,-4(fp)
 801403c:	10c00015 	stw	r3,0(r2)

    rc = (isr) ? alt_ic_irq_enable(ic_id, id) : alt_ic_irq_disable(ic_id, id);
 8014040:	e0bffe17 	ldw	r2,-8(fp)
 8014044:	10000526 	beq	r2,zero,801405c <alt_iic_isr_register+0xb4>
 8014048:	e0bff817 	ldw	r2,-32(fp)
 801404c:	100b883a 	mov	r5,r2
 8014050:	e13ffc17 	ldw	r4,-16(fp)
 8014054:	8013e480 	call	8013e48 <alt_ic_irq_enable>
 8014058:	00000406 	br	801406c <alt_iic_isr_register+0xc4>
 801405c:	e0bff817 	ldw	r2,-32(fp)
 8014060:	100b883a 	mov	r5,r2
 8014064:	e13ffc17 	ldw	r4,-16(fp)
 8014068:	8013ed00 	call	8013ed0 <alt_ic_irq_disable>
 801406c:	e0bff715 	stw	r2,-36(fp)
 8014070:	e0bffa17 	ldw	r2,-24(fp)
 8014074:	e0bff915 	stw	r2,-28(fp)
  status &= ~NIOS2_STATUS_PIE_MSK;
  status |= (context & NIOS2_STATUS_PIE_MSK);
  
  NIOS2_WRITE_STATUS (status);
#else
  NIOS2_WRITE_STATUS (context);
 8014078:	e0bff917 	ldw	r2,-28(fp)
 801407c:	1001703a 	wrctl	status,r2

    alt_irq_enable_all(status);
  }

  return rc; 
 8014080:	e0bff717 	ldw	r2,-36(fp)
}
 8014084:	e037883a 	mov	sp,fp
 8014088:	dfc00117 	ldw	ra,4(sp)
 801408c:	df000017 	ldw	fp,0(sp)
 8014090:	dec00204 	addi	sp,sp,8
 8014094:	f800283a 	ret

08014098 <alt_open_fd>:
 * If the device can not be succesfully opened, then the input file descriptor
 * remains unchanged.
 */

static void alt_open_fd(alt_fd* fd, const char* name, int flags, int mode)
{
 8014098:	defff804 	addi	sp,sp,-32
 801409c:	dfc00715 	stw	ra,28(sp)
 80140a0:	df000615 	stw	fp,24(sp)
 80140a4:	dc000515 	stw	r16,20(sp)
 80140a8:	df000604 	addi	fp,sp,24
 80140ac:	e13ffb15 	stw	r4,-20(fp)
 80140b0:	e17ffc15 	stw	r5,-16(fp)
 80140b4:	e1bffd15 	stw	r6,-12(fp)
 80140b8:	e1fffe15 	stw	r7,-8(fp)
  int old;

  old = open (name, flags, mode);
 80140bc:	e1bffe17 	ldw	r6,-8(fp)
 80140c0:	e17ffd17 	ldw	r5,-12(fp)
 80140c4:	e13ffc17 	ldw	r4,-16(fp)
 80140c8:	80143200 	call	8014320 <open>
 80140cc:	e0bffa15 	stw	r2,-24(fp)

  if (old >= 0)
 80140d0:	e0bffa17 	ldw	r2,-24(fp)
 80140d4:	10002216 	blt	r2,zero,8014160 <alt_open_fd+0xc8>
  {
    fd->dev      = alt_fd_list[old].dev;
 80140d8:	04020074 	movhi	r16,2049
 80140dc:	84166604 	addi	r16,r16,22936
 80140e0:	e0bffa17 	ldw	r2,-24(fp)
 80140e4:	01400304 	movi	r5,12
 80140e8:	1009883a 	mov	r4,r2
 80140ec:	80054680 	call	8005468 <__mulsi3>
 80140f0:	8085883a 	add	r2,r16,r2
 80140f4:	10c00017 	ldw	r3,0(r2)
 80140f8:	e0bffb17 	ldw	r2,-20(fp)
 80140fc:	10c00015 	stw	r3,0(r2)
    fd->priv     = alt_fd_list[old].priv;
 8014100:	04020074 	movhi	r16,2049
 8014104:	84166604 	addi	r16,r16,22936
 8014108:	e0bffa17 	ldw	r2,-24(fp)
 801410c:	01400304 	movi	r5,12
 8014110:	1009883a 	mov	r4,r2
 8014114:	80054680 	call	8005468 <__mulsi3>
 8014118:	8085883a 	add	r2,r16,r2
 801411c:	10800104 	addi	r2,r2,4
 8014120:	10c00017 	ldw	r3,0(r2)
 8014124:	e0bffb17 	ldw	r2,-20(fp)
 8014128:	10c00115 	stw	r3,4(r2)
    fd->fd_flags = alt_fd_list[old].fd_flags;
 801412c:	04020074 	movhi	r16,2049
 8014130:	84166604 	addi	r16,r16,22936
 8014134:	e0bffa17 	ldw	r2,-24(fp)
 8014138:	01400304 	movi	r5,12
 801413c:	1009883a 	mov	r4,r2
 8014140:	80054680 	call	8005468 <__mulsi3>
 8014144:	8085883a 	add	r2,r16,r2
 8014148:	10800204 	addi	r2,r2,8
 801414c:	10c00017 	ldw	r3,0(r2)
 8014150:	e0bffb17 	ldw	r2,-20(fp)
 8014154:	10c00215 	stw	r3,8(r2)

    alt_release_fd (old);
 8014158:	e13ffa17 	ldw	r4,-24(fp)
 801415c:	8012b200 	call	8012b20 <alt_release_fd>
  }
} 
 8014160:	0001883a 	nop
 8014164:	e6ffff04 	addi	sp,fp,-4
 8014168:	dfc00217 	ldw	ra,8(sp)
 801416c:	df000117 	ldw	fp,4(sp)
 8014170:	dc000017 	ldw	r16,0(sp)
 8014174:	dec00304 	addi	sp,sp,12
 8014178:	f800283a 	ret

0801417c <alt_io_redirect>:
 */
 
void alt_io_redirect(const char* stdout_dev, 
                     const char* stdin_dev, 
                     const char* stderr_dev)
{
 801417c:	defffb04 	addi	sp,sp,-20
 8014180:	dfc00415 	stw	ra,16(sp)
 8014184:	df000315 	stw	fp,12(sp)
 8014188:	df000304 	addi	fp,sp,12
 801418c:	e13ffd15 	stw	r4,-12(fp)
 8014190:	e17ffe15 	stw	r5,-8(fp)
 8014194:	e1bfff15 	stw	r6,-4(fp)
  /* Redirect the channels */

  alt_open_fd (&alt_fd_list[STDOUT_FILENO], stdout_dev, O_WRONLY, 0777);
 8014198:	01c07fc4 	movi	r7,511
 801419c:	01800044 	movi	r6,1
 80141a0:	e17ffd17 	ldw	r5,-12(fp)
 80141a4:	01020074 	movhi	r4,2049
 80141a8:	21166904 	addi	r4,r4,22948
 80141ac:	80140980 	call	8014098 <alt_open_fd>
  alt_open_fd (&alt_fd_list[STDIN_FILENO], stdin_dev, O_RDONLY, 0777);
 80141b0:	01c07fc4 	movi	r7,511
 80141b4:	000d883a 	mov	r6,zero
 80141b8:	e17ffe17 	ldw	r5,-8(fp)
 80141bc:	01020074 	movhi	r4,2049
 80141c0:	21166604 	addi	r4,r4,22936
 80141c4:	80140980 	call	8014098 <alt_open_fd>
  alt_open_fd (&alt_fd_list[STDERR_FILENO], stderr_dev, O_WRONLY, 0777);
 80141c8:	01c07fc4 	movi	r7,511
 80141cc:	01800044 	movi	r6,1
 80141d0:	e17fff17 	ldw	r5,-4(fp)
 80141d4:	01020074 	movhi	r4,2049
 80141d8:	21166c04 	addi	r4,r4,22960
 80141dc:	80140980 	call	8014098 <alt_open_fd>
}  
 80141e0:	0001883a 	nop
 80141e4:	e037883a 	mov	sp,fp
 80141e8:	dfc00117 	ldw	ra,4(sp)
 80141ec:	df000017 	ldw	fp,0(sp)
 80141f0:	dec00204 	addi	sp,sp,8
 80141f4:	f800283a 	ret

080141f8 <alt_get_errno>:
#undef errno

extern int errno;

static ALT_INLINE int* alt_get_errno(void)
{
 80141f8:	defffe04 	addi	sp,sp,-8
 80141fc:	dfc00115 	stw	ra,4(sp)
 8014200:	df000015 	stw	fp,0(sp)
 8014204:	d839883a 	mov	fp,sp
  return ((alt_errno) ? alt_errno() : &errno);
 8014208:	d0a03417 	ldw	r2,-32560(gp)
 801420c:	10000326 	beq	r2,zero,801421c <alt_get_errno+0x24>
 8014210:	d0a03417 	ldw	r2,-32560(gp)
 8014214:	103ee83a 	callr	r2
 8014218:	00000106 	br	8014220 <alt_get_errno+0x28>
 801421c:	d0a73104 	addi	r2,gp,-25404
}
 8014220:	e037883a 	mov	sp,fp
 8014224:	dfc00117 	ldw	ra,4(sp)
 8014228:	df000017 	ldw	fp,0(sp)
 801422c:	dec00204 	addi	sp,sp,8
 8014230:	f800283a 	ret

08014234 <alt_file_locked>:
 * performed for devices. Filesystems are required to handle the ioctl() call
 * themselves, and report the error from the filesystems open() function. 
 */ 

static int alt_file_locked (alt_fd* fd)
{
 8014234:	defffb04 	addi	sp,sp,-20
 8014238:	dfc00415 	stw	ra,16(sp)
 801423c:	df000315 	stw	fp,12(sp)
 8014240:	dc000215 	stw	r16,8(sp)
 8014244:	df000304 	addi	fp,sp,12
 8014248:	e13ffe15 	stw	r4,-8(fp)

  /*
   * Mark the file descriptor as belonging to a device.
   */

  fd->fd_flags |= ALT_FD_DEV;
 801424c:	e0bffe17 	ldw	r2,-8(fp)
 8014250:	10800217 	ldw	r2,8(r2)
 8014254:	10d00034 	orhi	r3,r2,16384
 8014258:	e0bffe17 	ldw	r2,-8(fp)
 801425c:	10c00215 	stw	r3,8(r2)
  /*
   * Loop through all current file descriptors searching for one that's locked
   * for exclusive access. If a match is found, generate an error.
   */

  for (i = 0; i <= alt_max_fd; i++)
 8014260:	e03ffd15 	stw	zero,-12(fp)
 8014264:	00002306 	br	80142f4 <alt_file_locked+0xc0>
  {
    if ((alt_fd_list[i].dev == fd->dev) &&
 8014268:	04020074 	movhi	r16,2049
 801426c:	84166604 	addi	r16,r16,22936
 8014270:	e0bffd17 	ldw	r2,-12(fp)
 8014274:	01400304 	movi	r5,12
 8014278:	1009883a 	mov	r4,r2
 801427c:	80054680 	call	8005468 <__mulsi3>
 8014280:	8085883a 	add	r2,r16,r2
 8014284:	10c00017 	ldw	r3,0(r2)
 8014288:	e0bffe17 	ldw	r2,-8(fp)
 801428c:	10800017 	ldw	r2,0(r2)
 8014290:	1880151e 	bne	r3,r2,80142e8 <alt_file_locked+0xb4>
        (alt_fd_list[i].fd_flags & ALT_FD_EXCL) &&
 8014294:	04020074 	movhi	r16,2049
 8014298:	84166604 	addi	r16,r16,22936
 801429c:	e0bffd17 	ldw	r2,-12(fp)
 80142a0:	01400304 	movi	r5,12
 80142a4:	1009883a 	mov	r4,r2
 80142a8:	80054680 	call	8005468 <__mulsi3>
 80142ac:	8085883a 	add	r2,r16,r2
 80142b0:	10800204 	addi	r2,r2,8
 80142b4:	10800017 	ldw	r2,0(r2)
   * for exclusive access. If a match is found, generate an error.
   */

  for (i = 0; i <= alt_max_fd; i++)
  {
    if ((alt_fd_list[i].dev == fd->dev) &&
 80142b8:	10000b0e 	bge	r2,zero,80142e8 <alt_file_locked+0xb4>
        (alt_fd_list[i].fd_flags & ALT_FD_EXCL) &&
        (&alt_fd_list[i] != fd))
 80142bc:	01400304 	movi	r5,12
 80142c0:	e13ffd17 	ldw	r4,-12(fp)
 80142c4:	80054680 	call	8005468 <__mulsi3>
 80142c8:	1007883a 	mov	r3,r2
 80142cc:	00820074 	movhi	r2,2049
 80142d0:	10966604 	addi	r2,r2,22936
 80142d4:	1887883a 	add	r3,r3,r2
   */

  for (i = 0; i <= alt_max_fd; i++)
  {
    if ((alt_fd_list[i].dev == fd->dev) &&
        (alt_fd_list[i].fd_flags & ALT_FD_EXCL) &&
 80142d8:	e0bffe17 	ldw	r2,-8(fp)
 80142dc:	18800226 	beq	r3,r2,80142e8 <alt_file_locked+0xb4>
        (&alt_fd_list[i] != fd))
    {
      return -EACCES;
 80142e0:	00bffcc4 	movi	r2,-13
 80142e4:	00000806 	br	8014308 <alt_file_locked+0xd4>
  /*
   * Loop through all current file descriptors searching for one that's locked
   * for exclusive access. If a match is found, generate an error.
   */

  for (i = 0; i <= alt_max_fd; i++)
 80142e8:	e0bffd17 	ldw	r2,-12(fp)
 80142ec:	10800044 	addi	r2,r2,1
 80142f0:	e0bffd15 	stw	r2,-12(fp)
 80142f4:	d0a03317 	ldw	r2,-32564(gp)
 80142f8:	1007883a 	mov	r3,r2
 80142fc:	e0bffd17 	ldw	r2,-12(fp)
 8014300:	18bfd92e 	bgeu	r3,r2,8014268 <__alt_data_end+0xf8014268>
    }
  }
  
  /* The device is not locked */
 
  return 0;
 8014304:	0005883a 	mov	r2,zero
}
 8014308:	e6ffff04 	addi	sp,fp,-4
 801430c:	dfc00217 	ldw	ra,8(sp)
 8014310:	df000117 	ldw	fp,4(sp)
 8014314:	dc000017 	ldw	r16,0(sp)
 8014318:	dec00304 	addi	sp,sp,12
 801431c:	f800283a 	ret

08014320 <open>:
 *
 * ALT_OPEN is mapped onto the open() system call in alt_syscall.h
 */
 
int ALT_OPEN (const char* file, int flags, int mode)
{ 
 8014320:	defff604 	addi	sp,sp,-40
 8014324:	dfc00915 	stw	ra,36(sp)
 8014328:	df000815 	stw	fp,32(sp)
 801432c:	df000804 	addi	fp,sp,32
 8014330:	e13ffd15 	stw	r4,-12(fp)
 8014334:	e17ffe15 	stw	r5,-8(fp)
 8014338:	e1bfff15 	stw	r6,-4(fp)
  alt_dev* dev;
  alt_fd*  fd;
  int index  = -1;
 801433c:	00bfffc4 	movi	r2,-1
 8014340:	e0bff915 	stw	r2,-28(fp)
  int status = -ENODEV;
 8014344:	00bffb44 	movi	r2,-19
 8014348:	e0bffa15 	stw	r2,-24(fp)
  int isafs = 0;
 801434c:	e03ffb15 	stw	zero,-20(fp)
  /* 
   * Check the device list, to see if a device with a matching name is 
   * registered.
   */
  
  if (!(dev = alt_find_dev (file, &alt_dev_list)))
 8014350:	d1603104 	addi	r5,gp,-32572
 8014354:	e13ffd17 	ldw	r4,-12(fp)
 8014358:	80146440 	call	8014644 <alt_find_dev>
 801435c:	e0bff815 	stw	r2,-32(fp)
 8014360:	e0bff817 	ldw	r2,-32(fp)
 8014364:	1000051e 	bne	r2,zero,801437c <open+0x5c>
  {
    /* No matching device, so try the filesystem list */

    dev   = alt_find_file (file);
 8014368:	e13ffd17 	ldw	r4,-12(fp)
 801436c:	80146d40 	call	80146d4 <alt_find_file>
 8014370:	e0bff815 	stw	r2,-32(fp)
    isafs = 1;
 8014374:	00800044 	movi	r2,1
 8014378:	e0bffb15 	stw	r2,-20(fp)

  /* 
   * If a matching device or filesystem is found, allocate a file descriptor. 
   */

  if (dev)
 801437c:	e0bff817 	ldw	r2,-32(fp)
 8014380:	10002b26 	beq	r2,zero,8014430 <open+0x110>
  {
    if ((index = alt_get_fd (dev)) < 0)
 8014384:	e13ff817 	ldw	r4,-32(fp)
 8014388:	80147dc0 	call	80147dc <alt_get_fd>
 801438c:	e0bff915 	stw	r2,-28(fp)
 8014390:	e0bff917 	ldw	r2,-28(fp)
 8014394:	1000030e 	bge	r2,zero,80143a4 <open+0x84>
    {
      status = index;
 8014398:	e0bff917 	ldw	r2,-28(fp)
 801439c:	e0bffa15 	stw	r2,-24(fp)
 80143a0:	00002506 	br	8014438 <open+0x118>
    }
    else
    {
      fd = &alt_fd_list[index];
 80143a4:	01400304 	movi	r5,12
 80143a8:	e13ff917 	ldw	r4,-28(fp)
 80143ac:	80054680 	call	8005468 <__mulsi3>
 80143b0:	1007883a 	mov	r3,r2
 80143b4:	00820074 	movhi	r2,2049
 80143b8:	10966604 	addi	r2,r2,22936
 80143bc:	1885883a 	add	r2,r3,r2
 80143c0:	e0bffc15 	stw	r2,-16(fp)
      fd->fd_flags = (flags & ~ALT_FD_FLAGS_MASK);
 80143c4:	e0fffe17 	ldw	r3,-8(fp)
 80143c8:	00900034 	movhi	r2,16384
 80143cc:	10bfffc4 	addi	r2,r2,-1
 80143d0:	1886703a 	and	r3,r3,r2
 80143d4:	e0bffc17 	ldw	r2,-16(fp)
 80143d8:	10c00215 	stw	r3,8(r2)
      
      /* If this is a device, ensure it isn't already locked */

      if (isafs || ((status = alt_file_locked (fd)) >= 0))
 80143dc:	e0bffb17 	ldw	r2,-20(fp)
 80143e0:	1000051e 	bne	r2,zero,80143f8 <open+0xd8>
 80143e4:	e13ffc17 	ldw	r4,-16(fp)
 80143e8:	80142340 	call	8014234 <alt_file_locked>
 80143ec:	e0bffa15 	stw	r2,-24(fp)
 80143f0:	e0bffa17 	ldw	r2,-24(fp)
 80143f4:	10001016 	blt	r2,zero,8014438 <open+0x118>
        /* 
         * If the device or filesystem provides an open() callback function,
         * call it now to perform any device/filesystem specific operations.
         */
    
        status = (dev->open) ? dev->open(fd, file, flags, mode): 0;
 80143f8:	e0bff817 	ldw	r2,-32(fp)
 80143fc:	10800317 	ldw	r2,12(r2)
 8014400:	10000826 	beq	r2,zero,8014424 <open+0x104>
 8014404:	e0bff817 	ldw	r2,-32(fp)
 8014408:	10800317 	ldw	r2,12(r2)
 801440c:	e1ffff17 	ldw	r7,-4(fp)
 8014410:	e1bffe17 	ldw	r6,-8(fp)
 8014414:	e17ffd17 	ldw	r5,-12(fp)
 8014418:	e13ffc17 	ldw	r4,-16(fp)
 801441c:	103ee83a 	callr	r2
 8014420:	00000106 	br	8014428 <open+0x108>
 8014424:	0005883a 	mov	r2,zero
 8014428:	e0bffa15 	stw	r2,-24(fp)
 801442c:	00000206 	br	8014438 <open+0x118>
      }
    }
  }
  else
  {
    status = -ENODEV;
 8014430:	00bffb44 	movi	r2,-19
 8014434:	e0bffa15 	stw	r2,-24(fp)
  }

  /* Allocation failed, so clean up and return an error */ 

  if (status < 0)
 8014438:	e0bffa17 	ldw	r2,-24(fp)
 801443c:	1000090e 	bge	r2,zero,8014464 <open+0x144>
  {
    alt_release_fd (index);  
 8014440:	e13ff917 	ldw	r4,-28(fp)
 8014444:	8012b200 	call	8012b20 <alt_release_fd>
    ALT_ERRNO = -status;
 8014448:	80141f80 	call	80141f8 <alt_get_errno>
 801444c:	1007883a 	mov	r3,r2
 8014450:	e0bffa17 	ldw	r2,-24(fp)
 8014454:	0085c83a 	sub	r2,zero,r2
 8014458:	18800015 	stw	r2,0(r3)
    return -1;
 801445c:	00bfffc4 	movi	r2,-1
 8014460:	00000106 	br	8014468 <open+0x148>
  }
  
  /* return the reference upon success */

  return index;
 8014464:	e0bff917 	ldw	r2,-28(fp)
}
 8014468:	e037883a 	mov	sp,fp
 801446c:	dfc00117 	ldw	ra,4(sp)
 8014470:	df000017 	ldw	fp,0(sp)
 8014474:	dec00204 	addi	sp,sp,8
 8014478:	f800283a 	ret

0801447c <alt_alarm_stop>:
 * alarms. Alternatively an alarm can unregister itself by returning zero when 
 * the alarm executes.
 */

void alt_alarm_stop (alt_alarm* alarm)
{
 801447c:	defffa04 	addi	sp,sp,-24
 8014480:	df000515 	stw	fp,20(sp)
 8014484:	df000504 	addi	fp,sp,20
 8014488:	e13fff15 	stw	r4,-4(fp)
static ALT_INLINE alt_irq_context ALT_ALWAYS_INLINE 
       alt_irq_disable_all (void)
{
  alt_irq_context context;

  NIOS2_READ_STATUS (context);
 801448c:	0005303a 	rdctl	r2,status
 8014490:	e0bffc15 	stw	r2,-16(fp)

  NIOS2_WRITE_STATUS (context & ~NIOS2_STATUS_PIE_MSK);
 8014494:	e0fffc17 	ldw	r3,-16(fp)
 8014498:	00bfff84 	movi	r2,-2
 801449c:	1884703a 	and	r2,r3,r2
 80144a0:	1001703a 	wrctl	status,r2
  
  return context;
 80144a4:	e0bffc17 	ldw	r2,-16(fp)
  alt_irq_context irq_context;

  irq_context = alt_irq_disable_all();
 80144a8:	e0bffb15 	stw	r2,-20(fp)
  alt_llist_remove (&alarm->llist);
 80144ac:	e0bfff17 	ldw	r2,-4(fp)
 80144b0:	e0bffd15 	stw	r2,-12(fp)
 * input argument is the element to remove.
 */
     
static ALT_INLINE void ALT_ALWAYS_INLINE alt_llist_remove(alt_llist* entry)
{
  entry->next->previous = entry->previous;
 80144b4:	e0bffd17 	ldw	r2,-12(fp)
 80144b8:	10800017 	ldw	r2,0(r2)
 80144bc:	e0fffd17 	ldw	r3,-12(fp)
 80144c0:	18c00117 	ldw	r3,4(r3)
 80144c4:	10c00115 	stw	r3,4(r2)
  entry->previous->next = entry->next;
 80144c8:	e0bffd17 	ldw	r2,-12(fp)
 80144cc:	10800117 	ldw	r2,4(r2)
 80144d0:	e0fffd17 	ldw	r3,-12(fp)
 80144d4:	18c00017 	ldw	r3,0(r3)
 80144d8:	10c00015 	stw	r3,0(r2)
  /* 
   * Set the entry to point to itself, so that any further calls to
   * alt_llist_remove() are harmless.
   */

  entry->previous = entry;
 80144dc:	e0bffd17 	ldw	r2,-12(fp)
 80144e0:	e0fffd17 	ldw	r3,-12(fp)
 80144e4:	10c00115 	stw	r3,4(r2)
  entry->next     = entry;
 80144e8:	e0bffd17 	ldw	r2,-12(fp)
 80144ec:	e0fffd17 	ldw	r3,-12(fp)
 80144f0:	10c00015 	stw	r3,0(r2)
 80144f4:	e0bffb17 	ldw	r2,-20(fp)
 80144f8:	e0bffe15 	stw	r2,-8(fp)
  status &= ~NIOS2_STATUS_PIE_MSK;
  status |= (context & NIOS2_STATUS_PIE_MSK);
  
  NIOS2_WRITE_STATUS (status);
#else
  NIOS2_WRITE_STATUS (context);
 80144fc:	e0bffe17 	ldw	r2,-8(fp)
 8014500:	1001703a 	wrctl	status,r2
  alt_irq_enable_all (irq_context);
}
 8014504:	0001883a 	nop
 8014508:	e037883a 	mov	sp,fp
 801450c:	df000017 	ldw	fp,0(sp)
 8014510:	dec00104 	addi	sp,sp,4
 8014514:	f800283a 	ret

08014518 <alt_tick>:
 * 
 * alt_tick() is expected to run at interrupt level.
 */

void alt_tick (void)
{
 8014518:	defffb04 	addi	sp,sp,-20
 801451c:	dfc00415 	stw	ra,16(sp)
 8014520:	df000315 	stw	fp,12(sp)
 8014524:	df000304 	addi	fp,sp,12
  alt_alarm* next;
  alt_alarm* alarm = (alt_alarm*) alt_alarm_list.next;
 8014528:	d0a03717 	ldw	r2,-32548(gp)
 801452c:	e0bffd15 	stw	r2,-12(fp)

  alt_u32    next_callback;

  /* update the tick counter */

  _alt_nticks++;
 8014530:	d0a73717 	ldw	r2,-25380(gp)
 8014534:	10800044 	addi	r2,r2,1
 8014538:	d0a73715 	stw	r2,-25380(gp)

  /* process the registered callbacks */

  while (alarm != (alt_alarm*) &alt_alarm_list)
 801453c:	00002e06 	br	80145f8 <alt_tick+0xe0>
  {
    next = (alt_alarm*) alarm->llist.next;
 8014540:	e0bffd17 	ldw	r2,-12(fp)
 8014544:	10800017 	ldw	r2,0(r2)
 8014548:	e0bffe15 	stw	r2,-8(fp)
    /* 
     * Upon the tick-counter rolling over it is safe to clear the 
     * roll-over flag; once the flag is cleared this (or subsequnt)
     * tick events are enabled to generate an alarm event. 
     */
    if ((alarm->rollover) && (_alt_nticks == 0))
 801454c:	e0bffd17 	ldw	r2,-12(fp)
 8014550:	10800403 	ldbu	r2,16(r2)
 8014554:	10803fcc 	andi	r2,r2,255
 8014558:	10000426 	beq	r2,zero,801456c <alt_tick+0x54>
 801455c:	d0a73717 	ldw	r2,-25380(gp)
 8014560:	1000021e 	bne	r2,zero,801456c <alt_tick+0x54>
    {
      alarm->rollover = 0;
 8014564:	e0bffd17 	ldw	r2,-12(fp)
 8014568:	10000405 	stb	zero,16(r2)
    }
    
    /* if the alarm period has expired, make the callback */    
    if ((alarm->time <= _alt_nticks) && (alarm->rollover == 0))
 801456c:	e0bffd17 	ldw	r2,-12(fp)
 8014570:	10800217 	ldw	r2,8(r2)
 8014574:	d0e73717 	ldw	r3,-25380(gp)
 8014578:	18801d36 	bltu	r3,r2,80145f0 <alt_tick+0xd8>
 801457c:	e0bffd17 	ldw	r2,-12(fp)
 8014580:	10800403 	ldbu	r2,16(r2)
 8014584:	10803fcc 	andi	r2,r2,255
 8014588:	1000191e 	bne	r2,zero,80145f0 <alt_tick+0xd8>
    {
      next_callback = alarm->callback (alarm->context);
 801458c:	e0bffd17 	ldw	r2,-12(fp)
 8014590:	10800317 	ldw	r2,12(r2)
 8014594:	e0fffd17 	ldw	r3,-12(fp)
 8014598:	18c00517 	ldw	r3,20(r3)
 801459c:	1809883a 	mov	r4,r3
 80145a0:	103ee83a 	callr	r2
 80145a4:	e0bfff15 	stw	r2,-4(fp)

      /* deactivate the alarm if the return value is zero */

      if (next_callback == 0)
 80145a8:	e0bfff17 	ldw	r2,-4(fp)
 80145ac:	1000031e 	bne	r2,zero,80145bc <alt_tick+0xa4>
      {
        alt_alarm_stop (alarm);
 80145b0:	e13ffd17 	ldw	r4,-12(fp)
 80145b4:	801447c0 	call	801447c <alt_alarm_stop>
 80145b8:	00000d06 	br	80145f0 <alt_tick+0xd8>
      }
      else
      {
        alarm->time += next_callback;
 80145bc:	e0bffd17 	ldw	r2,-12(fp)
 80145c0:	10c00217 	ldw	r3,8(r2)
 80145c4:	e0bfff17 	ldw	r2,-4(fp)
 80145c8:	1887883a 	add	r3,r3,r2
 80145cc:	e0bffd17 	ldw	r2,-12(fp)
 80145d0:	10c00215 	stw	r3,8(r2)
        /* 
         * If the desired alarm time causes a roll-over, set the rollover
         * flag. This will prevent the subsequent tick event from causing
         * an alarm too early.
         */
        if(alarm->time < _alt_nticks)
 80145d4:	e0bffd17 	ldw	r2,-12(fp)
 80145d8:	10c00217 	ldw	r3,8(r2)
 80145dc:	d0a73717 	ldw	r2,-25380(gp)
 80145e0:	1880032e 	bgeu	r3,r2,80145f0 <alt_tick+0xd8>
        {
          alarm->rollover = 1;
 80145e4:	e0bffd17 	ldw	r2,-12(fp)
 80145e8:	00c00044 	movi	r3,1
 80145ec:	10c00405 	stb	r3,16(r2)
        }
      }
    }
    alarm = next;
 80145f0:	e0bffe17 	ldw	r2,-8(fp)
 80145f4:	e0bffd15 	stw	r2,-12(fp)

  _alt_nticks++;

  /* process the registered callbacks */

  while (alarm != (alt_alarm*) &alt_alarm_list)
 80145f8:	e0fffd17 	ldw	r3,-12(fp)
 80145fc:	d0a03704 	addi	r2,gp,-32548
 8014600:	18bfcf1e 	bne	r3,r2,8014540 <__alt_data_end+0xf8014540>

  /* 
   * Update the operating system specific timer facilities.
   */

  ALT_OS_TIME_TICK();
 8014604:	0001883a 	nop
}
 8014608:	0001883a 	nop
 801460c:	e037883a 	mov	sp,fp
 8014610:	dfc00117 	ldw	ra,4(sp)
 8014614:	df000017 	ldw	fp,0(sp)
 8014618:	dec00204 	addi	sp,sp,8
 801461c:	f800283a 	ret

08014620 <altera_nios2_gen2_irq_init>:
/*
 * To initialize the internal interrupt controller, just clear the IENABLE
 * register so that all possible IRQs are disabled.
 */
void altera_nios2_gen2_irq_init(void) 
{
 8014620:	deffff04 	addi	sp,sp,-4
 8014624:	df000015 	stw	fp,0(sp)
 8014628:	d839883a 	mov	fp,sp
    NIOS2_WRITE_IENABLE(0);
 801462c:	000170fa 	wrctl	ienable,zero
}
 8014630:	0001883a 	nop
 8014634:	e037883a 	mov	sp,fp
 8014638:	df000017 	ldw	fp,0(sp)
 801463c:	dec00104 	addi	sp,sp,4
 8014640:	f800283a 	ret

08014644 <alt_find_dev>:
 * "name" must be an exact match for the devices registered name for a match to
 * be found.
 */
 
alt_dev* alt_find_dev(const char* name, alt_llist* llist)
{
 8014644:	defffa04 	addi	sp,sp,-24
 8014648:	dfc00515 	stw	ra,20(sp)
 801464c:	df000415 	stw	fp,16(sp)
 8014650:	df000404 	addi	fp,sp,16
 8014654:	e13ffe15 	stw	r4,-8(fp)
 8014658:	e17fff15 	stw	r5,-4(fp)
  alt_dev* next = (alt_dev*) llist->next;
 801465c:	e0bfff17 	ldw	r2,-4(fp)
 8014660:	10800017 	ldw	r2,0(r2)
 8014664:	e0bffc15 	stw	r2,-16(fp)
  alt_32 len;

  len  = strlen(name) + 1;
 8014668:	e13ffe17 	ldw	r4,-8(fp)
 801466c:	800647c0 	call	800647c <strlen>
 8014670:	10800044 	addi	r2,r2,1
 8014674:	e0bffd15 	stw	r2,-12(fp)
  /*
   * Check each list entry in turn, until a match is found, or we reach the
   * end of the list (i.e. next winds up pointing back to the list head).
   */ 

  while (next != (alt_dev*) llist)
 8014678:	00000d06 	br	80146b0 <alt_find_dev+0x6c>
    /* 
     * memcmp() is used here rather than strcmp() in order to reduce the size
     * of the executable.
     */

    if (!memcmp (next->name, name, len))
 801467c:	e0bffc17 	ldw	r2,-16(fp)
 8014680:	10800217 	ldw	r2,8(r2)
 8014684:	e0fffd17 	ldw	r3,-12(fp)
 8014688:	180d883a 	mov	r6,r3
 801468c:	e17ffe17 	ldw	r5,-8(fp)
 8014690:	1009883a 	mov	r4,r2
 8014694:	80149880 	call	8014988 <memcmp>
 8014698:	1000021e 	bne	r2,zero,80146a4 <alt_find_dev+0x60>
    {
      /* match found */

      return next;
 801469c:	e0bffc17 	ldw	r2,-16(fp)
 80146a0:	00000706 	br	80146c0 <alt_find_dev+0x7c>
    }
    next = (alt_dev*) next->llist.next;
 80146a4:	e0bffc17 	ldw	r2,-16(fp)
 80146a8:	10800017 	ldw	r2,0(r2)
 80146ac:	e0bffc15 	stw	r2,-16(fp)
  /*
   * Check each list entry in turn, until a match is found, or we reach the
   * end of the list (i.e. next winds up pointing back to the list head).
   */ 

  while (next != (alt_dev*) llist)
 80146b0:	e0fffc17 	ldw	r3,-16(fp)
 80146b4:	e0bfff17 	ldw	r2,-4(fp)
 80146b8:	18bff01e 	bne	r3,r2,801467c <__alt_data_end+0xf801467c>
    next = (alt_dev*) next->llist.next;
  }
  
  /* No match found */
  
  return NULL;
 80146bc:	0005883a 	mov	r2,zero
}
 80146c0:	e037883a 	mov	sp,fp
 80146c4:	dfc00117 	ldw	ra,4(sp)
 80146c8:	df000017 	ldw	fp,0(sp)
 80146cc:	dec00204 	addi	sp,sp,8
 80146d0:	f800283a 	ret

080146d4 <alt_find_file>:
 * either '/' or '\0' is the prefix of the filename. For example the filename:
 * "/myfilesystem/junk.txt" would match: "/myfilesystem", but not: "/myfile". 
 */
 
alt_dev* alt_find_file (const char* name)
{
 80146d4:	defffb04 	addi	sp,sp,-20
 80146d8:	dfc00415 	stw	ra,16(sp)
 80146dc:	df000315 	stw	fp,12(sp)
 80146e0:	df000304 	addi	fp,sp,12
 80146e4:	e13fff15 	stw	r4,-4(fp)
  alt_dev* next = (alt_dev*) alt_fs_list.next;   
 80146e8:	d0a02f17 	ldw	r2,-32580(gp)
 80146ec:	e0bffd15 	stw	r2,-12(fp)
  /*
   * Check each list entry in turn, until a match is found, or we reach the
   * end of the list (i.e. next winds up pointing back to the list head).
   */ 
 
  while (next != (alt_dev*) &alt_fs_list)
 80146f0:	00003106 	br	80147b8 <alt_find_file+0xe4>
  {
    len = strlen(next->name);
 80146f4:	e0bffd17 	ldw	r2,-12(fp)
 80146f8:	10800217 	ldw	r2,8(r2)
 80146fc:	1009883a 	mov	r4,r2
 8014700:	800647c0 	call	800647c <strlen>
 8014704:	e0bffe15 	stw	r2,-8(fp)
    
    if (next->name[len-1] == '/')
 8014708:	e0bffd17 	ldw	r2,-12(fp)
 801470c:	10c00217 	ldw	r3,8(r2)
 8014710:	e0bffe17 	ldw	r2,-8(fp)
 8014714:	10bfffc4 	addi	r2,r2,-1
 8014718:	1885883a 	add	r2,r3,r2
 801471c:	10800003 	ldbu	r2,0(r2)
 8014720:	10803fcc 	andi	r2,r2,255
 8014724:	1080201c 	xori	r2,r2,128
 8014728:	10bfe004 	addi	r2,r2,-128
 801472c:	10800bd8 	cmpnei	r2,r2,47
 8014730:	1000031e 	bne	r2,zero,8014740 <alt_find_file+0x6c>
    {
      len -= 1;
 8014734:	e0bffe17 	ldw	r2,-8(fp)
 8014738:	10bfffc4 	addi	r2,r2,-1
 801473c:	e0bffe15 	stw	r2,-8(fp)
    }

    if (((name[len] == '/') || (name[len] == '\0')) && 
 8014740:	e0bffe17 	ldw	r2,-8(fp)
 8014744:	e0ffff17 	ldw	r3,-4(fp)
 8014748:	1885883a 	add	r2,r3,r2
 801474c:	10800003 	ldbu	r2,0(r2)
 8014750:	10803fcc 	andi	r2,r2,255
 8014754:	1080201c 	xori	r2,r2,128
 8014758:	10bfe004 	addi	r2,r2,-128
 801475c:	10800be0 	cmpeqi	r2,r2,47
 8014760:	1000081e 	bne	r2,zero,8014784 <alt_find_file+0xb0>
 8014764:	e0bffe17 	ldw	r2,-8(fp)
 8014768:	e0ffff17 	ldw	r3,-4(fp)
 801476c:	1885883a 	add	r2,r3,r2
 8014770:	10800003 	ldbu	r2,0(r2)
 8014774:	10803fcc 	andi	r2,r2,255
 8014778:	1080201c 	xori	r2,r2,128
 801477c:	10bfe004 	addi	r2,r2,-128
 8014780:	10000a1e 	bne	r2,zero,80147ac <alt_find_file+0xd8>
        !memcmp (next->name, name, len))
 8014784:	e0bffd17 	ldw	r2,-12(fp)
 8014788:	10800217 	ldw	r2,8(r2)
 801478c:	e0fffe17 	ldw	r3,-8(fp)
 8014790:	180d883a 	mov	r6,r3
 8014794:	e17fff17 	ldw	r5,-4(fp)
 8014798:	1009883a 	mov	r4,r2
 801479c:	80149880 	call	8014988 <memcmp>
    if (next->name[len-1] == '/')
    {
      len -= 1;
    }

    if (((name[len] == '/') || (name[len] == '\0')) && 
 80147a0:	1000021e 	bne	r2,zero,80147ac <alt_find_file+0xd8>
        !memcmp (next->name, name, len))
    {
      /* match found */

      return next;
 80147a4:	e0bffd17 	ldw	r2,-12(fp)
 80147a8:	00000706 	br	80147c8 <alt_find_file+0xf4>
    }
    next = (alt_dev*) next->llist.next;
 80147ac:	e0bffd17 	ldw	r2,-12(fp)
 80147b0:	10800017 	ldw	r2,0(r2)
 80147b4:	e0bffd15 	stw	r2,-12(fp)
  /*
   * Check each list entry in turn, until a match is found, or we reach the
   * end of the list (i.e. next winds up pointing back to the list head).
   */ 
 
  while (next != (alt_dev*) &alt_fs_list)
 80147b8:	e0fffd17 	ldw	r3,-12(fp)
 80147bc:	d0a02f04 	addi	r2,gp,-32580
 80147c0:	18bfcc1e 	bne	r3,r2,80146f4 <__alt_data_end+0xf80146f4>
    next = (alt_dev*) next->llist.next;
  }
  
  /* No match found */
  
  return NULL;     
 80147c4:	0005883a 	mov	r2,zero
}
 80147c8:	e037883a 	mov	sp,fp
 80147cc:	dfc00117 	ldw	ra,4(sp)
 80147d0:	df000017 	ldw	fp,0(sp)
 80147d4:	dec00204 	addi	sp,sp,8
 80147d8:	f800283a 	ret

080147dc <alt_get_fd>:
 * the offset of the file descriptor within the file descriptor array). A
 * negative value indicates failure.
 */

int alt_get_fd (alt_dev* dev)
{
 80147dc:	defffa04 	addi	sp,sp,-24
 80147e0:	dfc00515 	stw	ra,20(sp)
 80147e4:	df000415 	stw	fp,16(sp)
 80147e8:	dc000315 	stw	r16,12(sp)
 80147ec:	df000404 	addi	fp,sp,16
 80147f0:	e13ffe15 	stw	r4,-8(fp)
  alt_32 i;
  int rc = -EMFILE;
 80147f4:	00bffa04 	movi	r2,-24
 80147f8:	e0bffd15 	stw	r2,-12(fp)
   * indicates the highest file descriptor ever allocated. This is used to
   * improve efficency when searching the file descriptor list, and 
   * therefore reduce contention on the alt_fd_list_lock semaphore. 
   */

  for (i = 0; i < ALT_MAX_FD; i++)
 80147fc:	e03ffc15 	stw	zero,-16(fp)
 8014800:	00001d06 	br	8014878 <alt_get_fd+0x9c>
  {
    if (!alt_fd_list[i].dev)
 8014804:	04020074 	movhi	r16,2049
 8014808:	84166604 	addi	r16,r16,22936
 801480c:	e0bffc17 	ldw	r2,-16(fp)
 8014810:	01400304 	movi	r5,12
 8014814:	1009883a 	mov	r4,r2
 8014818:	80054680 	call	8005468 <__mulsi3>
 801481c:	8085883a 	add	r2,r16,r2
 8014820:	10800017 	ldw	r2,0(r2)
 8014824:	1000111e 	bne	r2,zero,801486c <alt_get_fd+0x90>
    {
      alt_fd_list[i].dev = dev;
 8014828:	04020074 	movhi	r16,2049
 801482c:	84166604 	addi	r16,r16,22936
 8014830:	e0bffc17 	ldw	r2,-16(fp)
 8014834:	01400304 	movi	r5,12
 8014838:	1009883a 	mov	r4,r2
 801483c:	80054680 	call	8005468 <__mulsi3>
 8014840:	8085883a 	add	r2,r16,r2
 8014844:	e0fffe17 	ldw	r3,-8(fp)
 8014848:	10c00015 	stw	r3,0(r2)
      if (i > alt_max_fd)
 801484c:	d0e03317 	ldw	r3,-32564(gp)
 8014850:	e0bffc17 	ldw	r2,-16(fp)
 8014854:	1880020e 	bge	r3,r2,8014860 <alt_get_fd+0x84>
      {
        alt_max_fd = i;
 8014858:	e0bffc17 	ldw	r2,-16(fp)
 801485c:	d0a03315 	stw	r2,-32564(gp)
      }
      rc = i;
 8014860:	e0bffc17 	ldw	r2,-16(fp)
 8014864:	e0bffd15 	stw	r2,-12(fp)
      goto alt_get_fd_exit;
 8014868:	00000606 	br	8014884 <alt_get_fd+0xa8>
   * indicates the highest file descriptor ever allocated. This is used to
   * improve efficency when searching the file descriptor list, and 
   * therefore reduce contention on the alt_fd_list_lock semaphore. 
   */

  for (i = 0; i < ALT_MAX_FD; i++)
 801486c:	e0bffc17 	ldw	r2,-16(fp)
 8014870:	10800044 	addi	r2,r2,1
 8014874:	e0bffc15 	stw	r2,-16(fp)
 8014878:	e0bffc17 	ldw	r2,-16(fp)
 801487c:	10800810 	cmplti	r2,r2,32
 8014880:	103fe01e 	bne	r2,zero,8014804 <__alt_data_end+0xf8014804>
   * file descriptor pool.
   */

  ALT_SEM_POST(alt_fd_list_lock);

  return rc;
 8014884:	e0bffd17 	ldw	r2,-12(fp)
}
 8014888:	e6ffff04 	addi	sp,fp,-4
 801488c:	dfc00217 	ldw	ra,8(sp)
 8014890:	df000117 	ldw	fp,4(sp)
 8014894:	dc000017 	ldw	r16,0(sp)
 8014898:	dec00304 	addi	sp,sp,12
 801489c:	f800283a 	ret

080148a0 <alt_exception_cause_generated_bad_addr>:
 * Return: 1: BADADDR (bad_addr argument to handler) is valid
 *         0: BADADDR is not valid
 */
int 
alt_exception_cause_generated_bad_addr(alt_exception_cause cause)
{
 80148a0:	defffe04 	addi	sp,sp,-8
 80148a4:	df000115 	stw	fp,4(sp)
 80148a8:	df000104 	addi	fp,sp,4
 80148ac:	e13fff15 	stw	r4,-4(fp)
  switch (cause) {
 80148b0:	e0bfff17 	ldw	r2,-4(fp)
 80148b4:	10bffe84 	addi	r2,r2,-6
 80148b8:	10c00428 	cmpgeui	r3,r2,16
 80148bc:	18001a1e 	bne	r3,zero,8014928 <alt_exception_cause_generated_bad_addr+0x88>
 80148c0:	100690ba 	slli	r3,r2,2
 80148c4:	00820074 	movhi	r2,2049
 80148c8:	10923604 	addi	r2,r2,18648
 80148cc:	1885883a 	add	r2,r3,r2
 80148d0:	10800017 	ldw	r2,0(r2)
 80148d4:	1000683a 	jmp	r2
 80148d8:	08014918 	cmpnei	zero,at,1316
 80148dc:	08014918 	cmpnei	zero,at,1316
 80148e0:	08014928 	cmpgeui	zero,at,1316
 80148e4:	08014928 	cmpgeui	zero,at,1316
 80148e8:	08014928 	cmpgeui	zero,at,1316
 80148ec:	08014918 	cmpnei	zero,at,1316
 80148f0:	08014920 	cmpeqi	zero,at,1316
 80148f4:	08014928 	cmpgeui	zero,at,1316
 80148f8:	08014918 	cmpnei	zero,at,1316
 80148fc:	08014918 	cmpnei	zero,at,1316
 8014900:	08014928 	cmpgeui	zero,at,1316
 8014904:	08014918 	cmpnei	zero,at,1316
 8014908:	08014920 	cmpeqi	zero,at,1316
 801490c:	08014928 	cmpgeui	zero,at,1316
 8014910:	08014928 	cmpgeui	zero,at,1316
 8014914:	08014918 	cmpnei	zero,at,1316
  case NIOS2_EXCEPTION_MISALIGNED_TARGET_PC:
  case NIOS2_EXCEPTION_TLB_READ_PERM_VIOLATION:
  case NIOS2_EXCEPTION_TLB_WRITE_PERM_VIOLATION:
  case NIOS2_EXCEPTION_MPU_DATA_REGION_VIOLATION:
  case NIOS2_EXCEPTION_ECC_DATA_ERR:
    return 1;
 8014918:	00800044 	movi	r2,1
 801491c:	00000306 	br	801492c <alt_exception_cause_generated_bad_addr+0x8c>

  case NIOS2_EXCEPTION_TLB_MISS:
  case NIOS2_EXCEPTION_ECC_TLB_ERR:
    return 0;
 8014920:	0005883a 	mov	r2,zero
 8014924:	00000106 	br	801492c <alt_exception_cause_generated_bad_addr+0x8c>

  default:
    return 0;
 8014928:	0005883a 	mov	r2,zero
  }
}
 801492c:	e037883a 	mov	sp,fp
 8014930:	df000017 	ldw	fp,0(sp)
 8014934:	dec00104 	addi	sp,sp,4
 8014938:	f800283a 	ret

0801493c <atexit>:
 801493c:	200b883a 	mov	r5,r4
 8014940:	000f883a 	mov	r7,zero
 8014944:	000d883a 	mov	r6,zero
 8014948:	0009883a 	mov	r4,zero
 801494c:	8014a041 	jmpi	8014a04 <__register_exitproc>

08014950 <exit>:
 8014950:	defffe04 	addi	sp,sp,-8
 8014954:	000b883a 	mov	r5,zero
 8014958:	dc000015 	stw	r16,0(sp)
 801495c:	dfc00115 	stw	ra,4(sp)
 8014960:	2021883a 	mov	r16,r4
 8014964:	8014b1c0 	call	8014b1c <__call_exitprocs>
 8014968:	00820074 	movhi	r2,2049
 801496c:	109b0704 	addi	r2,r2,27676
 8014970:	11000017 	ldw	r4,0(r2)
 8014974:	20800f17 	ldw	r2,60(r4)
 8014978:	10000126 	beq	r2,zero,8014980 <exit+0x30>
 801497c:	103ee83a 	callr	r2
 8014980:	8009883a 	mov	r4,r16
 8014984:	8014c9c0 	call	8014c9c <_exit>

08014988 <memcmp>:
 8014988:	01c000c4 	movi	r7,3
 801498c:	3980192e 	bgeu	r7,r6,80149f4 <memcmp+0x6c>
 8014990:	2144b03a 	or	r2,r4,r5
 8014994:	11c4703a 	and	r2,r2,r7
 8014998:	10000f26 	beq	r2,zero,80149d8 <memcmp+0x50>
 801499c:	20800003 	ldbu	r2,0(r4)
 80149a0:	28c00003 	ldbu	r3,0(r5)
 80149a4:	10c0151e 	bne	r2,r3,80149fc <memcmp+0x74>
 80149a8:	31bfff84 	addi	r6,r6,-2
 80149ac:	01ffffc4 	movi	r7,-1
 80149b0:	00000406 	br	80149c4 <memcmp+0x3c>
 80149b4:	20800003 	ldbu	r2,0(r4)
 80149b8:	28c00003 	ldbu	r3,0(r5)
 80149bc:	31bfffc4 	addi	r6,r6,-1
 80149c0:	10c00e1e 	bne	r2,r3,80149fc <memcmp+0x74>
 80149c4:	21000044 	addi	r4,r4,1
 80149c8:	29400044 	addi	r5,r5,1
 80149cc:	31fff91e 	bne	r6,r7,80149b4 <__alt_data_end+0xf80149b4>
 80149d0:	0005883a 	mov	r2,zero
 80149d4:	f800283a 	ret
 80149d8:	20c00017 	ldw	r3,0(r4)
 80149dc:	28800017 	ldw	r2,0(r5)
 80149e0:	18bfee1e 	bne	r3,r2,801499c <__alt_data_end+0xf801499c>
 80149e4:	31bfff04 	addi	r6,r6,-4
 80149e8:	21000104 	addi	r4,r4,4
 80149ec:	29400104 	addi	r5,r5,4
 80149f0:	39bff936 	bltu	r7,r6,80149d8 <__alt_data_end+0xf80149d8>
 80149f4:	303fe91e 	bne	r6,zero,801499c <__alt_data_end+0xf801499c>
 80149f8:	003ff506 	br	80149d0 <__alt_data_end+0xf80149d0>
 80149fc:	10c5c83a 	sub	r2,r2,r3
 8014a00:	f800283a 	ret

08014a04 <__register_exitproc>:
 8014a04:	defffa04 	addi	sp,sp,-24
 8014a08:	dc000315 	stw	r16,12(sp)
 8014a0c:	04020074 	movhi	r16,2049
 8014a10:	841b0704 	addi	r16,r16,27676
 8014a14:	80c00017 	ldw	r3,0(r16)
 8014a18:	dc400415 	stw	r17,16(sp)
 8014a1c:	dfc00515 	stw	ra,20(sp)
 8014a20:	18805217 	ldw	r2,328(r3)
 8014a24:	2023883a 	mov	r17,r4
 8014a28:	10003726 	beq	r2,zero,8014b08 <__register_exitproc+0x104>
 8014a2c:	10c00117 	ldw	r3,4(r2)
 8014a30:	010007c4 	movi	r4,31
 8014a34:	20c00e16 	blt	r4,r3,8014a70 <__register_exitproc+0x6c>
 8014a38:	1a000044 	addi	r8,r3,1
 8014a3c:	8800221e 	bne	r17,zero,8014ac8 <__register_exitproc+0xc4>
 8014a40:	18c00084 	addi	r3,r3,2
 8014a44:	18c7883a 	add	r3,r3,r3
 8014a48:	18c7883a 	add	r3,r3,r3
 8014a4c:	12000115 	stw	r8,4(r2)
 8014a50:	10c7883a 	add	r3,r2,r3
 8014a54:	19400015 	stw	r5,0(r3)
 8014a58:	0005883a 	mov	r2,zero
 8014a5c:	dfc00517 	ldw	ra,20(sp)
 8014a60:	dc400417 	ldw	r17,16(sp)
 8014a64:	dc000317 	ldw	r16,12(sp)
 8014a68:	dec00604 	addi	sp,sp,24
 8014a6c:	f800283a 	ret
 8014a70:	00800034 	movhi	r2,0
 8014a74:	10800004 	addi	r2,r2,0
 8014a78:	10002626 	beq	r2,zero,8014b14 <__register_exitproc+0x110>
 8014a7c:	01006404 	movi	r4,400
 8014a80:	d9400015 	stw	r5,0(sp)
 8014a84:	d9800115 	stw	r6,4(sp)
 8014a88:	d9c00215 	stw	r7,8(sp)
 8014a8c:	00000000 	call	0 <__alt_mem_SDRAM-0x8000000>
 8014a90:	d9400017 	ldw	r5,0(sp)
 8014a94:	d9800117 	ldw	r6,4(sp)
 8014a98:	d9c00217 	ldw	r7,8(sp)
 8014a9c:	10001d26 	beq	r2,zero,8014b14 <__register_exitproc+0x110>
 8014aa0:	81000017 	ldw	r4,0(r16)
 8014aa4:	10000115 	stw	zero,4(r2)
 8014aa8:	02000044 	movi	r8,1
 8014aac:	22405217 	ldw	r9,328(r4)
 8014ab0:	0007883a 	mov	r3,zero
 8014ab4:	12400015 	stw	r9,0(r2)
 8014ab8:	20805215 	stw	r2,328(r4)
 8014abc:	10006215 	stw	zero,392(r2)
 8014ac0:	10006315 	stw	zero,396(r2)
 8014ac4:	883fde26 	beq	r17,zero,8014a40 <__alt_data_end+0xf8014a40>
 8014ac8:	18c9883a 	add	r4,r3,r3
 8014acc:	2109883a 	add	r4,r4,r4
 8014ad0:	1109883a 	add	r4,r2,r4
 8014ad4:	21802215 	stw	r6,136(r4)
 8014ad8:	01800044 	movi	r6,1
 8014adc:	12406217 	ldw	r9,392(r2)
 8014ae0:	30cc983a 	sll	r6,r6,r3
 8014ae4:	4992b03a 	or	r9,r9,r6
 8014ae8:	12406215 	stw	r9,392(r2)
 8014aec:	21c04215 	stw	r7,264(r4)
 8014af0:	01000084 	movi	r4,2
 8014af4:	893fd21e 	bne	r17,r4,8014a40 <__alt_data_end+0xf8014a40>
 8014af8:	11006317 	ldw	r4,396(r2)
 8014afc:	218cb03a 	or	r6,r4,r6
 8014b00:	11806315 	stw	r6,396(r2)
 8014b04:	003fce06 	br	8014a40 <__alt_data_end+0xf8014a40>
 8014b08:	18805304 	addi	r2,r3,332
 8014b0c:	18805215 	stw	r2,328(r3)
 8014b10:	003fc606 	br	8014a2c <__alt_data_end+0xf8014a2c>
 8014b14:	00bfffc4 	movi	r2,-1
 8014b18:	003fd006 	br	8014a5c <__alt_data_end+0xf8014a5c>

08014b1c <__call_exitprocs>:
 8014b1c:	defff504 	addi	sp,sp,-44
 8014b20:	df000915 	stw	fp,36(sp)
 8014b24:	dd400615 	stw	r21,24(sp)
 8014b28:	dc800315 	stw	r18,12(sp)
 8014b2c:	dfc00a15 	stw	ra,40(sp)
 8014b30:	ddc00815 	stw	r23,32(sp)
 8014b34:	dd800715 	stw	r22,28(sp)
 8014b38:	dd000515 	stw	r20,20(sp)
 8014b3c:	dcc00415 	stw	r19,16(sp)
 8014b40:	dc400215 	stw	r17,8(sp)
 8014b44:	dc000115 	stw	r16,4(sp)
 8014b48:	d9000015 	stw	r4,0(sp)
 8014b4c:	2839883a 	mov	fp,r5
 8014b50:	04800044 	movi	r18,1
 8014b54:	057fffc4 	movi	r21,-1
 8014b58:	00820074 	movhi	r2,2049
 8014b5c:	109b0704 	addi	r2,r2,27676
 8014b60:	12000017 	ldw	r8,0(r2)
 8014b64:	45005217 	ldw	r20,328(r8)
 8014b68:	44c05204 	addi	r19,r8,328
 8014b6c:	a0001c26 	beq	r20,zero,8014be0 <__call_exitprocs+0xc4>
 8014b70:	a0800117 	ldw	r2,4(r20)
 8014b74:	15ffffc4 	addi	r23,r2,-1
 8014b78:	b8000d16 	blt	r23,zero,8014bb0 <__call_exitprocs+0x94>
 8014b7c:	14000044 	addi	r16,r2,1
 8014b80:	8421883a 	add	r16,r16,r16
 8014b84:	8421883a 	add	r16,r16,r16
 8014b88:	84402004 	addi	r17,r16,128
 8014b8c:	a463883a 	add	r17,r20,r17
 8014b90:	a421883a 	add	r16,r20,r16
 8014b94:	e0001e26 	beq	fp,zero,8014c10 <__call_exitprocs+0xf4>
 8014b98:	80804017 	ldw	r2,256(r16)
 8014b9c:	e0801c26 	beq	fp,r2,8014c10 <__call_exitprocs+0xf4>
 8014ba0:	bdffffc4 	addi	r23,r23,-1
 8014ba4:	843fff04 	addi	r16,r16,-4
 8014ba8:	8c7fff04 	addi	r17,r17,-4
 8014bac:	bd7ff91e 	bne	r23,r21,8014b94 <__alt_data_end+0xf8014b94>
 8014bb0:	00800034 	movhi	r2,0
 8014bb4:	10800004 	addi	r2,r2,0
 8014bb8:	10000926 	beq	r2,zero,8014be0 <__call_exitprocs+0xc4>
 8014bbc:	a0800117 	ldw	r2,4(r20)
 8014bc0:	1000301e 	bne	r2,zero,8014c84 <__call_exitprocs+0x168>
 8014bc4:	a0800017 	ldw	r2,0(r20)
 8014bc8:	10003226 	beq	r2,zero,8014c94 <__call_exitprocs+0x178>
 8014bcc:	a009883a 	mov	r4,r20
 8014bd0:	98800015 	stw	r2,0(r19)
 8014bd4:	00000000 	call	0 <__alt_mem_SDRAM-0x8000000>
 8014bd8:	9d000017 	ldw	r20,0(r19)
 8014bdc:	a03fe41e 	bne	r20,zero,8014b70 <__alt_data_end+0xf8014b70>
 8014be0:	dfc00a17 	ldw	ra,40(sp)
 8014be4:	df000917 	ldw	fp,36(sp)
 8014be8:	ddc00817 	ldw	r23,32(sp)
 8014bec:	dd800717 	ldw	r22,28(sp)
 8014bf0:	dd400617 	ldw	r21,24(sp)
 8014bf4:	dd000517 	ldw	r20,20(sp)
 8014bf8:	dcc00417 	ldw	r19,16(sp)
 8014bfc:	dc800317 	ldw	r18,12(sp)
 8014c00:	dc400217 	ldw	r17,8(sp)
 8014c04:	dc000117 	ldw	r16,4(sp)
 8014c08:	dec00b04 	addi	sp,sp,44
 8014c0c:	f800283a 	ret
 8014c10:	a0800117 	ldw	r2,4(r20)
 8014c14:	80c00017 	ldw	r3,0(r16)
 8014c18:	10bfffc4 	addi	r2,r2,-1
 8014c1c:	15c01426 	beq	r2,r23,8014c70 <__call_exitprocs+0x154>
 8014c20:	80000015 	stw	zero,0(r16)
 8014c24:	183fde26 	beq	r3,zero,8014ba0 <__alt_data_end+0xf8014ba0>
 8014c28:	95c8983a 	sll	r4,r18,r23
 8014c2c:	a0806217 	ldw	r2,392(r20)
 8014c30:	a5800117 	ldw	r22,4(r20)
 8014c34:	2084703a 	and	r2,r4,r2
 8014c38:	10000b26 	beq	r2,zero,8014c68 <__call_exitprocs+0x14c>
 8014c3c:	a0806317 	ldw	r2,396(r20)
 8014c40:	2088703a 	and	r4,r4,r2
 8014c44:	20000c1e 	bne	r4,zero,8014c78 <__call_exitprocs+0x15c>
 8014c48:	89400017 	ldw	r5,0(r17)
 8014c4c:	d9000017 	ldw	r4,0(sp)
 8014c50:	183ee83a 	callr	r3
 8014c54:	a0800117 	ldw	r2,4(r20)
 8014c58:	15bfbf1e 	bne	r2,r22,8014b58 <__alt_data_end+0xf8014b58>
 8014c5c:	98800017 	ldw	r2,0(r19)
 8014c60:	153fcf26 	beq	r2,r20,8014ba0 <__alt_data_end+0xf8014ba0>
 8014c64:	003fbc06 	br	8014b58 <__alt_data_end+0xf8014b58>
 8014c68:	183ee83a 	callr	r3
 8014c6c:	003ff906 	br	8014c54 <__alt_data_end+0xf8014c54>
 8014c70:	a5c00115 	stw	r23,4(r20)
 8014c74:	003feb06 	br	8014c24 <__alt_data_end+0xf8014c24>
 8014c78:	89000017 	ldw	r4,0(r17)
 8014c7c:	183ee83a 	callr	r3
 8014c80:	003ff406 	br	8014c54 <__alt_data_end+0xf8014c54>
 8014c84:	a0800017 	ldw	r2,0(r20)
 8014c88:	a027883a 	mov	r19,r20
 8014c8c:	1029883a 	mov	r20,r2
 8014c90:	003fb606 	br	8014b6c <__alt_data_end+0xf8014b6c>
 8014c94:	0005883a 	mov	r2,zero
 8014c98:	003ffb06 	br	8014c88 <__alt_data_end+0xf8014c88>

08014c9c <_exit>:
 *
 * ALT_EXIT is mapped onto the _exit() system call in alt_syscall.h
 */

void ALT_EXIT (int exit_code)
{
 8014c9c:	defffd04 	addi	sp,sp,-12
 8014ca0:	df000215 	stw	fp,8(sp)
 8014ca4:	df000204 	addi	fp,sp,8
 8014ca8:	e13fff15 	stw	r4,-4(fp)
  ALT_LOG_PRINT_BOOT("[alt_exit.c] Entering _exit() function.\r\n");
  ALT_LOG_PRINT_BOOT("[alt_exit.c] Exit code from main was %d.\r\n",exit_code);
  /* Stop all other threads */

  ALT_LOG_PRINT_BOOT("[alt_exit.c] Calling ALT_OS_STOP().\r\n");
  ALT_OS_STOP();
 8014cac:	0001883a 	nop
 8014cb0:	e0bfff17 	ldw	r2,-4(fp)
 8014cb4:	e0bffe15 	stw	r2,-8(fp)
/*
 * Routine called on exit.
 */
static ALT_INLINE ALT_ALWAYS_INLINE void alt_sim_halt(int exit_code)
{
  register int r2 asm ("r2") = exit_code;
 8014cb8:	e0bffe17 	ldw	r2,-8(fp)
  __asm__ volatile ("\n0:\n\taddi %0,%0, -1\n\tbgt %0,zero,0b" : : "r" (ALT_CPU_FREQ/100) ); /* Delay for >30ms */

  __asm__ volatile ("break 2" : : "r"(r2), "r"(r3) ALT_GMON_DATA );

#else /* !DEBUG_STUB */
  if (r2) {
 8014cbc:	10000226 	beq	r2,zero,8014cc8 <_exit+0x2c>
    ALT_SIM_FAIL();
 8014cc0:	002af070 	cmpltui	zero,zero,43969
 8014cc4:	00000106 	br	8014ccc <_exit+0x30>
  } else {
    ALT_SIM_PASS();
 8014cc8:	002af0b0 	cmpltui	zero,zero,43970
  ALT_SIM_HALT(exit_code);

  /* spin forever, since there's no where to go back to */

  ALT_LOG_PRINT_BOOT("[alt_exit.c] Spinning forever.\r\n");
  while (1);
 8014ccc:	003fff06 	br	8014ccc <__alt_data_end+0xf8014ccc>
