
final.elf:     file format elf32-littlenios2
final.elf
architecture: nios2:r1, flags 0x00000112:
EXEC_P, HAS_SYMS, D_PAGED
start address 0x08000230

Program Header:
    LOAD off    0x00001000 vaddr 0x08000000 paddr 0x08000000 align 2**12
         filesz 0x00000020 memsz 0x00000020 flags r-x
    LOAD off    0x00001020 vaddr 0x08000020 paddr 0x08000020 align 2**12
         filesz 0x000150ac memsz 0x000150ac flags r-x
    LOAD off    0x000160cc vaddr 0x080150cc paddr 0x08016c5c align 2**12
         filesz 0x00001b90 memsz 0x00001b90 flags rw-
    LOAD off    0x000187ec vaddr 0x080187ec paddr 0x080187ec align 2**12
         filesz 0x00000000 memsz 0x00000198 flags rw-

Sections:
Idx Name          Size      VMA       LMA       File off  Algn
  0 .entry        00000020  08000000  08000000  00001000  2**5
                  CONTENTS, ALLOC, LOAD, READONLY, CODE
  1 .exceptions   00000210  08000020  08000020  00001020  2**2
                  CONTENTS, ALLOC, LOAD, READONLY, CODE
  2 .text         00014aa0  08000230  08000230  00001230  2**2
                  CONTENTS, ALLOC, LOAD, READONLY, CODE
  3 .rodata       000003fc  08014cd0  08014cd0  00015cd0  2**2
                  CONTENTS, ALLOC, LOAD, READONLY, DATA
  4 .rwdata       00001b90  080150cc  08016c5c  000160cc  2**2
                  CONTENTS, ALLOC, LOAD, DATA, SMALL_DATA
  5 .bss          00000198  080187ec  080187ec  000187ec  2**2
                  ALLOC, SMALL_DATA
  6 .SDRAM        00000000  08018984  08018984  00017c5c  2**0
                  CONTENTS
  7 .comment      00000023  00000000  00000000  00017c5c  2**0
                  CONTENTS, READONLY
  8 .debug_aranges 00001018  00000000  00000000  00017c80  2**3
                  CONTENTS, READONLY, DEBUGGING
  9 .debug_info   000263a9  00000000  00000000  00018c98  2**0
                  CONTENTS, READONLY, DEBUGGING
 10 .debug_abbrev 00009bd7  00000000  00000000  0003f041  2**0
                  CONTENTS, READONLY, DEBUGGING
 11 .debug_line   0000c80d  00000000  00000000  00048c18  2**0
                  CONTENTS, READONLY, DEBUGGING
 12 .debug_frame  00002910  00000000  00000000  00055428  2**2
                  CONTENTS, READONLY, DEBUGGING
 13 .debug_str    000041a5  00000000  00000000  00057d38  2**0
                  CONTENTS, READONLY, DEBUGGING
 14 .debug_loc    000178cc  00000000  00000000  0005bedd  2**0
                  CONTENTS, READONLY, DEBUGGING
 15 .debug_alt_sim_info 00000040  00000000  00000000  000737ac  2**2
                  CONTENTS, READONLY, DEBUGGING
 16 .debug_ranges 000018f0  00000000  00000000  000737f0  2**3
                  CONTENTS, READONLY, DEBUGGING
 17 .thread_model 00000003  00000000  00000000  00078e6a  2**0
                  CONTENTS, READONLY
 18 .cpu          0000000c  00000000  00000000  00078e6d  2**0
                  CONTENTS, READONLY
 19 .qsys         00000001  00000000  00000000  00078e79  2**0
                  CONTENTS, READONLY
 20 .simulation_enabled 00000001  00000000  00000000  00078e7a  2**0
                  CONTENTS, READONLY
 21 .sysid_hash   00000004  00000000  00000000  00078e7b  2**0
                  CONTENTS, READONLY
 22 .sysid_base   00000004  00000000  00000000  00078e7f  2**0
                  CONTENTS, READONLY
 23 .sysid_time   00000004  00000000  00000000  00078e83  2**0
                  CONTENTS, READONLY
 24 .stderr_dev   0000000b  00000000  00000000  00078e87  2**0
                  CONTENTS, READONLY
 25 .stdin_dev    0000000b  00000000  00000000  00078e92  2**0
                  CONTENTS, READONLY
 26 .stdout_dev   0000000b  00000000  00000000  00078e9d  2**0
                  CONTENTS, READONLY
 27 .sopc_system_name 00000009  00000000  00000000  00078ea8  2**0
                  CONTENTS, READONLY
 28 .quartus_project_dir 00000033  00000000  00000000  00078eb1  2**0
                  CONTENTS, READONLY
 29 .jdi          0000535a  00000000  00000000  00078ee4  2**0
                  CONTENTS, READONLY
 30 .sopcinfo     001658e1  00000000  00000000  0007e23e  2**0
                  CONTENTS, READONLY
SYMBOL TABLE:
08000000 l    d  .entry	00000000 .entry
08000020 l    d  .exceptions	00000000 .exceptions
08000230 l    d  .text	00000000 .text
08014cd0 l    d  .rodata	00000000 .rodata
080150cc l    d  .rwdata	00000000 .rwdata
080187ec l    d  .bss	00000000 .bss
08018984 l    d  .SDRAM	00000000 .SDRAM
00000000 l    d  .comment	00000000 .comment
00000000 l    d  .debug_aranges	00000000 .debug_aranges
00000000 l    d  .debug_info	00000000 .debug_info
00000000 l    d  .debug_abbrev	00000000 .debug_abbrev
00000000 l    d  .debug_line	00000000 .debug_line
00000000 l    d  .debug_frame	00000000 .debug_frame
00000000 l    d  .debug_str	00000000 .debug_str
00000000 l    d  .debug_loc	00000000 .debug_loc
00000000 l    d  .debug_alt_sim_info	00000000 .debug_alt_sim_info
00000000 l    d  .debug_ranges	00000000 .debug_ranges
00000000 l    df *ABS*	00000000 ../final_bsp//obj/HAL/src/crt0.o
08000268 l       .text	00000000 alt_after_alt_main
00000000 l    df *ABS*	00000000 alt_irq_handler.c
00000000 l    df *ABS*	00000000 alt_instruction_exception_entry.c
00000000 l    df *ABS*	00000000 bullet.c
00000000 l    df *ABS*	00000000 choose_ship.c
00000000 l    df *ABS*	00000000 io_handler.c
00000000 l    df *ABS*	00000000 main.c
00000000 l    df *ABS*	00000000 ship_logic.c
00000000 l    df *ABS*	00000000 torpedo.c
00000000 l    df *ABS*	00000000 usb.c
00000000 l    df *ABS*	00000000 usb_main.c
08018804 l     O .bss	00000002 ctl_reg
08018806 l     O .bss	00000002 no_device
00000000 l    df *ABS*	00000000 lib2-mul.c
00000000 l    df *ABS*	00000000 divdf3.c
00000000 l    df *ABS*	00000000 ledf2.c
00000000 l    df *ABS*	00000000 floatsidf.c
00000000 l    df *ABS*	00000000 floatunsidf.c
00000000 l    df *ABS*	00000000 libgcc2.c
00000000 l    df *ABS*	00000000 lib2-divmod.c
00000000 l    df *ABS*	00000000 libgcc2.c
00000000 l    df *ABS*	00000000 clock.c
00000000 l    df *ABS*	00000000 impure.c
080150cc l     O .rwdata	00000424 impure_data
00000000 l    df *ABS*	00000000 printf.c
00000000 l    df *ABS*	00000000 puts.c
00000000 l    df *ABS*	00000000 strlen.c
00000000 l    df *ABS*	00000000 timesr.c
00000000 l    df *ABS*	00000000 vfprintf.c
08014f16 l     O .rodata	00000010 zeroes.4404
08008814 l     F .text	000000bc __sbprintf
08014f26 l     O .rodata	00000010 blanks.4403
00000000 l    df *ABS*	00000000 wsetup.c
00000000 l    df *ABS*	00000000 dtoa.c
08008a24 l     F .text	00000228 quorem
00000000 l    df *ABS*	00000000 fflush.c
00000000 l    df *ABS*	00000000 findfp.c
0800a57c l     F .text	00000008 __fp_unlock
0800a590 l     F .text	0000019c __sinit.part.1
0800a72c l     F .text	00000008 __fp_lock
00000000 l    df *ABS*	00000000 mallocr.c
00000000 l    df *ABS*	00000000 fvwrite.c
00000000 l    df *ABS*	00000000 fwalk.c
00000000 l    df *ABS*	00000000 locale.c
08015510 l     O .rwdata	00000020 lc_ctype_charset
080154f0 l     O .rwdata	00000020 lc_message_charset
08015530 l     O .rwdata	00000038 lconv
00000000 l    df *ABS*	00000000 makebuf.c
00000000 l    df *ABS*	00000000 mallocr.c
00000000 l    df *ABS*	00000000 memchr.c
00000000 l    df *ABS*	00000000 memcpy.c
00000000 l    df *ABS*	00000000 memmove.c
00000000 l    df *ABS*	00000000 memset.c
00000000 l    df *ABS*	00000000 mprec.c
08014f54 l     O .rodata	0000000c p05.2768
00000000 l    df *ABS*	00000000 mallocr.c
00000000 l    df *ABS*	00000000 s_fpclassify.c
00000000 l    df *ABS*	00000000 sbrkr.c
00000000 l    df *ABS*	00000000 stdio.c
00000000 l    df *ABS*	00000000 strcmp.c
00000000 l    df *ABS*	00000000 vfprintf.c
0800dc00 l     F .text	000000fc __sprint_r.part.0
08015078 l     O .rodata	00000010 zeroes.4349
0800f23c l     F .text	000000bc __sbprintf
08015088 l     O .rodata	00000010 blanks.4348
00000000 l    df *ABS*	00000000 writer.c
00000000 l    df *ABS*	00000000 closer.c
00000000 l    df *ABS*	00000000 mallocr.c
00000000 l    df *ABS*	00000000 fclose.c
00000000 l    df *ABS*	00000000 fputwc.c
00000000 l    df *ABS*	00000000 fstatr.c
00000000 l    df *ABS*	00000000 int_errno.c
00000000 l    df *ABS*	00000000 isattyr.c
00000000 l    df *ABS*	00000000 lseekr.c
00000000 l    df *ABS*	00000000 readr.c
00000000 l    df *ABS*	00000000 wbuf.c
00000000 l    df *ABS*	00000000 wcrtomb.c
00000000 l    df *ABS*	00000000 wctomb_r.c
00000000 l    df *ABS*	00000000 libgcc2.c
00000000 l    df *ABS*	00000000 libgcc2.c
00000000 l    df *ABS*	00000000 adddf3.c
00000000 l    df *ABS*	00000000 eqdf2.c
00000000 l    df *ABS*	00000000 gedf2.c
00000000 l    df *ABS*	00000000 muldf3.c
00000000 l    df *ABS*	00000000 subdf3.c
00000000 l    df *ABS*	00000000 fixdfsi.c
00000000 l    df *ABS*	00000000 alt_close.c
080123fc l     F .text	0000003c alt_get_errno
00000000 l    df *ABS*	00000000 alt_dev.c
08012510 l     F .text	0000002c alt_dev_null_write
00000000 l    df *ABS*	00000000 alt_errno.c
00000000 l    df *ABS*	00000000 alt_fstat.c
0801253c l     F .text	0000003c alt_get_errno
00000000 l    df *ABS*	00000000 alt_isatty.c
08012630 l     F .text	0000003c alt_get_errno
00000000 l    df *ABS*	00000000 alt_load.c
08012718 l     F .text	00000068 alt_load_section
00000000 l    df *ABS*	00000000 alt_lseek.c
08012804 l     F .text	0000003c alt_get_errno
00000000 l    df *ABS*	00000000 alt_main.c
00000000 l    df *ABS*	00000000 alt_malloc_lock.c
00000000 l    df *ABS*	00000000 alt_read.c
080129e0 l     F .text	0000003c alt_get_errno
00000000 l    df *ABS*	00000000 alt_release_fd.c
00000000 l    df *ABS*	00000000 alt_sbrk.c
08016c4c l     O .rwdata	00000004 heap_end
00000000 l    df *ABS*	00000000 alt_times.c
08012c54 l     F .text	0000003c alt_get_errno
00000000 l    df *ABS*	00000000 alt_usleep.c
00000000 l    df *ABS*	00000000 alt_write.c
08012d38 l     F .text	0000003c alt_get_errno
00000000 l    df *ABS*	00000000 alt_sys_init.c
08012e74 l     F .text	00000034 alt_dev_reg
08015b18 l     O .rwdata	00001060 jtag_uart_0
00000000 l    df *ABS*	00000000 altera_avalon_jtag_uart_fd.c
00000000 l    df *ABS*	00000000 altera_avalon_jtag_uart_init.c
08013150 l     F .text	0000020c altera_avalon_jtag_uart_irq
0801335c l     F .text	000000a0 altera_avalon_jtag_uart_timeout
00000000 l    df *ABS*	00000000 altera_avalon_jtag_uart_ioctl.c
00000000 l    df *ABS*	00000000 altera_avalon_jtag_uart_read.c
00000000 l    df *ABS*	00000000 altera_avalon_jtag_uart_write.c
00000000 l    df *ABS*	00000000 alt_alarm_start.c
00000000 l    df *ABS*	00000000 alt_busy_sleep.c
00000000 l    df *ABS*	00000000 alt_dcache_flush_all.c
00000000 l    df *ABS*	00000000 alt_dev_llist_insert.c
08013c38 l     F .text	0000003c alt_get_errno
00000000 l    df *ABS*	00000000 alt_do_ctors.c
00000000 l    df *ABS*	00000000 alt_do_dtors.c
00000000 l    df *ABS*	00000000 alt_icache_flush_all.c
00000000 l    df *ABS*	00000000 alt_iic.c
00000000 l    df *ABS*	00000000 alt_iic_isr_register.c
00000000 l    df *ABS*	00000000 alt_io_redirect.c
08014098 l     F .text	000000e4 alt_open_fd
00000000 l    df *ABS*	00000000 alt_irq_vars.c
00000000 l    df *ABS*	00000000 alt_open.c
080141f8 l     F .text	0000003c alt_get_errno
08014234 l     F .text	000000ec alt_file_locked
00000000 l    df *ABS*	00000000 alt_tick.c
00000000 l    df *ABS*	00000000 altera_nios2_gen2_irq.c
00000000 l    df *ABS*	00000000 alt_find_dev.c
00000000 l    df *ABS*	00000000 alt_find_file.c
00000000 l    df *ABS*	00000000 alt_get_fd.c
00000000 l    df *ABS*	00000000 atexit.c
00000000 l    df *ABS*	00000000 exit.c
00000000 l    df *ABS*	00000000 memcmp.c
00000000 l    df *ABS*	00000000 __atexit.c
00000000 l    df *ABS*	00000000 __call_atexit.c
00000000 l    df *ABS*	00000000 alt_exit.c
08018858 g     O .bss	00000004 alt_instruction_exception_handler
0800d244 g     F .text	00000074 _mprec_log10
08001874 g     F .text	0000010c game_update
0800d330 g     F .text	0000008c __any_on
0800f7f0 g     F .text	00000054 _isatty_r
08014f60 g     O .rodata	00000028 __mprec_tinytens
0801291c g     F .text	0000007c alt_main
080063a8 g     F .text	000000c0 _puts_r
08016be4 g     O .rwdata	00000004 bullet_2_x_6
08018884 g     O .bss	00000100 alt_irq
0800f844 g     F .text	00000060 _lseek_r
08016c5c g       *ABS*	00000000 __flash_rwdata_start
080110b0 g     F .text	00000088 .hidden __eqdf2
08000430 g     F .text	000007b0 update_bullet
08018984 g       *ABS*	00000000 __alt_heap_start
0800636c g     F .text	0000003c printf
0800fa5c g     F .text	0000009c _wcrtomb_r
0801881a g     O .bss	00000002 usb_ctl_val
0800dac0 g     F .text	0000005c __sseek
0800a8dc g     F .text	00000010 __sinit
0801880c g     O .bss	00000004 keycode
0800f904 g     F .text	00000140 __swbuf_r
0800b3b0 g     F .text	0000007c _setlocale_r
0800a734 g     F .text	00000078 __sfmoreglue
080129bc g     F .text	00000024 __malloc_unlock
08018810 g     O .bss	00000004 keycode_2
08016b94 g     O .rwdata	00000004 bullet_1_x_6
08016b88 g     O .rwdata	00000004 bullet_1_x_3
08016c04 g     O .rwdata	00000004 bullet_2_y_4
08004890 g     F .text	00000080 UsbGetRetryCnt
0800c080 g     F .text	0000015c memmove
080010d8 g     F .text	000000b0 IO_init
0800a8c4 g     F .text	00000018 _cleanup
0800c304 g     F .text	000000a8 _Balloc
08016bcc g     O .rwdata	00000004 bullet_2_x_0
08016bd8 g     O .rwdata	00000004 bullet_2_x_3
08011138 g     F .text	000000dc .hidden __gtdf2
08014620 g     F .text	00000024 altera_nios2_gen2_irq_init
08000000 g     F .entry	0000000c __reset
08012c90 g     F .text	00000078 times
08016b7c g     O .rwdata	00000004 bullet_1_x_0
08000020 g       *ABS*	00000000 __flash_exceptions_start
0800f794 g     F .text	0000005c _fstat_r
0801883c g     O .bss	00000004 errno
0800da3c g     F .text	00000008 __seofread
08016c18 g     O .rwdata	00000004 bullet_2_y_9
08016ba4 g     O .rwdata	00000004 bullet_1_y_0
08005150 g     F .text	00000318 get_keycode
08016bc0 g     O .rwdata	00000004 bullet_1_y_7
08016bbc g     O .rwdata	00000004 bullet_1_y_6
08016be8 g     O .rwdata	00000004 bullet_2_x_7
08018844 g     O .bss	00000004 alt_argv
0801eb78 g       *ABS*	00000000 _gp
08012d08 g     F .text	00000030 usleep
080187f0 g     O .bss	00000004 attack_state
08015998 g     O .rwdata	00000180 alt_fd_list
08016c08 g     O .rwdata	00000004 bullet_2_y_5
08014644 g     F .text	00000090 alt_find_dev
0800bf38 g     F .text	00000148 memcpy
08006514 g     F .text	00000008 _times_r
0800367c g     F .text	000000e8 init_tor
0800a584 g     F .text	0000000c _cleanup_r
08005f54 g     F .text	000000dc .hidden __floatsidf
0801417c g     F .text	0000007c alt_io_redirect
0801881c g     O .bss	00000001 data_size
08005e60 g     F .text	000000f4 .hidden __ltdf2
08014cd0 g       *ABS*	00000000 __DTOR_END__
08006468 g     F .text	00000014 puts
080148a0 g     F .text	0000009c alt_exception_cause_generated_bad_addr
08016bfc g     O .rwdata	00000004 bullet_2_y_2
080187f4 g     O .bss	00000004 developer_mode
0800d920 g     F .text	00000074 __fpclassifyd
0800d1a0 g     F .text	000000a4 __ratio
0800f220 g     F .text	0000001c __vfiprintf_internal
08013554 g     F .text	0000021c altera_avalon_jtag_uart_read
0800633c g     F .text	00000030 _printf_r
08006234 g     F .text	00000064 .hidden __udivsi3
0801266c g     F .text	000000ac isatty
08014fb0 g     O .rodata	000000c8 __mprec_tens
08004990 g     F .text	000007c0 usb_init
0800b42c g     F .text	0000000c __locale_charset
08018838 g     O .bss	00000004 __malloc_top_pad
08003f1c g     F .text	00000268 UsbGetConfigDesc2
08016c24 g     O .rwdata	00000004 __mb_cur_max
0800b45c g     F .text	0000000c _localeconv_r
0800c738 g     F .text	0000003c __i2b
0800ad60 g     F .text	000004c8 __sfvwrite_r
08002418 g     F .text	000000cc press_d
0801881e g     O .bss	00000002 intStat
0800d994 g     F .text	00000054 _sbrk_r
0800f8a4 g     F .text	00000060 _read_r
08016c44 g     O .rwdata	00000004 alt_max_fd
0800f488 g     F .text	000000f0 _fclose_r
0800a54c g     F .text	00000030 fflush
08018834 g     O .bss	00000004 __malloc_max_sbrked_mem
08010804 g     F .text	000008ac .hidden __adddf3
08018814 g     O .bss	00000004 keycode_3
0800cf48 g     F .text	0000010c __b2d
08010240 g     F .text	000005c4 .hidden __umoddi3
08012840 g     F .text	000000dc lseek
08016b8c g     O .rwdata	00000004 bullet_1_x_4
08016c1c g     O .rwdata	00000004 _global_impure_ptr
0800d3bc g     F .text	00000564 _realloc_r
08018984 g       *ABS*	00000000 __bss_end
08013fa8 g     F .text	000000f0 alt_iic_isr_register
08014518 g     F .text	00000108 alt_tick
0800fc44 g     F .text	000005fc .hidden __udivdi3
0800f6f0 g     F .text	00000024 _fputwc_r
08014f88 g     O .rodata	00000028 __mprec_bigtens
0800c51c g     F .text	00000104 __s2b
08006030 g     F .text	000000a8 .hidden __floatunsidf
0800cc88 g     F .text	00000060 __mcmp
0800396c g     F .text	00000100 UsbSetAddress
08016bac g     O .rwdata	00000004 bullet_1_y_2
0800a8fc g     F .text	00000018 __fp_lock_all
08013f5c g     F .text	0000004c alt_ic_irq_enabled
0801447c g     F .text	0000009c alt_alarm_stop
0801884c g     O .bss	00000004 alt_irq_active
080000fc g     F .exceptions	000000d4 alt_irq_handler
08015970 g     O .rwdata	00000028 alt_dev_null
08016b9c g     O .rwdata	00000004 bullet_1_x_8
08013c18 g     F .text	00000020 alt_dcache_flush_all
0800c620 g     F .text	00000068 __hi0bits
08001210 g     F .text	00000080 IO_read
0801237c g     F .text	00000080 .hidden __fixdfsi
08016be0 g     O .rwdata	00000004 bullet_2_x_5
08002344 g     F .text	000000d4 press_a
08016c5c g       *ABS*	00000000 __ram_rwdata_end
08016bd4 g     O .rwdata	00000004 bullet_2_x_2
08016c3c g     O .rwdata	00000008 alt_dev_list
08012d74 g     F .text	00000100 write
08016c00 g     O .rwdata	00000004 bullet_2_y_3
080150cc g       *ABS*	00000000 __ram_rodata_end
08012578 g     F .text	000000b8 fstat
08000000 g       *ABS*	00000000 __alt_mem_SDRAM
08005e60 g     F .text	000000f4 .hidden __ledf2
0800026c g     F .text	000001c4 generate_bullet
08004910 g     F .text	00000080 UsbPrintMem
0800ca00 g     F .text	00000140 __pow5mult
0800dd14 g     F .text	0000150c ___vfiprintf_internal_r
0801882c g     O .bss	00000004 __nlocale_changed
08006298 g     F .text	00000058 .hidden __umodsi3
08001a00 g     F .text	00000600 gamefile_update
08018984 g       *ABS*	00000000 end
08016b84 g     O .rwdata	00000004 bullet_1_x_2
08013090 g     F .text	000000c0 altera_avalon_jtag_uart_init
080001d0 g     F .exceptions	00000060 alt_instruction_exception_entry
08002984 g     F .text	00000084 detect_ship_attack
08014cd0 g       *ABS*	00000000 __CTOR_LIST__
08002a08 g     F .text	00000310 generate_tor
10000000 g       *ABS*	00000000 __alt_stack_pointer
080060d8 g     F .text	00000064 .hidden __clzsi2
08013770 g     F .text	00000224 altera_avalon_jtag_uart_write
08016bb8 g     O .rwdata	00000004 bullet_1_y_5
0800a8ec g     F .text	00000004 __sfp_lock_acquire
0800be54 g     F .text	000000e4 memchr
0800651c g     F .text	000022dc ___vfprintf_internal_r
08004284 g     F .text	00000100 UsbClassRequest
0800aa50 g     F .text	00000310 _free_r
0800b438 g     F .text	00000010 __locale_mb_cur_max
08016c14 g     O .rwdata	00000004 bullet_2_y_8
08014b1c g     F .text	00000180 __call_exitprocs
08018828 g     O .bss	00000004 __mlocale_changed
080187f8 g     O .bss	00000004 win
08016c28 g     O .rwdata	00000004 __malloc_sbrk_base
080187ec g     O .bss	00000004 ship_state
08000230 g     F .text	0000003c _start
08002810 g     F .text	000000d4 update_helper
08018850 g     O .bss	00000004 _alt_tick_rate
0800cb40 g     F .text	00000148 __lshift
08018854 g     O .bss	00000004 _alt_nticks
08012a1c g     F .text	00000104 read
08012ee0 g     F .text	0000004c alt_sys_init
08014a04 g     F .text	00000118 __register_exitproc
08016b78 g     O .rwdata	00000004 game_file
0800c774 g     F .text	0000028c __multiply
080133fc g     F .text	00000068 altera_avalon_jtag_uart_close
0800327c g     F .text	00000298 move_tor
08005468 g     F .text	00000028 .hidden __mulsi3
080150cc g       *ABS*	00000000 __ram_rwdata_start
08014cd0 g       *ABS*	00000000 __ram_rodata_start
0801885c g     O .bss	00000028 __malloc_current_mallinfo
0800d054 g     F .text	0000014c __d2b
08016bf8 g     O .rwdata	00000004 bullet_2_y_1
08003a6c g     F .text	00000148 UsbGetDeviceDesc1
08012f2c g     F .text	00000060 altera_avalon_jtag_uart_read_fd
080147dc g     F .text	000000c4 alt_get_fd
08013ac0 g     F .text	00000158 alt_busy_sleep
080037e4 g     F .text	00000038 press_z
0800f358 g     F .text	00000054 _close_r
08014988 g     F .text	0000007c memcmp
08012fec g     F .text	00000050 altera_avalon_jtag_uart_close_fd
08018984 g       *ABS*	00000000 __alt_stack_base
0801303c g     F .text	00000054 altera_avalon_jtag_uart_ioctl_fd
080088d0 g     F .text	00000154 __swsetup_r
08016bb4 g     O .rwdata	00000004 bullet_1_y_4
08005490 g     F .text	000009d0 .hidden __divdf3
0800a7ac g     F .text	00000118 __sfp
0800d2b8 g     F .text	00000078 __copybits
08001290 g     F .text	000000b8 frame_clock
08015568 g     O .rwdata	00000408 __malloc_av_
0800a8f8 g     F .text	00000004 __sinit_lock_release
08011214 g     F .text	0000086c .hidden __muldf3
0800d9e8 g     F .text	00000054 __sread
0800480c g     F .text	00000084 UsbWaitTDListDone
080146d4 g     F .text	00000108 alt_find_file
08013c74 g     F .text	000000a4 alt_dev_llist_insert
08012998 g     F .text	00000024 __malloc_lock
08012ba4 g     F .text	000000b0 sbrk
0800a4f0 g     F .text	0000005c _fflush_r
0800f3ac g     F .text	000000dc _calloc_r
08018820 g     O .bss	00000001 hot_plug_count
080187ec g       *ABS*	00000000 __bss_start
08001980 g     F .text	00000080 ship_choose_update
0800c1dc g     F .text	00000128 memset
080020f8 g     F .text	000001bc main
08018848 g     O .bss	00000004 alt_envp
08018830 g     O .bss	00000004 __malloc_max_total_mem
08016bc8 g     O .rwdata	00000004 bullet_1_y_9
08012f8c g     F .text	00000060 altera_avalon_jtag_uart_write_fd
08004184 g     F .text	00000100 UsbSetConfig
0800fa44 g     F .text	00000018 __swbuf
0800db1c g     F .text	00000008 __sclose
080187fc g     O .bss	00000004 event
10000000 g       *ABS*	00000000 __alt_heap_limit
0800f578 g     F .text	00000014 fclose
08008c4c g     F .text	00001688 _dtoa_r
0800b648 g     F .text	0000080c _malloc_r
0800fbb8 g     F .text	00000030 __ascii_wctomb
08016c48 g     O .rwdata	00000004 alt_errno
080024e4 g     F .text	00000138 ship_init
0800b228 g     F .text	000000c4 _fwalk
0800613c g     F .text	00000084 .hidden __divsi3
08016ba8 g     O .rwdata	00000004 bullet_1_y_1
0800a92c g     F .text	00000124 _malloc_trim_r
08004384 g     F .text	00000148 UsbGetHidDesc
08014cd0 g       *ABS*	00000000 __CTOR_END__
080022fc g     F .text	00000048 press_s
0800db24 g     F .text	000000dc strcmp
08014cd0 g       *ABS*	00000000 __flash_rodata_start
08014cd0 g       *ABS*	00000000 __DTOR_LIST__
08016b98 g     O .rwdata	00000004 bullet_1_x_7
080110b0 g     F .text	00000088 .hidden __nedf2
08003874 g     F .text	00000044 UsbRead
08012ea8 g     F .text	00000038 alt_irq_init
08012b20 g     F .text	00000084 alt_release_fd
08014dc9 g     O .rodata	00000100 .hidden __clz_tab
08018824 g     O .bss	00000004 _PathLocale
0801493c g     F .text	00000014 atexit
0800f2f8 g     F .text	00000060 _write_r
08016bf0 g     O .rwdata	00000004 bullet_2_x_9
08001348 g     F .text	0000052c key_event
0800b468 g     F .text	00000018 setlocale
08016bdc g     O .rwdata	00000004 bullet_2_x_4
08016c20 g     O .rwdata	00000004 _impure_ptr
08018840 g     O .bss	00000004 alt_argc
08016b80 g     O .rwdata	00000004 bullet_1_x_1
0800a2d4 g     F .text	0000021c __sflush_r
08013d78 g     F .text	00000060 _do_dtors
0800b454 g     F .text	00000008 __locale_cjk_lang
08000020 g       .exceptions	00000000 alt_irq_entry
08002000 g     F .text	000000f8 test_round
0800cee4 g     F .text	00000064 __ulp
0800a914 g     F .text	00000018 __fp_unlock_all
08018818 g     O .bss	00000001 toggle
08016bec g     O .rwdata	00000004 bullet_2_x_8
08016c34 g     O .rwdata	00000008 alt_fs_list
08016bd0 g     O .rwdata	00000004 bullet_2_x_1
080044cc g     F .text	00000340 UsbGetReportDesc
08000020 g       *ABS*	00000000 __ram_exceptions_start
0800b480 g     F .text	0000000c localeconv
08013df8 g     F .text	00000050 alt_ic_isr_register
08000be0 g     F .text	00000164 init_bullet
08016bc4 g     O .rwdata	00000004 bullet_1_y_8
080028e4 g     F .text	000000a0 detect
08016c5c g       *ABS*	00000000 _edata
08016c10 g     O .rwdata	00000004 bullet_2_y_7
08018984 g       *ABS*	00000000 _end
0800381c g     F .text	00000058 UsbWrite
08003514 g     F .text	00000168 ifstop_tor
0800f58c g     F .text	00000164 __fputwc
08000230 g       *ABS*	00000000 __ram_exceptions_end
08013464 g     F .text	000000f0 altera_avalon_jtag_uart_ioctl
08018822 g     O .bss	00000002 code
08016c0c g     O .rwdata	00000004 bullet_2_y_6
08013ed0 g     F .text	0000008c alt_ic_irq_disable
0800da44 g     F .text	0000007c __swrite
080022b4 g     F .text	00000048 press_w
08016c2c g     O .rwdata	00000004 __malloc_trim_threshold
0800b448 g     F .text	0000000c __locale_msgcharset
08018808 g     O .bss	00000002 fs_device
08014950 g     F .text	00000038 exit
0800b2ec g     F .text	000000c4 _fwalk_reent
0800cce8 g     F .text	000001fc __mdiff
080061c0 g     F .text	00000074 .hidden __modsi3
08000d44 g     F .text	00000394 choose_ship
10000000 g       *ABS*	00000000 __alt_data_end
08000020 g     F .exceptions	00000000 alt_exception
08016bf4 g     O .rwdata	00000004 bullet_2_y_0
0800a8f0 g     F .text	00000004 __sfp_lock_release
08001188 g     F .text	00000088 IO_write
0800261c g     F .text	000001b0 update
08014c9c g     F .text	00000034 _exit
08013994 g     F .text	0000012c alt_alarm_start
08002d18 g     F .text	00000064 press_j
0800b48c g     F .text	000001bc __smakebuf_r
0800647c g     F .text	00000098 strlen
08014320 g     F .text	0000015c open
08011138 g     F .text	000000dc .hidden __gedf2
08016bb0 g     O .rwdata	00000004 bullet_1_y_3
080027cc g     F .text	00000044 stop
080062f0 g     F .text	0000004c clock
08016c30 g     O .rwdata	00000004 __wctomb
0800dcfc g     F .text	00000018 __sprint_r
08013dd8 g     F .text	00000020 alt_icache_flush_all
08016c50 g     O .rwdata	00000004 alt_priority_mask
08016b90 g     O .rwdata	00000004 bullet_1_x_5
08013e48 g     F .text	00000088 alt_ic_irq_enable
080087f8 g     F .text	0000001c __vfprintf_internal
0800fbe8 g     F .text	0000005c _wctomb_r
08003764 g     F .text	00000080 update_tor
08011a80 g     F .text	000008fc .hidden __subdf3
0800c688 g     F .text	000000b0 __lo0bits
08003d8c g     F .text	00000190 UsbGetConfigDesc1
08016c54 g     O .rwdata	00000008 alt_alarm_list
08013d18 g     F .text	00000060 _do_ctors
080038b8 g     F .text	000000b4 UsbSoftReset
0800faf8 g     F .text	000000c0 wcrtomb
08012438 g     F .text	000000d8 close
08003bb4 g     F .text	000001d8 UsbGetDeviceDesc2
08012780 g     F .text	00000084 alt_load
08002d7c g     F .text	00000500 upstate_tor
08018800 g     O .bss	00000004 target
0800f714 g     F .text	00000080 fputwc
08016ba0 g     O .rwdata	00000004 bullet_1_x_9
0800a8f4 g     F .text	00000004 __sinit_lock_acquire
0800c3d4 g     F .text	00000148 __multadd
0800c3ac g     F .text	00000028 _Bfree



Disassembly of section .entry:

08000000 <__reset>:
 * Jump to the _start entry point in the .text section if reset code
 * is allowed or if optimizing for RTL simulation.
 */
#if defined(ALT_ALLOW_CODE_AT_RESET) || defined(ALT_SIM_OPTIMIZE)
    /* Jump to the _start entry point in the .text section. */
    movhi r1, %hi(_start)
 8000000:	00420034 	movhi	at,2048
    ori r1, r1, %lo(_start)
 8000004:	08408c14 	ori	at,at,560
    jmp r1
 8000008:	0800683a 	jmp	at
	...

Disassembly of section .exceptions:

08000020 <alt_exception>:

#else /* ALT_EXCEPTION_STACK disabled */
        /* 
         * Reserve space on normal stack for registers about to be pushed.
         */
        addi  sp, sp, -76
 8000020:	deffed04 	addi	sp,sp,-76
         * documentation for details).
         *
         * Leave a gap in the stack frame at 4(sp) for the muldiv handler to
         * store zero into.
         */
        stw   ra,  0(sp)
 8000024:	dfc00015 	stw	ra,0(sp)
        stw   r1,   8(sp)
 8000028:	d8400215 	stw	at,8(sp)
        stw   r2,  12(sp)
 800002c:	d8800315 	stw	r2,12(sp)
        stw   r3,  16(sp)
 8000030:	d8c00415 	stw	r3,16(sp)
        stw   r4,  20(sp)
 8000034:	d9000515 	stw	r4,20(sp)
        stw   r5,  24(sp)
 8000038:	d9400615 	stw	r5,24(sp)
        stw   r6,  28(sp)
 800003c:	d9800715 	stw	r6,28(sp)
        stw   r7,  32(sp)
 8000040:	d9c00815 	stw	r7,32(sp)
        rdctl r5, estatus   /* Read early to avoid usage stall */
 8000044:	000b307a 	rdctl	r5,estatus
        stw   r8,  36(sp)
 8000048:	da000915 	stw	r8,36(sp)
        stw   r9,  40(sp)
 800004c:	da400a15 	stw	r9,40(sp)
        stw   r10, 44(sp)
 8000050:	da800b15 	stw	r10,44(sp)
        stw   r11, 48(sp)
 8000054:	dac00c15 	stw	r11,48(sp)
        stw   r12, 52(sp)
 8000058:	db000d15 	stw	r12,52(sp)
        stw   r13, 56(sp)
 800005c:	db400e15 	stw	r13,56(sp)
        stw   r14, 60(sp)
 8000060:	db800f15 	stw	r14,60(sp)
        stw   r15, 64(sp)
 8000064:	dbc01015 	stw	r15,64(sp)
        /*
         * ea-4 contains the address of the instruction being executed
         * when the exception occured. For interrupt exceptions, we will
         * will be re-issue the isntruction. Store it in 72(sp)
         */
        stw   r5,  68(sp)  /* estatus */
 8000068:	d9401115 	stw	r5,68(sp)
        addi  r15, ea, -4  /* instruction that caused exception */
 800006c:	ebffff04 	addi	r15,ea,-4
        stw   r15,  72(sp)
 8000070:	dbc01215 	stw	r15,72(sp)
#else
        /*
         * Test to see if the exception was a software exception or caused 
         * by an external interrupt, and vector accordingly.
         */
        rdctl r4, ipending
 8000074:	0009313a 	rdctl	r4,ipending
        andi  r2, r5, 1
 8000078:	2880004c 	andi	r2,r5,1
        beq   r2, zero, .Lnot_irq
 800007c:	10000326 	beq	r2,zero,800008c <alt_exception+0x6c>
        beq   r4, zero, .Lnot_irq
 8000080:	20000226 	beq	r4,zero,800008c <alt_exception+0x6c>
        /*
         * Now that all necessary registers have been preserved, call 
         * alt_irq_handler() to process the interrupts.
         */

        call alt_irq_handler
 8000084:	80000fc0 	call	80000fc <alt_irq_handler>

        .section .exceptions.irqreturn, "xa"

        br    .Lexception_exit
 8000088:	00000706 	br	80000a8 <alt_exception+0x88>
         * upon completion, so we write ea (address of instruction *after*
         * the one where the exception occured) into 72(sp). The actual
         * instruction that caused the exception is written in r2, which these
         * handlers will utilize.
         */
        stw ea, 72(sp) /* EA is PC+4 so will skip over instruction causing exception */
 800008c:	df401215 	stw	ea,72(sp)
.Lunknown_16bit:
        addi.n r4, r4, 2 /* Need PC+2 to skip over instruction causing exception */
        stw r4, 72(sp)

#else /* CDX is not Enabled and all instructions are 32bits */
        ldw r2, -4(ea) /* Instruction value that caused exception */
 8000090:	e8bfff17 	ldw	r2,-4(ea)
         * debugger is present) or go into an infinite loop since the
         * handling behavior is undefined; in that case we will not return here.
         */

        /* Load exception-causing address as first argument (r4) */
        addi   r4, ea, -4
 8000094:	e93fff04 	addi	r4,ea,-4

        /* Call the instruction-exception entry */
        call   alt_instruction_exception_entry
 8000098:	80001d00 	call	80001d0 <alt_instruction_exception_entry>
         * instruction
         *
         * Return code was 0: Skip. The instruction after the exception is
         * already stored in 72(sp).
         */
        bne   r2, r0, .Lexception_exit
 800009c:	1000021e 	bne	r2,zero,80000a8 <alt_exception+0x88>

        /*
         * Otherwise, modify 72(sp) to re-issue the instruction that caused the
         * exception.
         */
        addi  r15, ea, -4  /* instruction that caused exception */
 80000a0:	ebffff04 	addi	r15,ea,-4
        stw   r15,  72(sp)
 80000a4:	dbc01215 	stw	r15,72(sp)
        /* 
         * Restore the saved registers, so that all general purpose registers 
         * have been restored to their state at the time the interrupt occured.
         */

        ldw   r5,  68(sp)
 80000a8:	d9401117 	ldw	r5,68(sp)
        ldw   ea,  72(sp)  /* This becomes the PC once eret is executed */
 80000ac:	df401217 	ldw	ea,72(sp)
        ldw   ra,   0(sp)
 80000b0:	dfc00017 	ldw	ra,0(sp)

        wrctl estatus, r5
 80000b4:	2801707a 	wrctl	estatus,r5

        ldw   r1,   8(sp)
 80000b8:	d8400217 	ldw	at,8(sp)
        ldw   r2,  12(sp)
 80000bc:	d8800317 	ldw	r2,12(sp)
        ldw   r3,  16(sp)
 80000c0:	d8c00417 	ldw	r3,16(sp)
        ldw   r4,  20(sp)
 80000c4:	d9000517 	ldw	r4,20(sp)
        ldw   r5,  24(sp)
 80000c8:	d9400617 	ldw	r5,24(sp)
        ldw   r6,  28(sp)
 80000cc:	d9800717 	ldw	r6,28(sp)
        ldw   r7,  32(sp)
 80000d0:	d9c00817 	ldw	r7,32(sp)

#if defined(ALT_EXCEPTION_STACK) && defined(ALT_STACK_CHECK)
        ldw   et, %gprel(alt_exception_old_stack_limit)(gp)
#endif

        ldw   r8,  36(sp)
 80000d4:	da000917 	ldw	r8,36(sp)
        ldw   r9,  40(sp)
 80000d8:	da400a17 	ldw	r9,40(sp)
        ldw   r10, 44(sp)
 80000dc:	da800b17 	ldw	r10,44(sp)
        ldw   r11, 48(sp)
 80000e0:	dac00c17 	ldw	r11,48(sp)
        ldw   r12, 52(sp)
 80000e4:	db000d17 	ldw	r12,52(sp)
        ldw   r13, 56(sp)
 80000e8:	db400e17 	ldw	r13,56(sp)
        ldw   r14, 60(sp)
 80000ec:	db800f17 	ldw	r14,60(sp)
        ldw   r15, 64(sp)
 80000f0:	dbc01017 	ldw	r15,64(sp)
        stw   et, %gprel(alt_stack_limit_value)(gp)
        stw   zero, %gprel(alt_exception_old_stack_limit)(gp)
#endif /* ALT_STACK_CHECK */
        ldw   sp,  76(sp)
#else /* ALT_EXCEPTION_STACK disabled */
        addi  sp, sp, 76
 80000f4:	dec01304 	addi	sp,sp,76

        /*
         * Return to the interrupted instruction.
         */

        eret
 80000f8:	ef80083a 	eret

080000fc <alt_irq_handler>:
 * instruction is present if the macro ALT_CI_INTERRUPT_VECTOR defined.
 */

void alt_irq_handler (void) __attribute__ ((section (".exceptions")));
void alt_irq_handler (void)
{
 80000fc:	defff904 	addi	sp,sp,-28
 8000100:	dfc00615 	stw	ra,24(sp)
 8000104:	df000515 	stw	fp,20(sp)
 8000108:	df000504 	addi	fp,sp,20
  
  /*
   * Notify the operating system that we are at interrupt level.
   */ 
  
  ALT_OS_INT_ENTER();
 800010c:	0001883a 	nop
#ifndef NIOS2_EIC_PRESENT
static ALT_INLINE alt_u32 ALT_ALWAYS_INLINE alt_irq_pending (void)
{
  alt_u32 active;

  NIOS2_READ_IPENDING (active);
 8000110:	0005313a 	rdctl	r2,ipending
 8000114:	e0bffe15 	stw	r2,-8(fp)

  return active;
 8000118:	e0bffe17 	ldw	r2,-8(fp)
   * Consider the case where the high priority interupt is asserted during
   * the interrupt entry sequence for a lower priority interrupt to see why
   * this is the case.
   */

  active = alt_irq_pending ();
 800011c:	e0bffb15 	stw	r2,-20(fp)

  do
  {
    i = 0;
 8000120:	e03ffd15 	stw	zero,-12(fp)
    mask = 1;
 8000124:	00800044 	movi	r2,1
 8000128:	e0bffc15 	stw	r2,-16(fp)
     * called to clear the interrupt condition.
     */

    do
    {
      if (active & mask)
 800012c:	e0fffb17 	ldw	r3,-20(fp)
 8000130:	e0bffc17 	ldw	r2,-16(fp)
 8000134:	1884703a 	and	r2,r3,r2
 8000138:	10001426 	beq	r2,zero,800018c <alt_irq_handler+0x90>
      { 
#ifdef ALT_ENHANCED_INTERRUPT_API_PRESENT
        alt_irq[i].handler(alt_irq[i].context); 
 800013c:	008200b4 	movhi	r2,2050
 8000140:	10a22104 	addi	r2,r2,-30588
 8000144:	e0fffd17 	ldw	r3,-12(fp)
 8000148:	180690fa 	slli	r3,r3,3
 800014c:	10c5883a 	add	r2,r2,r3
 8000150:	10c00017 	ldw	r3,0(r2)
 8000154:	008200b4 	movhi	r2,2050
 8000158:	10a22104 	addi	r2,r2,-30588
 800015c:	e13ffd17 	ldw	r4,-12(fp)
 8000160:	200890fa 	slli	r4,r4,3
 8000164:	1105883a 	add	r2,r2,r4
 8000168:	10800104 	addi	r2,r2,4
 800016c:	10800017 	ldw	r2,0(r2)
 8000170:	1009883a 	mov	r4,r2
 8000174:	183ee83a 	callr	r3
#else
        alt_irq[i].handler(alt_irq[i].context, i); 
#endif
        break;
 8000178:	0001883a 	nop
#ifndef NIOS2_EIC_PRESENT
static ALT_INLINE alt_u32 ALT_ALWAYS_INLINE alt_irq_pending (void)
{
  alt_u32 active;

  NIOS2_READ_IPENDING (active);
 800017c:	0005313a 	rdctl	r2,ipending
 8000180:	e0bfff15 	stw	r2,-4(fp)

  return active;
 8000184:	e0bfff17 	ldw	r2,-4(fp)
 8000188:	00000706 	br	80001a8 <alt_irq_handler+0xac>
      }
      mask <<= 1;
 800018c:	e0bffc17 	ldw	r2,-16(fp)
 8000190:	1085883a 	add	r2,r2,r2
 8000194:	e0bffc15 	stw	r2,-16(fp)
      i++;
 8000198:	e0bffd17 	ldw	r2,-12(fp)
 800019c:	10800044 	addi	r2,r2,1
 80001a0:	e0bffd15 	stw	r2,-12(fp)

    } while (1);
 80001a4:	003fe106 	br	800012c <__alt_data_end+0xf800012c>

    active = alt_irq_pending ();
 80001a8:	e0bffb15 	stw	r2,-20(fp)
    
  } while (active);
 80001ac:	e0bffb17 	ldw	r2,-20(fp)
 80001b0:	103fdb1e 	bne	r2,zero,8000120 <__alt_data_end+0xf8000120>

  /*
   * Notify the operating system that interrupt processing is complete.
   */ 

  ALT_OS_INT_EXIT();
 80001b4:	0001883a 	nop
}
 80001b8:	0001883a 	nop
 80001bc:	e037883a 	mov	sp,fp
 80001c0:	dfc00117 	ldw	ra,4(sp)
 80001c4:	df000017 	ldw	fp,0(sp)
 80001c8:	dec00204 	addi	sp,sp,8
 80001cc:	f800283a 	ret

080001d0 <alt_instruction_exception_entry>:
 * that handler if it has been registered. Absent a handler, it will
 * break break or hang as discussed below.
 */
int 
alt_instruction_exception_entry (alt_u32 exception_pc)
{
 80001d0:	defffb04 	addi	sp,sp,-20
 80001d4:	dfc00415 	stw	ra,16(sp)
 80001d8:	df000315 	stw	fp,12(sp)
 80001dc:	df000304 	addi	fp,sp,12
 80001e0:	e13fff15 	stw	r4,-4(fp)
  cause = ( (cause & NIOS2_EXCEPTION_REG_CAUSE_MASK) >>
              NIOS2_EXCEPTION_REG_CAUSE_OFST );

  NIOS2_READ_BADADDR(badaddr);
#else
  cause = NIOS2_EXCEPTION_CAUSE_NOT_PRESENT;
 80001e4:	00bfffc4 	movi	r2,-1
 80001e8:	e0bffd15 	stw	r2,-12(fp)
  badaddr = 0;
 80001ec:	e03ffe15 	stw	zero,-8(fp)
#endif /* NIOS2_HAS_EXTRA_EXCEPTION_INFO */

  if(alt_instruction_exception_handler) {
 80001f0:	d0a73817 	ldw	r2,-25376(gp)
 80001f4:	10000726 	beq	r2,zero,8000214 <alt_instruction_exception_entry+0x44>
     * Call handler. Its return value indicates whether the exception-causing
     * instruction should be re-issued. The code that called us,
     * alt_eceptions_entry.S, will look at this value and adjust the ea
     * register as necessary
     */
    return alt_instruction_exception_handler(cause, exception_pc, badaddr);
 80001f8:	d0a73817 	ldw	r2,-25376(gp)
 80001fc:	e0fffd17 	ldw	r3,-12(fp)
 8000200:	e1bffe17 	ldw	r6,-8(fp)
 8000204:	e17fff17 	ldw	r5,-4(fp)
 8000208:	1809883a 	mov	r4,r3
 800020c:	103ee83a 	callr	r2
 8000210:	00000206 	br	800021c <alt_instruction_exception_entry+0x4c>
   *    (a peripheral which negates its interrupt output before its
   *    interrupt handler has been executed will cause spurious interrupts)
   */
  else {
#ifdef NIOS2_HAS_DEBUG_STUB
    NIOS2_BREAK();
 8000214:	003da03a 	break	0
      ;
#endif /* NIOS2_HAS_DEBUG_STUB */
  }

  /* We should not get here. Remove compiler warning. */
  return NIOS2_EXCEPTION_RETURN_REISSUE_INST;
 8000218:	0005883a 	mov	r2,zero
}
 800021c:	e037883a 	mov	sp,fp
 8000220:	dfc00117 	ldw	ra,4(sp)
 8000224:	df000017 	ldw	fp,0(sp)
 8000228:	dec00204 	addi	sp,sp,8
 800022c:	f800283a 	ret

Disassembly of section .text:

08000230 <_start>:

    /*
     * Now that the caches are initialized, set up the stack pointer and global pointer.
     * The values provided by the linker are assumed to be correctly aligned.
     */
    movhi sp, %hi(__alt_stack_pointer)
 8000230:	06c40034 	movhi	sp,4096
    ori sp, sp, %lo(__alt_stack_pointer)
 8000234:	dec00014 	ori	sp,sp,0
    movhi gp, %hi(_gp)
 8000238:	06820074 	movhi	gp,2049
    ori gp, gp, %lo(_gp)
 800023c:	d6bade14 	ori	gp,gp,60280
 */
#ifndef ALT_SIM_OPTIMIZE
    /* Log that the BSS is about to be cleared. */
    ALT_LOG_PUTS(alt_log_msg_bss)

    movhi r2, %hi(__bss_start)
 8000240:	00820074 	movhi	r2,2049
    ori r2, r2, %lo(__bss_start)
 8000244:	10a1fb14 	ori	r2,r2,34796

    movhi r3, %hi(__bss_end)
 8000248:	00c20074 	movhi	r3,2049
    ori r3, r3, %lo(__bss_end)
 800024c:	18e26114 	ori	r3,r3,35204

    beq r2, r3, 1f
 8000250:	10c00326 	beq	r2,r3,8000260 <_start+0x30>

0:
    stw zero, (r2)
 8000254:	10000015 	stw	zero,0(r2)
    addi r2, r2, 4
 8000258:	10800104 	addi	r2,r2,4
    bltu r2, r3, 0b
 800025c:	10fffd36 	bltu	r2,r3,8000254 <__alt_data_end+0xf8000254>
     * section aren't defined until alt_load() has been called).
     */
    mov   et, zero
#endif

    call alt_load
 8000260:	80127800 	call	8012780 <alt_load>

    /* Log that alt_main is about to be called. */
    ALT_LOG_PUTS(alt_log_msg_alt_main)

    /* Call the C entry point. It should never return. */
    call alt_main
 8000264:	801291c0 	call	801291c <alt_main>

08000268 <alt_after_alt_main>:

    /* Wait in infinite loop in case alt_main does return. */
alt_after_alt_main:
    br alt_after_alt_main
 8000268:	003fff06 	br	8000268 <__alt_data_end+0xf8000268>

0800026c <generate_bullet>:
 *  Created on: 2022Äê1ÔÂ2ÈÕ
 *      Author: jiaru
 */
#include "bullet.h"
#include "ship_logic.h"
void generate_bullet(ship_t *ship, int target, bullet_t *bullet){
 800026c:	defffb04 	addi	sp,sp,-20
 8000270:	df000415 	stw	fp,16(sp)
 8000274:	df000404 	addi	fp,sp,16
 8000278:	e13ffd15 	stw	r4,-12(fp)
 800027c:	e17ffe15 	stw	r5,-8(fp)
 8000280:	e1bfff15 	stw	r6,-4(fp)
	if (!bullet->stop)
 8000284:	e0bfff17 	ldw	r2,-4(fp)
 8000288:	10800017 	ldw	r2,0(r2)
 800028c:	10006326 	beq	r2,zero,800041c <generate_bullet+0x1b0>
		return;
	bullet->target = target;
 8000290:	e0bfff17 	ldw	r2,-4(fp)
 8000294:	e0fffe17 	ldw	r3,-8(fp)
 8000298:	10c02915 	stw	r3,164(r2)
	int i = 0;
 800029c:	e03ffc15 	stw	zero,-16(fp)
	if(target == 1)
 80002a0:	e0bffe17 	ldw	r2,-8(fp)
 80002a4:	10800058 	cmpnei	r2,r2,1
 80002a8:	10002e1e 	bne	r2,zero,8000364 <generate_bullet+0xf8>
		for (i = 0; i < 10; i++){
 80002ac:	e03ffc15 	stw	zero,-16(fp)
 80002b0:	00002806 	br	8000354 <generate_bullet+0xe8>
			bullet->x[i] = ship->x;
 80002b4:	e0bffd17 	ldw	r2,-12(fp)
 80002b8:	10c00117 	ldw	r3,4(r2)
 80002bc:	e13fff17 	ldw	r4,-4(fp)
 80002c0:	e0bffc17 	ldw	r2,-16(fp)
 80002c4:	10800044 	addi	r2,r2,1
 80002c8:	1085883a 	add	r2,r2,r2
 80002cc:	1085883a 	add	r2,r2,r2
 80002d0:	2085883a 	add	r2,r4,r2
 80002d4:	10c00015 	stw	r3,0(r2)
			bullet->y[i] = ship->y;
 80002d8:	e0bffd17 	ldw	r2,-12(fp)
 80002dc:	10c00217 	ldw	r3,8(r2)
 80002e0:	e13fff17 	ldw	r4,-4(fp)
 80002e4:	e0bffc17 	ldw	r2,-16(fp)
 80002e8:	108002c4 	addi	r2,r2,11
 80002ec:	1085883a 	add	r2,r2,r2
 80002f0:	1085883a 	add	r2,r2,r2
 80002f4:	2085883a 	add	r2,r4,r2
 80002f8:	10c00015 	stw	r3,0(r2)
			bullet->vx[i] = 10;
 80002fc:	e0ffff17 	ldw	r3,-4(fp)
 8000300:	e0bffc17 	ldw	r2,-16(fp)
 8000304:	10800544 	addi	r2,r2,21
 8000308:	1085883a 	add	r2,r2,r2
 800030c:	1085883a 	add	r2,r2,r2
 8000310:	1885883a 	add	r2,r3,r2
 8000314:	00c00284 	movi	r3,10
 8000318:	10c00015 	stw	r3,0(r2)
			bullet->vy[i] = -5 + i;
 800031c:	e0bffc17 	ldw	r2,-16(fp)
 8000320:	10fffec4 	addi	r3,r2,-5
 8000324:	e13fff17 	ldw	r4,-4(fp)
 8000328:	e0bffc17 	ldw	r2,-16(fp)
 800032c:	108007c4 	addi	r2,r2,31
 8000330:	1085883a 	add	r2,r2,r2
 8000334:	1085883a 	add	r2,r2,r2
 8000338:	2085883a 	add	r2,r4,r2
 800033c:	10c00015 	stw	r3,0(r2)
			bullet->stop = 0;
 8000340:	e0bfff17 	ldw	r2,-4(fp)
 8000344:	10000015 	stw	zero,0(r2)
	if (!bullet->stop)
		return;
	bullet->target = target;
	int i = 0;
	if(target == 1)
		for (i = 0; i < 10; i++){
 8000348:	e0bffc17 	ldw	r2,-16(fp)
 800034c:	10800044 	addi	r2,r2,1
 8000350:	e0bffc15 	stw	r2,-16(fp)
 8000354:	e0bffc17 	ldw	r2,-16(fp)
 8000358:	10800290 	cmplti	r2,r2,10
 800035c:	103fd51e 	bne	r2,zero,80002b4 <__alt_data_end+0xf80002b4>
 8000360:	00002f06 	br	8000420 <generate_bullet+0x1b4>
			bullet->vx[i] = 10;
			bullet->vy[i] = -5 + i;
			bullet->stop = 0;
		}
	else
		for (i = 0; i < 10; i++){
 8000364:	e03ffc15 	stw	zero,-16(fp)
 8000368:	00002806 	br	800040c <generate_bullet+0x1a0>
			bullet->x[i] = ship->x;
 800036c:	e0bffd17 	ldw	r2,-12(fp)
 8000370:	10c00117 	ldw	r3,4(r2)
 8000374:	e13fff17 	ldw	r4,-4(fp)
 8000378:	e0bffc17 	ldw	r2,-16(fp)
 800037c:	10800044 	addi	r2,r2,1
 8000380:	1085883a 	add	r2,r2,r2
 8000384:	1085883a 	add	r2,r2,r2
 8000388:	2085883a 	add	r2,r4,r2
 800038c:	10c00015 	stw	r3,0(r2)
			bullet->y[i] = ship->y;
 8000390:	e0bffd17 	ldw	r2,-12(fp)
 8000394:	10c00217 	ldw	r3,8(r2)
 8000398:	e13fff17 	ldw	r4,-4(fp)
 800039c:	e0bffc17 	ldw	r2,-16(fp)
 80003a0:	108002c4 	addi	r2,r2,11
 80003a4:	1085883a 	add	r2,r2,r2
 80003a8:	1085883a 	add	r2,r2,r2
 80003ac:	2085883a 	add	r2,r4,r2
 80003b0:	10c00015 	stw	r3,0(r2)
			bullet->vx[i] = -10;
 80003b4:	e0ffff17 	ldw	r3,-4(fp)
 80003b8:	e0bffc17 	ldw	r2,-16(fp)
 80003bc:	10800544 	addi	r2,r2,21
 80003c0:	1085883a 	add	r2,r2,r2
 80003c4:	1085883a 	add	r2,r2,r2
 80003c8:	1885883a 	add	r2,r3,r2
 80003cc:	00fffd84 	movi	r3,-10
 80003d0:	10c00015 	stw	r3,0(r2)
			bullet->vy[i] = -5 + i;
 80003d4:	e0bffc17 	ldw	r2,-16(fp)
 80003d8:	10fffec4 	addi	r3,r2,-5
 80003dc:	e13fff17 	ldw	r4,-4(fp)
 80003e0:	e0bffc17 	ldw	r2,-16(fp)
 80003e4:	108007c4 	addi	r2,r2,31
 80003e8:	1085883a 	add	r2,r2,r2
 80003ec:	1085883a 	add	r2,r2,r2
 80003f0:	2085883a 	add	r2,r4,r2
 80003f4:	10c00015 	stw	r3,0(r2)
			bullet->stop = 0;
 80003f8:	e0bfff17 	ldw	r2,-4(fp)
 80003fc:	10000015 	stw	zero,0(r2)
			bullet->vx[i] = 10;
			bullet->vy[i] = -5 + i;
			bullet->stop = 0;
		}
	else
		for (i = 0; i < 10; i++){
 8000400:	e0bffc17 	ldw	r2,-16(fp)
 8000404:	10800044 	addi	r2,r2,1
 8000408:	e0bffc15 	stw	r2,-16(fp)
 800040c:	e0bffc17 	ldw	r2,-16(fp)
 8000410:	10800290 	cmplti	r2,r2,10
 8000414:	103fd51e 	bne	r2,zero,800036c <__alt_data_end+0xf800036c>
 8000418:	00000106 	br	8000420 <generate_bullet+0x1b4>
 */
#include "bullet.h"
#include "ship_logic.h"
void generate_bullet(ship_t *ship, int target, bullet_t *bullet){
	if (!bullet->stop)
		return;
 800041c:	0001883a 	nop
			bullet->vx[i] = -10;
			bullet->vy[i] = -5 + i;
			bullet->stop = 0;
		}

}
 8000420:	e037883a 	mov	sp,fp
 8000424:	df000017 	ldw	fp,0(sp)
 8000428:	dec00104 	addi	sp,sp,4
 800042c:	f800283a 	ret

08000430 <update_bullet>:

void update_bullet(bullet_t *bullet1, bullet_t *bullet2, ship_t *ship1, ship_t *ship2){
 8000430:	defff904 	addi	sp,sp,-28
 8000434:	dfc00615 	stw	ra,24(sp)
 8000438:	df000515 	stw	fp,20(sp)
 800043c:	df000504 	addi	fp,sp,20
 8000440:	e13ffc15 	stw	r4,-16(fp)
 8000444:	e17ffd15 	stw	r5,-12(fp)
 8000448:	e1bffe15 	stw	r6,-8(fp)
 800044c:	e1ffff15 	stw	r7,-4(fp)
	int i;
	if (!bullet1->stop){
 8000450:	e0bffc17 	ldw	r2,-16(fp)
 8000454:	10800017 	ldw	r2,0(r2)
 8000458:	1000cb1e 	bne	r2,zero,8000788 <update_bullet+0x358>
		for(i = 0; i < 10; i++)
 800045c:	e03ffb15 	stw	zero,-20(fp)
 8000460:	0000c606 	br	800077c <update_bullet+0x34c>
		{
			bullet1->x[i] += bullet1->vx[i];
 8000464:	e0fffc17 	ldw	r3,-16(fp)
 8000468:	e0bffb17 	ldw	r2,-20(fp)
 800046c:	10800044 	addi	r2,r2,1
 8000470:	1085883a 	add	r2,r2,r2
 8000474:	1085883a 	add	r2,r2,r2
 8000478:	1885883a 	add	r2,r3,r2
 800047c:	10c00017 	ldw	r3,0(r2)
 8000480:	e13ffc17 	ldw	r4,-16(fp)
 8000484:	e0bffb17 	ldw	r2,-20(fp)
 8000488:	10800544 	addi	r2,r2,21
 800048c:	1085883a 	add	r2,r2,r2
 8000490:	1085883a 	add	r2,r2,r2
 8000494:	2085883a 	add	r2,r4,r2
 8000498:	10800017 	ldw	r2,0(r2)
 800049c:	1887883a 	add	r3,r3,r2
 80004a0:	e13ffc17 	ldw	r4,-16(fp)
 80004a4:	e0bffb17 	ldw	r2,-20(fp)
 80004a8:	10800044 	addi	r2,r2,1
 80004ac:	1085883a 	add	r2,r2,r2
 80004b0:	1085883a 	add	r2,r2,r2
 80004b4:	2085883a 	add	r2,r4,r2
 80004b8:	10c00015 	stw	r3,0(r2)
			bullet1->y[i] += bullet1->vy[i];
 80004bc:	e0fffc17 	ldw	r3,-16(fp)
 80004c0:	e0bffb17 	ldw	r2,-20(fp)
 80004c4:	108002c4 	addi	r2,r2,11
 80004c8:	1085883a 	add	r2,r2,r2
 80004cc:	1085883a 	add	r2,r2,r2
 80004d0:	1885883a 	add	r2,r3,r2
 80004d4:	10c00017 	ldw	r3,0(r2)
 80004d8:	e13ffc17 	ldw	r4,-16(fp)
 80004dc:	e0bffb17 	ldw	r2,-20(fp)
 80004e0:	108007c4 	addi	r2,r2,31
 80004e4:	1085883a 	add	r2,r2,r2
 80004e8:	1085883a 	add	r2,r2,r2
 80004ec:	2085883a 	add	r2,r4,r2
 80004f0:	10800017 	ldw	r2,0(r2)
 80004f4:	1887883a 	add	r3,r3,r2
 80004f8:	e13ffc17 	ldw	r4,-16(fp)
 80004fc:	e0bffb17 	ldw	r2,-20(fp)
 8000500:	108002c4 	addi	r2,r2,11
 8000504:	1085883a 	add	r2,r2,r2
 8000508:	1085883a 	add	r2,r2,r2
 800050c:	2085883a 	add	r2,r4,r2
 8000510:	10c00015 	stw	r3,0(r2)
			if(bullet1->x[i] >= RIGHT_MOST || bullet1->x[i] <= LEFT_MOST){
 8000514:	e0fffc17 	ldw	r3,-16(fp)
 8000518:	e0bffb17 	ldw	r2,-20(fp)
 800051c:	10800044 	addi	r2,r2,1
 8000520:	1085883a 	add	r2,r2,r2
 8000524:	1085883a 	add	r2,r2,r2
 8000528:	1885883a 	add	r2,r3,r2
 800052c:	10800017 	ldw	r2,0(r2)
 8000530:	108097c8 	cmpgei	r2,r2,607
 8000534:	1000091e 	bne	r2,zero,800055c <update_bullet+0x12c>
 8000538:	e0fffc17 	ldw	r3,-16(fp)
 800053c:	e0bffb17 	ldw	r2,-20(fp)
 8000540:	10800044 	addi	r2,r2,1
 8000544:	1085883a 	add	r2,r2,r2
 8000548:	1085883a 	add	r2,r2,r2
 800054c:	1885883a 	add	r2,r3,r2
 8000550:	10800017 	ldw	r2,0(r2)
 8000554:	10800888 	cmpgei	r2,r2,34
 8000558:	10001e1e 	bne	r2,zero,80005d4 <update_bullet+0x1a4>
				bullet1->x[i] = 1000;
 800055c:	e0fffc17 	ldw	r3,-16(fp)
 8000560:	e0bffb17 	ldw	r2,-20(fp)
 8000564:	10800044 	addi	r2,r2,1
 8000568:	1085883a 	add	r2,r2,r2
 800056c:	1085883a 	add	r2,r2,r2
 8000570:	1885883a 	add	r2,r3,r2
 8000574:	00c0fa04 	movi	r3,1000
 8000578:	10c00015 	stw	r3,0(r2)
				bullet1->y[i] = 1000;
 800057c:	e0fffc17 	ldw	r3,-16(fp)
 8000580:	e0bffb17 	ldw	r2,-20(fp)
 8000584:	108002c4 	addi	r2,r2,11
 8000588:	1085883a 	add	r2,r2,r2
 800058c:	1085883a 	add	r2,r2,r2
 8000590:	1885883a 	add	r2,r3,r2
 8000594:	00c0fa04 	movi	r3,1000
 8000598:	10c00015 	stw	r3,0(r2)
				bullet1->vx[i] = 0;
 800059c:	e0fffc17 	ldw	r3,-16(fp)
 80005a0:	e0bffb17 	ldw	r2,-20(fp)
 80005a4:	10800544 	addi	r2,r2,21
 80005a8:	1085883a 	add	r2,r2,r2
 80005ac:	1085883a 	add	r2,r2,r2
 80005b0:	1885883a 	add	r2,r3,r2
 80005b4:	10000015 	stw	zero,0(r2)
				bullet1->vy[i] = 0;
 80005b8:	e0fffc17 	ldw	r3,-16(fp)
 80005bc:	e0bffb17 	ldw	r2,-20(fp)
 80005c0:	108007c4 	addi	r2,r2,31
 80005c4:	1085883a 	add	r2,r2,r2
 80005c8:	1085883a 	add	r2,r2,r2
 80005cc:	1885883a 	add	r2,r3,r2
 80005d0:	10000015 	stw	zero,0(r2)
			}
			if(bullet1->y[i] <= UP_MOST || bullet1->y[i] >= DOWN_MOST){
 80005d4:	e0fffc17 	ldw	r3,-16(fp)
 80005d8:	e0bffb17 	ldw	r2,-20(fp)
 80005dc:	108002c4 	addi	r2,r2,11
 80005e0:	1085883a 	add	r2,r2,r2
 80005e4:	1085883a 	add	r2,r2,r2
 80005e8:	1885883a 	add	r2,r3,r2
 80005ec:	10800017 	ldw	r2,0(r2)
 80005f0:	10800a50 	cmplti	r2,r2,41
 80005f4:	1000091e 	bne	r2,zero,800061c <update_bullet+0x1ec>
 80005f8:	e0fffc17 	ldw	r3,-16(fp)
 80005fc:	e0bffb17 	ldw	r2,-20(fp)
 8000600:	108002c4 	addi	r2,r2,11
 8000604:	1085883a 	add	r2,r2,r2
 8000608:	1085883a 	add	r2,r2,r2
 800060c:	1885883a 	add	r2,r3,r2
 8000610:	10800017 	ldw	r2,0(r2)
 8000614:	10807090 	cmplti	r2,r2,450
 8000618:	10001e1e 	bne	r2,zero,8000694 <update_bullet+0x264>
				bullet1->x[i] = 1000;
 800061c:	e0fffc17 	ldw	r3,-16(fp)
 8000620:	e0bffb17 	ldw	r2,-20(fp)
 8000624:	10800044 	addi	r2,r2,1
 8000628:	1085883a 	add	r2,r2,r2
 800062c:	1085883a 	add	r2,r2,r2
 8000630:	1885883a 	add	r2,r3,r2
 8000634:	00c0fa04 	movi	r3,1000
 8000638:	10c00015 	stw	r3,0(r2)
				bullet1->y[i] = 1000;
 800063c:	e0fffc17 	ldw	r3,-16(fp)
 8000640:	e0bffb17 	ldw	r2,-20(fp)
 8000644:	108002c4 	addi	r2,r2,11
 8000648:	1085883a 	add	r2,r2,r2
 800064c:	1085883a 	add	r2,r2,r2
 8000650:	1885883a 	add	r2,r3,r2
 8000654:	00c0fa04 	movi	r3,1000
 8000658:	10c00015 	stw	r3,0(r2)
				bullet1->vx[i] = 0;
 800065c:	e0fffc17 	ldw	r3,-16(fp)
 8000660:	e0bffb17 	ldw	r2,-20(fp)
 8000664:	10800544 	addi	r2,r2,21
 8000668:	1085883a 	add	r2,r2,r2
 800066c:	1085883a 	add	r2,r2,r2
 8000670:	1885883a 	add	r2,r3,r2
 8000674:	10000015 	stw	zero,0(r2)
				bullet1->vy[i] = 0;
 8000678:	e0fffc17 	ldw	r3,-16(fp)
 800067c:	e0bffb17 	ldw	r2,-20(fp)
 8000680:	108007c4 	addi	r2,r2,31
 8000684:	1085883a 	add	r2,r2,r2
 8000688:	1085883a 	add	r2,r2,r2
 800068c:	1885883a 	add	r2,r3,r2
 8000690:	10000015 	stw	zero,0(r2)
			}
			if(detect(ship2, bullet1->x[i], bullet1->y[i], 10)){
 8000694:	e0fffc17 	ldw	r3,-16(fp)
 8000698:	e0bffb17 	ldw	r2,-20(fp)
 800069c:	10800044 	addi	r2,r2,1
 80006a0:	1085883a 	add	r2,r2,r2
 80006a4:	1085883a 	add	r2,r2,r2
 80006a8:	1885883a 	add	r2,r3,r2
 80006ac:	11000017 	ldw	r4,0(r2)
 80006b0:	e0fffc17 	ldw	r3,-16(fp)
 80006b4:	e0bffb17 	ldw	r2,-20(fp)
 80006b8:	108002c4 	addi	r2,r2,11
 80006bc:	1085883a 	add	r2,r2,r2
 80006c0:	1085883a 	add	r2,r2,r2
 80006c4:	1885883a 	add	r2,r3,r2
 80006c8:	10800017 	ldw	r2,0(r2)
 80006cc:	01c00284 	movi	r7,10
 80006d0:	100d883a 	mov	r6,r2
 80006d4:	200b883a 	mov	r5,r4
 80006d8:	e13fff17 	ldw	r4,-4(fp)
 80006dc:	80028e40 	call	80028e4 <detect>
 80006e0:	10002326 	beq	r2,zero,8000770 <update_bullet+0x340>
				ship2->HP -= 2;
 80006e4:	e0bfff17 	ldw	r2,-4(fp)
 80006e8:	10800517 	ldw	r2,20(r2)
 80006ec:	10ffff84 	addi	r3,r2,-2
 80006f0:	e0bfff17 	ldw	r2,-4(fp)
 80006f4:	10c00515 	stw	r3,20(r2)
				bullet1->x[i] = 1000;
 80006f8:	e0fffc17 	ldw	r3,-16(fp)
 80006fc:	e0bffb17 	ldw	r2,-20(fp)
 8000700:	10800044 	addi	r2,r2,1
 8000704:	1085883a 	add	r2,r2,r2
 8000708:	1085883a 	add	r2,r2,r2
 800070c:	1885883a 	add	r2,r3,r2
 8000710:	00c0fa04 	movi	r3,1000
 8000714:	10c00015 	stw	r3,0(r2)
				bullet1->y[i] = 1000;
 8000718:	e0fffc17 	ldw	r3,-16(fp)
 800071c:	e0bffb17 	ldw	r2,-20(fp)
 8000720:	108002c4 	addi	r2,r2,11
 8000724:	1085883a 	add	r2,r2,r2
 8000728:	1085883a 	add	r2,r2,r2
 800072c:	1885883a 	add	r2,r3,r2
 8000730:	00c0fa04 	movi	r3,1000
 8000734:	10c00015 	stw	r3,0(r2)
				bullet1->vx[i] = 0;
 8000738:	e0fffc17 	ldw	r3,-16(fp)
 800073c:	e0bffb17 	ldw	r2,-20(fp)
 8000740:	10800544 	addi	r2,r2,21
 8000744:	1085883a 	add	r2,r2,r2
 8000748:	1085883a 	add	r2,r2,r2
 800074c:	1885883a 	add	r2,r3,r2
 8000750:	10000015 	stw	zero,0(r2)
				bullet1->vy[i] = 0;
 8000754:	e0fffc17 	ldw	r3,-16(fp)
 8000758:	e0bffb17 	ldw	r2,-20(fp)
 800075c:	108007c4 	addi	r2,r2,31
 8000760:	1085883a 	add	r2,r2,r2
 8000764:	1085883a 	add	r2,r2,r2
 8000768:	1885883a 	add	r2,r3,r2
 800076c:	10000015 	stw	zero,0(r2)
}

void update_bullet(bullet_t *bullet1, bullet_t *bullet2, ship_t *ship1, ship_t *ship2){
	int i;
	if (!bullet1->stop){
		for(i = 0; i < 10; i++)
 8000770:	e0bffb17 	ldw	r2,-20(fp)
 8000774:	10800044 	addi	r2,r2,1
 8000778:	e0bffb15 	stw	r2,-20(fp)
 800077c:	e0bffb17 	ldw	r2,-20(fp)
 8000780:	10800290 	cmplti	r2,r2,10
 8000784:	103f371e 	bne	r2,zero,8000464 <__alt_data_end+0xf8000464>
				bullet1->vy[i] = 0;
			}
		}

	}
	if(bullet1->vx[0] == 0 && bullet1->vx[1] == 0
 8000788:	e0bffc17 	ldw	r2,-16(fp)
 800078c:	10801517 	ldw	r2,84(r2)
 8000790:	10001e1e 	bne	r2,zero,800080c <update_bullet+0x3dc>
 8000794:	e0bffc17 	ldw	r2,-16(fp)
 8000798:	10801617 	ldw	r2,88(r2)
 800079c:	10001b1e 	bne	r2,zero,800080c <update_bullet+0x3dc>
	&& bullet1->vx[2] == 0 && bullet1->vx[3]== 0 &&
 80007a0:	e0bffc17 	ldw	r2,-16(fp)
 80007a4:	10801717 	ldw	r2,92(r2)
 80007a8:	1000181e 	bne	r2,zero,800080c <update_bullet+0x3dc>
 80007ac:	e0bffc17 	ldw	r2,-16(fp)
 80007b0:	10801817 	ldw	r2,96(r2)
 80007b4:	1000151e 	bne	r2,zero,800080c <update_bullet+0x3dc>
	bullet1->vx[4] == 0 && bullet1->vx[5] == 0
 80007b8:	e0bffc17 	ldw	r2,-16(fp)
 80007bc:	10801917 	ldw	r2,100(r2)
			}
		}

	}
	if(bullet1->vx[0] == 0 && bullet1->vx[1] == 0
	&& bullet1->vx[2] == 0 && bullet1->vx[3]== 0 &&
 80007c0:	1000121e 	bne	r2,zero,800080c <update_bullet+0x3dc>
	bullet1->vx[4] == 0 && bullet1->vx[5] == 0
 80007c4:	e0bffc17 	ldw	r2,-16(fp)
 80007c8:	10801a17 	ldw	r2,104(r2)
 80007cc:	10000f1e 	bne	r2,zero,800080c <update_bullet+0x3dc>
	&& bullet1->vx[6] == 0 && bullet1->vx[7]== 0 &&
 80007d0:	e0bffc17 	ldw	r2,-16(fp)
 80007d4:	10801b17 	ldw	r2,108(r2)
 80007d8:	10000c1e 	bne	r2,zero,800080c <update_bullet+0x3dc>
 80007dc:	e0bffc17 	ldw	r2,-16(fp)
 80007e0:	10801c17 	ldw	r2,112(r2)
 80007e4:	1000091e 	bne	r2,zero,800080c <update_bullet+0x3dc>
		bullet1->vx[8] == 0 && bullet1->vx[9]== 0 ){
 80007e8:	e0bffc17 	ldw	r2,-16(fp)
 80007ec:	10801d17 	ldw	r2,116(r2)

	}
	if(bullet1->vx[0] == 0 && bullet1->vx[1] == 0
	&& bullet1->vx[2] == 0 && bullet1->vx[3]== 0 &&
	bullet1->vx[4] == 0 && bullet1->vx[5] == 0
	&& bullet1->vx[6] == 0 && bullet1->vx[7]== 0 &&
 80007f0:	1000061e 	bne	r2,zero,800080c <update_bullet+0x3dc>
		bullet1->vx[8] == 0 && bullet1->vx[9]== 0 ){
 80007f4:	e0bffc17 	ldw	r2,-16(fp)
 80007f8:	10801e17 	ldw	r2,120(r2)
 80007fc:	1000031e 	bne	r2,zero,800080c <update_bullet+0x3dc>
		bullet1->stop = 1;
 8000800:	e0bffc17 	ldw	r2,-16(fp)
 8000804:	00c00044 	movi	r3,1
 8000808:	10c00015 	stw	r3,0(r2)
	}
	if (!bullet2->stop){
 800080c:	e0bffd17 	ldw	r2,-12(fp)
 8000810:	10800017 	ldw	r2,0(r2)
 8000814:	1000cb1e 	bne	r2,zero,8000b44 <update_bullet+0x714>
		for(i = 0; i < 10; i++){
 8000818:	e03ffb15 	stw	zero,-20(fp)
 800081c:	0000c606 	br	8000b38 <update_bullet+0x708>
			bullet2->x[i] += bullet2->vx[i];
 8000820:	e0fffd17 	ldw	r3,-12(fp)
 8000824:	e0bffb17 	ldw	r2,-20(fp)
 8000828:	10800044 	addi	r2,r2,1
 800082c:	1085883a 	add	r2,r2,r2
 8000830:	1085883a 	add	r2,r2,r2
 8000834:	1885883a 	add	r2,r3,r2
 8000838:	10c00017 	ldw	r3,0(r2)
 800083c:	e13ffd17 	ldw	r4,-12(fp)
 8000840:	e0bffb17 	ldw	r2,-20(fp)
 8000844:	10800544 	addi	r2,r2,21
 8000848:	1085883a 	add	r2,r2,r2
 800084c:	1085883a 	add	r2,r2,r2
 8000850:	2085883a 	add	r2,r4,r2
 8000854:	10800017 	ldw	r2,0(r2)
 8000858:	1887883a 	add	r3,r3,r2
 800085c:	e13ffd17 	ldw	r4,-12(fp)
 8000860:	e0bffb17 	ldw	r2,-20(fp)
 8000864:	10800044 	addi	r2,r2,1
 8000868:	1085883a 	add	r2,r2,r2
 800086c:	1085883a 	add	r2,r2,r2
 8000870:	2085883a 	add	r2,r4,r2
 8000874:	10c00015 	stw	r3,0(r2)
			bullet2->y[i] += bullet2->vy[i];
 8000878:	e0fffd17 	ldw	r3,-12(fp)
 800087c:	e0bffb17 	ldw	r2,-20(fp)
 8000880:	108002c4 	addi	r2,r2,11
 8000884:	1085883a 	add	r2,r2,r2
 8000888:	1085883a 	add	r2,r2,r2
 800088c:	1885883a 	add	r2,r3,r2
 8000890:	10c00017 	ldw	r3,0(r2)
 8000894:	e13ffd17 	ldw	r4,-12(fp)
 8000898:	e0bffb17 	ldw	r2,-20(fp)
 800089c:	108007c4 	addi	r2,r2,31
 80008a0:	1085883a 	add	r2,r2,r2
 80008a4:	1085883a 	add	r2,r2,r2
 80008a8:	2085883a 	add	r2,r4,r2
 80008ac:	10800017 	ldw	r2,0(r2)
 80008b0:	1887883a 	add	r3,r3,r2
 80008b4:	e13ffd17 	ldw	r4,-12(fp)
 80008b8:	e0bffb17 	ldw	r2,-20(fp)
 80008bc:	108002c4 	addi	r2,r2,11
 80008c0:	1085883a 	add	r2,r2,r2
 80008c4:	1085883a 	add	r2,r2,r2
 80008c8:	2085883a 	add	r2,r4,r2
 80008cc:	10c00015 	stw	r3,0(r2)
			if(bullet2->x[i] >= RIGHT_MOST || bullet2->x[i] <= LEFT_MOST){
 80008d0:	e0fffd17 	ldw	r3,-12(fp)
 80008d4:	e0bffb17 	ldw	r2,-20(fp)
 80008d8:	10800044 	addi	r2,r2,1
 80008dc:	1085883a 	add	r2,r2,r2
 80008e0:	1085883a 	add	r2,r2,r2
 80008e4:	1885883a 	add	r2,r3,r2
 80008e8:	10800017 	ldw	r2,0(r2)
 80008ec:	108097c8 	cmpgei	r2,r2,607
 80008f0:	1000091e 	bne	r2,zero,8000918 <update_bullet+0x4e8>
 80008f4:	e0fffd17 	ldw	r3,-12(fp)
 80008f8:	e0bffb17 	ldw	r2,-20(fp)
 80008fc:	10800044 	addi	r2,r2,1
 8000900:	1085883a 	add	r2,r2,r2
 8000904:	1085883a 	add	r2,r2,r2
 8000908:	1885883a 	add	r2,r3,r2
 800090c:	10800017 	ldw	r2,0(r2)
 8000910:	10800888 	cmpgei	r2,r2,34
 8000914:	10001e1e 	bne	r2,zero,8000990 <update_bullet+0x560>
				bullet2->x[i] = 1000;
 8000918:	e0fffd17 	ldw	r3,-12(fp)
 800091c:	e0bffb17 	ldw	r2,-20(fp)
 8000920:	10800044 	addi	r2,r2,1
 8000924:	1085883a 	add	r2,r2,r2
 8000928:	1085883a 	add	r2,r2,r2
 800092c:	1885883a 	add	r2,r3,r2
 8000930:	00c0fa04 	movi	r3,1000
 8000934:	10c00015 	stw	r3,0(r2)
				bullet2->y[i] = 1000;
 8000938:	e0fffd17 	ldw	r3,-12(fp)
 800093c:	e0bffb17 	ldw	r2,-20(fp)
 8000940:	108002c4 	addi	r2,r2,11
 8000944:	1085883a 	add	r2,r2,r2
 8000948:	1085883a 	add	r2,r2,r2
 800094c:	1885883a 	add	r2,r3,r2
 8000950:	00c0fa04 	movi	r3,1000
 8000954:	10c00015 	stw	r3,0(r2)
				bullet2->vx[i] = 0;
 8000958:	e0fffd17 	ldw	r3,-12(fp)
 800095c:	e0bffb17 	ldw	r2,-20(fp)
 8000960:	10800544 	addi	r2,r2,21
 8000964:	1085883a 	add	r2,r2,r2
 8000968:	1085883a 	add	r2,r2,r2
 800096c:	1885883a 	add	r2,r3,r2
 8000970:	10000015 	stw	zero,0(r2)
				bullet2->vy[i] = 0;
 8000974:	e0fffd17 	ldw	r3,-12(fp)
 8000978:	e0bffb17 	ldw	r2,-20(fp)
 800097c:	108007c4 	addi	r2,r2,31
 8000980:	1085883a 	add	r2,r2,r2
 8000984:	1085883a 	add	r2,r2,r2
 8000988:	1885883a 	add	r2,r3,r2
 800098c:	10000015 	stw	zero,0(r2)
			}
			if(bullet2->y[i] <= UP_MOST || bullet2->y[i] >= DOWN_MOST){
 8000990:	e0fffd17 	ldw	r3,-12(fp)
 8000994:	e0bffb17 	ldw	r2,-20(fp)
 8000998:	108002c4 	addi	r2,r2,11
 800099c:	1085883a 	add	r2,r2,r2
 80009a0:	1085883a 	add	r2,r2,r2
 80009a4:	1885883a 	add	r2,r3,r2
 80009a8:	10800017 	ldw	r2,0(r2)
 80009ac:	10800a50 	cmplti	r2,r2,41
 80009b0:	1000091e 	bne	r2,zero,80009d8 <update_bullet+0x5a8>
 80009b4:	e0fffd17 	ldw	r3,-12(fp)
 80009b8:	e0bffb17 	ldw	r2,-20(fp)
 80009bc:	108002c4 	addi	r2,r2,11
 80009c0:	1085883a 	add	r2,r2,r2
 80009c4:	1085883a 	add	r2,r2,r2
 80009c8:	1885883a 	add	r2,r3,r2
 80009cc:	10800017 	ldw	r2,0(r2)
 80009d0:	10807090 	cmplti	r2,r2,450
 80009d4:	10001e1e 	bne	r2,zero,8000a50 <update_bullet+0x620>
				bullet2->x[i] = 1000;
 80009d8:	e0fffd17 	ldw	r3,-12(fp)
 80009dc:	e0bffb17 	ldw	r2,-20(fp)
 80009e0:	10800044 	addi	r2,r2,1
 80009e4:	1085883a 	add	r2,r2,r2
 80009e8:	1085883a 	add	r2,r2,r2
 80009ec:	1885883a 	add	r2,r3,r2
 80009f0:	00c0fa04 	movi	r3,1000
 80009f4:	10c00015 	stw	r3,0(r2)
				bullet2->y[i] = 1000;
 80009f8:	e0fffd17 	ldw	r3,-12(fp)
 80009fc:	e0bffb17 	ldw	r2,-20(fp)
 8000a00:	108002c4 	addi	r2,r2,11
 8000a04:	1085883a 	add	r2,r2,r2
 8000a08:	1085883a 	add	r2,r2,r2
 8000a0c:	1885883a 	add	r2,r3,r2
 8000a10:	00c0fa04 	movi	r3,1000
 8000a14:	10c00015 	stw	r3,0(r2)
				bullet2->vx[i] = 0;
 8000a18:	e0fffd17 	ldw	r3,-12(fp)
 8000a1c:	e0bffb17 	ldw	r2,-20(fp)
 8000a20:	10800544 	addi	r2,r2,21
 8000a24:	1085883a 	add	r2,r2,r2
 8000a28:	1085883a 	add	r2,r2,r2
 8000a2c:	1885883a 	add	r2,r3,r2
 8000a30:	10000015 	stw	zero,0(r2)
				bullet2->vy[i] = 0;
 8000a34:	e0fffd17 	ldw	r3,-12(fp)
 8000a38:	e0bffb17 	ldw	r2,-20(fp)
 8000a3c:	108007c4 	addi	r2,r2,31
 8000a40:	1085883a 	add	r2,r2,r2
 8000a44:	1085883a 	add	r2,r2,r2
 8000a48:	1885883a 	add	r2,r3,r2
 8000a4c:	10000015 	stw	zero,0(r2)
			}
			if(detect(ship1, bullet2->x[i], bullet2->y[i], 10)){
 8000a50:	e0fffd17 	ldw	r3,-12(fp)
 8000a54:	e0bffb17 	ldw	r2,-20(fp)
 8000a58:	10800044 	addi	r2,r2,1
 8000a5c:	1085883a 	add	r2,r2,r2
 8000a60:	1085883a 	add	r2,r2,r2
 8000a64:	1885883a 	add	r2,r3,r2
 8000a68:	11000017 	ldw	r4,0(r2)
 8000a6c:	e0fffd17 	ldw	r3,-12(fp)
 8000a70:	e0bffb17 	ldw	r2,-20(fp)
 8000a74:	108002c4 	addi	r2,r2,11
 8000a78:	1085883a 	add	r2,r2,r2
 8000a7c:	1085883a 	add	r2,r2,r2
 8000a80:	1885883a 	add	r2,r3,r2
 8000a84:	10800017 	ldw	r2,0(r2)
 8000a88:	01c00284 	movi	r7,10
 8000a8c:	100d883a 	mov	r6,r2
 8000a90:	200b883a 	mov	r5,r4
 8000a94:	e13ffe17 	ldw	r4,-8(fp)
 8000a98:	80028e40 	call	80028e4 <detect>
 8000a9c:	10002326 	beq	r2,zero,8000b2c <update_bullet+0x6fc>
				ship1->HP -= 2;
 8000aa0:	e0bffe17 	ldw	r2,-8(fp)
 8000aa4:	10800517 	ldw	r2,20(r2)
 8000aa8:	10ffff84 	addi	r3,r2,-2
 8000aac:	e0bffe17 	ldw	r2,-8(fp)
 8000ab0:	10c00515 	stw	r3,20(r2)
				bullet2->x[i] = 1000;
 8000ab4:	e0fffd17 	ldw	r3,-12(fp)
 8000ab8:	e0bffb17 	ldw	r2,-20(fp)
 8000abc:	10800044 	addi	r2,r2,1
 8000ac0:	1085883a 	add	r2,r2,r2
 8000ac4:	1085883a 	add	r2,r2,r2
 8000ac8:	1885883a 	add	r2,r3,r2
 8000acc:	00c0fa04 	movi	r3,1000
 8000ad0:	10c00015 	stw	r3,0(r2)
				bullet2->y[i] = 1000;
 8000ad4:	e0fffd17 	ldw	r3,-12(fp)
 8000ad8:	e0bffb17 	ldw	r2,-20(fp)
 8000adc:	108002c4 	addi	r2,r2,11
 8000ae0:	1085883a 	add	r2,r2,r2
 8000ae4:	1085883a 	add	r2,r2,r2
 8000ae8:	1885883a 	add	r2,r3,r2
 8000aec:	00c0fa04 	movi	r3,1000
 8000af0:	10c00015 	stw	r3,0(r2)
				bullet2->vx[i] = 0;
 8000af4:	e0fffd17 	ldw	r3,-12(fp)
 8000af8:	e0bffb17 	ldw	r2,-20(fp)
 8000afc:	10800544 	addi	r2,r2,21
 8000b00:	1085883a 	add	r2,r2,r2
 8000b04:	1085883a 	add	r2,r2,r2
 8000b08:	1885883a 	add	r2,r3,r2
 8000b0c:	10000015 	stw	zero,0(r2)
				bullet2->vy[i] = 0;
 8000b10:	e0fffd17 	ldw	r3,-12(fp)
 8000b14:	e0bffb17 	ldw	r2,-20(fp)
 8000b18:	108007c4 	addi	r2,r2,31
 8000b1c:	1085883a 	add	r2,r2,r2
 8000b20:	1085883a 	add	r2,r2,r2
 8000b24:	1885883a 	add	r2,r3,r2
 8000b28:	10000015 	stw	zero,0(r2)
	&& bullet1->vx[6] == 0 && bullet1->vx[7]== 0 &&
		bullet1->vx[8] == 0 && bullet1->vx[9]== 0 ){
		bullet1->stop = 1;
	}
	if (!bullet2->stop){
		for(i = 0; i < 10; i++){
 8000b2c:	e0bffb17 	ldw	r2,-20(fp)
 8000b30:	10800044 	addi	r2,r2,1
 8000b34:	e0bffb15 	stw	r2,-20(fp)
 8000b38:	e0bffb17 	ldw	r2,-20(fp)
 8000b3c:	10800290 	cmplti	r2,r2,10
 8000b40:	103f371e 	bne	r2,zero,8000820 <__alt_data_end+0xf8000820>
				bullet2->vx[i] = 0;
				bullet2->vy[i] = 0;
			}
		}
	}
	if(bullet2->vx[0] == 0 && bullet2->vx[1] == 0
 8000b44:	e0bffd17 	ldw	r2,-12(fp)
 8000b48:	10801517 	ldw	r2,84(r2)
 8000b4c:	10001e1e 	bne	r2,zero,8000bc8 <update_bullet+0x798>
 8000b50:	e0bffd17 	ldw	r2,-12(fp)
 8000b54:	10801617 	ldw	r2,88(r2)
 8000b58:	10001b1e 	bne	r2,zero,8000bc8 <update_bullet+0x798>
				&& bullet2->vx[2] == 0 && bullet2->vx[3]== 0 &&
 8000b5c:	e0bffd17 	ldw	r2,-12(fp)
 8000b60:	10801717 	ldw	r2,92(r2)
 8000b64:	1000181e 	bne	r2,zero,8000bc8 <update_bullet+0x798>
 8000b68:	e0bffd17 	ldw	r2,-12(fp)
 8000b6c:	10801817 	ldw	r2,96(r2)
 8000b70:	1000151e 	bne	r2,zero,8000bc8 <update_bullet+0x798>
				bullet2->vx[4] == 0 && bullet2->vx[5] == 0
 8000b74:	e0bffd17 	ldw	r2,-12(fp)
 8000b78:	10801917 	ldw	r2,100(r2)
				bullet2->vy[i] = 0;
			}
		}
	}
	if(bullet2->vx[0] == 0 && bullet2->vx[1] == 0
				&& bullet2->vx[2] == 0 && bullet2->vx[3]== 0 &&
 8000b7c:	1000121e 	bne	r2,zero,8000bc8 <update_bullet+0x798>
				bullet2->vx[4] == 0 && bullet2->vx[5] == 0
 8000b80:	e0bffd17 	ldw	r2,-12(fp)
 8000b84:	10801a17 	ldw	r2,104(r2)
 8000b88:	10000f1e 	bne	r2,zero,8000bc8 <update_bullet+0x798>
				&& bullet2->vx[6] == 0 && bullet2->vx[7]== 0 &&
 8000b8c:	e0bffd17 	ldw	r2,-12(fp)
 8000b90:	10801b17 	ldw	r2,108(r2)
 8000b94:	10000c1e 	bne	r2,zero,8000bc8 <update_bullet+0x798>
 8000b98:	e0bffd17 	ldw	r2,-12(fp)
 8000b9c:	10801c17 	ldw	r2,112(r2)
 8000ba0:	1000091e 	bne	r2,zero,8000bc8 <update_bullet+0x798>
				 bullet2->vx[8] == 0 && bullet2->vx[9]== 0 ){
 8000ba4:	e0bffd17 	ldw	r2,-12(fp)
 8000ba8:	10801d17 	ldw	r2,116(r2)
		}
	}
	if(bullet2->vx[0] == 0 && bullet2->vx[1] == 0
				&& bullet2->vx[2] == 0 && bullet2->vx[3]== 0 &&
				bullet2->vx[4] == 0 && bullet2->vx[5] == 0
				&& bullet2->vx[6] == 0 && bullet2->vx[7]== 0 &&
 8000bac:	1000061e 	bne	r2,zero,8000bc8 <update_bullet+0x798>
				 bullet2->vx[8] == 0 && bullet2->vx[9]== 0 ){
 8000bb0:	e0bffd17 	ldw	r2,-12(fp)
 8000bb4:	10801e17 	ldw	r2,120(r2)
 8000bb8:	1000031e 	bne	r2,zero,8000bc8 <update_bullet+0x798>
		bullet2->stop = 1;
 8000bbc:	e0bffd17 	ldw	r2,-12(fp)
 8000bc0:	00c00044 	movi	r3,1
 8000bc4:	10c00015 	stw	r3,0(r2)
	}
}
 8000bc8:	0001883a 	nop
 8000bcc:	e037883a 	mov	sp,fp
 8000bd0:	dfc00117 	ldw	ra,4(sp)
 8000bd4:	df000017 	ldw	fp,0(sp)
 8000bd8:	dec00204 	addi	sp,sp,8
 8000bdc:	f800283a 	ret

08000be0 <init_bullet>:

void init_bullet(bullet_t *bullet1, bullet_t *bullet2){
 8000be0:	defffc04 	addi	sp,sp,-16
 8000be4:	df000315 	stw	fp,12(sp)
 8000be8:	df000304 	addi	fp,sp,12
 8000bec:	e13ffe15 	stw	r4,-8(fp)
 8000bf0:	e17fff15 	stw	r5,-4(fp)
	int i;
	bullet1->stop = 1;
 8000bf4:	e0bffe17 	ldw	r2,-8(fp)
 8000bf8:	00c00044 	movi	r3,1
 8000bfc:	10c00015 	stw	r3,0(r2)
	bullet2->stop = 1;
 8000c00:	e0bfff17 	ldw	r2,-4(fp)
 8000c04:	00c00044 	movi	r3,1
 8000c08:	10c00015 	stw	r3,0(r2)
	for (i = 0; i < 10; i++)
 8000c0c:	e03ffd15 	stw	zero,-12(fp)
 8000c10:	00004406 	br	8000d24 <init_bullet+0x144>
	{
		bullet1->x[i] = 1000;
 8000c14:	e0fffe17 	ldw	r3,-8(fp)
 8000c18:	e0bffd17 	ldw	r2,-12(fp)
 8000c1c:	10800044 	addi	r2,r2,1
 8000c20:	1085883a 	add	r2,r2,r2
 8000c24:	1085883a 	add	r2,r2,r2
 8000c28:	1885883a 	add	r2,r3,r2
 8000c2c:	00c0fa04 	movi	r3,1000
 8000c30:	10c00015 	stw	r3,0(r2)
		bullet1->y[i] = 1000;
 8000c34:	e0fffe17 	ldw	r3,-8(fp)
 8000c38:	e0bffd17 	ldw	r2,-12(fp)
 8000c3c:	108002c4 	addi	r2,r2,11
 8000c40:	1085883a 	add	r2,r2,r2
 8000c44:	1085883a 	add	r2,r2,r2
 8000c48:	1885883a 	add	r2,r3,r2
 8000c4c:	00c0fa04 	movi	r3,1000
 8000c50:	10c00015 	stw	r3,0(r2)
		bullet2->x[i] = 1000;
 8000c54:	e0ffff17 	ldw	r3,-4(fp)
 8000c58:	e0bffd17 	ldw	r2,-12(fp)
 8000c5c:	10800044 	addi	r2,r2,1
 8000c60:	1085883a 	add	r2,r2,r2
 8000c64:	1085883a 	add	r2,r2,r2
 8000c68:	1885883a 	add	r2,r3,r2
 8000c6c:	00c0fa04 	movi	r3,1000
 8000c70:	10c00015 	stw	r3,0(r2)
		bullet2->y[i] = 1000;
 8000c74:	e0ffff17 	ldw	r3,-4(fp)
 8000c78:	e0bffd17 	ldw	r2,-12(fp)
 8000c7c:	108002c4 	addi	r2,r2,11
 8000c80:	1085883a 	add	r2,r2,r2
 8000c84:	1085883a 	add	r2,r2,r2
 8000c88:	1885883a 	add	r2,r3,r2
 8000c8c:	00c0fa04 	movi	r3,1000
 8000c90:	10c00015 	stw	r3,0(r2)
		bullet1->vx[i] = 0;
 8000c94:	e0fffe17 	ldw	r3,-8(fp)
 8000c98:	e0bffd17 	ldw	r2,-12(fp)
 8000c9c:	10800544 	addi	r2,r2,21
 8000ca0:	1085883a 	add	r2,r2,r2
 8000ca4:	1085883a 	add	r2,r2,r2
 8000ca8:	1885883a 	add	r2,r3,r2
 8000cac:	10000015 	stw	zero,0(r2)
		bullet2->vx[i] = 0;
 8000cb0:	e0ffff17 	ldw	r3,-4(fp)
 8000cb4:	e0bffd17 	ldw	r2,-12(fp)
 8000cb8:	10800544 	addi	r2,r2,21
 8000cbc:	1085883a 	add	r2,r2,r2
 8000cc0:	1085883a 	add	r2,r2,r2
 8000cc4:	1885883a 	add	r2,r3,r2
 8000cc8:	10000015 	stw	zero,0(r2)
		bullet1->vy[i] = 0;
 8000ccc:	e0fffe17 	ldw	r3,-8(fp)
 8000cd0:	e0bffd17 	ldw	r2,-12(fp)
 8000cd4:	108007c4 	addi	r2,r2,31
 8000cd8:	1085883a 	add	r2,r2,r2
 8000cdc:	1085883a 	add	r2,r2,r2
 8000ce0:	1885883a 	add	r2,r3,r2
 8000ce4:	10000015 	stw	zero,0(r2)
		bullet2->vy[i] = 0;
 8000ce8:	e0ffff17 	ldw	r3,-4(fp)
 8000cec:	e0bffd17 	ldw	r2,-12(fp)
 8000cf0:	108007c4 	addi	r2,r2,31
 8000cf4:	1085883a 	add	r2,r2,r2
 8000cf8:	1085883a 	add	r2,r2,r2
 8000cfc:	1885883a 	add	r2,r3,r2
 8000d00:	10000015 	stw	zero,0(r2)
		bullet1->target = 1;
 8000d04:	e0bffe17 	ldw	r2,-8(fp)
 8000d08:	00c00044 	movi	r3,1
 8000d0c:	10c02915 	stw	r3,164(r2)
		bullet2->target =0;
 8000d10:	e0bfff17 	ldw	r2,-4(fp)
 8000d14:	10002915 	stw	zero,164(r2)

void init_bullet(bullet_t *bullet1, bullet_t *bullet2){
	int i;
	bullet1->stop = 1;
	bullet2->stop = 1;
	for (i = 0; i < 10; i++)
 8000d18:	e0bffd17 	ldw	r2,-12(fp)
 8000d1c:	10800044 	addi	r2,r2,1
 8000d20:	e0bffd15 	stw	r2,-12(fp)
 8000d24:	e0bffd17 	ldw	r2,-12(fp)
 8000d28:	10800290 	cmplti	r2,r2,10
 8000d2c:	103fb91e 	bne	r2,zero,8000c14 <__alt_data_end+0xf8000c14>
		bullet1->vy[i] = 0;
		bullet2->vy[i] = 0;
		bullet1->target = 1;
		bullet2->target =0;
	}
}
 8000d30:	0001883a 	nop
 8000d34:	e037883a 	mov	sp,fp
 8000d38:	df000017 	ldw	fp,0(sp)
 8000d3c:	dec00104 	addi	sp,sp,4
 8000d40:	f800283a 	ret

08000d44 <choose_ship>:
 * or
 * ENTER: 		game_start = 1;
 * ESC:	  		game_start = 0, developer_mode = 0;
 * BACKSPACE: 	game_start = 0, developer_mode = 1;
 */
void choose_ship(int* player1_ready, int* player2_ready, ship_t* ship, ship_t* ship2){
 8000d44:	defff204 	addi	sp,sp,-56
 8000d48:	dfc00d15 	stw	ra,52(sp)
 8000d4c:	df000c15 	stw	fp,48(sp)
 8000d50:	df000c04 	addi	fp,sp,48
 8000d54:	e13ffc15 	stw	r4,-16(fp)
 8000d58:	e17ffd15 	stw	r5,-12(fp)
 8000d5c:	e1bffe15 	stw	r6,-8(fp)
 8000d60:	e1ffff15 	stw	r7,-4(fp)
	unsigned long key, key2, key3;
	int key_array[4];
	int cur_key, cur_key2;
	
	get_keycode(&key, &key2, &key3);
 8000d64:	e13ff704 	addi	r4,fp,-36
 8000d68:	e0fff604 	addi	r3,fp,-40
 8000d6c:	e0bff504 	addi	r2,fp,-44
 8000d70:	200d883a 	mov	r6,r4
 8000d74:	180b883a 	mov	r5,r3
 8000d78:	1009883a 	mov	r4,r2
 8000d7c:	80051500 	call	8005150 <get_keycode>
	key_array[0]= (key>>24) & 0xff;
 8000d80:	e0bff517 	ldw	r2,-44(fp)
 8000d84:	1004d63a 	srli	r2,r2,24
 8000d88:	e0bff815 	stw	r2,-32(fp)
	key_array[1]= (key>>16) & 0xff;
 8000d8c:	e0bff517 	ldw	r2,-44(fp)
 8000d90:	1004d43a 	srli	r2,r2,16
 8000d94:	10803fcc 	andi	r2,r2,255
 8000d98:	e0bff915 	stw	r2,-28(fp)
	key_array[2]= (key>>8) & 0xff;
 8000d9c:	e0bff517 	ldw	r2,-44(fp)
 8000da0:	1004d23a 	srli	r2,r2,8
 8000da4:	10803fcc 	andi	r2,r2,255
 8000da8:	e0bffa15 	stw	r2,-24(fp)
	key_array[3]= key & 0xff;
 8000dac:	e0bff517 	ldw	r2,-44(fp)
 8000db0:	10803fcc 	andi	r2,r2,255
 8000db4:	e0bffb15 	stw	r2,-20(fp)


		
        if(!*(player1_ready)){
 8000db8:	e0bffc17 	ldw	r2,-16(fp)
 8000dbc:	10800017 	ldw	r2,0(r2)
 8000dc0:	1000561e 	bne	r2,zero,8000f1c <choose_ship+0x1d8>
            if (key_array[0] == KEY_A || key_array[1] == KEY_A ||
 8000dc4:	e0bff817 	ldw	r2,-32(fp)
 8000dc8:	10800120 	cmpeqi	r2,r2,4
 8000dcc:	10000f1e 	bne	r2,zero,8000e0c <choose_ship+0xc8>
 8000dd0:	e0bff917 	ldw	r2,-28(fp)
 8000dd4:	10800120 	cmpeqi	r2,r2,4
 8000dd8:	10000c1e 	bne	r2,zero,8000e0c <choose_ship+0xc8>
        			key_array[2] == KEY_A ||key_array[3] == KEY_A ||
 8000ddc:	e0bffa17 	ldw	r2,-24(fp)
	key_array[3]= key & 0xff;


		
        if(!*(player1_ready)){
            if (key_array[0] == KEY_A || key_array[1] == KEY_A ||
 8000de0:	10800120 	cmpeqi	r2,r2,4
 8000de4:	1000091e 	bne	r2,zero,8000e0c <choose_ship+0xc8>
        			key_array[2] == KEY_A ||key_array[3] == KEY_A ||
 8000de8:	e0bffb17 	ldw	r2,-20(fp)
 8000dec:	10800120 	cmpeqi	r2,r2,4
 8000df0:	1000061e 	bne	r2,zero,8000e0c <choose_ship+0xc8>
        			key_array[4] == KEY_A || key_array[5] == KEY_A){
 8000df4:	e0bffc17 	ldw	r2,-16(fp)


		
        if(!*(player1_ready)){
            if (key_array[0] == KEY_A || key_array[1] == KEY_A ||
        			key_array[2] == KEY_A ||key_array[3] == KEY_A ||
 8000df8:	10800120 	cmpeqi	r2,r2,4
 8000dfc:	1000031e 	bne	r2,zero,8000e0c <choose_ship+0xc8>
        			key_array[4] == KEY_A || key_array[5] == KEY_A){
 8000e00:	e0bffd17 	ldw	r2,-12(fp)
 8000e04:	10800118 	cmpnei	r2,r2,4
 8000e08:	10000d1e 	bne	r2,zero,8000e40 <choose_ship+0xfc>
                if(ship->choose_ship == 0){
 8000e0c:	e0bffe17 	ldw	r2,-8(fp)
 8000e10:	10801017 	ldw	r2,64(r2)
 8000e14:	1000041e 	bne	r2,zero,8000e28 <choose_ship+0xe4>
                    ship->choose_ship = SHIP_KIND_MAX;
 8000e18:	e0bffe17 	ldw	r2,-8(fp)
 8000e1c:	00c00084 	movi	r3,2
 8000e20:	10c01015 	stw	r3,64(r2)
		
        if(!*(player1_ready)){
            if (key_array[0] == KEY_A || key_array[1] == KEY_A ||
        			key_array[2] == KEY_A ||key_array[3] == KEY_A ||
        			key_array[4] == KEY_A || key_array[5] == KEY_A){
                if(ship->choose_ship == 0){
 8000e24:	00003d06 	br	8000f1c <choose_ship+0x1d8>
                    ship->choose_ship = SHIP_KIND_MAX;
                }
                else{
                    ship->choose_ship--;
 8000e28:	e0bffe17 	ldw	r2,-8(fp)
 8000e2c:	10801017 	ldw	r2,64(r2)
 8000e30:	10ffffc4 	addi	r3,r2,-1
 8000e34:	e0bffe17 	ldw	r2,-8(fp)
 8000e38:	10c01015 	stw	r3,64(r2)
		
        if(!*(player1_ready)){
            if (key_array[0] == KEY_A || key_array[1] == KEY_A ||
        			key_array[2] == KEY_A ||key_array[3] == KEY_A ||
        			key_array[4] == KEY_A || key_array[5] == KEY_A){
                if(ship->choose_ship == 0){
 8000e3c:	00003706 	br	8000f1c <choose_ship+0x1d8>
                }
                else{
                    ship->choose_ship--;
                }
            }
            else if (key_array[0] == KEY_D || key_array[1] == KEY_D ||
 8000e40:	e0bff817 	ldw	r2,-32(fp)
 8000e44:	108001e0 	cmpeqi	r2,r2,7
 8000e48:	10000f1e 	bne	r2,zero,8000e88 <choose_ship+0x144>
 8000e4c:	e0bff917 	ldw	r2,-28(fp)
 8000e50:	108001e0 	cmpeqi	r2,r2,7
 8000e54:	10000c1e 	bne	r2,zero,8000e88 <choose_ship+0x144>
    				key_array[2] == KEY_D || key_array[3] == KEY_D ||
 8000e58:	e0bffa17 	ldw	r2,-24(fp)
                }
                else{
                    ship->choose_ship--;
                }
            }
            else if (key_array[0] == KEY_D || key_array[1] == KEY_D ||
 8000e5c:	108001e0 	cmpeqi	r2,r2,7
 8000e60:	1000091e 	bne	r2,zero,8000e88 <choose_ship+0x144>
    				key_array[2] == KEY_D || key_array[3] == KEY_D ||
 8000e64:	e0bffb17 	ldw	r2,-20(fp)
 8000e68:	108001e0 	cmpeqi	r2,r2,7
 8000e6c:	1000061e 	bne	r2,zero,8000e88 <choose_ship+0x144>
    				key_array[4] == KEY_D || key_array[5] == KEY_D){
 8000e70:	e0bffc17 	ldw	r2,-16(fp)
                else{
                    ship->choose_ship--;
                }
            }
            else if (key_array[0] == KEY_D || key_array[1] == KEY_D ||
    				key_array[2] == KEY_D || key_array[3] == KEY_D ||
 8000e74:	108001e0 	cmpeqi	r2,r2,7
 8000e78:	1000031e 	bne	r2,zero,8000e88 <choose_ship+0x144>
    				key_array[4] == KEY_D || key_array[5] == KEY_D){
 8000e7c:	e0bffd17 	ldw	r2,-12(fp)
 8000e80:	108001d8 	cmpnei	r2,r2,7
 8000e84:	10000d1e 	bne	r2,zero,8000ebc <choose_ship+0x178>
                if(ship->choose_ship == SHIP_KIND_MAX){
 8000e88:	e0bffe17 	ldw	r2,-8(fp)
 8000e8c:	10801017 	ldw	r2,64(r2)
 8000e90:	10800098 	cmpnei	r2,r2,2
 8000e94:	1000031e 	bne	r2,zero,8000ea4 <choose_ship+0x160>
                    ship->choose_ship = 0;
 8000e98:	e0bffe17 	ldw	r2,-8(fp)
 8000e9c:	10001015 	stw	zero,64(r2)
                }
            }
            else if (key_array[0] == KEY_D || key_array[1] == KEY_D ||
    				key_array[2] == KEY_D || key_array[3] == KEY_D ||
    				key_array[4] == KEY_D || key_array[5] == KEY_D){
                if(ship->choose_ship == SHIP_KIND_MAX){
 8000ea0:	00001e06 	br	8000f1c <choose_ship+0x1d8>
                    ship->choose_ship = 0;
                }
                else{
                    ship->choose_ship++;
 8000ea4:	e0bffe17 	ldw	r2,-8(fp)
 8000ea8:	10801017 	ldw	r2,64(r2)
 8000eac:	10c00044 	addi	r3,r2,1
 8000eb0:	e0bffe17 	ldw	r2,-8(fp)
 8000eb4:	10c01015 	stw	r3,64(r2)
                }
            }
            else if (key_array[0] == KEY_D || key_array[1] == KEY_D ||
    				key_array[2] == KEY_D || key_array[3] == KEY_D ||
    				key_array[4] == KEY_D || key_array[5] == KEY_D){
                if(ship->choose_ship == SHIP_KIND_MAX){
 8000eb8:	00001806 	br	8000f1c <choose_ship+0x1d8>
                }
                else{
                    ship->choose_ship++;
                }
            }
            else if (key_array[0] == KEY_J ||key_array[1] == KEY_J
 8000ebc:	e0bff817 	ldw	r2,-32(fp)
 8000ec0:	10800360 	cmpeqi	r2,r2,13
 8000ec4:	10000f1e 	bne	r2,zero,8000f04 <choose_ship+0x1c0>
 8000ec8:	e0bff917 	ldw	r2,-28(fp)
 8000ecc:	10800360 	cmpeqi	r2,r2,13
 8000ed0:	10000c1e 	bne	r2,zero,8000f04 <choose_ship+0x1c0>
    				||key_array[2] == KEY_J ||key_array[3] == KEY_J
 8000ed4:	e0bffa17 	ldw	r2,-24(fp)
 8000ed8:	10800360 	cmpeqi	r2,r2,13
 8000edc:	1000091e 	bne	r2,zero,8000f04 <choose_ship+0x1c0>
 8000ee0:	e0bffb17 	ldw	r2,-20(fp)
 8000ee4:	10800360 	cmpeqi	r2,r2,13
 8000ee8:	1000061e 	bne	r2,zero,8000f04 <choose_ship+0x1c0>
    				||key_array[4] == KEY_J ||key_array[5] == KEY_J){
 8000eec:	e0bffc17 	ldw	r2,-16(fp)
 8000ef0:	10800360 	cmpeqi	r2,r2,13
 8000ef4:	1000031e 	bne	r2,zero,8000f04 <choose_ship+0x1c0>
 8000ef8:	e0bffd17 	ldw	r2,-12(fp)
 8000efc:	10800358 	cmpnei	r2,r2,13
 8000f00:	1000061e 	bne	r2,zero,8000f1c <choose_ship+0x1d8>
                *player1_ready = 1;
 8000f04:	e0bffc17 	ldw	r2,-16(fp)
 8000f08:	00c00044 	movi	r3,1
 8000f0c:	10c00015 	stw	r3,0(r2)
                ship->ship_choose_ready = 1;
 8000f10:	e0bffe17 	ldw	r2,-8(fp)
 8000f14:	00c00044 	movi	r3,1
 8000f18:	10c01115 	stw	r3,68(r2)
            }
        }

        if(!(*player2_ready)){
 8000f1c:	e0bffd17 	ldw	r2,-12(fp)
 8000f20:	10800017 	ldw	r2,0(r2)
 8000f24:	1000561e 	bne	r2,zero,8001080 <choose_ship+0x33c>
            if (  key_array[0] == KEY_LEFT ||key_array[1] == KEY_LEFT
 8000f28:	e0bff817 	ldw	r2,-32(fp)
 8000f2c:	10801420 	cmpeqi	r2,r2,80
 8000f30:	10000f1e 	bne	r2,zero,8000f70 <choose_ship+0x22c>
 8000f34:	e0bff917 	ldw	r2,-28(fp)
 8000f38:	10801420 	cmpeqi	r2,r2,80
 8000f3c:	10000c1e 	bne	r2,zero,8000f70 <choose_ship+0x22c>
				||key_array[2] == KEY_LEFT ||key_array[3] == KEY_LEFT
 8000f40:	e0bffa17 	ldw	r2,-24(fp)
 8000f44:	10801420 	cmpeqi	r2,r2,80
 8000f48:	1000091e 	bne	r2,zero,8000f70 <choose_ship+0x22c>
 8000f4c:	e0bffb17 	ldw	r2,-20(fp)
 8000f50:	10801420 	cmpeqi	r2,r2,80
 8000f54:	1000061e 	bne	r2,zero,8000f70 <choose_ship+0x22c>
				||key_array[4] == KEY_LEFT ||key_array[5] == KEY_LEFT){
 8000f58:	e0bffc17 	ldw	r2,-16(fp)
 8000f5c:	10801420 	cmpeqi	r2,r2,80
 8000f60:	1000031e 	bne	r2,zero,8000f70 <choose_ship+0x22c>
 8000f64:	e0bffd17 	ldw	r2,-12(fp)
 8000f68:	10801418 	cmpnei	r2,r2,80
 8000f6c:	10000d1e 	bne	r2,zero,8000fa4 <choose_ship+0x260>
                if(ship2->choose_ship == 0){
 8000f70:	e0bfff17 	ldw	r2,-4(fp)
 8000f74:	10801017 	ldw	r2,64(r2)
 8000f78:	1000041e 	bne	r2,zero,8000f8c <choose_ship+0x248>
                    ship2->choose_ship = SHIP_KIND_MAX;
 8000f7c:	e0bfff17 	ldw	r2,-4(fp)
 8000f80:	00c00084 	movi	r3,2
 8000f84:	10c01015 	stw	r3,64(r2)

        if(!(*player2_ready)){
            if (  key_array[0] == KEY_LEFT ||key_array[1] == KEY_LEFT
				||key_array[2] == KEY_LEFT ||key_array[3] == KEY_LEFT
				||key_array[4] == KEY_LEFT ||key_array[5] == KEY_LEFT){
                if(ship2->choose_ship == 0){
 8000f88:	00003d06 	br	8001080 <choose_ship+0x33c>
                    ship2->choose_ship = SHIP_KIND_MAX;
                }
                else{
                    ship2->choose_ship--;
 8000f8c:	e0bfff17 	ldw	r2,-4(fp)
 8000f90:	10801017 	ldw	r2,64(r2)
 8000f94:	10ffffc4 	addi	r3,r2,-1
 8000f98:	e0bfff17 	ldw	r2,-4(fp)
 8000f9c:	10c01015 	stw	r3,64(r2)

        if(!(*player2_ready)){
            if (  key_array[0] == KEY_LEFT ||key_array[1] == KEY_LEFT
				||key_array[2] == KEY_LEFT ||key_array[3] == KEY_LEFT
				||key_array[4] == KEY_LEFT ||key_array[5] == KEY_LEFT){
                if(ship2->choose_ship == 0){
 8000fa0:	00003706 	br	8001080 <choose_ship+0x33c>
                }
                else{
                    ship2->choose_ship--;
                }
            }
            else if ( key_array[0] == KEY_RIGHT ||key_array[1] == KEY_RIGHT
 8000fa4:	e0bff817 	ldw	r2,-32(fp)
 8000fa8:	108013e0 	cmpeqi	r2,r2,79
 8000fac:	10000f1e 	bne	r2,zero,8000fec <choose_ship+0x2a8>
 8000fb0:	e0bff917 	ldw	r2,-28(fp)
 8000fb4:	108013e0 	cmpeqi	r2,r2,79
 8000fb8:	10000c1e 	bne	r2,zero,8000fec <choose_ship+0x2a8>
    				||key_array[2] == KEY_RIGHT ||key_array[3] == KEY_RIGHT
 8000fbc:	e0bffa17 	ldw	r2,-24(fp)
 8000fc0:	108013e0 	cmpeqi	r2,r2,79
 8000fc4:	1000091e 	bne	r2,zero,8000fec <choose_ship+0x2a8>
 8000fc8:	e0bffb17 	ldw	r2,-20(fp)
 8000fcc:	108013e0 	cmpeqi	r2,r2,79
 8000fd0:	1000061e 	bne	r2,zero,8000fec <choose_ship+0x2a8>
    				||key_array[4] == KEY_RIGHT ||key_array[5] == KEY_RIGHT){
 8000fd4:	e0bffc17 	ldw	r2,-16(fp)
 8000fd8:	108013e0 	cmpeqi	r2,r2,79
 8000fdc:	1000031e 	bne	r2,zero,8000fec <choose_ship+0x2a8>
 8000fe0:	e0bffd17 	ldw	r2,-12(fp)
 8000fe4:	108013d8 	cmpnei	r2,r2,79
 8000fe8:	10000d1e 	bne	r2,zero,8001020 <choose_ship+0x2dc>
                if(ship2->choose_ship == SHIP_KIND_MAX){
 8000fec:	e0bfff17 	ldw	r2,-4(fp)
 8000ff0:	10801017 	ldw	r2,64(r2)
 8000ff4:	10800098 	cmpnei	r2,r2,2
 8000ff8:	1000031e 	bne	r2,zero,8001008 <choose_ship+0x2c4>
                    ship2->choose_ship = 0;
 8000ffc:	e0bfff17 	ldw	r2,-4(fp)
 8001000:	10001015 	stw	zero,64(r2)
                }
            }
            else if ( key_array[0] == KEY_RIGHT ||key_array[1] == KEY_RIGHT
    				||key_array[2] == KEY_RIGHT ||key_array[3] == KEY_RIGHT
    				||key_array[4] == KEY_RIGHT ||key_array[5] == KEY_RIGHT){
                if(ship2->choose_ship == SHIP_KIND_MAX){
 8001004:	00001e06 	br	8001080 <choose_ship+0x33c>
                    ship2->choose_ship = 0;
                }
                else{
                    ship2->choose_ship++;
 8001008:	e0bfff17 	ldw	r2,-4(fp)
 800100c:	10801017 	ldw	r2,64(r2)
 8001010:	10c00044 	addi	r3,r2,1
 8001014:	e0bfff17 	ldw	r2,-4(fp)
 8001018:	10c01015 	stw	r3,64(r2)
                }
            }
            else if ( key_array[0] == KEY_RIGHT ||key_array[1] == KEY_RIGHT
    				||key_array[2] == KEY_RIGHT ||key_array[3] == KEY_RIGHT
    				||key_array[4] == KEY_RIGHT ||key_array[5] == KEY_RIGHT){
                if(ship2->choose_ship == SHIP_KIND_MAX){
 800101c:	00001806 	br	8001080 <choose_ship+0x33c>
                }
                else{
                    ship2->choose_ship++;
                }
            }
            else if (key_array[0] == KEY_SPACE ||key_array[1] == KEY_SPACE||
 8001020:	e0bff817 	ldw	r2,-32(fp)
 8001024:	10800b20 	cmpeqi	r2,r2,44
 8001028:	10000f1e 	bne	r2,zero,8001068 <choose_ship+0x324>
 800102c:	e0bff917 	ldw	r2,-28(fp)
 8001030:	10800b20 	cmpeqi	r2,r2,44
 8001034:	10000c1e 	bne	r2,zero,8001068 <choose_ship+0x324>
    				key_array[2] == KEY_SPACE|| key_array[3] == KEY_SPACE||
 8001038:	e0bffa17 	ldw	r2,-24(fp)
                }
                else{
                    ship2->choose_ship++;
                }
            }
            else if (key_array[0] == KEY_SPACE ||key_array[1] == KEY_SPACE||
 800103c:	10800b20 	cmpeqi	r2,r2,44
 8001040:	1000091e 	bne	r2,zero,8001068 <choose_ship+0x324>
    				key_array[2] == KEY_SPACE|| key_array[3] == KEY_SPACE||
 8001044:	e0bffb17 	ldw	r2,-20(fp)
 8001048:	10800b20 	cmpeqi	r2,r2,44
 800104c:	1000061e 	bne	r2,zero,8001068 <choose_ship+0x324>
    				key_array[4] == KEY_SPACE || key_array[5] == KEY_SPACE){
 8001050:	e0bffc17 	ldw	r2,-16(fp)
                else{
                    ship2->choose_ship++;
                }
            }
            else if (key_array[0] == KEY_SPACE ||key_array[1] == KEY_SPACE||
    				key_array[2] == KEY_SPACE|| key_array[3] == KEY_SPACE||
 8001054:	10800b20 	cmpeqi	r2,r2,44
 8001058:	1000031e 	bne	r2,zero,8001068 <choose_ship+0x324>
    				key_array[4] == KEY_SPACE || key_array[5] == KEY_SPACE){
 800105c:	e0bffd17 	ldw	r2,-12(fp)
 8001060:	10800b18 	cmpnei	r2,r2,44
 8001064:	1000061e 	bne	r2,zero,8001080 <choose_ship+0x33c>
                *player2_ready = 1;
 8001068:	e0bffd17 	ldw	r2,-12(fp)
 800106c:	00c00044 	movi	r3,1
 8001070:	10c00015 	stw	r3,0(r2)
                ship2->ship_choose_ready = 1;
 8001074:	e0bfff17 	ldw	r2,-4(fp)
 8001078:	00c00044 	movi	r3,1
 800107c:	10c01115 	stw	r3,68(r2)
            }
		}

		if(player1_ready && player2_ready){
 8001080:	e0bffc17 	ldw	r2,-16(fp)
 8001084:	10000226 	beq	r2,zero,8001090 <choose_ship+0x34c>
 8001088:	e0bffd17 	ldw	r2,-12(fp)
 800108c:	10000c1e 	bne	r2,zero,80010c0 <choose_ship+0x37c>
            return;
        }
		else if (cur_key == KEY_ESC){
 8001090:	e0bff417 	ldw	r2,-48(fp)
 8001094:	10800a58 	cmpnei	r2,r2,41
 8001098:	10000a1e 	bne	r2,zero,80010c4 <choose_ship+0x380>
			*player1_ready = 0;
 800109c:	e0bffc17 	ldw	r2,-16(fp)
 80010a0:	10000015 	stw	zero,0(r2)
            *player2_ready = 0;
 80010a4:	e0bffd17 	ldw	r2,-12(fp)
 80010a8:	10000015 	stw	zero,0(r2)
            ship->ship_choose_ready = 0;
 80010ac:	e0bffe17 	ldw	r2,-8(fp)
 80010b0:	10001115 	stw	zero,68(r2)
            ship2->ship_choose_ready = 0;
 80010b4:	e0bfff17 	ldw	r2,-4(fp)
 80010b8:	10001115 	stw	zero,68(r2)
			return;
 80010bc:	00000106 	br	80010c4 <choose_ship+0x380>
                ship2->ship_choose_ready = 1;
            }
		}

		if(player1_ready && player2_ready){
            return;
 80010c0:	0001883a 	nop
            ship->ship_choose_ready = 0;
            ship2->ship_choose_ready = 0;
			return;
		}

}
 80010c4:	e037883a 	mov	sp,fp
 80010c8:	dfc00117 	ldw	ra,4(sp)
 80010cc:	df000017 	ldw	fp,0(sp)
 80010d0:	dec00204 	addi	sp,sp,8
 80010d4:	f800283a 	ret

080010d8 <IO_init>:
//io_handler.c
#include "io_handler.h"
#include <stdio.h>

void IO_init(void)
{
 80010d8:	deffff04 	addi	sp,sp,-4
 80010dc:	df000015 	stw	fp,0(sp)
 80010e0:	d839883a 	mov	fp,sp
	*otg_hpi_reset = 1;
 80010e4:	00840034 	movhi	r2,4096
 80010e8:	1084e804 	addi	r2,r2,5024
 80010ec:	00c00044 	movi	r3,1
 80010f0:	10c00005 	stb	r3,0(r2)
	*otg_hpi_cs = 1;
 80010f4:	00840034 	movhi	r2,4096
 80010f8:	1084ec04 	addi	r2,r2,5040
 80010fc:	00c00044 	movi	r3,1
 8001100:	10c00005 	stb	r3,0(r2)
	*otg_hpi_r = 1;
 8001104:	00840034 	movhi	r2,4096
 8001108:	1084f804 	addi	r2,r2,5088
 800110c:	00c00044 	movi	r3,1
 8001110:	10c00005 	stb	r3,0(r2)
	*otg_hpi_w = 1;
 8001114:	00840034 	movhi	r2,4096
 8001118:	1084fc04 	addi	r2,r2,5104
 800111c:	00c00044 	movi	r3,1
 8001120:	10c00005 	stb	r3,0(r2)
	*otg_hpi_address = 0;
 8001124:	00840034 	movhi	r2,4096
 8001128:	1084f004 	addi	r2,r2,5056
 800112c:	10000015 	stw	zero,0(r2)
	*otg_hpi_data = 0;
 8001130:	00840034 	movhi	r2,4096
 8001134:	1084f404 	addi	r2,r2,5072
 8001138:	10000015 	stw	zero,0(r2)
	// Reset OTG chip
	*otg_hpi_cs = 0;
 800113c:	00840034 	movhi	r2,4096
 8001140:	1084ec04 	addi	r2,r2,5040
 8001144:	10000005 	stb	zero,0(r2)
	*otg_hpi_reset = 0;
 8001148:	00840034 	movhi	r2,4096
 800114c:	1084e804 	addi	r2,r2,5024
 8001150:	10000005 	stb	zero,0(r2)
	*otg_hpi_reset = 1;
 8001154:	00840034 	movhi	r2,4096
 8001158:	1084e804 	addi	r2,r2,5024
 800115c:	00c00044 	movi	r3,1
 8001160:	10c00005 	stb	r3,0(r2)
	*otg_hpi_cs = 1;
 8001164:	00840034 	movhi	r2,4096
 8001168:	1084ec04 	addi	r2,r2,5040
 800116c:	00c00044 	movi	r3,1
 8001170:	10c00005 	stb	r3,0(r2)
}
 8001174:	0001883a 	nop
 8001178:	e037883a 	mov	sp,fp
 800117c:	df000017 	ldw	fp,0(sp)
 8001180:	dec00104 	addi	sp,sp,4
 8001184:	f800283a 	ret

08001188 <IO_write>:

void IO_write(alt_u8 Address, alt_u16 Data)
{
 8001188:	defffd04 	addi	sp,sp,-12
 800118c:	df000215 	stw	fp,8(sp)
 8001190:	df000204 	addi	fp,sp,8
 8001194:	2007883a 	mov	r3,r4
 8001198:	2805883a 	mov	r2,r5
 800119c:	e0fffe05 	stb	r3,-8(fp)
 80011a0:	e0bfff0d 	sth	r2,-4(fp)
//*************************************************************************//
//									TASK								   //
//*************************************************************************//
//							Write this function							   //
//*************************************************************************//
	*otg_hpi_address = Address;
 80011a4:	00840034 	movhi	r2,4096
 80011a8:	1084f004 	addi	r2,r2,5056
 80011ac:	e0fffe03 	ldbu	r3,-8(fp)
 80011b0:	10c00015 	stw	r3,0(r2)
	*otg_hpi_data = Data;
 80011b4:	00840034 	movhi	r2,4096
 80011b8:	1084f404 	addi	r2,r2,5072
 80011bc:	e0ffff0b 	ldhu	r3,-4(fp)
 80011c0:	10c00015 	stw	r3,0(r2)
	*otg_hpi_cs = 0;
 80011c4:	00840034 	movhi	r2,4096
 80011c8:	1084ec04 	addi	r2,r2,5040
 80011cc:	10000005 	stb	zero,0(r2)
	*otg_hpi_w = 0;
 80011d0:	00840034 	movhi	r2,4096
 80011d4:	1084fc04 	addi	r2,r2,5104
 80011d8:	10000005 	stb	zero,0(r2)

	//reset the OTG
	*otg_hpi_w = 1;
 80011dc:	00840034 	movhi	r2,4096
 80011e0:	1084fc04 	addi	r2,r2,5104
 80011e4:	00c00044 	movi	r3,1
 80011e8:	10c00005 	stb	r3,0(r2)
	*otg_hpi_cs = 1;
 80011ec:	00840034 	movhi	r2,4096
 80011f0:	1084ec04 	addi	r2,r2,5040
 80011f4:	00c00044 	movi	r3,1
 80011f8:	10c00005 	stb	r3,0(r2)
}
 80011fc:	0001883a 	nop
 8001200:	e037883a 	mov	sp,fp
 8001204:	df000017 	ldw	fp,0(sp)
 8001208:	dec00104 	addi	sp,sp,4
 800120c:	f800283a 	ret

08001210 <IO_read>:

alt_u16 IO_read(alt_u8 Address)
{
 8001210:	defffd04 	addi	sp,sp,-12
 8001214:	df000215 	stw	fp,8(sp)
 8001218:	df000204 	addi	fp,sp,8
 800121c:	2005883a 	mov	r2,r4
 8001220:	e0bfff05 	stb	r2,-4(fp)
//									TASK								   //
//*************************************************************************//
//							Write this function							   //
//*************************************************************************//
	//printf("%x\n",temp);
	*otg_hpi_address = Address;
 8001224:	00840034 	movhi	r2,4096
 8001228:	1084f004 	addi	r2,r2,5056
 800122c:	e0ffff03 	ldbu	r3,-4(fp)
 8001230:	10c00015 	stw	r3,0(r2)
	*otg_hpi_cs = 0;
 8001234:	00840034 	movhi	r2,4096
 8001238:	1084ec04 	addi	r2,r2,5040
 800123c:	10000005 	stb	zero,0(r2)
	*otg_hpi_r = 0;
 8001240:	00840034 	movhi	r2,4096
 8001244:	1084f804 	addi	r2,r2,5088
 8001248:	10000005 	stb	zero,0(r2)
	temp = *otg_hpi_data;
 800124c:	00840034 	movhi	r2,4096
 8001250:	1084f404 	addi	r2,r2,5072
 8001254:	10800017 	ldw	r2,0(r2)
 8001258:	e0bffe0d 	sth	r2,-8(fp)

	//reset the OTG
	*otg_hpi_r = 1;
 800125c:	00840034 	movhi	r2,4096
 8001260:	1084f804 	addi	r2,r2,5088
 8001264:	00c00044 	movi	r3,1
 8001268:	10c00005 	stb	r3,0(r2)
	*otg_hpi_cs = 1;
 800126c:	00840034 	movhi	r2,4096
 8001270:	1084ec04 	addi	r2,r2,5040
 8001274:	00c00044 	movi	r3,1
 8001278:	10c00005 	stb	r3,0(r2)
	return temp;
 800127c:	e0bffe0b 	ldhu	r2,-8(fp)
}
 8001280:	e037883a 	mov	sp,fp
 8001284:	df000017 	ldw	fp,0(sp)
 8001288:	dec00104 	addi	sp,sp,4
 800128c:	f800283a 	ret

08001290 <frame_clock>:
	PRESS_ATK, 
	PRESS_SKILL
}event;


void frame_clock (double frame_time){
 8001290:	defff804 	addi	sp,sp,-32
 8001294:	dfc00715 	stw	ra,28(sp)
 8001298:	df000615 	stw	fp,24(sp)
 800129c:	df000604 	addi	fp,sp,24
 80012a0:	e13ffe15 	stw	r4,-8(fp)
 80012a4:	e17fff15 	stw	r5,-4(fp)
	double time_to_switch = frame_time;
 80012a8:	e0bffe17 	ldw	r2,-8(fp)
 80012ac:	e0bffb15 	stw	r2,-20(fp)
 80012b0:	e0bfff17 	ldw	r2,-4(fp)
 80012b4:	e0bffc15 	stw	r2,-16(fp)
	clock_t begin = clock();
 80012b8:	80062f00 	call	80062f0 <clock>
 80012bc:	e0bffd15 	stw	r2,-12(fp)
	clock_t end = clock();
 80012c0:	80062f00 	call	80062f0 <clock>
 80012c4:	e0bffa15 	stw	r2,-24(fp)
	while ((double)(end-begin)/CLOCKS_PER_SEC <time_to_switch){
 80012c8:	00000206 	br	80012d4 <frame_clock+0x44>
		end = clock();
 80012cc:	80062f00 	call	80062f0 <clock>
 80012d0:	e0bffa15 	stw	r2,-24(fp)

void frame_clock (double frame_time){
	double time_to_switch = frame_time;
	clock_t begin = clock();
	clock_t end = clock();
	while ((double)(end-begin)/CLOCKS_PER_SEC <time_to_switch){
 80012d4:	e0fffa17 	ldw	r3,-24(fp)
 80012d8:	e0bffd17 	ldw	r2,-12(fp)
 80012dc:	1885c83a 	sub	r2,r3,r2
 80012e0:	1009883a 	mov	r4,r2
 80012e4:	80060300 	call	8006030 <__floatunsidf>
 80012e8:	1011883a 	mov	r8,r2
 80012ec:	1813883a 	mov	r9,r3
 80012f0:	000d883a 	mov	r6,zero
 80012f4:	01d023f4 	movhi	r7,16527
 80012f8:	39d00004 	addi	r7,r7,16384
 80012fc:	4009883a 	mov	r4,r8
 8001300:	480b883a 	mov	r5,r9
 8001304:	80054900 	call	8005490 <__divdf3>
 8001308:	1009883a 	mov	r4,r2
 800130c:	180b883a 	mov	r5,r3
 8001310:	2005883a 	mov	r2,r4
 8001314:	2807883a 	mov	r3,r5
 8001318:	e1bffb17 	ldw	r6,-20(fp)
 800131c:	e1fffc17 	ldw	r7,-16(fp)
 8001320:	1009883a 	mov	r4,r2
 8001324:	180b883a 	mov	r5,r3
 8001328:	8005e600 	call	8005e60 <__ledf2>
 800132c:	103fe716 	blt	r2,zero,80012cc <__alt_data_end+0xf80012cc>
		end = clock();
	}
}
 8001330:	0001883a 	nop
 8001334:	e037883a 	mov	sp,fp
 8001338:	dfc00117 	ldw	ra,4(sp)
 800133c:	df000017 	ldw	fp,0(sp)
 8001340:	dec00204 	addi	sp,sp,8
 8001344:	f800283a 	ret

08001348 <key_event>:
 * or
 * ENTER: 		game_start = 1;
 * ESC:	  		game_start = 0, developer_mode = 0;
 * BACKSPACE: 	game_start = 0, developer_mode = 1;
 */
void key_event(int* game_start, ship_t* ship, ship_t* ship2, torpedo_t *torpedo1, torpedo_t *torpedo2){
 8001348:	defff104 	addi	sp,sp,-60
 800134c:	dfc00e15 	stw	ra,56(sp)
 8001350:	df000d15 	stw	fp,52(sp)
 8001354:	df000d04 	addi	fp,sp,52
 8001358:	e13ffc15 	stw	r4,-16(fp)
 800135c:	e17ffd15 	stw	r5,-12(fp)
 8001360:	e1bffe15 	stw	r6,-8(fp)
 8001364:	e1ffff15 	stw	r7,-4(fp)
	unsigned long key2;
	unsigned long key3;

	int key_array[6];
	int cur_key, cur_key2, cur_key3;
	get_keycode(&key, &key2, &key3);
 8001368:	e0fff504 	addi	r3,fp,-44
 800136c:	e0bff404 	addi	r2,fp,-48
 8001370:	180d883a 	mov	r6,r3
 8001374:	100b883a 	mov	r5,r2
 8001378:	e13ff304 	addi	r4,fp,-52
 800137c:	80051500 	call	8005150 <get_keycode>


	key_array[0]= (key>>24) & 0xff;
 8001380:	e0bff317 	ldw	r2,-52(fp)
 8001384:	1004d63a 	srli	r2,r2,24
 8001388:	e0bff615 	stw	r2,-40(fp)
	key_array[1]= (key>>16) & 0xff;
 800138c:	e0bff317 	ldw	r2,-52(fp)
 8001390:	1004d43a 	srli	r2,r2,16
 8001394:	10803fcc 	andi	r2,r2,255
 8001398:	e0bff715 	stw	r2,-36(fp)
	key_array[2]= (key>>8) & 0xff;
 800139c:	e0bff317 	ldw	r2,-52(fp)
 80013a0:	1004d23a 	srli	r2,r2,8
 80013a4:	10803fcc 	andi	r2,r2,255
 80013a8:	e0bff815 	stw	r2,-32(fp)
	key_array[3]= key & 0xff;
 80013ac:	e0bff317 	ldw	r2,-52(fp)
 80013b0:	10803fcc 	andi	r2,r2,255
 80013b4:	e0bff915 	stw	r2,-28(fp)

	key_array[4]= (key2>>24) & 0xff;
 80013b8:	e0bff417 	ldw	r2,-48(fp)
 80013bc:	1004d63a 	srli	r2,r2,24
 80013c0:	e0bffa15 	stw	r2,-24(fp)
	key_array[5]= (key2>>16) & 0xff;
 80013c4:	e0bff417 	ldw	r2,-48(fp)
 80013c8:	1004d43a 	srli	r2,r2,16
 80013cc:	10803fcc 	andi	r2,r2,255
 80013d0:	e0bffb15 	stw	r2,-20(fp)

		if (key_array[0] == KEY_W || key_array[1] == KEY_W ||
 80013d4:	e0bff617 	ldw	r2,-40(fp)
 80013d8:	108006a0 	cmpeqi	r2,r2,26
 80013dc:	10000f1e 	bne	r2,zero,800141c <key_event+0xd4>
 80013e0:	e0bff717 	ldw	r2,-36(fp)
 80013e4:	108006a0 	cmpeqi	r2,r2,26
 80013e8:	10000c1e 	bne	r2,zero,800141c <key_event+0xd4>
			key_array[2] == KEY_W ||key_array[3] == KEY_W ||
 80013ec:	e0bff817 	ldw	r2,-32(fp)
	key_array[3]= key & 0xff;

	key_array[4]= (key2>>24) & 0xff;
	key_array[5]= (key2>>16) & 0xff;

		if (key_array[0] == KEY_W || key_array[1] == KEY_W ||
 80013f0:	108006a0 	cmpeqi	r2,r2,26
 80013f4:	1000091e 	bne	r2,zero,800141c <key_event+0xd4>
			key_array[2] == KEY_W ||key_array[3] == KEY_W ||
 80013f8:	e0bff917 	ldw	r2,-28(fp)
 80013fc:	108006a0 	cmpeqi	r2,r2,26
 8001400:	1000061e 	bne	r2,zero,800141c <key_event+0xd4>
			key_array[4] == KEY_W ||key_array[5] == KEY_W){
 8001404:	e0bffa17 	ldw	r2,-24(fp)

	key_array[4]= (key2>>24) & 0xff;
	key_array[5]= (key2>>16) & 0xff;

		if (key_array[0] == KEY_W || key_array[1] == KEY_W ||
			key_array[2] == KEY_W ||key_array[3] == KEY_W ||
 8001408:	108006a0 	cmpeqi	r2,r2,26
 800140c:	1000031e 	bne	r2,zero,800141c <key_event+0xd4>
			key_array[4] == KEY_W ||key_array[5] == KEY_W){
 8001410:	e0bffb17 	ldw	r2,-20(fp)
 8001414:	10800698 	cmpnei	r2,r2,26
 8001418:	1000021e 	bne	r2,zero,8001424 <key_event+0xdc>

			press_w(ship);
 800141c:	e13ffd17 	ldw	r4,-12(fp)
 8001420:	80022b40 	call	80022b4 <press_w>
		}
		if (key_array[0] == KEY_S || key_array[1] == KEY_S ||
 8001424:	e0bff617 	ldw	r2,-40(fp)
 8001428:	108005a0 	cmpeqi	r2,r2,22
 800142c:	10000f1e 	bne	r2,zero,800146c <key_event+0x124>
 8001430:	e0bff717 	ldw	r2,-36(fp)
 8001434:	108005a0 	cmpeqi	r2,r2,22
 8001438:	10000c1e 	bne	r2,zero,800146c <key_event+0x124>
				key_array[2] == KEY_S || key_array[3] == KEY_S ||
 800143c:	e0bff817 	ldw	r2,-32(fp)
			key_array[2] == KEY_W ||key_array[3] == KEY_W ||
			key_array[4] == KEY_W ||key_array[5] == KEY_W){

			press_w(ship);
		}
		if (key_array[0] == KEY_S || key_array[1] == KEY_S ||
 8001440:	108005a0 	cmpeqi	r2,r2,22
 8001444:	1000091e 	bne	r2,zero,800146c <key_event+0x124>
				key_array[2] == KEY_S || key_array[3] == KEY_S ||
 8001448:	e0bff917 	ldw	r2,-28(fp)
 800144c:	108005a0 	cmpeqi	r2,r2,22
 8001450:	1000061e 	bne	r2,zero,800146c <key_event+0x124>
			 key_array[4] == KEY_S||key_array[5] == KEY_S){
 8001454:	e0bffa17 	ldw	r2,-24(fp)
			key_array[4] == KEY_W ||key_array[5] == KEY_W){

			press_w(ship);
		}
		if (key_array[0] == KEY_S || key_array[1] == KEY_S ||
				key_array[2] == KEY_S || key_array[3] == KEY_S ||
 8001458:	108005a0 	cmpeqi	r2,r2,22
 800145c:	1000031e 	bne	r2,zero,800146c <key_event+0x124>
			 key_array[4] == KEY_S||key_array[5] == KEY_S){
 8001460:	e0bffb17 	ldw	r2,-20(fp)
 8001464:	10800598 	cmpnei	r2,r2,22
 8001468:	1000021e 	bne	r2,zero,8001474 <key_event+0x12c>

			press_s(ship);
 800146c:	e13ffd17 	ldw	r4,-12(fp)
 8001470:	80022fc0 	call	80022fc <press_s>
		}
		if (key_array[0] == KEY_A || key_array[1] == KEY_A ||
 8001474:	e0bff617 	ldw	r2,-40(fp)
 8001478:	10800120 	cmpeqi	r2,r2,4
 800147c:	10000f1e 	bne	r2,zero,80014bc <key_event+0x174>
 8001480:	e0bff717 	ldw	r2,-36(fp)
 8001484:	10800120 	cmpeqi	r2,r2,4
 8001488:	10000c1e 	bne	r2,zero,80014bc <key_event+0x174>
			key_array[2] == KEY_A ||key_array[3] == KEY_A ||
 800148c:	e0bff817 	ldw	r2,-32(fp)
				key_array[2] == KEY_S || key_array[3] == KEY_S ||
			 key_array[4] == KEY_S||key_array[5] == KEY_S){

			press_s(ship);
		}
		if (key_array[0] == KEY_A || key_array[1] == KEY_A ||
 8001490:	10800120 	cmpeqi	r2,r2,4
 8001494:	1000091e 	bne	r2,zero,80014bc <key_event+0x174>
			key_array[2] == KEY_A ||key_array[3] == KEY_A ||
 8001498:	e0bff917 	ldw	r2,-28(fp)
 800149c:	10800120 	cmpeqi	r2,r2,4
 80014a0:	1000061e 	bne	r2,zero,80014bc <key_event+0x174>
			key_array[4] == KEY_A || key_array[5] == KEY_A){
 80014a4:	e0bffa17 	ldw	r2,-24(fp)
			 key_array[4] == KEY_S||key_array[5] == KEY_S){

			press_s(ship);
		}
		if (key_array[0] == KEY_A || key_array[1] == KEY_A ||
			key_array[2] == KEY_A ||key_array[3] == KEY_A ||
 80014a8:	10800120 	cmpeqi	r2,r2,4
 80014ac:	1000031e 	bne	r2,zero,80014bc <key_event+0x174>
			key_array[4] == KEY_A || key_array[5] == KEY_A){
 80014b0:	e0bffb17 	ldw	r2,-20(fp)
 80014b4:	10800118 	cmpnei	r2,r2,4
 80014b8:	1000021e 	bne	r2,zero,80014c4 <key_event+0x17c>

			press_a(ship);
 80014bc:	e13ffd17 	ldw	r4,-12(fp)
 80014c0:	80023440 	call	8002344 <press_a>
		}
		if (key_array[0] == KEY_D || key_array[1] == KEY_D ||
 80014c4:	e0bff617 	ldw	r2,-40(fp)
 80014c8:	108001e0 	cmpeqi	r2,r2,7
 80014cc:	10000f1e 	bne	r2,zero,800150c <key_event+0x1c4>
 80014d0:	e0bff717 	ldw	r2,-36(fp)
 80014d4:	108001e0 	cmpeqi	r2,r2,7
 80014d8:	10000c1e 	bne	r2,zero,800150c <key_event+0x1c4>
				key_array[2] == KEY_D || key_array[3] == KEY_D ||
 80014dc:	e0bff817 	ldw	r2,-32(fp)
			key_array[2] == KEY_A ||key_array[3] == KEY_A ||
			key_array[4] == KEY_A || key_array[5] == KEY_A){

			press_a(ship);
		}
		if (key_array[0] == KEY_D || key_array[1] == KEY_D ||
 80014e0:	108001e0 	cmpeqi	r2,r2,7
 80014e4:	1000091e 	bne	r2,zero,800150c <key_event+0x1c4>
				key_array[2] == KEY_D || key_array[3] == KEY_D ||
 80014e8:	e0bff917 	ldw	r2,-28(fp)
 80014ec:	108001e0 	cmpeqi	r2,r2,7
 80014f0:	1000061e 	bne	r2,zero,800150c <key_event+0x1c4>
				key_array[4] == KEY_D || key_array[5] == KEY_D){
 80014f4:	e0bffa17 	ldw	r2,-24(fp)
			key_array[4] == KEY_A || key_array[5] == KEY_A){

			press_a(ship);
		}
		if (key_array[0] == KEY_D || key_array[1] == KEY_D ||
				key_array[2] == KEY_D || key_array[3] == KEY_D ||
 80014f8:	108001e0 	cmpeqi	r2,r2,7
 80014fc:	1000031e 	bne	r2,zero,800150c <key_event+0x1c4>
				key_array[4] == KEY_D || key_array[5] == KEY_D){
 8001500:	e0bffb17 	ldw	r2,-20(fp)
 8001504:	108001d8 	cmpnei	r2,r2,7
 8001508:	1000021e 	bne	r2,zero,8001514 <key_event+0x1cc>

			press_d(ship);
 800150c:	e13ffd17 	ldw	r4,-12(fp)
 8001510:	80024180 	call	8002418 <press_d>
		}
		if (key_array[0] == KEY_J ||key_array[1] == KEY_J
 8001514:	e0bff617 	ldw	r2,-40(fp)
 8001518:	10800360 	cmpeqi	r2,r2,13
 800151c:	10000f1e 	bne	r2,zero,800155c <key_event+0x214>
 8001520:	e0bff717 	ldw	r2,-36(fp)
 8001524:	10800360 	cmpeqi	r2,r2,13
 8001528:	10000c1e 	bne	r2,zero,800155c <key_event+0x214>
				||key_array[2] == KEY_J ||key_array[3] == KEY_J
 800152c:	e0bff817 	ldw	r2,-32(fp)
 8001530:	10800360 	cmpeqi	r2,r2,13
 8001534:	1000091e 	bne	r2,zero,800155c <key_event+0x214>
 8001538:	e0bff917 	ldw	r2,-28(fp)
 800153c:	10800360 	cmpeqi	r2,r2,13
 8001540:	1000061e 	bne	r2,zero,800155c <key_event+0x214>
				||key_array[4] == KEY_J ||key_array[5] == KEY_J){
 8001544:	e0bffa17 	ldw	r2,-24(fp)
 8001548:	10800360 	cmpeqi	r2,r2,13
 800154c:	1000031e 	bne	r2,zero,800155c <key_event+0x214>
 8001550:	e0bffb17 	ldw	r2,-20(fp)
 8001554:	10800358 	cmpnei	r2,r2,13
 8001558:	1000071e 	bne	r2,zero,8001578 <key_event+0x230>
			press_j(ship, torpedo1, SHIP2);
 800155c:	01800044 	movi	r6,1
 8001560:	e17fff17 	ldw	r5,-4(fp)
 8001564:	e13ffd17 	ldw	r4,-12(fp)
 8001568:	8002d180 	call	8002d18 <press_j>
			printf("torpedo1 \n");
 800156c:	01020074 	movhi	r4,2049
 8001570:	21133404 	addi	r4,r4,19664
 8001574:	80064680 	call	8006468 <puts>
		}
		if(key_array[0] == KEY_SPACE ||key_array[1] == KEY_SPACE||
 8001578:	e0bff617 	ldw	r2,-40(fp)
 800157c:	10800b20 	cmpeqi	r2,r2,44
 8001580:	10000f1e 	bne	r2,zero,80015c0 <key_event+0x278>
 8001584:	e0bff717 	ldw	r2,-36(fp)
 8001588:	10800b20 	cmpeqi	r2,r2,44
 800158c:	10000c1e 	bne	r2,zero,80015c0 <key_event+0x278>
				key_array[2] == KEY_SPACE|| key_array[3] == KEY_SPACE||
 8001590:	e0bff817 	ldw	r2,-32(fp)
				||key_array[2] == KEY_J ||key_array[3] == KEY_J
				||key_array[4] == KEY_J ||key_array[5] == KEY_J){
			press_j(ship, torpedo1, SHIP2);
			printf("torpedo1 \n");
		}
		if(key_array[0] == KEY_SPACE ||key_array[1] == KEY_SPACE||
 8001594:	10800b20 	cmpeqi	r2,r2,44
 8001598:	1000091e 	bne	r2,zero,80015c0 <key_event+0x278>
				key_array[2] == KEY_SPACE|| key_array[3] == KEY_SPACE||
 800159c:	e0bff917 	ldw	r2,-28(fp)
 80015a0:	10800b20 	cmpeqi	r2,r2,44
 80015a4:	1000061e 	bne	r2,zero,80015c0 <key_event+0x278>
				key_array[4] == KEY_SPACE || key_array[5] == KEY_SPACE){
 80015a8:	e0bffa17 	ldw	r2,-24(fp)
				||key_array[4] == KEY_J ||key_array[5] == KEY_J){
			press_j(ship, torpedo1, SHIP2);
			printf("torpedo1 \n");
		}
		if(key_array[0] == KEY_SPACE ||key_array[1] == KEY_SPACE||
				key_array[2] == KEY_SPACE|| key_array[3] == KEY_SPACE||
 80015ac:	10800b20 	cmpeqi	r2,r2,44
 80015b0:	1000031e 	bne	r2,zero,80015c0 <key_event+0x278>
				key_array[4] == KEY_SPACE || key_array[5] == KEY_SPACE){
 80015b4:	e0bffb17 	ldw	r2,-20(fp)
 80015b8:	10800b18 	cmpnei	r2,r2,44
 80015bc:	1000071e 	bne	r2,zero,80015dc <key_event+0x294>
			press_j(ship2, torpedo2, SHIP1);
 80015c0:	000d883a 	mov	r6,zero
 80015c4:	e1400217 	ldw	r5,8(fp)
 80015c8:	e13ffe17 	ldw	r4,-8(fp)
 80015cc:	8002d180 	call	8002d18 <press_j>
			printf("torpedo2 \n");
 80015d0:	01020074 	movhi	r4,2049
 80015d4:	21133704 	addi	r4,r4,19676
 80015d8:	80064680 	call	8006468 <puts>
		}
		if (key_array[0] == KEY_UP || key_array[1] == KEY_UP ||
 80015dc:	e0bff617 	ldw	r2,-40(fp)
 80015e0:	108014a0 	cmpeqi	r2,r2,82
 80015e4:	10000f1e 	bne	r2,zero,8001624 <key_event+0x2dc>
 80015e8:	e0bff717 	ldw	r2,-36(fp)
 80015ec:	108014a0 	cmpeqi	r2,r2,82
 80015f0:	10000c1e 	bne	r2,zero,8001624 <key_event+0x2dc>
				key_array[2] == KEY_UP || key_array[3] == KEY_UP ||
 80015f4:	e0bff817 	ldw	r2,-32(fp)
				key_array[2] == KEY_SPACE|| key_array[3] == KEY_SPACE||
				key_array[4] == KEY_SPACE || key_array[5] == KEY_SPACE){
			press_j(ship2, torpedo2, SHIP1);
			printf("torpedo2 \n");
		}
		if (key_array[0] == KEY_UP || key_array[1] == KEY_UP ||
 80015f8:	108014a0 	cmpeqi	r2,r2,82
 80015fc:	1000091e 	bne	r2,zero,8001624 <key_event+0x2dc>
				key_array[2] == KEY_UP || key_array[3] == KEY_UP ||
 8001600:	e0bff917 	ldw	r2,-28(fp)
 8001604:	108014a0 	cmpeqi	r2,r2,82
 8001608:	1000061e 	bne	r2,zero,8001624 <key_event+0x2dc>
				key_array[4] == KEY_UP || key_array[5] == KEY_UP ){
 800160c:	e0bffa17 	ldw	r2,-24(fp)
				key_array[4] == KEY_SPACE || key_array[5] == KEY_SPACE){
			press_j(ship2, torpedo2, SHIP1);
			printf("torpedo2 \n");
		}
		if (key_array[0] == KEY_UP || key_array[1] == KEY_UP ||
				key_array[2] == KEY_UP || key_array[3] == KEY_UP ||
 8001610:	108014a0 	cmpeqi	r2,r2,82
 8001614:	1000031e 	bne	r2,zero,8001624 <key_event+0x2dc>
				key_array[4] == KEY_UP || key_array[5] == KEY_UP ){
 8001618:	e0bffb17 	ldw	r2,-20(fp)
 800161c:	10801498 	cmpnei	r2,r2,82
 8001620:	1000021e 	bne	r2,zero,800162c <key_event+0x2e4>

			press_w(ship2);
 8001624:	e13ffe17 	ldw	r4,-8(fp)
 8001628:	80022b40 	call	80022b4 <press_w>
		}
		if (key_array[0] == KEY_DOWN || key_array[1] == KEY_DOWN ||
 800162c:	e0bff617 	ldw	r2,-40(fp)
 8001630:	10801460 	cmpeqi	r2,r2,81
 8001634:	10000f1e 	bne	r2,zero,8001674 <key_event+0x32c>
 8001638:	e0bff717 	ldw	r2,-36(fp)
 800163c:	10801460 	cmpeqi	r2,r2,81
 8001640:	10000c1e 	bne	r2,zero,8001674 <key_event+0x32c>
				key_array[2] == KEY_DOWN || key_array[3] == KEY_DOWN ||
 8001644:	e0bff817 	ldw	r2,-32(fp)
				key_array[2] == KEY_UP || key_array[3] == KEY_UP ||
				key_array[4] == KEY_UP || key_array[5] == KEY_UP ){

			press_w(ship2);
		}
		if (key_array[0] == KEY_DOWN || key_array[1] == KEY_DOWN ||
 8001648:	10801460 	cmpeqi	r2,r2,81
 800164c:	1000091e 	bne	r2,zero,8001674 <key_event+0x32c>
				key_array[2] == KEY_DOWN || key_array[3] == KEY_DOWN ||
 8001650:	e0bff917 	ldw	r2,-28(fp)
 8001654:	10801460 	cmpeqi	r2,r2,81
 8001658:	1000061e 	bne	r2,zero,8001674 <key_event+0x32c>
				key_array[4] == KEY_DOWN || key_array[5] == KEY_DOWN){
 800165c:	e0bffa17 	ldw	r2,-24(fp)
				key_array[4] == KEY_UP || key_array[5] == KEY_UP ){

			press_w(ship2);
		}
		if (key_array[0] == KEY_DOWN || key_array[1] == KEY_DOWN ||
				key_array[2] == KEY_DOWN || key_array[3] == KEY_DOWN ||
 8001660:	10801460 	cmpeqi	r2,r2,81
 8001664:	1000031e 	bne	r2,zero,8001674 <key_event+0x32c>
				key_array[4] == KEY_DOWN || key_array[5] == KEY_DOWN){
 8001668:	e0bffb17 	ldw	r2,-20(fp)
 800166c:	10801458 	cmpnei	r2,r2,81
 8001670:	1000021e 	bne	r2,zero,800167c <key_event+0x334>

			press_s(ship2);
 8001674:	e13ffe17 	ldw	r4,-8(fp)
 8001678:	80022fc0 	call	80022fc <press_s>
		}
		if (key_array[0] == KEY_LEFT || key_array[1] == KEY_LEFT ||
 800167c:	e0bff617 	ldw	r2,-40(fp)
 8001680:	10801420 	cmpeqi	r2,r2,80
 8001684:	10000f1e 	bne	r2,zero,80016c4 <key_event+0x37c>
 8001688:	e0bff717 	ldw	r2,-36(fp)
 800168c:	10801420 	cmpeqi	r2,r2,80
 8001690:	10000c1e 	bne	r2,zero,80016c4 <key_event+0x37c>
				key_array[2] == KEY_LEFT || key_array[3] == KEY_LEFT ||
 8001694:	e0bff817 	ldw	r2,-32(fp)
				key_array[2] == KEY_DOWN || key_array[3] == KEY_DOWN ||
				key_array[4] == KEY_DOWN || key_array[5] == KEY_DOWN){

			press_s(ship2);
		}
		if (key_array[0] == KEY_LEFT || key_array[1] == KEY_LEFT ||
 8001698:	10801420 	cmpeqi	r2,r2,80
 800169c:	1000091e 	bne	r2,zero,80016c4 <key_event+0x37c>
				key_array[2] == KEY_LEFT || key_array[3] == KEY_LEFT ||
 80016a0:	e0bff917 	ldw	r2,-28(fp)
 80016a4:	10801420 	cmpeqi	r2,r2,80
 80016a8:	1000061e 	bne	r2,zero,80016c4 <key_event+0x37c>
				key_array[4] == KEY_LEFT || key_array[5] == KEY_LEFT){
 80016ac:	e0bffa17 	ldw	r2,-24(fp)
				key_array[4] == KEY_DOWN || key_array[5] == KEY_DOWN){

			press_s(ship2);
		}
		if (key_array[0] == KEY_LEFT || key_array[1] == KEY_LEFT ||
				key_array[2] == KEY_LEFT || key_array[3] == KEY_LEFT ||
 80016b0:	10801420 	cmpeqi	r2,r2,80
 80016b4:	1000031e 	bne	r2,zero,80016c4 <key_event+0x37c>
				key_array[4] == KEY_LEFT || key_array[5] == KEY_LEFT){
 80016b8:	e0bffb17 	ldw	r2,-20(fp)
 80016bc:	10801418 	cmpnei	r2,r2,80
 80016c0:	1000021e 	bne	r2,zero,80016cc <key_event+0x384>
			press_a(ship2);
 80016c4:	e13ffe17 	ldw	r4,-8(fp)
 80016c8:	80023440 	call	8002344 <press_a>
		}
		if (key_array[0] == KEY_RIGHT || key_array[1] == KEY_RIGHT ||
 80016cc:	e0bff617 	ldw	r2,-40(fp)
 80016d0:	108013e0 	cmpeqi	r2,r2,79
 80016d4:	10000f1e 	bne	r2,zero,8001714 <key_event+0x3cc>
 80016d8:	e0bff717 	ldw	r2,-36(fp)
 80016dc:	108013e0 	cmpeqi	r2,r2,79
 80016e0:	10000c1e 	bne	r2,zero,8001714 <key_event+0x3cc>
				key_array[2] == KEY_RIGHT || key_array[3] == KEY_RIGHT ||
 80016e4:	e0bff817 	ldw	r2,-32(fp)
		if (key_array[0] == KEY_LEFT || key_array[1] == KEY_LEFT ||
				key_array[2] == KEY_LEFT || key_array[3] == KEY_LEFT ||
				key_array[4] == KEY_LEFT || key_array[5] == KEY_LEFT){
			press_a(ship2);
		}
		if (key_array[0] == KEY_RIGHT || key_array[1] == KEY_RIGHT ||
 80016e8:	108013e0 	cmpeqi	r2,r2,79
 80016ec:	1000091e 	bne	r2,zero,8001714 <key_event+0x3cc>
				key_array[2] == KEY_RIGHT || key_array[3] == KEY_RIGHT ||
 80016f0:	e0bff917 	ldw	r2,-28(fp)
 80016f4:	108013e0 	cmpeqi	r2,r2,79
 80016f8:	1000061e 	bne	r2,zero,8001714 <key_event+0x3cc>
				key_array[4] == KEY_RIGHT || key_array[5] == KEY_RIGHT ){
 80016fc:	e0bffa17 	ldw	r2,-24(fp)
				key_array[2] == KEY_LEFT || key_array[3] == KEY_LEFT ||
				key_array[4] == KEY_LEFT || key_array[5] == KEY_LEFT){
			press_a(ship2);
		}
		if (key_array[0] == KEY_RIGHT || key_array[1] == KEY_RIGHT ||
				key_array[2] == KEY_RIGHT || key_array[3] == KEY_RIGHT ||
 8001700:	108013e0 	cmpeqi	r2,r2,79
 8001704:	1000031e 	bne	r2,zero,8001714 <key_event+0x3cc>
				key_array[4] == KEY_RIGHT || key_array[5] == KEY_RIGHT ){
 8001708:	e0bffb17 	ldw	r2,-20(fp)
 800170c:	108013d8 	cmpnei	r2,r2,79
 8001710:	1000021e 	bne	r2,zero,800171c <key_event+0x3d4>
			press_d(ship2);
 8001714:	e13ffe17 	ldw	r4,-8(fp)
 8001718:	80024180 	call	8002418 <press_d>
		}
		if (key_array[0] == KEY_Z || key_array[1] == KEY_Z ||
 800171c:	e0bff617 	ldw	r2,-40(fp)
 8001720:	10800760 	cmpeqi	r2,r2,29
 8001724:	10000f1e 	bne	r2,zero,8001764 <key_event+0x41c>
 8001728:	e0bff717 	ldw	r2,-36(fp)
 800172c:	10800760 	cmpeqi	r2,r2,29
 8001730:	10000c1e 	bne	r2,zero,8001764 <key_event+0x41c>
			key_array[2] == KEY_Z || key_array[3] == KEY_Z ||
 8001734:	e0bff817 	ldw	r2,-32(fp)
		if (key_array[0] == KEY_RIGHT || key_array[1] == KEY_RIGHT ||
				key_array[2] == KEY_RIGHT || key_array[3] == KEY_RIGHT ||
				key_array[4] == KEY_RIGHT || key_array[5] == KEY_RIGHT ){
			press_d(ship2);
		}
		if (key_array[0] == KEY_Z || key_array[1] == KEY_Z ||
 8001738:	10800760 	cmpeqi	r2,r2,29
 800173c:	1000091e 	bne	r2,zero,8001764 <key_event+0x41c>
			key_array[2] == KEY_Z || key_array[3] == KEY_Z ||
 8001740:	e0bff917 	ldw	r2,-28(fp)
 8001744:	10800760 	cmpeqi	r2,r2,29
 8001748:	1000061e 	bne	r2,zero,8001764 <key_event+0x41c>
			key_array[4] == KEY_Z || key_array[5] == KEY_Z ){
 800174c:	e0bffa17 	ldw	r2,-24(fp)
				key_array[2] == KEY_RIGHT || key_array[3] == KEY_RIGHT ||
				key_array[4] == KEY_RIGHT || key_array[5] == KEY_RIGHT ){
			press_d(ship2);
		}
		if (key_array[0] == KEY_Z || key_array[1] == KEY_Z ||
			key_array[2] == KEY_Z || key_array[3] == KEY_Z ||
 8001750:	10800760 	cmpeqi	r2,r2,29
 8001754:	1000031e 	bne	r2,zero,8001764 <key_event+0x41c>
			key_array[4] == KEY_Z || key_array[5] == KEY_Z ){
 8001758:	e0bffb17 	ldw	r2,-20(fp)
 800175c:	10800758 	cmpnei	r2,r2,29
 8001760:	1000021e 	bne	r2,zero,800176c <key_event+0x424>
			press_z(ship2);
 8001764:	e13ffe17 	ldw	r4,-8(fp)
 8001768:	80037e40 	call	80037e4 <press_z>
		}
		if (key_array[0] == KEY_SLASH || key_array[1] == KEY_SLASH ||
 800176c:	e0bff617 	ldw	r2,-40(fp)
 8001770:	10800e20 	cmpeqi	r2,r2,56
 8001774:	10000f1e 	bne	r2,zero,80017b4 <key_event+0x46c>
 8001778:	e0bff717 	ldw	r2,-36(fp)
 800177c:	10800e20 	cmpeqi	r2,r2,56
 8001780:	10000c1e 	bne	r2,zero,80017b4 <key_event+0x46c>
			key_array[2] == KEY_SLASH || key_array[3] == KEY_SLASH ||
 8001784:	e0bff817 	ldw	r2,-32(fp)
		if (key_array[0] == KEY_Z || key_array[1] == KEY_Z ||
			key_array[2] == KEY_Z || key_array[3] == KEY_Z ||
			key_array[4] == KEY_Z || key_array[5] == KEY_Z ){
			press_z(ship2);
		}
		if (key_array[0] == KEY_SLASH || key_array[1] == KEY_SLASH ||
 8001788:	10800e20 	cmpeqi	r2,r2,56
 800178c:	1000091e 	bne	r2,zero,80017b4 <key_event+0x46c>
			key_array[2] == KEY_SLASH || key_array[3] == KEY_SLASH ||
 8001790:	e0bff917 	ldw	r2,-28(fp)
 8001794:	10800e20 	cmpeqi	r2,r2,56
 8001798:	1000061e 	bne	r2,zero,80017b4 <key_event+0x46c>
			key_array[4] == KEY_SLASH || key_array[5] == KEY_SLASH ){
 800179c:	e0bffa17 	ldw	r2,-24(fp)
			key_array[2] == KEY_Z || key_array[3] == KEY_Z ||
			key_array[4] == KEY_Z || key_array[5] == KEY_Z ){
			press_z(ship2);
		}
		if (key_array[0] == KEY_SLASH || key_array[1] == KEY_SLASH ||
			key_array[2] == KEY_SLASH || key_array[3] == KEY_SLASH ||
 80017a0:	10800e20 	cmpeqi	r2,r2,56
 80017a4:	1000031e 	bne	r2,zero,80017b4 <key_event+0x46c>
			key_array[4] == KEY_SLASH || key_array[5] == KEY_SLASH ){
 80017a8:	e0bffb17 	ldw	r2,-20(fp)
 80017ac:	10800e18 	cmpnei	r2,r2,56
 80017b0:	1000021e 	bne	r2,zero,80017bc <key_event+0x474>
			press_z(ship2);
 80017b4:	e13ffe17 	ldw	r4,-8(fp)
 80017b8:	80037e40 	call	80037e4 <press_z>
		// }
		// if (cur_key == KEY_L){
		// 	press_l(ship);
		// }

		if (key_array[0] == KEY_ENTER || key_array[1] == KEY_ENTER){
 80017bc:	e0bff617 	ldw	r2,-40(fp)
 80017c0:	10800a20 	cmpeqi	r2,r2,40
 80017c4:	1000031e 	bne	r2,zero,80017d4 <key_event+0x48c>
 80017c8:	e0bff717 	ldw	r2,-36(fp)
 80017cc:	10800a18 	cmpnei	r2,r2,40
 80017d0:	1000041e 	bne	r2,zero,80017e4 <key_event+0x49c>
			*game_start = 1;
 80017d4:	e0bffc17 	ldw	r2,-16(fp)
 80017d8:	00c00044 	movi	r3,1
 80017dc:	10c00015 	stw	r3,0(r2)
			return;
 80017e0:	00001f06 	br	8001860 <key_event+0x518>
		}
		else if (key_array[0] == KEY_ESC || key_array[1] == KEY_ESC){
 80017e4:	e0bff617 	ldw	r2,-40(fp)
 80017e8:	10800a60 	cmpeqi	r2,r2,41
 80017ec:	1000031e 	bne	r2,zero,80017fc <key_event+0x4b4>
 80017f0:	e0bff717 	ldw	r2,-36(fp)
 80017f4:	10800a58 	cmpnei	r2,r2,41
 80017f8:	1000041e 	bne	r2,zero,800180c <key_event+0x4c4>
			*game_start = 0;
 80017fc:	e0bffc17 	ldw	r2,-16(fp)
 8001800:	10000015 	stw	zero,0(r2)
			developer_mode = 0;
 8001804:	d0271f15 	stw	zero,-25476(gp)
			return;
 8001808:	00001506 	br	8001860 <key_event+0x518>
		}
		else if (key_array[0] == KEY_ESC || key_array[1] == KEY_ESC){
 800180c:	e0bff617 	ldw	r2,-40(fp)
 8001810:	10800a60 	cmpeqi	r2,r2,41
 8001814:	1000031e 	bne	r2,zero,8001824 <key_event+0x4dc>
 8001818:	e0bff717 	ldw	r2,-36(fp)
 800181c:	10800a58 	cmpnei	r2,r2,41
 8001820:	1000031e 	bne	r2,zero,8001830 <key_event+0x4e8>
			*game_start = 0;
 8001824:	e0bffc17 	ldw	r2,-16(fp)
 8001828:	10000015 	stw	zero,0(r2)
			return;
 800182c:	00000c06 	br	8001860 <key_event+0x518>
		}
		else if (key_array[0] == KEY_BACKSPACE || key_array[1] == KEY_BACKSPACE){
 8001830:	e0bff617 	ldw	r2,-40(fp)
 8001834:	10800aa0 	cmpeqi	r2,r2,42
 8001838:	1000031e 	bne	r2,zero,8001848 <key_event+0x500>
 800183c:	e0bff717 	ldw	r2,-36(fp)
 8001840:	10800a98 	cmpnei	r2,r2,42
 8001844:	1000051e 	bne	r2,zero,800185c <key_event+0x514>
			*game_start = 0;
 8001848:	e0bffc17 	ldw	r2,-16(fp)
 800184c:	10000015 	stw	zero,0(r2)
			developer_mode = 1;
 8001850:	00800044 	movi	r2,1
 8001854:	d0a71f15 	stw	r2,-25476(gp)
			return;
 8001858:	00000106 	br	8001860 <key_event+0x518>
		}
		else{
			return;
 800185c:	0001883a 	nop
		}
}
 8001860:	e037883a 	mov	sp,fp
 8001864:	dfc00117 	ldw	ra,4(sp)
 8001868:	df000017 	ldw	fp,0(sp)
 800186c:	dec00204 	addi	sp,sp,8
 8001870:	f800283a 	ret

08001874 <game_update>:
/*
 * 1. update saber state and x,y
 * 2. update gamefile
*/
void game_update(int *game_start,ship_t *ship, ship_t *ship2, torpedo_t *torpedo1, torpedo_t *torpedo2,
		bullet_t *bullet1, bullet_t *bullet2){
 8001874:	defff704 	addi	sp,sp,-36
 8001878:	dfc00815 	stw	ra,32(sp)
 800187c:	df000715 	stw	fp,28(sp)
 8001880:	df000704 	addi	fp,sp,28
 8001884:	e13ffc15 	stw	r4,-16(fp)
 8001888:	e17ffd15 	stw	r5,-12(fp)
 800188c:	e1bffe15 	stw	r6,-8(fp)
 8001890:	e1ffff15 	stw	r7,-4(fp)
	// update saber state and x, y
	update(ship, ship2);
 8001894:	e17ffe17 	ldw	r5,-8(fp)
 8001898:	e13ffd17 	ldw	r4,-12(fp)
 800189c:	800261c0 	call	800261c <update>
	generate_bullet(ship, SHIP2, bullet1);
 80018a0:	e1800317 	ldw	r6,12(fp)
 80018a4:	01400044 	movi	r5,1
 80018a8:	e13ffd17 	ldw	r4,-12(fp)
 80018ac:	800026c0 	call	800026c <generate_bullet>
	generate_bullet(ship2, SHIP1, bullet2);
 80018b0:	e1800417 	ldw	r6,16(fp)
 80018b4:	000b883a 	mov	r5,zero
 80018b8:	e13ffe17 	ldw	r4,-8(fp)
 80018bc:	800026c0 	call	800026c <generate_bullet>
	update_bullet(bullet1, bullet2, ship, ship2);
 80018c0:	e1fffe17 	ldw	r7,-8(fp)
 80018c4:	e1bffd17 	ldw	r6,-12(fp)
 80018c8:	e1400417 	ldw	r5,16(fp)
 80018cc:	e1000317 	ldw	r4,12(fp)
 80018d0:	80004300 	call	8000430 <update_bullet>
	printf("%d\n", bullet1->stop);
 80018d4:	e0800317 	ldw	r2,12(fp)
 80018d8:	10800017 	ldw	r2,0(r2)
 80018dc:	100b883a 	mov	r5,r2
 80018e0:	01020074 	movhi	r4,2049
 80018e4:	21133a04 	addi	r4,r4,19688
 80018e8:	800636c0 	call	800636c <printf>
	detect_ship_attack(ship,ship2);
 80018ec:	e17ffe17 	ldw	r5,-8(fp)
 80018f0:	e13ffd17 	ldw	r4,-12(fp)
 80018f4:	80029840 	call	8002984 <detect_ship_attack>
	update_tor(torpedo1, torpedo2, ship, ship2);
 80018f8:	e1fffe17 	ldw	r7,-8(fp)
 80018fc:	e1bffd17 	ldw	r6,-12(fp)
 8001900:	e1400217 	ldw	r5,8(fp)
 8001904:	e13fff17 	ldw	r4,-4(fp)
 8001908:	80037640 	call	8003764 <update_tor>
	if (ship->HP <= 0)
 800190c:	e0bffd17 	ldw	r2,-12(fp)
 8001910:	10800517 	ldw	r2,20(r2)
 8001914:	00800316 	blt	zero,r2,8001924 <game_update+0xb0>
		ship->state = DEAD;
 8001918:	e0bffd17 	ldw	r2,-12(fp)
 800191c:	00c00144 	movi	r3,5
 8001920:	10c00815 	stw	r3,32(r2)
	if (ship2->HP <=0)
 8001924:	e0bffe17 	ldw	r2,-8(fp)
 8001928:	10800517 	ldw	r2,20(r2)
 800192c:	00800316 	blt	zero,r2,800193c <game_update+0xc8>
		ship2->state = DEAD;
 8001930:	e0bffe17 	ldw	r2,-8(fp)
 8001934:	00c00144 	movi	r3,5
 8001938:	10c00815 	stw	r3,32(r2)
	// send the information to the hardware
	gamefile_update(game_start, ship, ship2, torpedo1, torpedo2, bullet1, bullet2);
 800193c:	e0800417 	ldw	r2,16(fp)
 8001940:	d8800215 	stw	r2,8(sp)
 8001944:	e0800317 	ldw	r2,12(fp)
 8001948:	d8800115 	stw	r2,4(sp)
 800194c:	e0800217 	ldw	r2,8(fp)
 8001950:	d8800015 	stw	r2,0(sp)
 8001954:	e1ffff17 	ldw	r7,-4(fp)
 8001958:	e1bffe17 	ldw	r6,-8(fp)
 800195c:	e17ffd17 	ldw	r5,-12(fp)
 8001960:	e13ffc17 	ldw	r4,-16(fp)
 8001964:	8001a000 	call	8001a00 <gamefile_update>
}
 8001968:	0001883a 	nop
 800196c:	e037883a 	mov	sp,fp
 8001970:	dfc00117 	ldw	ra,4(sp)
 8001974:	df000017 	ldw	fp,0(sp)
 8001978:	dec00204 	addi	sp,sp,8
 800197c:	f800283a 	ret

08001980 <ship_choose_update>:

void ship_choose_update(int* player1_ready, int* player2_ready, ship_t *ship, ship_t *ship2){
 8001980:	defffb04 	addi	sp,sp,-20
 8001984:	df000415 	stw	fp,16(sp)
 8001988:	df000404 	addi	fp,sp,16
 800198c:	e13ffc15 	stw	r4,-16(fp)
 8001990:	e17ffd15 	stw	r5,-12(fp)
 8001994:	e1bffe15 	stw	r6,-8(fp)
 8001998:	e1ffff15 	stw	r7,-4(fp)
    game_file[60] = ship->choose_ship;
 800199c:	d0a00017 	ldw	r2,-32768(gp)
 80019a0:	10803c04 	addi	r2,r2,240
 80019a4:	e0fffe17 	ldw	r3,-8(fp)
 80019a8:	18c01017 	ldw	r3,64(r3)
 80019ac:	10c00015 	stw	r3,0(r2)
    game_file[61] = ship2->choose_ship;
 80019b0:	d0a00017 	ldw	r2,-32768(gp)
 80019b4:	10803d04 	addi	r2,r2,244
 80019b8:	e0ffff17 	ldw	r3,-4(fp)
 80019bc:	18c01017 	ldw	r3,64(r3)
 80019c0:	10c00015 	stw	r3,0(r2)
    game_file[62] = ship->ship_choose_ready;
 80019c4:	d0a00017 	ldw	r2,-32768(gp)
 80019c8:	10803e04 	addi	r2,r2,248
 80019cc:	e0fffe17 	ldw	r3,-8(fp)
 80019d0:	18c01117 	ldw	r3,68(r3)
 80019d4:	10c00015 	stw	r3,0(r2)
    game_file[63] = ship2->ship_choose_ready;
 80019d8:	d0a00017 	ldw	r2,-32768(gp)
 80019dc:	10803f04 	addi	r2,r2,252
 80019e0:	e0ffff17 	ldw	r3,-4(fp)
 80019e4:	18c01117 	ldw	r3,68(r3)
 80019e8:	10c00015 	stw	r3,0(r2)
}
 80019ec:	0001883a 	nop
 80019f0:	e037883a 	mov	sp,fp
 80019f4:	df000017 	ldw	fp,0(sp)
 80019f8:	dec00104 	addi	sp,sp,4
 80019fc:	f800283a 	ret

08001a00 <gamefile_update>:
/*
 * gamefile_update : use characters information to update the game file,
 * 					which will communicate with the hardware
 */
void gamefile_update(int *game_start, ship_t *ship, ship_t *ship2, torpedo_t *torpedo1, torpedo_t *torpedo2,
		bullet_t *bullet1, bullet_t *bullet2){
 8001a00:	defffb04 	addi	sp,sp,-20
 8001a04:	df000415 	stw	fp,16(sp)
 8001a08:	df000404 	addi	fp,sp,16
 8001a0c:	e13ffc15 	stw	r4,-16(fp)
 8001a10:	e17ffd15 	stw	r5,-12(fp)
 8001a14:	e1bffe15 	stw	r6,-8(fp)
 8001a18:	e1ffff15 	stw	r7,-4(fp)
	game_file[0] = ship->exist;
 8001a1c:	d0a00017 	ldw	r2,-32768(gp)
 8001a20:	e0fffd17 	ldw	r3,-12(fp)
 8001a24:	18c00017 	ldw	r3,0(r3)
 8001a28:	10c00015 	stw	r3,0(r2)
	game_file[1] = ship->x;
 8001a2c:	d0a00017 	ldw	r2,-32768(gp)
 8001a30:	10800104 	addi	r2,r2,4
 8001a34:	e0fffd17 	ldw	r3,-12(fp)
 8001a38:	18c00117 	ldw	r3,4(r3)
 8001a3c:	10c00015 	stw	r3,0(r2)
	game_file[2] = ship->y;
 8001a40:	d0a00017 	ldw	r2,-32768(gp)
 8001a44:	10800204 	addi	r2,r2,8
 8001a48:	e0fffd17 	ldw	r3,-12(fp)
 8001a4c:	18c00217 	ldw	r3,8(r3)
 8001a50:	10c00015 	stw	r3,0(r2)
	game_file[3] = ship->state;
 8001a54:	d0a00017 	ldw	r2,-32768(gp)
 8001a58:	10800304 	addi	r2,r2,12
 8001a5c:	e0fffd17 	ldw	r3,-12(fp)
 8001a60:	18c00817 	ldw	r3,32(r3)
 8001a64:	10c00015 	stw	r3,0(r2)
	game_file[4] = ship->HP > 2;
 8001a68:	d0a00017 	ldw	r2,-32768(gp)
 8001a6c:	10800404 	addi	r2,r2,16
 8001a70:	e0fffd17 	ldw	r3,-12(fp)
 8001a74:	18c00517 	ldw	r3,20(r3)
 8001a78:	18c000c8 	cmpgei	r3,r3,3
 8001a7c:	18c03fcc 	andi	r3,r3,255
 8001a80:	10c00015 	stw	r3,0(r2)

	game_file[7] = ship2->exist;
 8001a84:	d0a00017 	ldw	r2,-32768(gp)
 8001a88:	10800704 	addi	r2,r2,28
 8001a8c:	e0fffe17 	ldw	r3,-8(fp)
 8001a90:	18c00017 	ldw	r3,0(r3)
 8001a94:	10c00015 	stw	r3,0(r2)
	game_file[8] = ship2->x;
 8001a98:	d0a00017 	ldw	r2,-32768(gp)
 8001a9c:	10800804 	addi	r2,r2,32
 8001aa0:	e0fffe17 	ldw	r3,-8(fp)
 8001aa4:	18c00117 	ldw	r3,4(r3)
 8001aa8:	10c00015 	stw	r3,0(r2)
	game_file[9] = ship2->y;
 8001aac:	d0a00017 	ldw	r2,-32768(gp)
 8001ab0:	10800904 	addi	r2,r2,36
 8001ab4:	e0fffe17 	ldw	r3,-8(fp)
 8001ab8:	18c00217 	ldw	r3,8(r3)
 8001abc:	10c00015 	stw	r3,0(r2)
	game_file[10] = ship2->state;
 8001ac0:	d0a00017 	ldw	r2,-32768(gp)
 8001ac4:	10800a04 	addi	r2,r2,40
 8001ac8:	e0fffe17 	ldw	r3,-8(fp)
 8001acc:	18c00817 	ldw	r3,32(r3)
 8001ad0:	10c00015 	stw	r3,0(r2)
	game_file[11] = ship2->HP > 2;
 8001ad4:	d0a00017 	ldw	r2,-32768(gp)
 8001ad8:	10800b04 	addi	r2,r2,44
 8001adc:	e0fffe17 	ldw	r3,-8(fp)
 8001ae0:	18c00517 	ldw	r3,20(r3)
 8001ae4:	18c000c8 	cmpgei	r3,r3,3
 8001ae8:	18c03fcc 	andi	r3,r3,255
 8001aec:	10c00015 	stw	r3,0(r2)

	game_file[12] = torpedo1->x[0];
 8001af0:	d0a00017 	ldw	r2,-32768(gp)
 8001af4:	10800c04 	addi	r2,r2,48
 8001af8:	e0ffff17 	ldw	r3,-4(fp)
 8001afc:	18c00017 	ldw	r3,0(r3)
 8001b00:	10c00015 	stw	r3,0(r2)
	game_file[13] = torpedo1->x[1];
 8001b04:	d0a00017 	ldw	r2,-32768(gp)
 8001b08:	10800d04 	addi	r2,r2,52
 8001b0c:	e0ffff17 	ldw	r3,-4(fp)
 8001b10:	18c00117 	ldw	r3,4(r3)
 8001b14:	10c00015 	stw	r3,0(r2)
	game_file[14] = torpedo1->x[2];
 8001b18:	d0a00017 	ldw	r2,-32768(gp)
 8001b1c:	10800e04 	addi	r2,r2,56
 8001b20:	e0ffff17 	ldw	r3,-4(fp)
 8001b24:	18c00217 	ldw	r3,8(r3)
 8001b28:	10c00015 	stw	r3,0(r2)
	game_file[15] = torpedo1->x[3];
 8001b2c:	d0a00017 	ldw	r2,-32768(gp)
 8001b30:	10800f04 	addi	r2,r2,60
 8001b34:	e0ffff17 	ldw	r3,-4(fp)
 8001b38:	18c00317 	ldw	r3,12(r3)
 8001b3c:	10c00015 	stw	r3,0(r2)
	game_file[16] = torpedo1->y[0];
 8001b40:	d0a00017 	ldw	r2,-32768(gp)
 8001b44:	10801004 	addi	r2,r2,64
 8001b48:	e0ffff17 	ldw	r3,-4(fp)
 8001b4c:	18c00417 	ldw	r3,16(r3)
 8001b50:	10c00015 	stw	r3,0(r2)
	game_file[17] = torpedo1->y[1];
 8001b54:	d0a00017 	ldw	r2,-32768(gp)
 8001b58:	10801104 	addi	r2,r2,68
 8001b5c:	e0ffff17 	ldw	r3,-4(fp)
 8001b60:	18c00517 	ldw	r3,20(r3)
 8001b64:	10c00015 	stw	r3,0(r2)
	game_file[18] = torpedo1->y[2];
 8001b68:	d0a00017 	ldw	r2,-32768(gp)
 8001b6c:	10801204 	addi	r2,r2,72
 8001b70:	e0ffff17 	ldw	r3,-4(fp)
 8001b74:	18c00617 	ldw	r3,24(r3)
 8001b78:	10c00015 	stw	r3,0(r2)
	game_file[19] = torpedo1->y[3];
 8001b7c:	d0a00017 	ldw	r2,-32768(gp)
 8001b80:	10801304 	addi	r2,r2,76
 8001b84:	e0ffff17 	ldw	r3,-4(fp)
 8001b88:	18c00717 	ldw	r3,28(r3)
 8001b8c:	10c00015 	stw	r3,0(r2)

//	game_file[19] = *game_start;
	game_file[20] = *game_start==0;
 8001b90:	d0a00017 	ldw	r2,-32768(gp)
 8001b94:	10801404 	addi	r2,r2,80
 8001b98:	e0fffc17 	ldw	r3,-16(fp)
 8001b9c:	18c00017 	ldw	r3,0(r3)
 8001ba0:	1807003a 	cmpeq	r3,r3,zero
 8001ba4:	18c03fcc 	andi	r3,r3,255
 8001ba8:	10c00015 	stw	r3,0(r2)
	game_file[21] = ship2->HP<=0;
 8001bac:	d0a00017 	ldw	r2,-32768(gp)
 8001bb0:	10801504 	addi	r2,r2,84
 8001bb4:	e0fffe17 	ldw	r3,-8(fp)
 8001bb8:	18c00517 	ldw	r3,20(r3)
 8001bbc:	00c6403a 	cmpge	r3,zero,r3
 8001bc0:	18c03fcc 	andi	r3,r3,255
 8001bc4:	10c00015 	stw	r3,0(r2)
	game_file[22] = ship->HP<=0;
 8001bc8:	d0a00017 	ldw	r2,-32768(gp)
 8001bcc:	10801604 	addi	r2,r2,88
 8001bd0:	e0fffd17 	ldw	r3,-12(fp)
 8001bd4:	18c00517 	ldw	r3,20(r3)
 8001bd8:	00c6403a 	cmpge	r3,zero,r3
 8001bdc:	18c03fcc 	andi	r3,r3,255
 8001be0:	10c00015 	stw	r3,0(r2)
	game_file[23] = ship2 -> HP;
 8001be4:	d0a00017 	ldw	r2,-32768(gp)
 8001be8:	10801704 	addi	r2,r2,92
 8001bec:	e0fffe17 	ldw	r3,-8(fp)
 8001bf0:	18c00517 	ldw	r3,20(r3)
 8001bf4:	10c00015 	stw	r3,0(r2)
	game_file[24] = ship -> HP;
 8001bf8:	d0a00017 	ldw	r2,-32768(gp)
 8001bfc:	10801804 	addi	r2,r2,96
 8001c00:	e0fffd17 	ldw	r3,-12(fp)
 8001c04:	18c00517 	ldw	r3,20(r3)
 8001c08:	10c00015 	stw	r3,0(r2)
	game_file[25] = *game_start;
 8001c0c:	d0a00017 	ldw	r2,-32768(gp)
 8001c10:	10801904 	addi	r2,r2,100
 8001c14:	e0fffc17 	ldw	r3,-16(fp)
 8001c18:	18c00017 	ldw	r3,0(r3)
 8001c1c:	10c00015 	stw	r3,0(r2)

	game_file[26] = torpedo2->x[0];
 8001c20:	d0a00017 	ldw	r2,-32768(gp)
 8001c24:	10801a04 	addi	r2,r2,104
 8001c28:	e0c00117 	ldw	r3,4(fp)
 8001c2c:	18c00017 	ldw	r3,0(r3)
 8001c30:	10c00015 	stw	r3,0(r2)
	game_file[27] = torpedo2->x[1];
 8001c34:	d0a00017 	ldw	r2,-32768(gp)
 8001c38:	10801b04 	addi	r2,r2,108
 8001c3c:	e0c00117 	ldw	r3,4(fp)
 8001c40:	18c00117 	ldw	r3,4(r3)
 8001c44:	10c00015 	stw	r3,0(r2)
	game_file[28] = torpedo2->x[2];
 8001c48:	d0a00017 	ldw	r2,-32768(gp)
 8001c4c:	10801c04 	addi	r2,r2,112
 8001c50:	e0c00117 	ldw	r3,4(fp)
 8001c54:	18c00217 	ldw	r3,8(r3)
 8001c58:	10c00015 	stw	r3,0(r2)
	game_file[29] = torpedo2->x[3];
 8001c5c:	d0a00017 	ldw	r2,-32768(gp)
 8001c60:	10801d04 	addi	r2,r2,116
 8001c64:	e0c00117 	ldw	r3,4(fp)
 8001c68:	18c00317 	ldw	r3,12(r3)
 8001c6c:	10c00015 	stw	r3,0(r2)
	game_file[30] = torpedo2->y[0];
 8001c70:	d0a00017 	ldw	r2,-32768(gp)
 8001c74:	10801e04 	addi	r2,r2,120
 8001c78:	e0c00117 	ldw	r3,4(fp)
 8001c7c:	18c00417 	ldw	r3,16(r3)
 8001c80:	10c00015 	stw	r3,0(r2)
	game_file[31] = torpedo2->y[1];
 8001c84:	d0a00017 	ldw	r2,-32768(gp)
 8001c88:	10801f04 	addi	r2,r2,124
 8001c8c:	e0c00117 	ldw	r3,4(fp)
 8001c90:	18c00517 	ldw	r3,20(r3)
 8001c94:	10c00015 	stw	r3,0(r2)
	game_file[32] = torpedo2->y[2];
 8001c98:	d0a00017 	ldw	r2,-32768(gp)
 8001c9c:	10802004 	addi	r2,r2,128
 8001ca0:	e0c00117 	ldw	r3,4(fp)
 8001ca4:	18c00617 	ldw	r3,24(r3)
 8001ca8:	10c00015 	stw	r3,0(r2)
	game_file[33] = torpedo2->y[3];
 8001cac:	d0a00017 	ldw	r2,-32768(gp)
 8001cb0:	10802104 	addi	r2,r2,132
 8001cb4:	e0c00117 	ldw	r3,4(fp)
 8001cb8:	18c00717 	ldw	r3,28(r3)
 8001cbc:	10c00015 	stw	r3,0(r2)

	// game_file[35] = saber -> Excalibur_state < EXCALIBURNULL;
	// game_file[36] = (saber->FaceDirection==RIGHT)? saber->x+EXCALIBUR_LENGTH/2+EXCALIBUR_X_BIAS: saber->x-(EXCALIBUR_LENGTH/2+EXCALIBUR_X_BIAS);
	 game_file[37] = torpedo1->stop;
 8001cc0:	d0a00017 	ldw	r2,-32768(gp)
 8001cc4:	10802504 	addi	r2,r2,148
 8001cc8:	e0ffff17 	ldw	r3,-4(fp)
 8001ccc:	18c01417 	ldw	r3,80(r3)
 8001cd0:	10c00015 	stw	r3,0(r2)
	 game_file[38] = torpedo2->stop;
 8001cd4:	d0a00017 	ldw	r2,-32768(gp)
 8001cd8:	10802604 	addi	r2,r2,152
 8001cdc:	e0c00117 	ldw	r3,4(fp)
 8001ce0:	18c01417 	ldw	r3,80(r3)
 8001ce4:	10c00015 	stw	r3,0(r2)
	game_file[39] = ship->FaceDirection == LEFT;
 8001ce8:	d0a00017 	ldw	r2,-32768(gp)
 8001cec:	10802704 	addi	r2,r2,156
 8001cf0:	e0fffd17 	ldw	r3,-12(fp)
 8001cf4:	18c00717 	ldw	r3,28(r3)
 8001cf8:	18c00060 	cmpeqi	r3,r3,1
 8001cfc:	18c03fcc 	andi	r3,r3,255
 8001d00:	10c00015 	stw	r3,0(r2)
	game_file[40] = ship2->FaceDirection == LEFT;
 8001d04:	d0a00017 	ldw	r2,-32768(gp)
 8001d08:	10802804 	addi	r2,r2,160
 8001d0c:	e0fffe17 	ldw	r3,-8(fp)
 8001d10:	18c00717 	ldw	r3,28(r3)
 8001d14:	18c00060 	cmpeqi	r3,r3,1
 8001d18:	18c03fcc 	andi	r3,r3,255
 8001d1c:	10c00015 	stw	r3,0(r2)
	game_file[41] = win;
 8001d20:	d0a00017 	ldw	r2,-32768(gp)
 8001d24:	10802904 	addi	r2,r2,164
 8001d28:	d0e72017 	ldw	r3,-25472(gp)
 8001d2c:	10c00015 	stw	r3,0(r2)

	// game_file[43] = saber->Excalibur_remain;
	game_file[44] = *game_start;
 8001d30:	d0a00017 	ldw	r2,-32768(gp)
 8001d34:	10802c04 	addi	r2,r2,176
 8001d38:	e0fffc17 	ldw	r3,-16(fp)
 8001d3c:	18c00017 	ldw	r3,0(r3)
 8001d40:	10c00015 	stw	r3,0(r2)

	game_file[45] = bullet1->stop;
 8001d44:	d0a00017 	ldw	r2,-32768(gp)
 8001d48:	10802d04 	addi	r2,r2,180
 8001d4c:	e0c00217 	ldw	r3,8(fp)
 8001d50:	18c00017 	ldw	r3,0(r3)
 8001d54:	10c00015 	stw	r3,0(r2)
	game_file[46] = bullet2->stop;
 8001d58:	d0a00017 	ldw	r2,-32768(gp)
 8001d5c:	10802e04 	addi	r2,r2,184
 8001d60:	e0c00317 	ldw	r3,12(fp)
 8001d64:	18c00017 	ldw	r3,0(r3)
 8001d68:	10c00015 	stw	r3,0(r2)
	*bullet_1_x_0 = bullet1->x[0];
 8001d6c:	d0a00117 	ldw	r2,-32764(gp)
 8001d70:	e0c00217 	ldw	r3,8(fp)
 8001d74:	18c00117 	ldw	r3,4(r3)
 8001d78:	10c00015 	stw	r3,0(r2)
	*bullet_1_x_1 = bullet1->x[1];
 8001d7c:	d0a00217 	ldw	r2,-32760(gp)
 8001d80:	e0c00217 	ldw	r3,8(fp)
 8001d84:	18c00217 	ldw	r3,8(r3)
 8001d88:	10c00015 	stw	r3,0(r2)
	*bullet_1_x_2 = bullet1->x[2];
 8001d8c:	d0a00317 	ldw	r2,-32756(gp)
 8001d90:	e0c00217 	ldw	r3,8(fp)
 8001d94:	18c00317 	ldw	r3,12(r3)
 8001d98:	10c00015 	stw	r3,0(r2)
	*bullet_1_x_3 = bullet1->x[3];
 8001d9c:	d0a00417 	ldw	r2,-32752(gp)
 8001da0:	e0c00217 	ldw	r3,8(fp)
 8001da4:	18c00417 	ldw	r3,16(r3)
 8001da8:	10c00015 	stw	r3,0(r2)
	*bullet_1_x_4 = bullet1->x[4];
 8001dac:	d0a00517 	ldw	r2,-32748(gp)
 8001db0:	e0c00217 	ldw	r3,8(fp)
 8001db4:	18c00517 	ldw	r3,20(r3)
 8001db8:	10c00015 	stw	r3,0(r2)
	*bullet_1_x_5 = bullet1->x[5];
 8001dbc:	d0a00617 	ldw	r2,-32744(gp)
 8001dc0:	e0c00217 	ldw	r3,8(fp)
 8001dc4:	18c00617 	ldw	r3,24(r3)
 8001dc8:	10c00015 	stw	r3,0(r2)
	*bullet_1_x_6 = bullet1->x[6];
 8001dcc:	d0a00717 	ldw	r2,-32740(gp)
 8001dd0:	e0c00217 	ldw	r3,8(fp)
 8001dd4:	18c00717 	ldw	r3,28(r3)
 8001dd8:	10c00015 	stw	r3,0(r2)
	*bullet_1_x_7 = bullet1->x[7];
 8001ddc:	d0a00817 	ldw	r2,-32736(gp)
 8001de0:	e0c00217 	ldw	r3,8(fp)
 8001de4:	18c00817 	ldw	r3,32(r3)
 8001de8:	10c00015 	stw	r3,0(r2)
	*bullet_1_x_8 = bullet1->x[8];
 8001dec:	d0a00917 	ldw	r2,-32732(gp)
 8001df0:	e0c00217 	ldw	r3,8(fp)
 8001df4:	18c00917 	ldw	r3,36(r3)
 8001df8:	10c00015 	stw	r3,0(r2)
	*bullet_1_x_9 = bullet1->x[9];
 8001dfc:	d0a00a17 	ldw	r2,-32728(gp)
 8001e00:	e0c00217 	ldw	r3,8(fp)
 8001e04:	18c00a17 	ldw	r3,40(r3)
 8001e08:	10c00015 	stw	r3,0(r2)
	*bullet_1_y_0 = bullet1->y[0];
 8001e0c:	d0a00b17 	ldw	r2,-32724(gp)
 8001e10:	e0c00217 	ldw	r3,8(fp)
 8001e14:	18c00b17 	ldw	r3,44(r3)
 8001e18:	10c00015 	stw	r3,0(r2)
	*bullet_1_y_1 = bullet1->y[1];
 8001e1c:	d0a00c17 	ldw	r2,-32720(gp)
 8001e20:	e0c00217 	ldw	r3,8(fp)
 8001e24:	18c00c17 	ldw	r3,48(r3)
 8001e28:	10c00015 	stw	r3,0(r2)
	*bullet_1_y_2 = bullet1->y[2];
 8001e2c:	d0a00d17 	ldw	r2,-32716(gp)
 8001e30:	e0c00217 	ldw	r3,8(fp)
 8001e34:	18c00d17 	ldw	r3,52(r3)
 8001e38:	10c00015 	stw	r3,0(r2)
	*bullet_1_y_3 = bullet1->y[3];
 8001e3c:	d0a00e17 	ldw	r2,-32712(gp)
 8001e40:	e0c00217 	ldw	r3,8(fp)
 8001e44:	18c00e17 	ldw	r3,56(r3)
 8001e48:	10c00015 	stw	r3,0(r2)
	*bullet_1_y_4 = bullet1->y[4];
 8001e4c:	d0a00f17 	ldw	r2,-32708(gp)
 8001e50:	e0c00217 	ldw	r3,8(fp)
 8001e54:	18c00f17 	ldw	r3,60(r3)
 8001e58:	10c00015 	stw	r3,0(r2)
	*bullet_1_y_5 = bullet1->y[5];
 8001e5c:	d0a01017 	ldw	r2,-32704(gp)
 8001e60:	e0c00217 	ldw	r3,8(fp)
 8001e64:	18c01017 	ldw	r3,64(r3)
 8001e68:	10c00015 	stw	r3,0(r2)
	*bullet_1_y_6 = bullet1->y[6];
 8001e6c:	d0a01117 	ldw	r2,-32700(gp)
 8001e70:	e0c00217 	ldw	r3,8(fp)
 8001e74:	18c01117 	ldw	r3,68(r3)
 8001e78:	10c00015 	stw	r3,0(r2)
	*bullet_1_y_7 = bullet1->y[7];
 8001e7c:	d0a01217 	ldw	r2,-32696(gp)
 8001e80:	e0c00217 	ldw	r3,8(fp)
 8001e84:	18c01217 	ldw	r3,72(r3)
 8001e88:	10c00015 	stw	r3,0(r2)
	*bullet_1_y_8 = bullet1->y[8];
 8001e8c:	d0a01317 	ldw	r2,-32692(gp)
 8001e90:	e0c00217 	ldw	r3,8(fp)
 8001e94:	18c01317 	ldw	r3,76(r3)
 8001e98:	10c00015 	stw	r3,0(r2)
	*bullet_1_y_9 = bullet1->y[9];
 8001e9c:	d0a01417 	ldw	r2,-32688(gp)
 8001ea0:	e0c00217 	ldw	r3,8(fp)
 8001ea4:	18c01417 	ldw	r3,80(r3)
 8001ea8:	10c00015 	stw	r3,0(r2)
	*bullet_2_x_0 = bullet2->x[0];
 8001eac:	d0a01517 	ldw	r2,-32684(gp)
 8001eb0:	e0c00317 	ldw	r3,12(fp)
 8001eb4:	18c00117 	ldw	r3,4(r3)
 8001eb8:	10c00015 	stw	r3,0(r2)
	*bullet_2_x_1 = bullet2->x[1];
 8001ebc:	d0a01617 	ldw	r2,-32680(gp)
 8001ec0:	e0c00317 	ldw	r3,12(fp)
 8001ec4:	18c00217 	ldw	r3,8(r3)
 8001ec8:	10c00015 	stw	r3,0(r2)
	*bullet_2_x_2 = bullet2->x[2];
 8001ecc:	d0a01717 	ldw	r2,-32676(gp)
 8001ed0:	e0c00317 	ldw	r3,12(fp)
 8001ed4:	18c00317 	ldw	r3,12(r3)
 8001ed8:	10c00015 	stw	r3,0(r2)
	*bullet_2_x_3 = bullet2->x[3];
 8001edc:	d0a01817 	ldw	r2,-32672(gp)
 8001ee0:	e0c00317 	ldw	r3,12(fp)
 8001ee4:	18c00417 	ldw	r3,16(r3)
 8001ee8:	10c00015 	stw	r3,0(r2)
	*bullet_2_x_4 = bullet2->x[4];
 8001eec:	d0a01917 	ldw	r2,-32668(gp)
 8001ef0:	e0c00317 	ldw	r3,12(fp)
 8001ef4:	18c00517 	ldw	r3,20(r3)
 8001ef8:	10c00015 	stw	r3,0(r2)
	*bullet_2_x_5 = bullet2->x[5];
 8001efc:	d0a01a17 	ldw	r2,-32664(gp)
 8001f00:	e0c00317 	ldw	r3,12(fp)
 8001f04:	18c00617 	ldw	r3,24(r3)
 8001f08:	10c00015 	stw	r3,0(r2)
	*bullet_2_x_6 = bullet2->x[6];
 8001f0c:	d0a01b17 	ldw	r2,-32660(gp)
 8001f10:	e0c00317 	ldw	r3,12(fp)
 8001f14:	18c00717 	ldw	r3,28(r3)
 8001f18:	10c00015 	stw	r3,0(r2)
	*bullet_2_x_7 = bullet2->x[7];
 8001f1c:	d0a01c17 	ldw	r2,-32656(gp)
 8001f20:	e0c00317 	ldw	r3,12(fp)
 8001f24:	18c00817 	ldw	r3,32(r3)
 8001f28:	10c00015 	stw	r3,0(r2)
	*bullet_2_x_8 = bullet2->x[8];
 8001f2c:	d0a01d17 	ldw	r2,-32652(gp)
 8001f30:	e0c00317 	ldw	r3,12(fp)
 8001f34:	18c00917 	ldw	r3,36(r3)
 8001f38:	10c00015 	stw	r3,0(r2)
	*bullet_2_x_9 = bullet2->x[9];
 8001f3c:	d0a01e17 	ldw	r2,-32648(gp)
 8001f40:	e0c00317 	ldw	r3,12(fp)
 8001f44:	18c00a17 	ldw	r3,40(r3)
 8001f48:	10c00015 	stw	r3,0(r2)
	*bullet_2_y_0 = bullet2->y[0];
 8001f4c:	d0a01f17 	ldw	r2,-32644(gp)
 8001f50:	e0c00317 	ldw	r3,12(fp)
 8001f54:	18c00b17 	ldw	r3,44(r3)
 8001f58:	10c00015 	stw	r3,0(r2)
	*bullet_2_y_1 = bullet2->y[1];
 8001f5c:	d0a02017 	ldw	r2,-32640(gp)
 8001f60:	e0c00317 	ldw	r3,12(fp)
 8001f64:	18c00c17 	ldw	r3,48(r3)
 8001f68:	10c00015 	stw	r3,0(r2)
	*bullet_2_y_2 = bullet2->y[2];
 8001f6c:	d0a02117 	ldw	r2,-32636(gp)
 8001f70:	e0c00317 	ldw	r3,12(fp)
 8001f74:	18c00d17 	ldw	r3,52(r3)
 8001f78:	10c00015 	stw	r3,0(r2)
	*bullet_2_y_3 = bullet2->y[3];
 8001f7c:	d0a02217 	ldw	r2,-32632(gp)
 8001f80:	e0c00317 	ldw	r3,12(fp)
 8001f84:	18c00e17 	ldw	r3,56(r3)
 8001f88:	10c00015 	stw	r3,0(r2)
	*bullet_2_y_4 = bullet2->y[4];
 8001f8c:	d0a02317 	ldw	r2,-32628(gp)
 8001f90:	e0c00317 	ldw	r3,12(fp)
 8001f94:	18c00f17 	ldw	r3,60(r3)
 8001f98:	10c00015 	stw	r3,0(r2)
	*bullet_2_y_5 = bullet2->y[5];
 8001f9c:	d0a02417 	ldw	r2,-32624(gp)
 8001fa0:	e0c00317 	ldw	r3,12(fp)
 8001fa4:	18c01017 	ldw	r3,64(r3)
 8001fa8:	10c00015 	stw	r3,0(r2)
	*bullet_2_y_6 = bullet2->y[6];
 8001fac:	d0a02517 	ldw	r2,-32620(gp)
 8001fb0:	e0c00317 	ldw	r3,12(fp)
 8001fb4:	18c01117 	ldw	r3,68(r3)
 8001fb8:	10c00015 	stw	r3,0(r2)
	*bullet_2_y_7 = bullet2->y[7];
 8001fbc:	d0a02617 	ldw	r2,-32616(gp)
 8001fc0:	e0c00317 	ldw	r3,12(fp)
 8001fc4:	18c01217 	ldw	r3,72(r3)
 8001fc8:	10c00015 	stw	r3,0(r2)
	*bullet_2_y_8 = bullet2->y[8];
 8001fcc:	d0a02717 	ldw	r2,-32612(gp)
 8001fd0:	e0c00317 	ldw	r3,12(fp)
 8001fd4:	18c01317 	ldw	r3,76(r3)
 8001fd8:	10c00015 	stw	r3,0(r2)
	*bullet_2_y_9 = bullet2->y[9];
 8001fdc:	d0a02817 	ldw	r2,-32608(gp)
 8001fe0:	e0c00317 	ldw	r3,12(fp)
 8001fe4:	18c01417 	ldw	r3,80(r3)
 8001fe8:	10c00015 	stw	r3,0(r2)
}
 8001fec:	0001883a 	nop
 8001ff0:	e037883a 	mov	sp,fp
 8001ff4:	df000017 	ldw	fp,0(sp)
 8001ff8:	dec00104 	addi	sp,sp,4
 8001ffc:	f800283a 	ret

08002000 <test_round>:

/*
 * test movement
 */
void test_round(int *game_start, ship_t *ship, ship_t *ship2, torpedo_t *torpedo1, torpedo_t *torpedo2, bullet_t *bullet1, bullet_t *bullet2){
 8002000:	defff704 	addi	sp,sp,-36
 8002004:	dfc00815 	stw	ra,32(sp)
 8002008:	df000715 	stw	fp,28(sp)
 800200c:	df000704 	addi	fp,sp,28
 8002010:	e13ffc15 	stw	r4,-16(fp)
 8002014:	e17ffd15 	stw	r5,-12(fp)
 8002018:	e1bffe15 	stw	r6,-8(fp)
 800201c:	e1ffff15 	stw	r7,-4(fp)
	ship_init(ship, ship2);
 8002020:	e17ffe17 	ldw	r5,-8(fp)
 8002024:	e13ffd17 	ldw	r4,-12(fp)
 8002028:	80024e40 	call	80024e4 <ship_init>
	init_tor(torpedo1, SHIP2);
 800202c:	01400044 	movi	r5,1
 8002030:	e13fff17 	ldw	r4,-4(fp)
 8002034:	800367c0 	call	800367c <init_tor>
	init_tor(torpedo2, SHIP1);
 8002038:	000b883a 	mov	r5,zero
 800203c:	e1000217 	ldw	r4,8(fp)
 8002040:	800367c0 	call	800367c <init_tor>
	init_bullet(bullet1, bullet2);
 8002044:	e1400417 	ldw	r5,16(fp)
 8002048:	e1000317 	ldw	r4,12(fp)
 800204c:	8000be00 	call	8000be0 <init_bullet>
	while(*game_start == 1){
 8002050:	00001f06 	br	80020d0 <test_round+0xd0>
		// use key code update saber state, vx and vy
		key_event(game_start, ship, ship2, torpedo1, torpedo2);
 8002054:	e0800217 	ldw	r2,8(fp)
 8002058:	d8800015 	stw	r2,0(sp)
 800205c:	e1ffff17 	ldw	r7,-4(fp)
 8002060:	e1bffe17 	ldw	r6,-8(fp)
 8002064:	e17ffd17 	ldw	r5,-12(fp)
 8002068:	e13ffc17 	ldw	r4,-16(fp)
 800206c:	80013480 	call	8001348 <key_event>
		game_update(game_start, ship, ship2, torpedo1, torpedo2, bullet1, bullet2);
 8002070:	e0800417 	ldw	r2,16(fp)
 8002074:	d8800215 	stw	r2,8(sp)
 8002078:	e0800317 	ldw	r2,12(fp)
 800207c:	d8800115 	stw	r2,4(sp)
 8002080:	e0800217 	ldw	r2,8(fp)
 8002084:	d8800015 	stw	r2,0(sp)
 8002088:	e1ffff17 	ldw	r7,-4(fp)
 800208c:	e1bffe17 	ldw	r6,-8(fp)
 8002090:	e17ffd17 	ldw	r5,-12(fp)
 8002094:	e13ffc17 	ldw	r4,-16(fp)
 8002098:	80018740 	call	8001874 <game_update>
		if(ship->state == DEAD || ship2->state == DEAD)
 800209c:	e0bffd17 	ldw	r2,-12(fp)
 80020a0:	10800817 	ldw	r2,32(r2)
 80020a4:	10800160 	cmpeqi	r2,r2,5
 80020a8:	1000041e 	bne	r2,zero,80020bc <test_round+0xbc>
 80020ac:	e0bffe17 	ldw	r2,-8(fp)
 80020b0:	10800817 	ldw	r2,32(r2)
 80020b4:	10800158 	cmpnei	r2,r2,5
 80020b8:	1000051e 	bne	r2,zero,80020d0 <test_round+0xd0>
		{
			*game_start = 0;
 80020bc:	e0bffc17 	ldw	r2,-16(fp)
 80020c0:	10000015 	stw	zero,0(r2)
			printf("GAME OVER\n");
 80020c4:	01020074 	movhi	r4,2049
 80020c8:	21133b04 	addi	r4,r4,19692
 80020cc:	80064680 	call	8006468 <puts>
void test_round(int *game_start, ship_t *ship, ship_t *ship2, torpedo_t *torpedo1, torpedo_t *torpedo2, bullet_t *bullet1, bullet_t *bullet2){
	ship_init(ship, ship2);
	init_tor(torpedo1, SHIP2);
	init_tor(torpedo2, SHIP1);
	init_bullet(bullet1, bullet2);
	while(*game_start == 1){
 80020d0:	e0bffc17 	ldw	r2,-16(fp)
 80020d4:	10800017 	ldw	r2,0(r2)
 80020d8:	10800060 	cmpeqi	r2,r2,1
 80020dc:	103fdd1e 	bne	r2,zero,8002054 <__alt_data_end+0xf8002054>
		{
			*game_start = 0;
			printf("GAME OVER\n");
		}
	}
}
 80020e0:	0001883a 	nop
 80020e4:	e037883a 	mov	sp,fp
 80020e8:	dfc00117 	ldw	ra,4(sp)
 80020ec:	df000017 	ldw	fp,0(sp)
 80020f0:	dec00204 	addi	sp,sp,8
 80020f4:	f800283a 	ret

080020f8 <main>:

int main(){
 80020f8:	deff5204 	addi	sp,sp,-696
 80020fc:	dfc0ad15 	stw	ra,692(sp)
 8002100:	df00ac15 	stw	fp,688(sp)
 8002104:	df00ac04 	addi	fp,sp,688
	printf("start");
 8002108:	01020074 	movhi	r4,2049
 800210c:	21133e04 	addi	r4,r4,19704
 8002110:	800636c0 	call	800636c <printf>
	ship_t ship1, ship2;
	bullet_t bullet1, bullet2;
	torpedo_t torpedo1, torpedo2;
	int game_start = 0;
 8002114:	e03f5715 	stw	zero,-676(fp)
	usb_init();		// initialize usb
 8002118:	80049900 	call	8004990 <usb_init>
	developer_mode = 0;
 800211c:	d0271f15 	stw	zero,-25476(gp)
	int frame_time = 2;
 8002120:	00800084 	movi	r2,2
 8002124:	e0bf5815 	stw	r2,-672(fp)
	while(1){
		win = 0;
 8002128:	d0272015 	stw	zero,-25472(gp)
		printf("start");
 800212c:	01020074 	movhi	r4,2049
 8002130:	21133e04 	addi	r4,r4,19704
 8002134:	800636c0 	call	800636c <printf>
		ship_init(&ship1, &ship2);
 8002138:	e0ff6b04 	addi	r3,fp,-596
 800213c:	e0bf5904 	addi	r2,fp,-668
 8002140:	180b883a 	mov	r5,r3
 8002144:	1009883a 	mov	r4,r2
 8002148:	80024e40 	call	80024e4 <ship_init>
		int player1_ready = 0;
 800214c:	e03ffd15 	stw	zero,-12(fp)
		int player2_ready = 0;
 8002150:	e03ffe15 	stw	zero,-8(fp)
		while(!(player1_ready && player2_ready)){
 8002154:	00001206 	br	80021a0 <main+0xa8>
			choose_ship(&player1_ready, &player2_ready, &ship1, &ship2);
 8002158:	e17f6b04 	addi	r5,fp,-596
 800215c:	e13f5904 	addi	r4,fp,-668
 8002160:	e0fffe04 	addi	r3,fp,-8
 8002164:	e0bffd04 	addi	r2,fp,-12
 8002168:	280f883a 	mov	r7,r5
 800216c:	200d883a 	mov	r6,r4
 8002170:	180b883a 	mov	r5,r3
 8002174:	1009883a 	mov	r4,r2
 8002178:	8000d440 	call	8000d44 <choose_ship>
			ship_choose_update(&player1_ready, &player2_ready, &ship1, &ship2);
 800217c:	e17f6b04 	addi	r5,fp,-596
 8002180:	e13f5904 	addi	r4,fp,-668
 8002184:	e0fffe04 	addi	r3,fp,-8
 8002188:	e0bffd04 	addi	r2,fp,-12
 800218c:	280f883a 	mov	r7,r5
 8002190:	200d883a 	mov	r6,r4
 8002194:	180b883a 	mov	r5,r3
 8002198:	1009883a 	mov	r4,r2
 800219c:	80019800 	call	8001980 <ship_choose_update>
		win = 0;
		printf("start");
		ship_init(&ship1, &ship2);
		int player1_ready = 0;
		int player2_ready = 0;
		while(!(player1_ready && player2_ready)){
 80021a0:	e0bffd17 	ldw	r2,-12(fp)
 80021a4:	103fec26 	beq	r2,zero,8002158 <__alt_data_end+0xf8002158>
 80021a8:	e0bffe17 	ldw	r2,-8(fp)
 80021ac:	103fea26 	beq	r2,zero,8002158 <__alt_data_end+0xf8002158>
			choose_ship(&player1_ready, &player2_ready, &ship1, &ship2);
			ship_choose_update(&player1_ready, &player2_ready, &ship1, &ship2);
		}
		printf("choose ship ready\n");
 80021b0:	01020074 	movhi	r4,2049
 80021b4:	21134004 	addi	r4,r4,19712
 80021b8:	80064680 	call	8006468 <puts>

		int game_start = 0;
 80021bc:	e03fff15 	stw	zero,-4(fp)
		while(game_start == 0){
 80021c0:	00001a06 	br	800222c <main+0x134>
			key_event(&game_start, &ship1, &ship2, &torpedo1, &torpedo2);
 80021c4:	e1bfd104 	addi	r6,fp,-188
 80021c8:	e17f6b04 	addi	r5,fp,-596
 80021cc:	e13f5904 	addi	r4,fp,-668
 80021d0:	e0ffff04 	addi	r3,fp,-4
 80021d4:	e0bfe704 	addi	r2,fp,-100
 80021d8:	d8800015 	stw	r2,0(sp)
 80021dc:	300f883a 	mov	r7,r6
 80021e0:	280d883a 	mov	r6,r5
 80021e4:	200b883a 	mov	r5,r4
 80021e8:	1809883a 	mov	r4,r3
 80021ec:	80013480 	call	8001348 <key_event>
			gamefile_update(&game_start, &ship1, &ship2, &torpedo1, &torpedo2, &bullet1, &bullet2);
 80021f0:	e1bfd104 	addi	r6,fp,-188
 80021f4:	e17f6b04 	addi	r5,fp,-596
 80021f8:	e13f5904 	addi	r4,fp,-668
 80021fc:	e0ffff04 	addi	r3,fp,-4
 8002200:	e0bfa704 	addi	r2,fp,-356
 8002204:	d8800215 	stw	r2,8(sp)
 8002208:	e0bf7d04 	addi	r2,fp,-524
 800220c:	d8800115 	stw	r2,4(sp)
 8002210:	e0bfe704 	addi	r2,fp,-100
 8002214:	d8800015 	stw	r2,0(sp)
 8002218:	300f883a 	mov	r7,r6
 800221c:	280d883a 	mov	r6,r5
 8002220:	200b883a 	mov	r5,r4
 8002224:	1809883a 	mov	r4,r3
 8002228:	8001a000 	call	8001a00 <gamefile_update>
			ship_choose_update(&player1_ready, &player2_ready, &ship1, &ship2);
		}
		printf("choose ship ready\n");

		int game_start = 0;
		while(game_start == 0){
 800222c:	e0bfff17 	ldw	r2,-4(fp)
 8002230:	103fe426 	beq	r2,zero,80021c4 <__alt_data_end+0xf80021c4>
			key_event(&game_start, &ship1, &ship2, &torpedo1, &torpedo2);
			gamefile_update(&game_start, &ship1, &ship2, &torpedo1, &torpedo2, &bullet1, &bullet2);
		}
		printf("game start\n");
 8002234:	01020074 	movhi	r4,2049
 8002238:	21134504 	addi	r4,r4,19732
 800223c:	80064680 	call	8006468 <puts>

		while (1){
			frame_clock(frame_time);
 8002240:	e13f5817 	ldw	r4,-672(fp)
 8002244:	8005f540 	call	8005f54 <__floatsidf>
 8002248:	100b883a 	mov	r5,r2
 800224c:	180d883a 	mov	r6,r3
 8002250:	2809883a 	mov	r4,r5
 8002254:	300b883a 	mov	r5,r6
 8002258:	80012900 	call	8001290 <frame_clock>
			// wait until next clock
			test_round(&game_start, &ship1, &ship2, &torpedo1, &torpedo2, &bullet1, &bullet2);
 800225c:	e1bfd104 	addi	r6,fp,-188
 8002260:	e17f6b04 	addi	r5,fp,-596
 8002264:	e13f5904 	addi	r4,fp,-668
 8002268:	e0ffff04 	addi	r3,fp,-4
 800226c:	e0bfa704 	addi	r2,fp,-356
 8002270:	d8800215 	stw	r2,8(sp)
 8002274:	e0bf7d04 	addi	r2,fp,-524
 8002278:	d8800115 	stw	r2,4(sp)
 800227c:	e0bfe704 	addi	r2,fp,-100
 8002280:	d8800015 	stw	r2,0(sp)
 8002284:	300f883a 	mov	r7,r6
 8002288:	280d883a 	mov	r6,r5
 800228c:	200b883a 	mov	r5,r4
 8002290:	1809883a 	mov	r4,r3
 8002294:	80020000 	call	8002000 <test_round>
			if (game_start == 0){
 8002298:	e0bfff17 	ldw	r2,-4(fp)
 800229c:	103fe81e 	bne	r2,zero,8002240 <__alt_data_end+0xf8002240>
				printf("back to initial\n");
 80022a0:	01020074 	movhi	r4,2049
 80022a4:	21134804 	addi	r4,r4,19744
 80022a8:	80064680 	call	8006468 <puts>
				break;
 80022ac:	0001883a 	nop
		// 	key_event(&game_start, &saber);
		// 	gamefile_update(&game_start, &saber);
		// 	if (game_start == 0){goto GAME_INITIAL;}
		// }
		// printf("saber vx :%x\n", saber.vx);
	}
 80022b0:	003f9d06 	br	8002128 <__alt_data_end+0xf8002128>

080022b4 <press_w>:
#include "ship_logic.h"
#include <stdio.h>

void press_w(ship_t *saber){
 80022b4:	defffe04 	addi	sp,sp,-8
 80022b8:	df000115 	stw	fp,4(sp)
 80022bc:	df000104 	addi	fp,sp,4
 80022c0:	e13fff15 	stw	r4,-4(fp)
    if (saber->vy > -VY_MOST){
 80022c4:	e0bfff17 	ldw	r2,-4(fp)
 80022c8:	10800417 	ldw	r2,16(r2)
 80022cc:	10bffed0 	cmplti	r2,r2,-5
 80022d0:	1000051e 	bne	r2,zero,80022e8 <press_w+0x34>
    	saber->vy--;
 80022d4:	e0bfff17 	ldw	r2,-4(fp)
 80022d8:	10800417 	ldw	r2,16(r2)
 80022dc:	10ffffc4 	addi	r3,r2,-1
 80022e0:	e0bfff17 	ldw	r2,-4(fp)
 80022e4:	10c00415 	stw	r3,16(r2)
    }
}
 80022e8:	0001883a 	nop
 80022ec:	e037883a 	mov	sp,fp
 80022f0:	df000017 	ldw	fp,0(sp)
 80022f4:	dec00104 	addi	sp,sp,4
 80022f8:	f800283a 	ret

080022fc <press_s>:

void press_s(ship_t *saber){
 80022fc:	defffe04 	addi	sp,sp,-8
 8002300:	df000115 	stw	fp,4(sp)
 8002304:	df000104 	addi	fp,sp,4
 8002308:	e13fff15 	stw	r4,-4(fp)
    if (saber->vy < VY_MOST){
 800230c:	e0bfff17 	ldw	r2,-4(fp)
 8002310:	10800417 	ldw	r2,16(r2)
 8002314:	10800188 	cmpgei	r2,r2,6
 8002318:	1000051e 	bne	r2,zero,8002330 <press_s+0x34>
    	saber->vy++;
 800231c:	e0bfff17 	ldw	r2,-4(fp)
 8002320:	10800417 	ldw	r2,16(r2)
 8002324:	10c00044 	addi	r3,r2,1
 8002328:	e0bfff17 	ldw	r2,-4(fp)
 800232c:	10c00415 	stw	r3,16(r2)
    }
}
 8002330:	0001883a 	nop
 8002334:	e037883a 	mov	sp,fp
 8002338:	df000017 	ldw	fp,0(sp)
 800233c:	dec00104 	addi	sp,sp,4
 8002340:	f800283a 	ret

08002344 <press_a>:

void press_a(ship_t *saber){
 8002344:	defffe04 	addi	sp,sp,-8
 8002348:	df000115 	stw	fp,4(sp)
 800234c:	df000104 	addi	fp,sp,4
 8002350:	e13fff15 	stw	r4,-4(fp)
	if (saber->state == STOP){
 8002354:	e0bfff17 	ldw	r2,-4(fp)
 8002358:	10800817 	ldw	r2,32(r2)
 800235c:	10000c1e 	bne	r2,zero,8002390 <press_a+0x4c>
		saber->state = WALK_LEFT1;
 8002360:	e0bfff17 	ldw	r2,-4(fp)
 8002364:	00c00084 	movi	r3,2
 8002368:	10c00815 	stw	r3,32(r2)
		saber->vx--;
 800236c:	e0bfff17 	ldw	r2,-4(fp)
 8002370:	10800317 	ldw	r2,12(r2)
 8002374:	10ffffc4 	addi	r3,r2,-1
 8002378:	e0bfff17 	ldw	r2,-4(fp)
 800237c:	10c00315 	stw	r3,12(r2)
		saber->FaceDirection = LEFT;
 8002380:	e0bfff17 	ldw	r2,-4(fp)
 8002384:	00c00044 	movi	r3,1
 8002388:	10c00715 	stw	r3,28(r2)
	else if(saber->state == WALK_RIGHT1){
		saber->state = WALK_LEFT1;
		saber -> vx--;
		saber->FaceDirection = LEFT;
	}
}
 800238c:	00001d06 	br	8002404 <press_a+0xc0>
	if (saber->state == STOP){
		saber->state = WALK_LEFT1;
		saber->vx--;
		saber->FaceDirection = LEFT;
	}
	else if (saber->state == WALK_LEFT1 ){
 8002390:	e0bfff17 	ldw	r2,-4(fp)
 8002394:	10800817 	ldw	r2,32(r2)
 8002398:	10800098 	cmpnei	r2,r2,2
 800239c:	10000a1e 	bne	r2,zero,80023c8 <press_a+0x84>
		if (saber->vx > -VX_MOST){
 80023a0:	e0bfff17 	ldw	r2,-4(fp)
 80023a4:	10800317 	ldw	r2,12(r2)
 80023a8:	10bffe50 	cmplti	r2,r2,-7
 80023ac:	1000151e 	bne	r2,zero,8002404 <press_a+0xc0>
			saber->vx--;
 80023b0:	e0bfff17 	ldw	r2,-4(fp)
 80023b4:	10800317 	ldw	r2,12(r2)
 80023b8:	10ffffc4 	addi	r3,r2,-1
 80023bc:	e0bfff17 	ldw	r2,-4(fp)
 80023c0:	10c00315 	stw	r3,12(r2)
	else if(saber->state == WALK_RIGHT1){
		saber->state = WALK_LEFT1;
		saber -> vx--;
		saber->FaceDirection = LEFT;
	}
}
 80023c4:	00000f06 	br	8002404 <press_a+0xc0>
	else if (saber->state == WALK_LEFT1 ){
		if (saber->vx > -VX_MOST){
			saber->vx--;
		}
	}
	else if(saber->state == WALK_RIGHT1){
 80023c8:	e0bfff17 	ldw	r2,-4(fp)
 80023cc:	10800817 	ldw	r2,32(r2)
 80023d0:	108000d8 	cmpnei	r2,r2,3
 80023d4:	10000b1e 	bne	r2,zero,8002404 <press_a+0xc0>
		saber->state = WALK_LEFT1;
 80023d8:	e0bfff17 	ldw	r2,-4(fp)
 80023dc:	00c00084 	movi	r3,2
 80023e0:	10c00815 	stw	r3,32(r2)
		saber -> vx--;
 80023e4:	e0bfff17 	ldw	r2,-4(fp)
 80023e8:	10800317 	ldw	r2,12(r2)
 80023ec:	10ffffc4 	addi	r3,r2,-1
 80023f0:	e0bfff17 	ldw	r2,-4(fp)
 80023f4:	10c00315 	stw	r3,12(r2)
		saber->FaceDirection = LEFT;
 80023f8:	e0bfff17 	ldw	r2,-4(fp)
 80023fc:	00c00044 	movi	r3,1
 8002400:	10c00715 	stw	r3,28(r2)
	}
}
 8002404:	0001883a 	nop
 8002408:	e037883a 	mov	sp,fp
 800240c:	df000017 	ldw	fp,0(sp)
 8002410:	dec00104 	addi	sp,sp,4
 8002414:	f800283a 	ret

08002418 <press_d>:

void press_d(ship_t *saber){
 8002418:	defffe04 	addi	sp,sp,-8
 800241c:	df000115 	stw	fp,4(sp)
 8002420:	df000104 	addi	fp,sp,4
 8002424:	e13fff15 	stw	r4,-4(fp)
	if (saber->state == STOP){
 8002428:	e0bfff17 	ldw	r2,-4(fp)
 800242c:	10800817 	ldw	r2,32(r2)
 8002430:	10000b1e 	bne	r2,zero,8002460 <press_d+0x48>
		saber->vx++;
 8002434:	e0bfff17 	ldw	r2,-4(fp)
 8002438:	10800317 	ldw	r2,12(r2)
 800243c:	10c00044 	addi	r3,r2,1
 8002440:	e0bfff17 	ldw	r2,-4(fp)
 8002444:	10c00315 	stw	r3,12(r2)
		saber->state = WALK_RIGHT1;
 8002448:	e0bfff17 	ldw	r2,-4(fp)
 800244c:	00c000c4 	movi	r3,3
 8002450:	10c00815 	stw	r3,32(r2)
		saber->FaceDirection = RIGHT;
 8002454:	e0bfff17 	ldw	r2,-4(fp)
 8002458:	10000715 	stw	zero,28(r2)
	else if(saber->state == WALK_LEFT1){
		saber->state = WALK_RIGHT1;
		saber -> vx++;
		saber->FaceDirection = RIGHT;
	}
}
 800245c:	00001c06 	br	80024d0 <press_d+0xb8>
	if (saber->state == STOP){
		saber->vx++;
		saber->state = WALK_RIGHT1;
		saber->FaceDirection = RIGHT;
	}
	else if (saber->state == WALK_RIGHT1 ){
 8002460:	e0bfff17 	ldw	r2,-4(fp)
 8002464:	10800817 	ldw	r2,32(r2)
 8002468:	108000d8 	cmpnei	r2,r2,3
 800246c:	10000a1e 	bne	r2,zero,8002498 <press_d+0x80>
		if (saber->vx < VX_MOST){
 8002470:	e0bfff17 	ldw	r2,-4(fp)
 8002474:	10800317 	ldw	r2,12(r2)
 8002478:	10800208 	cmpgei	r2,r2,8
 800247c:	1000141e 	bne	r2,zero,80024d0 <press_d+0xb8>
			saber->vx++;
 8002480:	e0bfff17 	ldw	r2,-4(fp)
 8002484:	10800317 	ldw	r2,12(r2)
 8002488:	10c00044 	addi	r3,r2,1
 800248c:	e0bfff17 	ldw	r2,-4(fp)
 8002490:	10c00315 	stw	r3,12(r2)
	else if(saber->state == WALK_LEFT1){
		saber->state = WALK_RIGHT1;
		saber -> vx++;
		saber->FaceDirection = RIGHT;
	}
}
 8002494:	00000e06 	br	80024d0 <press_d+0xb8>
	else if (saber->state == WALK_RIGHT1 ){
		if (saber->vx < VX_MOST){
			saber->vx++;
		}
	}
	else if(saber->state == WALK_LEFT1){
 8002498:	e0bfff17 	ldw	r2,-4(fp)
 800249c:	10800817 	ldw	r2,32(r2)
 80024a0:	10800098 	cmpnei	r2,r2,2
 80024a4:	10000a1e 	bne	r2,zero,80024d0 <press_d+0xb8>
		saber->state = WALK_RIGHT1;
 80024a8:	e0bfff17 	ldw	r2,-4(fp)
 80024ac:	00c000c4 	movi	r3,3
 80024b0:	10c00815 	stw	r3,32(r2)
		saber -> vx++;
 80024b4:	e0bfff17 	ldw	r2,-4(fp)
 80024b8:	10800317 	ldw	r2,12(r2)
 80024bc:	10c00044 	addi	r3,r2,1
 80024c0:	e0bfff17 	ldw	r2,-4(fp)
 80024c4:	10c00315 	stw	r3,12(r2)
		saber->FaceDirection = RIGHT;
 80024c8:	e0bfff17 	ldw	r2,-4(fp)
 80024cc:	10000715 	stw	zero,28(r2)
	}
}
 80024d0:	0001883a 	nop
 80024d4:	e037883a 	mov	sp,fp
 80024d8:	df000017 	ldw	fp,0(sp)
 80024dc:	dec00104 	addi	sp,sp,4
 80024e0:	f800283a 	ret

080024e4 <ship_init>:
// 		saber-> Excalibur_remain --;
// 	}
// }


void ship_init(ship_t *ship, ship_t *ship2){
 80024e4:	defffd04 	addi	sp,sp,-12
 80024e8:	df000215 	stw	fp,8(sp)
 80024ec:	df000204 	addi	fp,sp,8
 80024f0:	e13ffe15 	stw	r4,-8(fp)
 80024f4:	e17fff15 	stw	r5,-4(fp)
	ship -> exist = 1;
 80024f8:	e0bffe17 	ldw	r2,-8(fp)
 80024fc:	00c00044 	movi	r3,1
 8002500:	10c00015 	stw	r3,0(r2)
	ship -> vx = 0;
 8002504:	e0bffe17 	ldw	r2,-8(fp)
 8002508:	10000315 	stw	zero,12(r2)
	ship -> vy = 0;
 800250c:	e0bffe17 	ldw	r2,-8(fp)
 8002510:	10000415 	stw	zero,16(r2)
	ship -> x = INIT_X;
 8002514:	e0bffe17 	ldw	r2,-8(fp)
 8002518:	00c00c84 	movi	r3,50
 800251c:	10c00115 	stw	r3,4(r2)
	ship -> y = INIT_Y;
 8002520:	e0bffe17 	ldw	r2,-8(fp)
 8002524:	00c03c04 	movi	r3,240
 8002528:	10c00215 	stw	r3,8(r2)
	ship -> HP = 50;
 800252c:	e0bffe17 	ldw	r2,-8(fp)
 8002530:	00c00c84 	movi	r3,50
 8002534:	10c00515 	stw	r3,20(r2)
	ship -> ATK = 3;
 8002538:	e0bffe17 	ldw	r2,-8(fp)
 800253c:	00c000c4 	movi	r3,3
 8002540:	10c00615 	stw	r3,24(r2)
	ship -> state = WALK_RIGHT1;
 8002544:	e0bffe17 	ldw	r2,-8(fp)
 8002548:	00c000c4 	movi	r3,3
 800254c:	10c00815 	stw	r3,32(r2)
	ship -> state_count = 0;
 8002550:	e0bffe17 	ldw	r2,-8(fp)
 8002554:	10000915 	stw	zero,36(r2)
	// ship -> Excalibur_state = EXCALIBURNULL;
	// ship -> Excalibur_damage = 5;
	// ship -> Excalibur_remain = 3;
	ship -> IsFighting = 0;
 8002558:	e0bffe17 	ldw	r2,-8(fp)
 800255c:	10000d15 	stw	zero,52(r2)
	ship -> FaceDirection = RIGHT;
 8002560:	e0bffe17 	ldw	r2,-8(fp)
 8002564:	10000715 	stw	zero,28(r2)
	ship -> injuring =0;
 8002568:	e0bffe17 	ldw	r2,-8(fp)
 800256c:	10000e15 	stw	zero,56(r2)
	ship->choose_ship = 0;
 8002570:	e0bffe17 	ldw	r2,-8(fp)
 8002574:	10001015 	stw	zero,64(r2)
	ship->ship_choose_ready = 0;
 8002578:	e0bffe17 	ldw	r2,-8(fp)
 800257c:	10001115 	stw	zero,68(r2)

	ship2 -> exist = 1;
 8002580:	e0bfff17 	ldw	r2,-4(fp)
 8002584:	00c00044 	movi	r3,1
 8002588:	10c00015 	stw	r3,0(r2)
	ship2 -> vx = 0;
 800258c:	e0bfff17 	ldw	r2,-4(fp)
 8002590:	10000315 	stw	zero,12(r2)
	ship2 -> vy = 0;
 8002594:	e0bfff17 	ldw	r2,-4(fp)
 8002598:	10000415 	stw	zero,16(r2)
	ship2 -> x = INIT_X2;
 800259c:	e0bfff17 	ldw	r2,-4(fp)
 80025a0:	00c04b04 	movi	r3,300
 80025a4:	10c00115 	stw	r3,4(r2)
	ship2 -> y = INIT_Y2;
 80025a8:	e0bfff17 	ldw	r2,-4(fp)
 80025ac:	00c03c04 	movi	r3,240
 80025b0:	10c00215 	stw	r3,8(r2)
	ship2 -> HP = 50;
 80025b4:	e0bfff17 	ldw	r2,-4(fp)
 80025b8:	00c00c84 	movi	r3,50
 80025bc:	10c00515 	stw	r3,20(r2)
	ship2 -> ATK = 3;
 80025c0:	e0bfff17 	ldw	r2,-4(fp)
 80025c4:	00c000c4 	movi	r3,3
 80025c8:	10c00615 	stw	r3,24(r2)
	ship2 -> state = WALK_RIGHT1;
 80025cc:	e0bfff17 	ldw	r2,-4(fp)
 80025d0:	00c000c4 	movi	r3,3
 80025d4:	10c00815 	stw	r3,32(r2)
	ship2 -> state_count = 0;
 80025d8:	e0bfff17 	ldw	r2,-4(fp)
 80025dc:	10000915 	stw	zero,36(r2)
	// ship2 -> Excalibur_state = EXCALIBURNULL;
	// ship2 -> Excalibur_damage = 5;
	// ship2 -> Excalibur_remain = 3;
	ship2 -> IsFighting = 0;
 80025e0:	e0bfff17 	ldw	r2,-4(fp)
 80025e4:	10000d15 	stw	zero,52(r2)
	ship2 -> FaceDirection = RIGHT;
 80025e8:	e0bfff17 	ldw	r2,-4(fp)
 80025ec:	10000715 	stw	zero,28(r2)
	ship2 -> injuring =0;
 80025f0:	e0bfff17 	ldw	r2,-4(fp)
 80025f4:	10000e15 	stw	zero,56(r2)
	ship2->choose_ship = 0;
 80025f8:	e0bfff17 	ldw	r2,-4(fp)
 80025fc:	10001015 	stw	zero,64(r2)
	ship2->ship_choose_ready = 0;
 8002600:	e0bfff17 	ldw	r2,-4(fp)
 8002604:	10001115 	stw	zero,68(r2)
}
 8002608:	0001883a 	nop
 800260c:	e037883a 	mov	sp,fp
 8002610:	df000017 	ldw	fp,0(sp)
 8002614:	dec00104 	addi	sp,sp,4
 8002618:	f800283a 	ret

0800261c <update>:


void update(ship_t *ship, ship_t *ship2){
 800261c:	defffc04 	addi	sp,sp,-16
 8002620:	dfc00315 	stw	ra,12(sp)
 8002624:	df000215 	stw	fp,8(sp)
 8002628:	df000204 	addi	fp,sp,8
 800262c:	e13ffe15 	stw	r4,-8(fp)
 8002630:	e17fff15 	stw	r5,-4(fp)
	ship -> x = ship ->x + ship->vx;
 8002634:	e0bffe17 	ldw	r2,-8(fp)
 8002638:	10c00117 	ldw	r3,4(r2)
 800263c:	e0bffe17 	ldw	r2,-8(fp)
 8002640:	10800317 	ldw	r2,12(r2)
 8002644:	1887883a 	add	r3,r3,r2
 8002648:	e0bffe17 	ldw	r2,-8(fp)
 800264c:	10c00115 	stw	r3,4(r2)
	ship -> y = ship ->y + ship->vy;
 8002650:	e0bffe17 	ldw	r2,-8(fp)
 8002654:	10c00217 	ldw	r3,8(r2)
 8002658:	e0bffe17 	ldw	r2,-8(fp)
 800265c:	10800417 	ldw	r2,16(r2)
 8002660:	1887883a 	add	r3,r3,r2
 8002664:	e0bffe17 	ldw	r2,-8(fp)
 8002668:	10c00215 	stw	r3,8(r2)
	ship2 -> x = ship2 ->x + ship2->vx;
 800266c:	e0bfff17 	ldw	r2,-4(fp)
 8002670:	10c00117 	ldw	r3,4(r2)
 8002674:	e0bfff17 	ldw	r2,-4(fp)
 8002678:	10800317 	ldw	r2,12(r2)
 800267c:	1887883a 	add	r3,r3,r2
 8002680:	e0bfff17 	ldw	r2,-4(fp)
 8002684:	10c00115 	stw	r3,4(r2)
	ship2 -> y = ship2 ->y + ship2->vy;
 8002688:	e0bfff17 	ldw	r2,-4(fp)
 800268c:	10c00217 	ldw	r3,8(r2)
 8002690:	e0bfff17 	ldw	r2,-4(fp)
 8002694:	10800417 	ldw	r2,16(r2)
 8002698:	1887883a 	add	r3,r3,r2
 800269c:	e0bfff17 	ldw	r2,-4(fp)
 80026a0:	10c00215 	stw	r3,8(r2)
	// 		saber->Excalibur_count = 0;
	// 	}
	// }

	// boundary check
	if (ship-> x < LEFT_MOST){ship-> x = LEFT_MOST;}
 80026a4:	e0bffe17 	ldw	r2,-8(fp)
 80026a8:	10800117 	ldw	r2,4(r2)
 80026ac:	10800848 	cmpgei	r2,r2,33
 80026b0:	1000031e 	bne	r2,zero,80026c0 <update+0xa4>
 80026b4:	e0bffe17 	ldw	r2,-8(fp)
 80026b8:	00c00844 	movi	r3,33
 80026bc:	10c00115 	stw	r3,4(r2)
	if (ship-> x > RIGHT_MOST){ship-> x = RIGHT_MOST;}
 80026c0:	e0bffe17 	ldw	r2,-8(fp)
 80026c4:	10800117 	ldw	r2,4(r2)
 80026c8:	10809810 	cmplti	r2,r2,608
 80026cc:	1000031e 	bne	r2,zero,80026dc <update+0xc0>
 80026d0:	e0bffe17 	ldw	r2,-8(fp)
 80026d4:	00c097c4 	movi	r3,607
 80026d8:	10c00115 	stw	r3,4(r2)
	if (ship-> y < UP_MOST){ship-> y = UP_MOST;}
 80026dc:	e0bffe17 	ldw	r2,-8(fp)
 80026e0:	10800217 	ldw	r2,8(r2)
 80026e4:	10800a08 	cmpgei	r2,r2,40
 80026e8:	1000031e 	bne	r2,zero,80026f8 <update+0xdc>
 80026ec:	e0bffe17 	ldw	r2,-8(fp)
 80026f0:	00c00a04 	movi	r3,40
 80026f4:	10c00215 	stw	r3,8(r2)
	if (ship-> y > DOWN_MOST){ship-> y = DOWN_MOST;}
 80026f8:	e0bffe17 	ldw	r2,-8(fp)
 80026fc:	10800217 	ldw	r2,8(r2)
 8002700:	108070d0 	cmplti	r2,r2,451
 8002704:	1000031e 	bne	r2,zero,8002714 <update+0xf8>
 8002708:	e0bffe17 	ldw	r2,-8(fp)
 800270c:	00c07084 	movi	r3,450
 8002710:	10c00215 	stw	r3,8(r2)

	if (ship2-> x < LEFT_MOST){ship2-> x = LEFT_MOST;}
 8002714:	e0bfff17 	ldw	r2,-4(fp)
 8002718:	10800117 	ldw	r2,4(r2)
 800271c:	10800848 	cmpgei	r2,r2,33
 8002720:	1000031e 	bne	r2,zero,8002730 <update+0x114>
 8002724:	e0bfff17 	ldw	r2,-4(fp)
 8002728:	00c00844 	movi	r3,33
 800272c:	10c00115 	stw	r3,4(r2)
	if (ship2-> x > RIGHT_MOST){ship2-> x = RIGHT_MOST;}
 8002730:	e0bfff17 	ldw	r2,-4(fp)
 8002734:	10800117 	ldw	r2,4(r2)
 8002738:	10809810 	cmplti	r2,r2,608
 800273c:	1000031e 	bne	r2,zero,800274c <update+0x130>
 8002740:	e0bfff17 	ldw	r2,-4(fp)
 8002744:	00c097c4 	movi	r3,607
 8002748:	10c00115 	stw	r3,4(r2)
	if (ship2-> y < UP_MOST){ship2-> y = UP_MOST;}
 800274c:	e0bfff17 	ldw	r2,-4(fp)
 8002750:	10800217 	ldw	r2,8(r2)
 8002754:	10800a08 	cmpgei	r2,r2,40
 8002758:	1000031e 	bne	r2,zero,8002768 <update+0x14c>
 800275c:	e0bfff17 	ldw	r2,-4(fp)
 8002760:	00c00a04 	movi	r3,40
 8002764:	10c00215 	stw	r3,8(r2)
	if (ship2-> y > DOWN_MOST){ship2-> y = DOWN_MOST;}
 8002768:	e0bfff17 	ldw	r2,-4(fp)
 800276c:	10800217 	ldw	r2,8(r2)
 8002770:	108070d0 	cmplti	r2,r2,451
 8002774:	1000031e 	bne	r2,zero,8002784 <update+0x168>
 8002778:	e0bfff17 	ldw	r2,-4(fp)
 800277c:	00c07084 	movi	r3,450
 8002780:	10c00215 	stw	r3,8(r2)

	update_helper(ship, ATTACK, ATTACK);
 8002784:	01800104 	movi	r6,4
 8002788:	01400104 	movi	r5,4
 800278c:	e13ffe17 	ldw	r4,-8(fp)
 8002790:	80028100 	call	8002810 <update_helper>
	// update_helper(ship, EXCALIBUR_LEFT1, EXCALIBUR_LEFT4);
	// update_helper(ship, EXCALIBUR_RIGHT1, EXCALIBUR_RIGHT4);

	update_helper(ship2, ATTACK, ATTACK);
 8002794:	01800104 	movi	r6,4
 8002798:	01400104 	movi	r5,4
 800279c:	e13fff17 	ldw	r4,-4(fp)
 80027a0:	80028100 	call	8002810 <update_helper>
	update_helper(ship2, ATTACK, ATTACK);
 80027a4:	01800104 	movi	r6,4
 80027a8:	01400104 	movi	r5,4
 80027ac:	e13fff17 	ldw	r4,-4(fp)
 80027b0:	80028100 	call	8002810 <update_helper>
	// update_helper(ship2, EXCALIBUR_RIGHT1, EXCALIBUR_RIGHT4);
	// update_helper(saber, GET_HITTED, saber->state);

	// update_helper(saber, POSE_LEFT1, POSE_LEFT2);
	// update_helper(saber, POSE_RIGHT1, POSE_RIGHT2);
}
 80027b4:	0001883a 	nop
 80027b8:	e037883a 	mov	sp,fp
 80027bc:	dfc00117 	ldw	ra,4(sp)
 80027c0:	df000017 	ldw	fp,0(sp)
 80027c4:	dec00204 	addi	sp,sp,8
 80027c8:	f800283a 	ret

080027cc <stop>:

void stop(ship_t *ship){
 80027cc:	defffe04 	addi	sp,sp,-8
 80027d0:	df000115 	stw	fp,4(sp)
 80027d4:	df000104 	addi	fp,sp,4
 80027d8:	e13fff15 	stw	r4,-4(fp)
	if(ship-> vx == 0 && ship-> vy == 0){
 80027dc:	e0bfff17 	ldw	r2,-4(fp)
 80027e0:	10800317 	ldw	r2,12(r2)
 80027e4:	1000051e 	bne	r2,zero,80027fc <stop+0x30>
 80027e8:	e0bfff17 	ldw	r2,-4(fp)
 80027ec:	10800417 	ldw	r2,16(r2)
 80027f0:	1000021e 	bne	r2,zero,80027fc <stop+0x30>
		ship->state = STOP;
 80027f4:	e0bfff17 	ldw	r2,-4(fp)
 80027f8:	10000815 	stw	zero,32(r2)
	}
}
 80027fc:	0001883a 	nop
 8002800:	e037883a 	mov	sp,fp
 8002804:	df000017 	ldw	fp,0(sp)
 8002808:	dec00104 	addi	sp,sp,4
 800280c:	f800283a 	ret

08002810 <update_helper>:

// help update the frame state information
void update_helper(ship_t *ship, int state_start, int state_end){
 8002810:	defffb04 	addi	sp,sp,-20
 8002814:	df000415 	stw	fp,16(sp)
 8002818:	df000404 	addi	fp,sp,16
 800281c:	e13ffd15 	stw	r4,-12(fp)
 8002820:	e17ffe15 	stw	r5,-8(fp)
 8002824:	e1bfff15 	stw	r6,-4(fp)
	int final_frame;
	final_frame = ship->FaceDirection == RIGHT? WALK_RIGHT1:WALK_LEFT1;
 8002828:	e0bffd17 	ldw	r2,-12(fp)
 800282c:	10800717 	ldw	r2,28(r2)
 8002830:	1000021e 	bne	r2,zero,800283c <update_helper+0x2c>
 8002834:	008000c4 	movi	r2,3
 8002838:	00000106 	br	8002840 <update_helper+0x30>
 800283c:	00800084 	movi	r2,2
 8002840:	e0bffc15 	stw	r2,-16(fp)
	if (ship->HP <= 0){
 8002844:	e0bffd17 	ldw	r2,-12(fp)
 8002848:	10800517 	ldw	r2,20(r2)
 800284c:	00800216 	blt	zero,r2,8002858 <update_helper+0x48>
		ship->exist = 0;
 8002850:	e0bffd17 	ldw	r2,-12(fp)
 8002854:	10000015 	stw	zero,0(r2)
	}
	if (ship->state >= state_start && ship->state<= state_end){
 8002858:	e0bffd17 	ldw	r2,-12(fp)
 800285c:	10c00817 	ldw	r3,32(r2)
 8002860:	e0bffe17 	ldw	r2,-8(fp)
 8002864:	18801a16 	blt	r3,r2,80028d0 <update_helper+0xc0>
 8002868:	e0bffd17 	ldw	r2,-12(fp)
 800286c:	10800817 	ldw	r2,32(r2)
 8002870:	e0ffff17 	ldw	r3,-4(fp)
 8002874:	18801616 	blt	r3,r2,80028d0 <update_helper+0xc0>
//		ship->vx = 0;
//		ship->vy = 0;
		if (ship->state_count ++ > STATE_COUNT_MAX){
 8002878:	e0bffd17 	ldw	r2,-12(fp)
 800287c:	10800917 	ldw	r2,36(r2)
 8002880:	11000044 	addi	r4,r2,1
 8002884:	e0fffd17 	ldw	r3,-12(fp)
 8002888:	19000915 	stw	r4,36(r3)
 800288c:	10800090 	cmplti	r2,r2,2
 8002890:	10000f1e 	bne	r2,zero,80028d0 <update_helper+0xc0>
			ship->state = (ship->state == state_end)? final_frame:ship->state+1;
 8002894:	e0bffd17 	ldw	r2,-12(fp)
 8002898:	10c00817 	ldw	r3,32(r2)
 800289c:	e0bfff17 	ldw	r2,-4(fp)
 80028a0:	18800426 	beq	r3,r2,80028b4 <update_helper+0xa4>
 80028a4:	e0bffd17 	ldw	r2,-12(fp)
 80028a8:	10800817 	ldw	r2,32(r2)
 80028ac:	10800044 	addi	r2,r2,1
 80028b0:	00000106 	br	80028b8 <update_helper+0xa8>
 80028b4:	e0bffc17 	ldw	r2,-16(fp)
 80028b8:	e0fffd17 	ldw	r3,-12(fp)
 80028bc:	18800815 	stw	r2,32(r3)
			ship->state_count = 0;
 80028c0:	e0bffd17 	ldw	r2,-12(fp)
 80028c4:	10000915 	stw	zero,36(r2)
			ship->IsFighting = 0;
 80028c8:	e0bffd17 	ldw	r2,-12(fp)
 80028cc:	10000d15 	stw	zero,52(r2)
		}
	}
}
 80028d0:	0001883a 	nop
 80028d4:	e037883a 	mov	sp,fp
 80028d8:	df000017 	ldw	fp,0(sp)
 80028dc:	dec00104 	addi	sp,sp,4
 80028e0:	f800283a 	ret

080028e4 <detect>:


int detect(ship_t *ship, int x, int y, int dis){
 80028e4:	defff704 	addi	sp,sp,-36
 80028e8:	dfc00815 	stw	ra,32(sp)
 80028ec:	df000715 	stw	fp,28(sp)
 80028f0:	dc000615 	stw	r16,24(sp)
 80028f4:	df000704 	addi	fp,sp,28
 80028f8:	e13ffb15 	stw	r4,-20(fp)
 80028fc:	e17ffc15 	stw	r5,-16(fp)
 8002900:	e1bffd15 	stw	r6,-12(fp)
 8002904:	e1fffe15 	stw	r7,-8(fp)
	int dis_x, dis_y;
	dis_x = ship->x - x;
 8002908:	e0bffb17 	ldw	r2,-20(fp)
 800290c:	10c00117 	ldw	r3,4(r2)
 8002910:	e0bffc17 	ldw	r2,-16(fp)
 8002914:	1885c83a 	sub	r2,r3,r2
 8002918:	e0bff915 	stw	r2,-28(fp)
	dis_y = ship->y - y;
 800291c:	e0bffb17 	ldw	r2,-20(fp)
 8002920:	10c00217 	ldw	r3,8(r2)
 8002924:	e0bffd17 	ldw	r2,-12(fp)
 8002928:	1885c83a 	sub	r2,r3,r2
 800292c:	e0bffa15 	stw	r2,-24(fp)
	if (dis_x*dis_x + dis_y*dis_y < dis*dis)
 8002930:	e17ff917 	ldw	r5,-28(fp)
 8002934:	e13ff917 	ldw	r4,-28(fp)
 8002938:	80054680 	call	8005468 <__mulsi3>
 800293c:	1021883a 	mov	r16,r2
 8002940:	e17ffa17 	ldw	r5,-24(fp)
 8002944:	e13ffa17 	ldw	r4,-24(fp)
 8002948:	80054680 	call	8005468 <__mulsi3>
 800294c:	80a1883a 	add	r16,r16,r2
 8002950:	e17ffe17 	ldw	r5,-8(fp)
 8002954:	e13ffe17 	ldw	r4,-8(fp)
 8002958:	80054680 	call	8005468 <__mulsi3>
 800295c:	8080020e 	bge	r16,r2,8002968 <detect+0x84>
		return 1;
 8002960:	00800044 	movi	r2,1
 8002964:	00000106 	br	800296c <detect+0x88>
	else
		return 0;
 8002968:	0005883a 	mov	r2,zero
}
 800296c:	e6ffff04 	addi	sp,fp,-4
 8002970:	dfc00217 	ldw	ra,8(sp)
 8002974:	df000117 	ldw	fp,4(sp)
 8002978:	dc000017 	ldw	r16,0(sp)
 800297c:	dec00304 	addi	sp,sp,12
 8002980:	f800283a 	ret

08002984 <detect_ship_attack>:

void detect_ship_attack(ship_t *ship1, ship_t *ship2){
 8002984:	defffb04 	addi	sp,sp,-20
 8002988:	dfc00415 	stw	ra,16(sp)
 800298c:	df000315 	stw	fp,12(sp)
 8002990:	df000304 	addi	fp,sp,12
 8002994:	e13ffe15 	stw	r4,-8(fp)
 8002998:	e17fff15 	stw	r5,-4(fp)
	int flag = detect(ship1, ship2->x, ship2->y, 40);
 800299c:	e0bfff17 	ldw	r2,-4(fp)
 80029a0:	10c00117 	ldw	r3,4(r2)
 80029a4:	e0bfff17 	ldw	r2,-4(fp)
 80029a8:	10800217 	ldw	r2,8(r2)
 80029ac:	01c00a04 	movi	r7,40
 80029b0:	100d883a 	mov	r6,r2
 80029b4:	180b883a 	mov	r5,r3
 80029b8:	e13ffe17 	ldw	r4,-8(fp)
 80029bc:	80028e40 	call	80028e4 <detect>
 80029c0:	e0bffd15 	stw	r2,-12(fp)
	if(flag){
 80029c4:	e0bffd17 	ldw	r2,-12(fp)
 80029c8:	10000926 	beq	r2,zero,80029f0 <detect_ship_attack+0x6c>
		ship1->vx = 0;
 80029cc:	e0bffe17 	ldw	r2,-8(fp)
 80029d0:	10000315 	stw	zero,12(r2)
		ship2->vx = 0;
 80029d4:	e0bfff17 	ldw	r2,-4(fp)
 80029d8:	10000315 	stw	zero,12(r2)
		ship1->vy = 0;
 80029dc:	e0bffe17 	ldw	r2,-8(fp)
 80029e0:	10000415 	stw	zero,16(r2)
		ship2->vy = 0;
 80029e4:	e0bfff17 	ldw	r2,-4(fp)
 80029e8:	10000415 	stw	zero,16(r2)
	}
	return ;
 80029ec:	0001883a 	nop
 80029f0:	0001883a 	nop
}
 80029f4:	e037883a 	mov	sp,fp
 80029f8:	dfc00117 	ldw	ra,4(sp)
 80029fc:	df000017 	ldw	fp,0(sp)
 8002a00:	dec00204 	addi	sp,sp,8
 8002a04:	f800283a 	ret

08002a08 <generate_tor>:
#include "torpedo.h"
#include "ship_logic.h"
#include <stdio.h>
#include "system.h"

void generate_tor(torpedo_t *torpedo, ship_t *ship, int target){
 8002a08:	defff804 	addi	sp,sp,-32
 8002a0c:	dfc00715 	stw	ra,28(sp)
 8002a10:	df000615 	stw	fp,24(sp)
 8002a14:	dc000515 	stw	r16,20(sp)
 8002a18:	df000604 	addi	fp,sp,24
 8002a1c:	e13ffc15 	stw	r4,-16(fp)
 8002a20:	e17ffd15 	stw	r5,-12(fp)
 8002a24:	e1bffe15 	stw	r6,-8(fp)
	if(!torpedo -> stop){
 8002a28:	e0bffc17 	ldw	r2,-16(fp)
 8002a2c:	10801417 	ldw	r2,80(r2)
 8002a30:	1000041e 	bne	r2,zero,8002a44 <generate_tor+0x3c>
		printf("The cooldown period has not yet passed");
 8002a34:	01020074 	movhi	r4,2049
 8002a38:	21134c04 	addi	r4,r4,19760
 8002a3c:	800636c0 	call	800636c <printf>
		return;
 8002a40:	0000af06 	br	8002d00 <generate_tor+0x2f8>
	}
	if (target == 1){
 8002a44:	e0bffe17 	ldw	r2,-8(fp)
 8002a48:	10800058 	cmpnei	r2,r2,1
 8002a4c:	1000581e 	bne	r2,zero,8002bb0 <generate_tor+0x1a8>
		torpedo->stop = 0;
 8002a50:	e0bffc17 	ldw	r2,-16(fp)
 8002a54:	10001415 	stw	zero,80(r2)
		torpedo->x[0] = ship->x-20;
 8002a58:	e0bffd17 	ldw	r2,-12(fp)
 8002a5c:	10800117 	ldw	r2,4(r2)
 8002a60:	10fffb04 	addi	r3,r2,-20
 8002a64:	e0bffc17 	ldw	r2,-16(fp)
 8002a68:	10c00015 	stw	r3,0(r2)
		torpedo->x[1] = ship->x-20;
 8002a6c:	e0bffd17 	ldw	r2,-12(fp)
 8002a70:	10800117 	ldw	r2,4(r2)
 8002a74:	10fffb04 	addi	r3,r2,-20
 8002a78:	e0bffc17 	ldw	r2,-16(fp)
 8002a7c:	10c00115 	stw	r3,4(r2)
		torpedo->x[2] = ship->x-20;
 8002a80:	e0bffd17 	ldw	r2,-12(fp)
 8002a84:	10800117 	ldw	r2,4(r2)
 8002a88:	10fffb04 	addi	r3,r2,-20
 8002a8c:	e0bffc17 	ldw	r2,-16(fp)
 8002a90:	10c00215 	stw	r3,8(r2)
		torpedo->x[3] = ship->x-20;
 8002a94:	e0bffd17 	ldw	r2,-12(fp)
 8002a98:	10800117 	ldw	r2,4(r2)
 8002a9c:	10fffb04 	addi	r3,r2,-20
 8002aa0:	e0bffc17 	ldw	r2,-16(fp)
 8002aa4:	10c00315 	stw	r3,12(r2)
		torpedo->y[0] = ship->y-20;
 8002aa8:	e0bffd17 	ldw	r2,-12(fp)
 8002aac:	10800217 	ldw	r2,8(r2)
 8002ab0:	10fffb04 	addi	r3,r2,-20
 8002ab4:	e0bffc17 	ldw	r2,-16(fp)
 8002ab8:	10c00415 	stw	r3,16(r2)

		for (int i=1; i<4; i++)
 8002abc:	00800044 	movi	r2,1
 8002ac0:	e0bffa15 	stw	r2,-24(fp)
 8002ac4:	00001306 	br	8002b14 <generate_tor+0x10c>
			torpedo->y[i] = torpedo->y[i-1] + 20;
 8002ac8:	e0bffa17 	ldw	r2,-24(fp)
 8002acc:	10bfffc4 	addi	r2,r2,-1
 8002ad0:	e0fffc17 	ldw	r3,-16(fp)
 8002ad4:	10800104 	addi	r2,r2,4
 8002ad8:	1085883a 	add	r2,r2,r2
 8002adc:	1085883a 	add	r2,r2,r2
 8002ae0:	1885883a 	add	r2,r3,r2
 8002ae4:	10800017 	ldw	r2,0(r2)
 8002ae8:	10c00504 	addi	r3,r2,20
 8002aec:	e13ffc17 	ldw	r4,-16(fp)
 8002af0:	e0bffa17 	ldw	r2,-24(fp)
 8002af4:	10800104 	addi	r2,r2,4
 8002af8:	1085883a 	add	r2,r2,r2
 8002afc:	1085883a 	add	r2,r2,r2
 8002b00:	2085883a 	add	r2,r4,r2
 8002b04:	10c00015 	stw	r3,0(r2)
		torpedo->x[1] = ship->x-20;
		torpedo->x[2] = ship->x-20;
		torpedo->x[3] = ship->x-20;
		torpedo->y[0] = ship->y-20;

		for (int i=1; i<4; i++)
 8002b08:	e0bffa17 	ldw	r2,-24(fp)
 8002b0c:	10800044 	addi	r2,r2,1
 8002b10:	e0bffa15 	stw	r2,-24(fp)
 8002b14:	e0bffa17 	ldw	r2,-24(fp)
 8002b18:	10800110 	cmplti	r2,r2,4
 8002b1c:	103fea1e 	bne	r2,zero,8002ac8 <__alt_data_end+0xf8002ac8>
			torpedo->y[i] = torpedo->y[i-1] + 20;

		torpedo->vx[0] = 4;
 8002b20:	e0bffc17 	ldw	r2,-16(fp)
 8002b24:	00c00104 	movi	r3,4
 8002b28:	10c00815 	stw	r3,32(r2)
		torpedo->vy[0] = -3;
 8002b2c:	e0bffc17 	ldw	r2,-16(fp)
 8002b30:	00ffff44 	movi	r3,-3
 8002b34:	10c00c15 	stw	r3,48(r2)
		torpedo->vx[1] = 5;
 8002b38:	e0bffc17 	ldw	r2,-16(fp)
 8002b3c:	00c00144 	movi	r3,5
 8002b40:	10c00915 	stw	r3,36(r2)
		torpedo->vy[1] = -1;
 8002b44:	e0bffc17 	ldw	r2,-16(fp)
 8002b48:	00ffffc4 	movi	r3,-1
 8002b4c:	10c00d15 	stw	r3,52(r2)
		torpedo->vx[2] = 5;
 8002b50:	e0bffc17 	ldw	r2,-16(fp)
 8002b54:	00c00144 	movi	r3,5
 8002b58:	10c00a15 	stw	r3,40(r2)
		torpedo->vy[2] = 1;
 8002b5c:	e0bffc17 	ldw	r2,-16(fp)
 8002b60:	00c00044 	movi	r3,1
 8002b64:	10c00e15 	stw	r3,56(r2)
		torpedo->vx[3] = 4;
 8002b68:	e0bffc17 	ldw	r2,-16(fp)
 8002b6c:	00c00104 	movi	r3,4
 8002b70:	10c00b15 	stw	r3,44(r2)
		torpedo->vy[3] = 3;
 8002b74:	e0bffc17 	ldw	r2,-16(fp)
 8002b78:	00c000c4 	movi	r3,3
 8002b7c:	10c00f15 	stw	r3,60(r2)

		torpedo->attack_state[0] = TRACING;
 8002b80:	e0bffc17 	ldw	r2,-16(fp)
 8002b84:	10001015 	stw	zero,64(r2)
		torpedo->attack_state[1] = TRACING;
 8002b88:	e0bffc17 	ldw	r2,-16(fp)
 8002b8c:	10001115 	stw	zero,68(r2)
		torpedo->attack_state[2] = TRACING;
 8002b90:	e0bffc17 	ldw	r2,-16(fp)
 8002b94:	10001215 	stw	zero,72(r2)
		torpedo->attack_state[3] = TRACING;
 8002b98:	e0bffc17 	ldw	r2,-16(fp)
 8002b9c:	10001315 	stw	zero,76(r2)

		torpedo->target = target;
 8002ba0:	e0bffc17 	ldw	r2,-16(fp)
 8002ba4:	e0fffe17 	ldw	r3,-8(fp)
 8002ba8:	10c01515 	stw	r3,84(r2)
 8002bac:	00005406 	br	8002d00 <generate_tor+0x2f8>
	}
	else{
		torpedo->stop = 0;
 8002bb0:	e0bffc17 	ldw	r2,-16(fp)
 8002bb4:	10001415 	stw	zero,80(r2)
		torpedo->x[0] = ship->x+20;
 8002bb8:	e0bffd17 	ldw	r2,-12(fp)
 8002bbc:	10800117 	ldw	r2,4(r2)
 8002bc0:	10c00504 	addi	r3,r2,20
 8002bc4:	e0bffc17 	ldw	r2,-16(fp)
 8002bc8:	10c00015 	stw	r3,0(r2)
		torpedo->x[1] = ship->x+20;
 8002bcc:	e0bffd17 	ldw	r2,-12(fp)
 8002bd0:	10800117 	ldw	r2,4(r2)
 8002bd4:	10c00504 	addi	r3,r2,20
 8002bd8:	e0bffc17 	ldw	r2,-16(fp)
 8002bdc:	10c00115 	stw	r3,4(r2)
		torpedo->x[2] = ship->x+20;
 8002be0:	e0bffd17 	ldw	r2,-12(fp)
 8002be4:	10800117 	ldw	r2,4(r2)
 8002be8:	10c00504 	addi	r3,r2,20
 8002bec:	e0bffc17 	ldw	r2,-16(fp)
 8002bf0:	10c00215 	stw	r3,8(r2)
		torpedo->x[3] = ship->x+20;
 8002bf4:	e0bffd17 	ldw	r2,-12(fp)
 8002bf8:	10800117 	ldw	r2,4(r2)
 8002bfc:	10c00504 	addi	r3,r2,20
 8002c00:	e0bffc17 	ldw	r2,-16(fp)
 8002c04:	10c00315 	stw	r3,12(r2)
		torpedo->y[0] = ship->y-20;
 8002c08:	e0bffd17 	ldw	r2,-12(fp)
 8002c0c:	10800217 	ldw	r2,8(r2)
 8002c10:	10fffb04 	addi	r3,r2,-20
 8002c14:	e0bffc17 	ldw	r2,-16(fp)
 8002c18:	10c00415 	stw	r3,16(r2)
		for (int i=1; i<4; i++)
 8002c1c:	00800044 	movi	r2,1
 8002c20:	e0bffb15 	stw	r2,-20(fp)
 8002c24:	00001006 	br	8002c68 <generate_tor+0x260>
			torpedo->y[i] = torpedo->y[0] + i*6;
 8002c28:	e0bffc17 	ldw	r2,-16(fp)
 8002c2c:	14000417 	ldw	r16,16(r2)
 8002c30:	01400184 	movi	r5,6
 8002c34:	e13ffb17 	ldw	r4,-20(fp)
 8002c38:	80054680 	call	8005468 <__mulsi3>
 8002c3c:	8087883a 	add	r3,r16,r2
 8002c40:	e13ffc17 	ldw	r4,-16(fp)
 8002c44:	e0bffb17 	ldw	r2,-20(fp)
 8002c48:	10800104 	addi	r2,r2,4
 8002c4c:	1085883a 	add	r2,r2,r2
 8002c50:	1085883a 	add	r2,r2,r2
 8002c54:	2085883a 	add	r2,r4,r2
 8002c58:	10c00015 	stw	r3,0(r2)
		torpedo->x[0] = ship->x+20;
		torpedo->x[1] = ship->x+20;
		torpedo->x[2] = ship->x+20;
		torpedo->x[3] = ship->x+20;
		torpedo->y[0] = ship->y-20;
		for (int i=1; i<4; i++)
 8002c5c:	e0bffb17 	ldw	r2,-20(fp)
 8002c60:	10800044 	addi	r2,r2,1
 8002c64:	e0bffb15 	stw	r2,-20(fp)
 8002c68:	e0bffb17 	ldw	r2,-20(fp)
 8002c6c:	10800110 	cmplti	r2,r2,4
 8002c70:	103fed1e 	bne	r2,zero,8002c28 <__alt_data_end+0xf8002c28>
			torpedo->y[i] = torpedo->y[0] + i*6;

		torpedo->vx[0] = -4;
 8002c74:	e0bffc17 	ldw	r2,-16(fp)
 8002c78:	00ffff04 	movi	r3,-4
 8002c7c:	10c00815 	stw	r3,32(r2)
		torpedo->vy[0] = -3;
 8002c80:	e0bffc17 	ldw	r2,-16(fp)
 8002c84:	00ffff44 	movi	r3,-3
 8002c88:	10c00c15 	stw	r3,48(r2)
		torpedo->vx[1] = -5;
 8002c8c:	e0bffc17 	ldw	r2,-16(fp)
 8002c90:	00fffec4 	movi	r3,-5
 8002c94:	10c00915 	stw	r3,36(r2)
		torpedo->vy[1] = -1;
 8002c98:	e0bffc17 	ldw	r2,-16(fp)
 8002c9c:	00ffffc4 	movi	r3,-1
 8002ca0:	10c00d15 	stw	r3,52(r2)
		torpedo->vx[2] = -5;
 8002ca4:	e0bffc17 	ldw	r2,-16(fp)
 8002ca8:	00fffec4 	movi	r3,-5
 8002cac:	10c00a15 	stw	r3,40(r2)
		torpedo->vy[2] = 1;
 8002cb0:	e0bffc17 	ldw	r2,-16(fp)
 8002cb4:	00c00044 	movi	r3,1
 8002cb8:	10c00e15 	stw	r3,56(r2)
		torpedo->vx[3] = -4;
 8002cbc:	e0bffc17 	ldw	r2,-16(fp)
 8002cc0:	00ffff04 	movi	r3,-4
 8002cc4:	10c00b15 	stw	r3,44(r2)
		torpedo->vy[3] = 3;
 8002cc8:	e0bffc17 	ldw	r2,-16(fp)
 8002ccc:	00c000c4 	movi	r3,3
 8002cd0:	10c00f15 	stw	r3,60(r2)

		torpedo->attack_state[0] = TRACING;
 8002cd4:	e0bffc17 	ldw	r2,-16(fp)
 8002cd8:	10001015 	stw	zero,64(r2)
		torpedo->attack_state[1] = TRACING;
 8002cdc:	e0bffc17 	ldw	r2,-16(fp)
 8002ce0:	10001115 	stw	zero,68(r2)
		torpedo->attack_state[2] = TRACING;
 8002ce4:	e0bffc17 	ldw	r2,-16(fp)
 8002ce8:	10001215 	stw	zero,72(r2)
		torpedo->attack_state[3] = TRACING;
 8002cec:	e0bffc17 	ldw	r2,-16(fp)
 8002cf0:	10001315 	stw	zero,76(r2)

		torpedo->target = target;
 8002cf4:	e0bffc17 	ldw	r2,-16(fp)
 8002cf8:	e0fffe17 	ldw	r3,-8(fp)
 8002cfc:	10c01515 	stw	r3,84(r2)
	}
}
 8002d00:	e6ffff04 	addi	sp,fp,-4
 8002d04:	dfc00217 	ldw	ra,8(sp)
 8002d08:	df000117 	ldw	fp,4(sp)
 8002d0c:	dc000017 	ldw	r16,0(sp)
 8002d10:	dec00304 	addi	sp,sp,12
 8002d14:	f800283a 	ret

08002d18 <press_j>:


void press_j(ship_t *ship, torpedo_t *torpedo, int target){
 8002d18:	defffb04 	addi	sp,sp,-20
 8002d1c:	dfc00415 	stw	ra,16(sp)
 8002d20:	df000315 	stw	fp,12(sp)
 8002d24:	df000304 	addi	fp,sp,12
 8002d28:	e13ffd15 	stw	r4,-12(fp)
 8002d2c:	e17ffe15 	stw	r5,-8(fp)
 8002d30:	e1bfff15 	stw	r6,-4(fp)
//    if (ship->state == WALK_LEFT1){
		ship-> state = ATTACK;
 8002d34:	e0bffd17 	ldw	r2,-12(fp)
 8002d38:	00c00104 	movi	r3,4
 8002d3c:	10c00815 	stw	r3,32(r2)
		ship-> state_count = 0;
 8002d40:	e0bffd17 	ldw	r2,-12(fp)
 8002d44:	10000915 	stw	zero,36(r2)
		ship-> IsFighting = 1;
 8002d48:	e0bffd17 	ldw	r2,-12(fp)
 8002d4c:	00c00044 	movi	r3,1
 8002d50:	10c00d15 	stw	r3,52(r2)
		generate_tor(torpedo, ship, target);
 8002d54:	e1bfff17 	ldw	r6,-4(fp)
 8002d58:	e17ffd17 	ldw	r5,-12(fp)
 8002d5c:	e13ffe17 	ldw	r4,-8(fp)
 8002d60:	8002a080 	call	8002a08 <generate_tor>
//		ship-> state = ATTACK;
//		ship-> state_count = 0;
//		ship-> IsFighting = 1;
//		generate_tor(torpedo, ship, target);
//	}
}
 8002d64:	0001883a 	nop
 8002d68:	e037883a 	mov	sp,fp
 8002d6c:	dfc00117 	ldw	ra,4(sp)
 8002d70:	df000017 	ldw	fp,0(sp)
 8002d74:	dec00204 	addi	sp,sp,8
 8002d78:	f800283a 	ret

08002d7c <upstate_tor>:

void upstate_tor(torpedo_t *torpedo, ship_t *ship1, ship_t *ship2){
 8002d7c:	defffa04 	addi	sp,sp,-24
 8002d80:	dfc00515 	stw	ra,20(sp)
 8002d84:	df000415 	stw	fp,16(sp)
 8002d88:	df000404 	addi	fp,sp,16
 8002d8c:	e13ffd15 	stw	r4,-12(fp)
 8002d90:	e17ffe15 	stw	r5,-8(fp)
 8002d94:	e1bfff15 	stw	r6,-4(fp)
	int i;
	if(torpedo->stop)
 8002d98:	e0bffd17 	ldw	r2,-12(fp)
 8002d9c:	10801417 	ldw	r2,80(r2)
 8002da0:	1001301e 	bne	r2,zero,8003264 <upstate_tor+0x4e8>
		return;
	for(i = 0; i < 4 ;i++){
 8002da4:	e03ffc15 	stw	zero,-16(fp)
 8002da8:	00012a06 	br	8003254 <upstate_tor+0x4d8>
		if (torpedo->x[i] > RIGHT_MOST || torpedo->x[i] < LEFT_MOST){
 8002dac:	e0fffd17 	ldw	r3,-12(fp)
 8002db0:	e0bffc17 	ldw	r2,-16(fp)
 8002db4:	1085883a 	add	r2,r2,r2
 8002db8:	1085883a 	add	r2,r2,r2
 8002dbc:	1885883a 	add	r2,r3,r2
 8002dc0:	10800017 	ldw	r2,0(r2)
 8002dc4:	10809808 	cmpgei	r2,r2,608
 8002dc8:	1000081e 	bne	r2,zero,8002dec <upstate_tor+0x70>
 8002dcc:	e0fffd17 	ldw	r3,-12(fp)
 8002dd0:	e0bffc17 	ldw	r2,-16(fp)
 8002dd4:	1085883a 	add	r2,r2,r2
 8002dd8:	1085883a 	add	r2,r2,r2
 8002ddc:	1885883a 	add	r2,r3,r2
 8002de0:	10800017 	ldw	r2,0(r2)
 8002de4:	10800848 	cmpgei	r2,r2,33
 8002de8:	1000241e 	bne	r2,zero,8002e7c <upstate_tor+0x100>
			torpedo->x[i] = 0;
 8002dec:	e0fffd17 	ldw	r3,-12(fp)
 8002df0:	e0bffc17 	ldw	r2,-16(fp)
 8002df4:	1085883a 	add	r2,r2,r2
 8002df8:	1085883a 	add	r2,r2,r2
 8002dfc:	1885883a 	add	r2,r3,r2
 8002e00:	10000015 	stw	zero,0(r2)
			torpedo->y[i] = 0;
 8002e04:	e0fffd17 	ldw	r3,-12(fp)
 8002e08:	e0bffc17 	ldw	r2,-16(fp)
 8002e0c:	10800104 	addi	r2,r2,4
 8002e10:	1085883a 	add	r2,r2,r2
 8002e14:	1085883a 	add	r2,r2,r2
 8002e18:	1885883a 	add	r2,r3,r2
 8002e1c:	10000015 	stw	zero,0(r2)
			torpedo->vx[i] = 0;
 8002e20:	e0fffd17 	ldw	r3,-12(fp)
 8002e24:	e0bffc17 	ldw	r2,-16(fp)
 8002e28:	10800204 	addi	r2,r2,8
 8002e2c:	1085883a 	add	r2,r2,r2
 8002e30:	1085883a 	add	r2,r2,r2
 8002e34:	1885883a 	add	r2,r3,r2
 8002e38:	10000015 	stw	zero,0(r2)
			torpedo->vy[i] = 0;
 8002e3c:	e0fffd17 	ldw	r3,-12(fp)
 8002e40:	e0bffc17 	ldw	r2,-16(fp)
 8002e44:	10800304 	addi	r2,r2,12
 8002e48:	1085883a 	add	r2,r2,r2
 8002e4c:	1085883a 	add	r2,r2,r2
 8002e50:	1885883a 	add	r2,r3,r2
 8002e54:	10000015 	stw	zero,0(r2)
			torpedo->attack_state[i] = DESTROY;
 8002e58:	e0fffd17 	ldw	r3,-12(fp)
 8002e5c:	e0bffc17 	ldw	r2,-16(fp)
 8002e60:	10800404 	addi	r2,r2,16
 8002e64:	1085883a 	add	r2,r2,r2
 8002e68:	1085883a 	add	r2,r2,r2
 8002e6c:	1885883a 	add	r2,r3,r2
 8002e70:	00c000c4 	movi	r3,3
 8002e74:	10c00015 	stw	r3,0(r2)
 8002e78:	0000f306 	br	8003248 <upstate_tor+0x4cc>
		}
		else if (torpedo->y[i] < UP_MOST || torpedo->y[i] > DOWN_MOST){
 8002e7c:	e0fffd17 	ldw	r3,-12(fp)
 8002e80:	e0bffc17 	ldw	r2,-16(fp)
 8002e84:	10800104 	addi	r2,r2,4
 8002e88:	1085883a 	add	r2,r2,r2
 8002e8c:	1085883a 	add	r2,r2,r2
 8002e90:	1885883a 	add	r2,r3,r2
 8002e94:	10800017 	ldw	r2,0(r2)
 8002e98:	10800a10 	cmplti	r2,r2,40
 8002e9c:	1000091e 	bne	r2,zero,8002ec4 <upstate_tor+0x148>
 8002ea0:	e0fffd17 	ldw	r3,-12(fp)
 8002ea4:	e0bffc17 	ldw	r2,-16(fp)
 8002ea8:	10800104 	addi	r2,r2,4
 8002eac:	1085883a 	add	r2,r2,r2
 8002eb0:	1085883a 	add	r2,r2,r2
 8002eb4:	1885883a 	add	r2,r3,r2
 8002eb8:	10800017 	ldw	r2,0(r2)
 8002ebc:	108070d0 	cmplti	r2,r2,451
 8002ec0:	1000241e 	bne	r2,zero,8002f54 <upstate_tor+0x1d8>
			torpedo->x[i] = 0;
 8002ec4:	e0fffd17 	ldw	r3,-12(fp)
 8002ec8:	e0bffc17 	ldw	r2,-16(fp)
 8002ecc:	1085883a 	add	r2,r2,r2
 8002ed0:	1085883a 	add	r2,r2,r2
 8002ed4:	1885883a 	add	r2,r3,r2
 8002ed8:	10000015 	stw	zero,0(r2)
			torpedo->y[i] = 0;
 8002edc:	e0fffd17 	ldw	r3,-12(fp)
 8002ee0:	e0bffc17 	ldw	r2,-16(fp)
 8002ee4:	10800104 	addi	r2,r2,4
 8002ee8:	1085883a 	add	r2,r2,r2
 8002eec:	1085883a 	add	r2,r2,r2
 8002ef0:	1885883a 	add	r2,r3,r2
 8002ef4:	10000015 	stw	zero,0(r2)
			torpedo->vx[i] = 0;
 8002ef8:	e0fffd17 	ldw	r3,-12(fp)
 8002efc:	e0bffc17 	ldw	r2,-16(fp)
 8002f00:	10800204 	addi	r2,r2,8
 8002f04:	1085883a 	add	r2,r2,r2
 8002f08:	1085883a 	add	r2,r2,r2
 8002f0c:	1885883a 	add	r2,r3,r2
 8002f10:	10000015 	stw	zero,0(r2)
			torpedo->vy[i] = 0;
 8002f14:	e0fffd17 	ldw	r3,-12(fp)
 8002f18:	e0bffc17 	ldw	r2,-16(fp)
 8002f1c:	10800304 	addi	r2,r2,12
 8002f20:	1085883a 	add	r2,r2,r2
 8002f24:	1085883a 	add	r2,r2,r2
 8002f28:	1885883a 	add	r2,r3,r2
 8002f2c:	10000015 	stw	zero,0(r2)
			torpedo->attack_state[i] = DESTROY;
 8002f30:	e0fffd17 	ldw	r3,-12(fp)
 8002f34:	e0bffc17 	ldw	r2,-16(fp)
 8002f38:	10800404 	addi	r2,r2,16
 8002f3c:	1085883a 	add	r2,r2,r2
 8002f40:	1085883a 	add	r2,r2,r2
 8002f44:	1885883a 	add	r2,r3,r2
 8002f48:	00c000c4 	movi	r3,3
 8002f4c:	10c00015 	stw	r3,0(r2)
 8002f50:	0000bd06 	br	8003248 <upstate_tor+0x4cc>
		}
		else if (detect(ship1,torpedo->x[i], torpedo->y[i], 20) && torpedo->target == 0){
 8002f54:	e0fffd17 	ldw	r3,-12(fp)
 8002f58:	e0bffc17 	ldw	r2,-16(fp)
 8002f5c:	1085883a 	add	r2,r2,r2
 8002f60:	1085883a 	add	r2,r2,r2
 8002f64:	1885883a 	add	r2,r3,r2
 8002f68:	11000017 	ldw	r4,0(r2)
 8002f6c:	e0fffd17 	ldw	r3,-12(fp)
 8002f70:	e0bffc17 	ldw	r2,-16(fp)
 8002f74:	10800104 	addi	r2,r2,4
 8002f78:	1085883a 	add	r2,r2,r2
 8002f7c:	1085883a 	add	r2,r2,r2
 8002f80:	1885883a 	add	r2,r3,r2
 8002f84:	10800017 	ldw	r2,0(r2)
 8002f88:	01c00504 	movi	r7,20
 8002f8c:	100d883a 	mov	r6,r2
 8002f90:	200b883a 	mov	r5,r4
 8002f94:	e13ffe17 	ldw	r4,-8(fp)
 8002f98:	80028e40 	call	80028e4 <detect>
 8002f9c:	10002c26 	beq	r2,zero,8003050 <upstate_tor+0x2d4>
 8002fa0:	e0bffd17 	ldw	r2,-12(fp)
 8002fa4:	10801517 	ldw	r2,84(r2)
 8002fa8:	1000291e 	bne	r2,zero,8003050 <upstate_tor+0x2d4>
			torpedo->x[i] = 0;
 8002fac:	e0fffd17 	ldw	r3,-12(fp)
 8002fb0:	e0bffc17 	ldw	r2,-16(fp)
 8002fb4:	1085883a 	add	r2,r2,r2
 8002fb8:	1085883a 	add	r2,r2,r2
 8002fbc:	1885883a 	add	r2,r3,r2
 8002fc0:	10000015 	stw	zero,0(r2)
			torpedo->y[i] = 0;
 8002fc4:	e0fffd17 	ldw	r3,-12(fp)
 8002fc8:	e0bffc17 	ldw	r2,-16(fp)
 8002fcc:	10800104 	addi	r2,r2,4
 8002fd0:	1085883a 	add	r2,r2,r2
 8002fd4:	1085883a 	add	r2,r2,r2
 8002fd8:	1885883a 	add	r2,r3,r2
 8002fdc:	10000015 	stw	zero,0(r2)
			torpedo->vx[i] = 0;
 8002fe0:	e0fffd17 	ldw	r3,-12(fp)
 8002fe4:	e0bffc17 	ldw	r2,-16(fp)
 8002fe8:	10800204 	addi	r2,r2,8
 8002fec:	1085883a 	add	r2,r2,r2
 8002ff0:	1085883a 	add	r2,r2,r2
 8002ff4:	1885883a 	add	r2,r3,r2
 8002ff8:	10000015 	stw	zero,0(r2)
			torpedo->vy[i] = 0;
 8002ffc:	e0fffd17 	ldw	r3,-12(fp)
 8003000:	e0bffc17 	ldw	r2,-16(fp)
 8003004:	10800304 	addi	r2,r2,12
 8003008:	1085883a 	add	r2,r2,r2
 800300c:	1085883a 	add	r2,r2,r2
 8003010:	1885883a 	add	r2,r3,r2
 8003014:	10000015 	stw	zero,0(r2)
			torpedo->attack_state[i] = HIT;
 8003018:	e0fffd17 	ldw	r3,-12(fp)
 800301c:	e0bffc17 	ldw	r2,-16(fp)
 8003020:	10800404 	addi	r2,r2,16
 8003024:	1085883a 	add	r2,r2,r2
 8003028:	1085883a 	add	r2,r2,r2
 800302c:	1885883a 	add	r2,r3,r2
 8003030:	00c00044 	movi	r3,1
 8003034:	10c00015 	stw	r3,0(r2)
			ship1->HP -= 2;
 8003038:	e0bffe17 	ldw	r2,-8(fp)
 800303c:	10800517 	ldw	r2,20(r2)
 8003040:	10ffff84 	addi	r3,r2,-2
 8003044:	e0bffe17 	ldw	r2,-8(fp)
 8003048:	10c00515 	stw	r3,20(r2)
 800304c:	00007e06 	br	8003248 <upstate_tor+0x4cc>
		}
		else if (detect(ship2,torpedo->x[i], torpedo->y[i], 20) && torpedo->target == 1){
 8003050:	e0fffd17 	ldw	r3,-12(fp)
 8003054:	e0bffc17 	ldw	r2,-16(fp)
 8003058:	1085883a 	add	r2,r2,r2
 800305c:	1085883a 	add	r2,r2,r2
 8003060:	1885883a 	add	r2,r3,r2
 8003064:	11000017 	ldw	r4,0(r2)
 8003068:	e0fffd17 	ldw	r3,-12(fp)
 800306c:	e0bffc17 	ldw	r2,-16(fp)
 8003070:	10800104 	addi	r2,r2,4
 8003074:	1085883a 	add	r2,r2,r2
 8003078:	1085883a 	add	r2,r2,r2
 800307c:	1885883a 	add	r2,r3,r2
 8003080:	10800017 	ldw	r2,0(r2)
 8003084:	01c00504 	movi	r7,20
 8003088:	100d883a 	mov	r6,r2
 800308c:	200b883a 	mov	r5,r4
 8003090:	e13fff17 	ldw	r4,-4(fp)
 8003094:	80028e40 	call	80028e4 <detect>
 8003098:	10002d26 	beq	r2,zero,8003150 <upstate_tor+0x3d4>
 800309c:	e0bffd17 	ldw	r2,-12(fp)
 80030a0:	10801517 	ldw	r2,84(r2)
 80030a4:	10800058 	cmpnei	r2,r2,1
 80030a8:	1000291e 	bne	r2,zero,8003150 <upstate_tor+0x3d4>
			torpedo->x[i] = 0;
 80030ac:	e0fffd17 	ldw	r3,-12(fp)
 80030b0:	e0bffc17 	ldw	r2,-16(fp)
 80030b4:	1085883a 	add	r2,r2,r2
 80030b8:	1085883a 	add	r2,r2,r2
 80030bc:	1885883a 	add	r2,r3,r2
 80030c0:	10000015 	stw	zero,0(r2)
			torpedo->y[i] = 0;
 80030c4:	e0fffd17 	ldw	r3,-12(fp)
 80030c8:	e0bffc17 	ldw	r2,-16(fp)
 80030cc:	10800104 	addi	r2,r2,4
 80030d0:	1085883a 	add	r2,r2,r2
 80030d4:	1085883a 	add	r2,r2,r2
 80030d8:	1885883a 	add	r2,r3,r2
 80030dc:	10000015 	stw	zero,0(r2)
			torpedo->vx[i] = 0;
 80030e0:	e0fffd17 	ldw	r3,-12(fp)
 80030e4:	e0bffc17 	ldw	r2,-16(fp)
 80030e8:	10800204 	addi	r2,r2,8
 80030ec:	1085883a 	add	r2,r2,r2
 80030f0:	1085883a 	add	r2,r2,r2
 80030f4:	1885883a 	add	r2,r3,r2
 80030f8:	10000015 	stw	zero,0(r2)
			torpedo->vy[i] = 0;
 80030fc:	e0fffd17 	ldw	r3,-12(fp)
 8003100:	e0bffc17 	ldw	r2,-16(fp)
 8003104:	10800304 	addi	r2,r2,12
 8003108:	1085883a 	add	r2,r2,r2
 800310c:	1085883a 	add	r2,r2,r2
 8003110:	1885883a 	add	r2,r3,r2
 8003114:	10000015 	stw	zero,0(r2)
			torpedo->attack_state[i] = HIT;
 8003118:	e0fffd17 	ldw	r3,-12(fp)
 800311c:	e0bffc17 	ldw	r2,-16(fp)
 8003120:	10800404 	addi	r2,r2,16
 8003124:	1085883a 	add	r2,r2,r2
 8003128:	1085883a 	add	r2,r2,r2
 800312c:	1885883a 	add	r2,r3,r2
 8003130:	00c00044 	movi	r3,1
 8003134:	10c00015 	stw	r3,0(r2)
			ship2->HP -= 2;
 8003138:	e0bfff17 	ldw	r2,-4(fp)
 800313c:	10800517 	ldw	r2,20(r2)
 8003140:	10ffff84 	addi	r3,r2,-2
 8003144:	e0bfff17 	ldw	r2,-4(fp)
 8003148:	10c00515 	stw	r3,20(r2)
 800314c:	00003e06 	br	8003248 <upstate_tor+0x4cc>
		}
		else if (detect(ship1,torpedo->x[i], torpedo->y[i], 150) && torpedo->target == 0) //distance > 150; torpedo Permanently switch to inertial guidance
 8003150:	e0fffd17 	ldw	r3,-12(fp)
 8003154:	e0bffc17 	ldw	r2,-16(fp)
 8003158:	1085883a 	add	r2,r2,r2
 800315c:	1085883a 	add	r2,r2,r2
 8003160:	1885883a 	add	r2,r3,r2
 8003164:	11000017 	ldw	r4,0(r2)
 8003168:	e0fffd17 	ldw	r3,-12(fp)
 800316c:	e0bffc17 	ldw	r2,-16(fp)
 8003170:	10800104 	addi	r2,r2,4
 8003174:	1085883a 	add	r2,r2,r2
 8003178:	1085883a 	add	r2,r2,r2
 800317c:	1885883a 	add	r2,r3,r2
 8003180:	10800017 	ldw	r2,0(r2)
 8003184:	01c02584 	movi	r7,150
 8003188:	100d883a 	mov	r6,r2
 800318c:	200b883a 	mov	r5,r4
 8003190:	e13ffe17 	ldw	r4,-8(fp)
 8003194:	80028e40 	call	80028e4 <detect>
 8003198:	10000c26 	beq	r2,zero,80031cc <upstate_tor+0x450>
 800319c:	e0bffd17 	ldw	r2,-12(fp)
 80031a0:	10801517 	ldw	r2,84(r2)
 80031a4:	1000091e 	bne	r2,zero,80031cc <upstate_tor+0x450>
		{
			torpedo->attack_state[i] = INERTIAL;
 80031a8:	e0fffd17 	ldw	r3,-12(fp)
 80031ac:	e0bffc17 	ldw	r2,-16(fp)
 80031b0:	10800404 	addi	r2,r2,16
 80031b4:	1085883a 	add	r2,r2,r2
 80031b8:	1085883a 	add	r2,r2,r2
 80031bc:	1885883a 	add	r2,r3,r2
 80031c0:	00c00084 	movi	r3,2
 80031c4:	10c00015 	stw	r3,0(r2)
 80031c8:	00001f06 	br	8003248 <upstate_tor+0x4cc>
		}
		else if (detect(ship2,torpedo->x[i], torpedo->y[i], 150) && torpedo->target == 1) //distance > 150; torpedo Permanently switch to inertial guidance
 80031cc:	e0fffd17 	ldw	r3,-12(fp)
 80031d0:	e0bffc17 	ldw	r2,-16(fp)
 80031d4:	1085883a 	add	r2,r2,r2
 80031d8:	1085883a 	add	r2,r2,r2
 80031dc:	1885883a 	add	r2,r3,r2
 80031e0:	11000017 	ldw	r4,0(r2)
 80031e4:	e0fffd17 	ldw	r3,-12(fp)
 80031e8:	e0bffc17 	ldw	r2,-16(fp)
 80031ec:	10800104 	addi	r2,r2,4
 80031f0:	1085883a 	add	r2,r2,r2
 80031f4:	1085883a 	add	r2,r2,r2
 80031f8:	1885883a 	add	r2,r3,r2
 80031fc:	10800017 	ldw	r2,0(r2)
 8003200:	01c02584 	movi	r7,150
 8003204:	100d883a 	mov	r6,r2
 8003208:	200b883a 	mov	r5,r4
 800320c:	e13fff17 	ldw	r4,-4(fp)
 8003210:	80028e40 	call	80028e4 <detect>
 8003214:	10000c26 	beq	r2,zero,8003248 <upstate_tor+0x4cc>
 8003218:	e0bffd17 	ldw	r2,-12(fp)
 800321c:	10801517 	ldw	r2,84(r2)
 8003220:	10800058 	cmpnei	r2,r2,1
 8003224:	1000081e 	bne	r2,zero,8003248 <upstate_tor+0x4cc>
		{
			torpedo->attack_state[i] = INERTIAL;
 8003228:	e0fffd17 	ldw	r3,-12(fp)
 800322c:	e0bffc17 	ldw	r2,-16(fp)
 8003230:	10800404 	addi	r2,r2,16
 8003234:	1085883a 	add	r2,r2,r2
 8003238:	1085883a 	add	r2,r2,r2
 800323c:	1885883a 	add	r2,r3,r2
 8003240:	00c00084 	movi	r3,2
 8003244:	10c00015 	stw	r3,0(r2)

void upstate_tor(torpedo_t *torpedo, ship_t *ship1, ship_t *ship2){
	int i;
	if(torpedo->stop)
		return;
	for(i = 0; i < 4 ;i++){
 8003248:	e0bffc17 	ldw	r2,-16(fp)
 800324c:	10800044 	addi	r2,r2,1
 8003250:	e0bffc15 	stw	r2,-16(fp)
 8003254:	e0bffc17 	ldw	r2,-16(fp)
 8003258:	10800110 	cmplti	r2,r2,4
 800325c:	103ed31e 	bne	r2,zero,8002dac <__alt_data_end+0xf8002dac>
 8003260:	00000106 	br	8003268 <upstate_tor+0x4ec>
}

void upstate_tor(torpedo_t *torpedo, ship_t *ship1, ship_t *ship2){
	int i;
	if(torpedo->stop)
		return;
 8003264:	0001883a 	nop
		else if (detect(ship2,torpedo->x[i], torpedo->y[i], 150) && torpedo->target == 1) //distance > 150; torpedo Permanently switch to inertial guidance
		{
			torpedo->attack_state[i] = INERTIAL;
		}
	}
}
 8003268:	e037883a 	mov	sp,fp
 800326c:	dfc00117 	ldw	ra,4(sp)
 8003270:	df000017 	ldw	fp,0(sp)
 8003274:	dec00204 	addi	sp,sp,8
 8003278:	f800283a 	ret

0800327c <move_tor>:


void move_tor(torpedo_t *torpedo, ship_t *target){
 800327c:	defff704 	addi	sp,sp,-36
 8003280:	dfc00815 	stw	ra,32(sp)
 8003284:	df000715 	stw	fp,28(sp)
 8003288:	dc000615 	stw	r16,24(sp)
 800328c:	df000704 	addi	fp,sp,28
 8003290:	e13ffd15 	stw	r4,-12(fp)
 8003294:	e17ffe15 	stw	r5,-8(fp)
	int i;
	if(torpedo->stop)
 8003298:	e0bffd17 	ldw	r2,-12(fp)
 800329c:	10801417 	ldw	r2,80(r2)
 80032a0:	1000951e 	bne	r2,zero,80034f8 <move_tor+0x27c>
		return;
	for (i = 0; i < 4; i++){
 80032a4:	e03ff915 	stw	zero,-28(fp)
 80032a8:	00008f06 	br	80034e8 <move_tor+0x26c>
		int disx = target->x - torpedo->x[i];
 80032ac:	e0bffe17 	ldw	r2,-8(fp)
 80032b0:	10c00117 	ldw	r3,4(r2)
 80032b4:	e13ffd17 	ldw	r4,-12(fp)
 80032b8:	e0bff917 	ldw	r2,-28(fp)
 80032bc:	1085883a 	add	r2,r2,r2
 80032c0:	1085883a 	add	r2,r2,r2
 80032c4:	2085883a 	add	r2,r4,r2
 80032c8:	10800017 	ldw	r2,0(r2)
 80032cc:	1885c83a 	sub	r2,r3,r2
 80032d0:	e0bffa15 	stw	r2,-24(fp)
		disx = disx<0? (-disx):(disx);
 80032d4:	e0bffa17 	ldw	r2,-24(fp)
 80032d8:	1000010e 	bge	r2,zero,80032e0 <move_tor+0x64>
 80032dc:	0085c83a 	sub	r2,zero,r2
 80032e0:	e0bffa15 	stw	r2,-24(fp)
		int disy = target->y - torpedo->y[i];
 80032e4:	e0bffe17 	ldw	r2,-8(fp)
 80032e8:	10c00217 	ldw	r3,8(r2)
 80032ec:	e13ffd17 	ldw	r4,-12(fp)
 80032f0:	e0bff917 	ldw	r2,-28(fp)
 80032f4:	10800104 	addi	r2,r2,4
 80032f8:	1085883a 	add	r2,r2,r2
 80032fc:	1085883a 	add	r2,r2,r2
 8003300:	2085883a 	add	r2,r4,r2
 8003304:	10800017 	ldw	r2,0(r2)
 8003308:	1885c83a 	sub	r2,r3,r2
 800330c:	e0bffb15 	stw	r2,-20(fp)
		disy = disy<0? (-disy):(disy);
 8003310:	e0bffb17 	ldw	r2,-20(fp)
 8003314:	1000010e 	bge	r2,zero,800331c <move_tor+0xa0>
 8003318:	0085c83a 	sub	r2,zero,r2
 800331c:	e0bffb15 	stw	r2,-20(fp)
		int dis = (int)((disx*disx) + (disy*disy));
 8003320:	e17ffa17 	ldw	r5,-24(fp)
 8003324:	e13ffa17 	ldw	r4,-24(fp)
 8003328:	80054680 	call	8005468 <__mulsi3>
 800332c:	1021883a 	mov	r16,r2
 8003330:	e17ffb17 	ldw	r5,-20(fp)
 8003334:	e13ffb17 	ldw	r4,-20(fp)
 8003338:	80054680 	call	8005468 <__mulsi3>
 800333c:	8085883a 	add	r2,r16,r2
 8003340:	e0bffc15 	stw	r2,-16(fp)
		if(torpedo->attack_state[i] == TRACING){
 8003344:	e0fffd17 	ldw	r3,-12(fp)
 8003348:	e0bff917 	ldw	r2,-28(fp)
 800334c:	10800404 	addi	r2,r2,16
 8003350:	1085883a 	add	r2,r2,r2
 8003354:	1085883a 	add	r2,r2,r2
 8003358:	1885883a 	add	r2,r3,r2
 800335c:	10800017 	ldw	r2,0(r2)
 8003360:	10002b1e 	bne	r2,zero,8003410 <move_tor+0x194>
//			torpedo->vx[i] = disx;
//			torpedo->vy[i] = disy;
			torpedo->x[i] += torpedo->vx[i];
 8003364:	e0fffd17 	ldw	r3,-12(fp)
 8003368:	e0bff917 	ldw	r2,-28(fp)
 800336c:	1085883a 	add	r2,r2,r2
 8003370:	1085883a 	add	r2,r2,r2
 8003374:	1885883a 	add	r2,r3,r2
 8003378:	10c00017 	ldw	r3,0(r2)
 800337c:	e13ffd17 	ldw	r4,-12(fp)
 8003380:	e0bff917 	ldw	r2,-28(fp)
 8003384:	10800204 	addi	r2,r2,8
 8003388:	1085883a 	add	r2,r2,r2
 800338c:	1085883a 	add	r2,r2,r2
 8003390:	2085883a 	add	r2,r4,r2
 8003394:	10800017 	ldw	r2,0(r2)
 8003398:	1887883a 	add	r3,r3,r2
 800339c:	e13ffd17 	ldw	r4,-12(fp)
 80033a0:	e0bff917 	ldw	r2,-28(fp)
 80033a4:	1085883a 	add	r2,r2,r2
 80033a8:	1085883a 	add	r2,r2,r2
 80033ac:	2085883a 	add	r2,r4,r2
 80033b0:	10c00015 	stw	r3,0(r2)
			torpedo->y[i] += torpedo->vy[i];
 80033b4:	e0fffd17 	ldw	r3,-12(fp)
 80033b8:	e0bff917 	ldw	r2,-28(fp)
 80033bc:	10800104 	addi	r2,r2,4
 80033c0:	1085883a 	add	r2,r2,r2
 80033c4:	1085883a 	add	r2,r2,r2
 80033c8:	1885883a 	add	r2,r3,r2
 80033cc:	10c00017 	ldw	r3,0(r2)
 80033d0:	e13ffd17 	ldw	r4,-12(fp)
 80033d4:	e0bff917 	ldw	r2,-28(fp)
 80033d8:	10800304 	addi	r2,r2,12
 80033dc:	1085883a 	add	r2,r2,r2
 80033e0:	1085883a 	add	r2,r2,r2
 80033e4:	2085883a 	add	r2,r4,r2
 80033e8:	10800017 	ldw	r2,0(r2)
 80033ec:	1887883a 	add	r3,r3,r2
 80033f0:	e13ffd17 	ldw	r4,-12(fp)
 80033f4:	e0bff917 	ldw	r2,-28(fp)
 80033f8:	10800104 	addi	r2,r2,4
 80033fc:	1085883a 	add	r2,r2,r2
 8003400:	1085883a 	add	r2,r2,r2
 8003404:	2085883a 	add	r2,r4,r2
 8003408:	10c00015 	stw	r3,0(r2)
 800340c:	00003306 	br	80034dc <move_tor+0x260>
		}
		else if(torpedo->attack_state[i] == INERTIAL){
 8003410:	e0fffd17 	ldw	r3,-12(fp)
 8003414:	e0bff917 	ldw	r2,-28(fp)
 8003418:	10800404 	addi	r2,r2,16
 800341c:	1085883a 	add	r2,r2,r2
 8003420:	1085883a 	add	r2,r2,r2
 8003424:	1885883a 	add	r2,r3,r2
 8003428:	10800017 	ldw	r2,0(r2)
 800342c:	10800098 	cmpnei	r2,r2,2
 8003430:	10002a1e 	bne	r2,zero,80034dc <move_tor+0x260>
			torpedo->x[i] += torpedo->vx[i];
 8003434:	e0fffd17 	ldw	r3,-12(fp)
 8003438:	e0bff917 	ldw	r2,-28(fp)
 800343c:	1085883a 	add	r2,r2,r2
 8003440:	1085883a 	add	r2,r2,r2
 8003444:	1885883a 	add	r2,r3,r2
 8003448:	10c00017 	ldw	r3,0(r2)
 800344c:	e13ffd17 	ldw	r4,-12(fp)
 8003450:	e0bff917 	ldw	r2,-28(fp)
 8003454:	10800204 	addi	r2,r2,8
 8003458:	1085883a 	add	r2,r2,r2
 800345c:	1085883a 	add	r2,r2,r2
 8003460:	2085883a 	add	r2,r4,r2
 8003464:	10800017 	ldw	r2,0(r2)
 8003468:	1887883a 	add	r3,r3,r2
 800346c:	e13ffd17 	ldw	r4,-12(fp)
 8003470:	e0bff917 	ldw	r2,-28(fp)
 8003474:	1085883a 	add	r2,r2,r2
 8003478:	1085883a 	add	r2,r2,r2
 800347c:	2085883a 	add	r2,r4,r2
 8003480:	10c00015 	stw	r3,0(r2)
			torpedo->y[i] += torpedo->vy[i];
 8003484:	e0fffd17 	ldw	r3,-12(fp)
 8003488:	e0bff917 	ldw	r2,-28(fp)
 800348c:	10800104 	addi	r2,r2,4
 8003490:	1085883a 	add	r2,r2,r2
 8003494:	1085883a 	add	r2,r2,r2
 8003498:	1885883a 	add	r2,r3,r2
 800349c:	10c00017 	ldw	r3,0(r2)
 80034a0:	e13ffd17 	ldw	r4,-12(fp)
 80034a4:	e0bff917 	ldw	r2,-28(fp)
 80034a8:	10800304 	addi	r2,r2,12
 80034ac:	1085883a 	add	r2,r2,r2
 80034b0:	1085883a 	add	r2,r2,r2
 80034b4:	2085883a 	add	r2,r4,r2
 80034b8:	10800017 	ldw	r2,0(r2)
 80034bc:	1887883a 	add	r3,r3,r2
 80034c0:	e13ffd17 	ldw	r4,-12(fp)
 80034c4:	e0bff917 	ldw	r2,-28(fp)
 80034c8:	10800104 	addi	r2,r2,4
 80034cc:	1085883a 	add	r2,r2,r2
 80034d0:	1085883a 	add	r2,r2,r2
 80034d4:	2085883a 	add	r2,r4,r2
 80034d8:	10c00015 	stw	r3,0(r2)

void move_tor(torpedo_t *torpedo, ship_t *target){
	int i;
	if(torpedo->stop)
		return;
	for (i = 0; i < 4; i++){
 80034dc:	e0bff917 	ldw	r2,-28(fp)
 80034e0:	10800044 	addi	r2,r2,1
 80034e4:	e0bff915 	stw	r2,-28(fp)
 80034e8:	e0bff917 	ldw	r2,-28(fp)
 80034ec:	10800110 	cmplti	r2,r2,4
 80034f0:	103f6e1e 	bne	r2,zero,80032ac <__alt_data_end+0xf80032ac>
 80034f4:	00000106 	br	80034fc <move_tor+0x280>


void move_tor(torpedo_t *torpedo, ship_t *target){
	int i;
	if(torpedo->stop)
		return;
 80034f8:	0001883a 	nop
		else if(torpedo->attack_state[i] == INERTIAL){
			torpedo->x[i] += torpedo->vx[i];
			torpedo->y[i] += torpedo->vy[i];
		}
	}
}
 80034fc:	e6ffff04 	addi	sp,fp,-4
 8003500:	dfc00217 	ldw	ra,8(sp)
 8003504:	df000117 	ldw	fp,4(sp)
 8003508:	dc000017 	ldw	r16,0(sp)
 800350c:	dec00304 	addi	sp,sp,12
 8003510:	f800283a 	ret

08003514 <ifstop_tor>:

void ifstop_tor(torpedo_t *torpedo){
 8003514:	defffd04 	addi	sp,sp,-12
 8003518:	df000215 	stw	fp,8(sp)
 800351c:	df000204 	addi	fp,sp,8
 8003520:	e13fff15 	stw	r4,-4(fp)
	if(torpedo->stop)
 8003524:	e0bfff17 	ldw	r2,-4(fp)
 8003528:	10801417 	ldw	r2,80(r2)
 800352c:	10004e1e 	bne	r2,zero,8003668 <ifstop_tor+0x154>
		return;
	if((torpedo->attack_state[0] == HIT || torpedo->attack_state[0] == DESTROY) &&
 8003530:	e0bfff17 	ldw	r2,-4(fp)
 8003534:	10801017 	ldw	r2,64(r2)
 8003538:	10800060 	cmpeqi	r2,r2,1
 800353c:	1000041e 	bne	r2,zero,8003550 <ifstop_tor+0x3c>
 8003540:	e0bfff17 	ldw	r2,-4(fp)
 8003544:	10801017 	ldw	r2,64(r2)
 8003548:	108000d8 	cmpnei	r2,r2,3
 800354c:	1000471e 	bne	r2,zero,800366c <ifstop_tor+0x158>
	   (torpedo->attack_state[1] == HIT || torpedo->attack_state[1] == DESTROY) &&
 8003550:	e0bfff17 	ldw	r2,-4(fp)
 8003554:	10801117 	ldw	r2,68(r2)
}

void ifstop_tor(torpedo_t *torpedo){
	if(torpedo->stop)
		return;
	if((torpedo->attack_state[0] == HIT || torpedo->attack_state[0] == DESTROY) &&
 8003558:	10800060 	cmpeqi	r2,r2,1
 800355c:	1000041e 	bne	r2,zero,8003570 <ifstop_tor+0x5c>
	   (torpedo->attack_state[1] == HIT || torpedo->attack_state[1] == DESTROY) &&
 8003560:	e0bfff17 	ldw	r2,-4(fp)
 8003564:	10801117 	ldw	r2,68(r2)
 8003568:	108000d8 	cmpnei	r2,r2,3
 800356c:	10003f1e 	bne	r2,zero,800366c <ifstop_tor+0x158>
	   (torpedo->attack_state[2] == HIT || torpedo->attack_state[2] == DESTROY) &&
 8003570:	e0bfff17 	ldw	r2,-4(fp)
 8003574:	10801217 	ldw	r2,72(r2)

void ifstop_tor(torpedo_t *torpedo){
	if(torpedo->stop)
		return;
	if((torpedo->attack_state[0] == HIT || torpedo->attack_state[0] == DESTROY) &&
	   (torpedo->attack_state[1] == HIT || torpedo->attack_state[1] == DESTROY) &&
 8003578:	10800060 	cmpeqi	r2,r2,1
 800357c:	1000041e 	bne	r2,zero,8003590 <ifstop_tor+0x7c>
	   (torpedo->attack_state[2] == HIT || torpedo->attack_state[2] == DESTROY) &&
 8003580:	e0bfff17 	ldw	r2,-4(fp)
 8003584:	10801217 	ldw	r2,72(r2)
 8003588:	108000d8 	cmpnei	r2,r2,3
 800358c:	1000371e 	bne	r2,zero,800366c <ifstop_tor+0x158>
	   (torpedo->attack_state[3] == HIT || torpedo->attack_state[3] == DESTROY)){
 8003590:	e0bfff17 	ldw	r2,-4(fp)
 8003594:	10801317 	ldw	r2,76(r2)
void ifstop_tor(torpedo_t *torpedo){
	if(torpedo->stop)
		return;
	if((torpedo->attack_state[0] == HIT || torpedo->attack_state[0] == DESTROY) &&
	   (torpedo->attack_state[1] == HIT || torpedo->attack_state[1] == DESTROY) &&
	   (torpedo->attack_state[2] == HIT || torpedo->attack_state[2] == DESTROY) &&
 8003598:	10800060 	cmpeqi	r2,r2,1
 800359c:	1000041e 	bne	r2,zero,80035b0 <ifstop_tor+0x9c>
	   (torpedo->attack_state[3] == HIT || torpedo->attack_state[3] == DESTROY)){
 80035a0:	e0bfff17 	ldw	r2,-4(fp)
 80035a4:	10801317 	ldw	r2,76(r2)
 80035a8:	108000d8 	cmpnei	r2,r2,3
 80035ac:	10002f1e 	bne	r2,zero,800366c <ifstop_tor+0x158>
		torpedo->stop = 1;
 80035b0:	e0bfff17 	ldw	r2,-4(fp)
 80035b4:	00c00044 	movi	r3,1
 80035b8:	10c01415 	stw	r3,80(r2)
		for(int i = 0; i < 4; i++){
 80035bc:	e03ffe15 	stw	zero,-8(fp)
 80035c0:	00002506 	br	8003658 <ifstop_tor+0x144>
			torpedo->attack_state[i] = 0;
 80035c4:	e0ffff17 	ldw	r3,-4(fp)
 80035c8:	e0bffe17 	ldw	r2,-8(fp)
 80035cc:	10800404 	addi	r2,r2,16
 80035d0:	1085883a 	add	r2,r2,r2
 80035d4:	1085883a 	add	r2,r2,r2
 80035d8:	1885883a 	add	r2,r3,r2
 80035dc:	10000015 	stw	zero,0(r2)
			torpedo->vx[i] = 0;
 80035e0:	e0ffff17 	ldw	r3,-4(fp)
 80035e4:	e0bffe17 	ldw	r2,-8(fp)
 80035e8:	10800204 	addi	r2,r2,8
 80035ec:	1085883a 	add	r2,r2,r2
 80035f0:	1085883a 	add	r2,r2,r2
 80035f4:	1885883a 	add	r2,r3,r2
 80035f8:	10000015 	stw	zero,0(r2)
			torpedo->vy[i] = 0;
 80035fc:	e0ffff17 	ldw	r3,-4(fp)
 8003600:	e0bffe17 	ldw	r2,-8(fp)
 8003604:	10800304 	addi	r2,r2,12
 8003608:	1085883a 	add	r2,r2,r2
 800360c:	1085883a 	add	r2,r2,r2
 8003610:	1885883a 	add	r2,r3,r2
 8003614:	10000015 	stw	zero,0(r2)
			torpedo->x[i] = 0;
 8003618:	e0ffff17 	ldw	r3,-4(fp)
 800361c:	e0bffe17 	ldw	r2,-8(fp)
 8003620:	1085883a 	add	r2,r2,r2
 8003624:	1085883a 	add	r2,r2,r2
 8003628:	1885883a 	add	r2,r3,r2
 800362c:	10000015 	stw	zero,0(r2)
			torpedo->y[i] = 0;
 8003630:	e0ffff17 	ldw	r3,-4(fp)
 8003634:	e0bffe17 	ldw	r2,-8(fp)
 8003638:	10800104 	addi	r2,r2,4
 800363c:	1085883a 	add	r2,r2,r2
 8003640:	1085883a 	add	r2,r2,r2
 8003644:	1885883a 	add	r2,r3,r2
 8003648:	10000015 	stw	zero,0(r2)
	if((torpedo->attack_state[0] == HIT || torpedo->attack_state[0] == DESTROY) &&
	   (torpedo->attack_state[1] == HIT || torpedo->attack_state[1] == DESTROY) &&
	   (torpedo->attack_state[2] == HIT || torpedo->attack_state[2] == DESTROY) &&
	   (torpedo->attack_state[3] == HIT || torpedo->attack_state[3] == DESTROY)){
		torpedo->stop = 1;
		for(int i = 0; i < 4; i++){
 800364c:	e0bffe17 	ldw	r2,-8(fp)
 8003650:	10800044 	addi	r2,r2,1
 8003654:	e0bffe15 	stw	r2,-8(fp)
 8003658:	e0bffe17 	ldw	r2,-8(fp)
 800365c:	10800110 	cmplti	r2,r2,4
 8003660:	103fd81e 	bne	r2,zero,80035c4 <__alt_data_end+0xf80035c4>
 8003664:	00000106 	br	800366c <ifstop_tor+0x158>
	}
}

void ifstop_tor(torpedo_t *torpedo){
	if(torpedo->stop)
		return;
 8003668:	0001883a 	nop
			torpedo->vy[i] = 0;
			torpedo->x[i] = 0;
			torpedo->y[i] = 0;
		}
	}
}
 800366c:	e037883a 	mov	sp,fp
 8003670:	df000017 	ldw	fp,0(sp)
 8003674:	dec00104 	addi	sp,sp,4
 8003678:	f800283a 	ret

0800367c <init_tor>:

void init_tor(torpedo_t *torpedo, int target){
 800367c:	defffc04 	addi	sp,sp,-16
 8003680:	df000315 	stw	fp,12(sp)
 8003684:	df000304 	addi	fp,sp,12
 8003688:	e13ffe15 	stw	r4,-8(fp)
 800368c:	e17fff15 	stw	r5,-4(fp)
	for(int i = 0; i < 4; i++){
 8003690:	e03ffd15 	stw	zero,-12(fp)
 8003694:	00002506 	br	800372c <init_tor+0xb0>
		torpedo->attack_state[i] = 0;
 8003698:	e0fffe17 	ldw	r3,-8(fp)
 800369c:	e0bffd17 	ldw	r2,-12(fp)
 80036a0:	10800404 	addi	r2,r2,16
 80036a4:	1085883a 	add	r2,r2,r2
 80036a8:	1085883a 	add	r2,r2,r2
 80036ac:	1885883a 	add	r2,r3,r2
 80036b0:	10000015 	stw	zero,0(r2)
		torpedo->vx[i] = 0;
 80036b4:	e0fffe17 	ldw	r3,-8(fp)
 80036b8:	e0bffd17 	ldw	r2,-12(fp)
 80036bc:	10800204 	addi	r2,r2,8
 80036c0:	1085883a 	add	r2,r2,r2
 80036c4:	1085883a 	add	r2,r2,r2
 80036c8:	1885883a 	add	r2,r3,r2
 80036cc:	10000015 	stw	zero,0(r2)
		torpedo->vy[i] = 0;
 80036d0:	e0fffe17 	ldw	r3,-8(fp)
 80036d4:	e0bffd17 	ldw	r2,-12(fp)
 80036d8:	10800304 	addi	r2,r2,12
 80036dc:	1085883a 	add	r2,r2,r2
 80036e0:	1085883a 	add	r2,r2,r2
 80036e4:	1885883a 	add	r2,r3,r2
 80036e8:	10000015 	stw	zero,0(r2)
		torpedo->x[i] = 0;
 80036ec:	e0fffe17 	ldw	r3,-8(fp)
 80036f0:	e0bffd17 	ldw	r2,-12(fp)
 80036f4:	1085883a 	add	r2,r2,r2
 80036f8:	1085883a 	add	r2,r2,r2
 80036fc:	1885883a 	add	r2,r3,r2
 8003700:	10000015 	stw	zero,0(r2)
		torpedo->y[i] = 0;
 8003704:	e0fffe17 	ldw	r3,-8(fp)
 8003708:	e0bffd17 	ldw	r2,-12(fp)
 800370c:	10800104 	addi	r2,r2,4
 8003710:	1085883a 	add	r2,r2,r2
 8003714:	1085883a 	add	r2,r2,r2
 8003718:	1885883a 	add	r2,r3,r2
 800371c:	10000015 	stw	zero,0(r2)
		}
	}
}

void init_tor(torpedo_t *torpedo, int target){
	for(int i = 0; i < 4; i++){
 8003720:	e0bffd17 	ldw	r2,-12(fp)
 8003724:	10800044 	addi	r2,r2,1
 8003728:	e0bffd15 	stw	r2,-12(fp)
 800372c:	e0bffd17 	ldw	r2,-12(fp)
 8003730:	10800110 	cmplti	r2,r2,4
 8003734:	103fd81e 	bne	r2,zero,8003698 <__alt_data_end+0xf8003698>
		torpedo->vx[i] = 0;
		torpedo->vy[i] = 0;
		torpedo->x[i] = 0;
		torpedo->y[i] = 0;
	}
	torpedo->stop = 1;
 8003738:	e0bffe17 	ldw	r2,-8(fp)
 800373c:	00c00044 	movi	r3,1
 8003740:	10c01415 	stw	r3,80(r2)
	torpedo->target = target;
 8003744:	e0bffe17 	ldw	r2,-8(fp)
 8003748:	e0ffff17 	ldw	r3,-4(fp)
 800374c:	10c01515 	stw	r3,84(r2)
}
 8003750:	0001883a 	nop
 8003754:	e037883a 	mov	sp,fp
 8003758:	df000017 	ldw	fp,0(sp)
 800375c:	dec00104 	addi	sp,sp,4
 8003760:	f800283a 	ret

08003764 <update_tor>:

void update_tor(torpedo_t *torpedo1,torpedo_t *torpedo2, ship_t *ship1, ship_t *ship2){
 8003764:	defffa04 	addi	sp,sp,-24
 8003768:	dfc00515 	stw	ra,20(sp)
 800376c:	df000415 	stw	fp,16(sp)
 8003770:	df000404 	addi	fp,sp,16
 8003774:	e13ffc15 	stw	r4,-16(fp)
 8003778:	e17ffd15 	stw	r5,-12(fp)
 800377c:	e1bffe15 	stw	r6,-8(fp)
 8003780:	e1ffff15 	stw	r7,-4(fp)
	move_tor(torpedo1, ship2);
 8003784:	e17fff17 	ldw	r5,-4(fp)
 8003788:	e13ffc17 	ldw	r4,-16(fp)
 800378c:	800327c0 	call	800327c <move_tor>
	move_tor(torpedo2, ship1);
 8003790:	e17ffe17 	ldw	r5,-8(fp)
 8003794:	e13ffd17 	ldw	r4,-12(fp)
 8003798:	800327c0 	call	800327c <move_tor>
	upstate_tor(torpedo1, ship1, ship2);
 800379c:	e1bfff17 	ldw	r6,-4(fp)
 80037a0:	e17ffe17 	ldw	r5,-8(fp)
 80037a4:	e13ffc17 	ldw	r4,-16(fp)
 80037a8:	8002d7c0 	call	8002d7c <upstate_tor>
	upstate_tor(torpedo2, ship1, ship2);
 80037ac:	e1bfff17 	ldw	r6,-4(fp)
 80037b0:	e17ffe17 	ldw	r5,-8(fp)
 80037b4:	e13ffd17 	ldw	r4,-12(fp)
 80037b8:	8002d7c0 	call	8002d7c <upstate_tor>
	ifstop_tor(torpedo1);
 80037bc:	e13ffc17 	ldw	r4,-16(fp)
 80037c0:	80035140 	call	8003514 <ifstop_tor>
	ifstop_tor(torpedo2);
 80037c4:	e13ffd17 	ldw	r4,-12(fp)
 80037c8:	80035140 	call	8003514 <ifstop_tor>

}
 80037cc:	0001883a 	nop
 80037d0:	e037883a 	mov	sp,fp
 80037d4:	dfc00117 	ldw	ra,4(sp)
 80037d8:	df000017 	ldw	fp,0(sp)
 80037dc:	dec00204 	addi	sp,sp,8
 80037e0:	f800283a 	ret

080037e4 <press_z>:

void press_z(ship_t *target){
 80037e4:	defffe04 	addi	sp,sp,-8
 80037e8:	df000115 	stw	fp,4(sp)
 80037ec:	df000104 	addi	fp,sp,4
 80037f0:	e13fff15 	stw	r4,-4(fp)
	target->HP -= 4;
 80037f4:	e0bfff17 	ldw	r2,-4(fp)
 80037f8:	10800517 	ldw	r2,20(r2)
 80037fc:	10ffff04 	addi	r3,r2,-4
 8003800:	e0bfff17 	ldw	r2,-4(fp)
 8003804:	10c00515 	stw	r3,20(r2)

}
 8003808:	0001883a 	nop
 800380c:	e037883a 	mov	sp,fp
 8003810:	df000017 	ldw	fp,0(sp)
 8003814:	dec00104 	addi	sp,sp,4
 8003818:	f800283a 	ret

0800381c <UsbWrite>:
 *
 * @note     None
 *
 ******************************************************************************/
void UsbWrite(alt_u16 Address, alt_u16 Data)
{
 800381c:	defffc04 	addi	sp,sp,-16
 8003820:	dfc00315 	stw	ra,12(sp)
 8003824:	df000215 	stw	fp,8(sp)
 8003828:	df000204 	addi	fp,sp,8
 800382c:	2007883a 	mov	r3,r4
 8003830:	2805883a 	mov	r2,r5
 8003834:	e0fffe0d 	sth	r3,-8(fp)
 8003838:	e0bfff0d 	sth	r2,-4(fp)
//*************************************************************************//
//									TASK								   //
//*************************************************************************//
//							Write this function							   //
//*************************************************************************//
	IO_write(HPI_ADDR, Address);
 800383c:	e0bffe0b 	ldhu	r2,-8(fp)
 8003840:	100b883a 	mov	r5,r2
 8003844:	01000084 	movi	r4,2
 8003848:	80011880 	call	8001188 <IO_write>
	IO_write(HPI_DATA,Data);
 800384c:	e0bfff0b 	ldhu	r2,-4(fp)
 8003850:	100b883a 	mov	r5,r2
 8003854:	0009883a 	mov	r4,zero
 8003858:	80011880 	call	8001188 <IO_write>
}
 800385c:	0001883a 	nop
 8003860:	e037883a 	mov	sp,fp
 8003864:	dfc00117 	ldw	ra,4(sp)
 8003868:	df000017 	ldw	fp,0(sp)
 800386c:	dec00204 	addi	sp,sp,8
 8003870:	f800283a 	ret

08003874 <UsbRead>:
 *
 * @note     None
 *
 ******************************************************************************/
alt_u16 UsbRead(alt_u16 Address)
{
 8003874:	defffd04 	addi	sp,sp,-12
 8003878:	dfc00215 	stw	ra,8(sp)
 800387c:	df000115 	stw	fp,4(sp)
 8003880:	df000104 	addi	fp,sp,4
 8003884:	2005883a 	mov	r2,r4
 8003888:	e0bfff0d 	sth	r2,-4(fp)
//*************************************************************************//
//									TASK								   //
//*************************************************************************//
//							Write this function							   //
//*************************************************************************//
	IO_write(HPI_ADDR, Address);
 800388c:	e0bfff0b 	ldhu	r2,-4(fp)
 8003890:	100b883a 	mov	r5,r2
 8003894:	01000084 	movi	r4,2
 8003898:	80011880 	call	8001188 <IO_write>
	return (IO_read(HPI_DATA));
 800389c:	0009883a 	mov	r4,zero
 80038a0:	80012100 	call	8001210 <IO_read>
}
 80038a4:	e037883a 	mov	sp,fp
 80038a8:	dfc00117 	ldw	ra,4(sp)
 80038ac:	df000017 	ldw	fp,0(sp)
 80038b0:	dec00204 	addi	sp,sp,8
 80038b4:	f800283a 	ret

080038b8 <UsbSoftReset>:
 *
 * @note     None
 *
 ******************************************************************************/
void UsbSoftReset()
{
 80038b8:	defffe04 	addi	sp,sp,-8
 80038bc:	dfc00115 	stw	ra,4(sp)
 80038c0:	df000015 	stw	fp,0(sp)
 80038c4:	d839883a 	mov	fp,sp
	//XIo_Out16(USB_MAILBOX, COMM_RESET);
	IO_write(HPI_MAILBOX,COMM_RESET); //COMM_JUMP2CODE
 80038c8:	017e9414 	movui	r5,64080
 80038cc:	01000044 	movi	r4,1
 80038d0:	80011880 	call	8001188 <IO_write>
	usleep(100000);
 80038d4:	010000b4 	movhi	r4,2
 80038d8:	2121a804 	addi	r4,r4,-31072
 80038dc:	8012d080 	call	8012d08 <usleep>
	printf("[USB INIT]:reset finished!\n");
 80038e0:	01020074 	movhi	r4,2049
 80038e4:	21135604 	addi	r4,r4,19800
 80038e8:	80064680 	call	8006468 <puts>

	usleep(500000);
 80038ec:	01000234 	movhi	r4,8
 80038f0:	21284804 	addi	r4,r4,-24288
 80038f4:	8012d080 	call	8012d08 <usleep>
	printf("[USB INIT]:Clear up the interrupt\r\n");
 80038f8:	01020074 	movhi	r4,2049
 80038fc:	21135d04 	addi	r4,r4,19828
 8003900:	80064680 	call	8006468 <puts>
	IO_read(HPI_MAILBOX);
 8003904:	01000044 	movi	r4,1
 8003908:	80012100 	call	8001210 <IO_read>
	IO_read(HPI_STATUS);
 800390c:	010000c4 	movi	r4,3
 8003910:	80012100 	call	8001210 <IO_read>

	// Had to add the write due to a bug in BIOS where they overwrite
	// the mailbox after initialization with garbage.  The read clears
	// any pending interrupts.
	UsbRead (HPI_SIE1_MSG_ADR);
 8003914:	01005104 	movi	r4,324
 8003918:	80038740 	call	8003874 <UsbRead>
	UsbWrite (HPI_SIE1_MSG_ADR, 0);
 800391c:	000b883a 	mov	r5,zero
 8003920:	01005104 	movi	r4,324
 8003924:	800381c0 	call	800381c <UsbWrite>
	UsbRead (HPI_SIE2_MSG_ADR);
 8003928:	01005204 	movi	r4,328
 800392c:	80038740 	call	8003874 <UsbRead>
	UsbWrite (HPI_SIE2_MSG_ADR, 0);
 8003930:	000b883a 	mov	r5,zero
 8003934:	01005204 	movi	r4,328
 8003938:	800381c0 	call	800381c <UsbWrite>


	UsbWrite (HOST1_STAT_REG, 0xFFFF);
 800393c:	017fffd4 	movui	r5,65535
 8003940:	01302414 	movui	r4,49296
 8003944:	800381c0 	call	800381c <UsbWrite>
	UsbWrite (HOST2_STAT_REG, 0xFFFF);
 8003948:	017fffd4 	movui	r5,65535
 800394c:	01302c14 	movui	r4,49328
 8003950:	800381c0 	call	800381c <UsbWrite>
}
 8003954:	0001883a 	nop
 8003958:	e037883a 	mov	sp,fp
 800395c:	dfc00117 	ldw	ra,4(sp)
 8003960:	df000017 	ldw	fp,0(sp)
 8003964:	dec00204 	addi	sp,sp,8
 8003968:	f800283a 	ret

0800396c <UsbSetAddress>:


void UsbSetAddress()
{
 800396c:	defffe04 	addi	sp,sp,-8
 8003970:	dfc00115 	stw	ra,4(sp)
 8003974:	df000015 	stw	fp,0(sp)
 8003978:	d839883a 	mov	fp,sp
	//the starting address
	IO_write(HPI_ADDR,0x0500); //the start address
 800397c:	01414004 	movi	r5,1280
 8003980:	01000084 	movi	r4,2
 8003984:	80011880 	call	8001188 <IO_write>
	// TD #1: 6 writes
	IO_write(HPI_DATA,0x050C);
 8003988:	01414304 	movi	r5,1292
 800398c:	0009883a 	mov	r4,zero
 8003990:	80011880 	call	8001188 <IO_write>
	IO_write(HPI_DATA,0x0008); //4 port number
 8003994:	01400204 	movi	r5,8
 8003998:	0009883a 	mov	r4,zero
 800399c:	80011880 	call	8001188 <IO_write>
	// TASK: Complete with 4 more IOWR functions
	IO_write(HPI_DATA,0x00D0);
 80039a0:	01403404 	movi	r5,208
 80039a4:	0009883a 	mov	r4,zero
 80039a8:	80011880 	call	8001188 <IO_write>
	IO_write(HPI_DATA,0x0001);
 80039ac:	01400044 	movi	r5,1
 80039b0:	0009883a 	mov	r4,zero
 80039b4:	80011880 	call	8001188 <IO_write>
	IO_write(HPI_DATA,0x0013);
 80039b8:	014004c4 	movi	r5,19
 80039bc:	0009883a 	mov	r4,zero
 80039c0:	80011880 	call	8001188 <IO_write>
	IO_write(HPI_DATA,0x0514);
 80039c4:	01414504 	movi	r5,1300
 80039c8:	0009883a 	mov	r4,zero
 80039cc:	80011880 	call	8001188 <IO_write>
	// TD #2: 4 writes
	// TASK: Complete with 4 IOWR functions
	IO_write(HPI_DATA,0x0500);
 80039d0:	01414004 	movi	r5,1280
 80039d4:	0009883a 	mov	r4,zero
 80039d8:	80011880 	call	8001188 <IO_write>
	IO_write(HPI_DATA,0x0002);
 80039dc:	01400084 	movi	r5,2
 80039e0:	0009883a 	mov	r4,zero
 80039e4:	80011880 	call	8001188 <IO_write>
	IO_write(HPI_DATA,0x0000);
 80039e8:	000b883a 	mov	r5,zero
 80039ec:	0009883a 	mov	r4,zero
 80039f0:	80011880 	call	8001188 <IO_write>
	IO_write(HPI_DATA,0x0000);
 80039f4:	000b883a 	mov	r5,zero
 80039f8:	0009883a 	mov	r4,zero
 80039fc:	80011880 	call	8001188 <IO_write>
	// TD #3: 6 writes
	// TASK: Complete with 6 IOWR functions
	IO_write(HPI_DATA,0x0000); //
 8003a00:	000b883a 	mov	r5,zero
 8003a04:	0009883a 	mov	r4,zero
 8003a08:	80011880 	call	8001188 <IO_write>
	IO_write(HPI_DATA,0x0000);//
 8003a0c:	000b883a 	mov	r5,zero
 8003a10:	0009883a 	mov	r4,zero
 8003a14:	80011880 	call	8001188 <IO_write>
	IO_write(HPI_DATA,0x0090);//
 8003a18:	01402404 	movi	r5,144
 8003a1c:	0009883a 	mov	r4,zero
 8003a20:	80011880 	call	8001188 <IO_write>
	IO_write(HPI_DATA,0x0041);
 8003a24:	01401044 	movi	r5,65
 8003a28:	0009883a 	mov	r4,zero
 8003a2c:	80011880 	call	8001188 <IO_write>
	IO_write(HPI_DATA,0x0013);
 8003a30:	014004c4 	movi	r5,19
 8003a34:	0009883a 	mov	r4,zero
 8003a38:	80011880 	call	8001188 <IO_write>
	IO_write(HPI_DATA,0x0000);
 8003a3c:	000b883a 	mov	r5,zero
 8003a40:	0009883a 	mov	r4,zero
 8003a44:	80011880 	call	8001188 <IO_write>

	UsbWrite(HUSB_SIE1_pCurrentTDPtr,0x0500); //HUSB_SIE1_pCurrentTDPtr
 8003a48:	01414004 	movi	r5,1280
 8003a4c:	01006c04 	movi	r4,432
 8003a50:	800381c0 	call	800381c <UsbWrite>
}
 8003a54:	0001883a 	nop
 8003a58:	e037883a 	mov	sp,fp
 8003a5c:	dfc00117 	ldw	ra,4(sp)
 8003a60:	df000017 	ldw	fp,0(sp)
 8003a64:	dec00204 	addi	sp,sp,8
 8003a68:	f800283a 	ret

08003a6c <UsbGetDeviceDesc1>:


void UsbGetDeviceDesc1()
{
 8003a6c:	defffe04 	addi	sp,sp,-8
 8003a70:	dfc00115 	stw	ra,4(sp)
 8003a74:	df000015 	stw	fp,0(sp)
 8003a78:	d839883a 	mov	fp,sp
	//the starting address
	IO_write(HPI_ADDR,0x0500); //the start address
 8003a7c:	01414004 	movi	r5,1280
 8003a80:	01000084 	movi	r4,2
 8003a84:	80011880 	call	8001188 <IO_write>
	IO_write(HPI_DATA,0x050C);
 8003a88:	01414304 	movi	r5,1292
 8003a8c:	0009883a 	mov	r4,zero
 8003a90:	80011880 	call	8001188 <IO_write>
	IO_write(HPI_DATA,0x0008); //4 port number
 8003a94:	01400204 	movi	r5,8
 8003a98:	0009883a 	mov	r4,zero
 8003a9c:	80011880 	call	8001188 <IO_write>
	IO_write(HPI_DATA,0x02D0); //device address
 8003aa0:	0140b404 	movi	r5,720
 8003aa4:	0009883a 	mov	r4,zero
 8003aa8:	80011880 	call	8001188 <IO_write>
	IO_write(HPI_DATA,0x0001);
 8003aac:	01400044 	movi	r5,1
 8003ab0:	0009883a 	mov	r4,zero
 8003ab4:	80011880 	call	8001188 <IO_write>
	IO_write(HPI_DATA,0x0013);
 8003ab8:	014004c4 	movi	r5,19
 8003abc:	0009883a 	mov	r4,zero
 8003ac0:	80011880 	call	8001188 <IO_write>
	IO_write(HPI_DATA,0x0514);
 8003ac4:	01414504 	movi	r5,1300
 8003ac8:	0009883a 	mov	r4,zero
 8003acc:	80011880 	call	8001188 <IO_write>

	//td content 4 bytes
	IO_write(HPI_DATA,0x0680);//c
 8003ad0:	0141a004 	movi	r5,1664
 8003ad4:	0009883a 	mov	r4,zero
 8003ad8:	80011880 	call	8001188 <IO_write>
	IO_write(HPI_DATA,0x0100); //device 0x01
 8003adc:	01404004 	movi	r5,256
 8003ae0:	0009883a 	mov	r4,zero
 8003ae4:	80011880 	call	8001188 <IO_write>
	IO_write(HPI_DATA,0x0000);
 8003ae8:	000b883a 	mov	r5,zero
 8003aec:	0009883a 	mov	r4,zero
 8003af0:	80011880 	call	8001188 <IO_write>
	IO_write(HPI_DATA,0x0008);
 8003af4:	01400204 	movi	r5,8
 8003af8:	0009883a 	mov	r4,zero
 8003afc:	80011880 	call	8001188 <IO_write>

	//data phase IN
	IO_write(HPI_DATA,0x052C); //
 8003b00:	01414b04 	movi	r5,1324
 8003b04:	0009883a 	mov	r4,zero
 8003b08:	80011880 	call	8001188 <IO_write>
	IO_write(HPI_DATA,0x0008);//
 8003b0c:	01400204 	movi	r5,8
 8003b10:	0009883a 	mov	r4,zero
 8003b14:	80011880 	call	8001188 <IO_write>
	IO_write(HPI_DATA,0x0290);//
 8003b18:	0140a404 	movi	r5,656
 8003b1c:	0009883a 	mov	r4,zero
 8003b20:	80011880 	call	8001188 <IO_write>
	IO_write(HPI_DATA,0x0041);
 8003b24:	01401044 	movi	r5,65
 8003b28:	0009883a 	mov	r4,zero
 8003b2c:	80011880 	call	8001188 <IO_write>
	IO_write(HPI_DATA,0x0013);
 8003b30:	014004c4 	movi	r5,19
 8003b34:	0009883a 	mov	r4,zero
 8003b38:	80011880 	call	8001188 <IO_write>
	IO_write(HPI_DATA,0x0520);
 8003b3c:	01414804 	movi	r5,1312
 8003b40:	0009883a 	mov	r4,zero
 8003b44:	80011880 	call	8001188 <IO_write>

	//    //status phase
	IO_write(HPI_DATA,0x0000); //don't care
 8003b48:	000b883a 	mov	r5,zero
 8003b4c:	0009883a 	mov	r4,zero
 8003b50:	80011880 	call	8001188 <IO_write>
	IO_write(HPI_DATA,0x0000);//port number
 8003b54:	000b883a 	mov	r5,zero
 8003b58:	0009883a 	mov	r4,zero
 8003b5c:	80011880 	call	8001188 <IO_write>
	IO_write(HPI_DATA,0x0210);//device address
 8003b60:	01408404 	movi	r5,528
 8003b64:	0009883a 	mov	r4,zero
 8003b68:	80011880 	call	8001188 <IO_write>
	IO_write(HPI_DATA,0x0041);
 8003b6c:	01401044 	movi	r5,65
 8003b70:	0009883a 	mov	r4,zero
 8003b74:	80011880 	call	8001188 <IO_write>
	IO_write(HPI_DATA,0x0013);
 8003b78:	014004c4 	movi	r5,19
 8003b7c:	0009883a 	mov	r4,zero
 8003b80:	80011880 	call	8001188 <IO_write>
	IO_write(HPI_DATA,0x0000);
 8003b84:	000b883a 	mov	r5,zero
 8003b88:	0009883a 	mov	r4,zero
 8003b8c:	80011880 	call	8001188 <IO_write>

	UsbWrite(HUSB_SIE1_pCurrentTDPtr,0x0500); //HUSB_SIE1_pCurrentTDPtr
 8003b90:	01414004 	movi	r5,1280
 8003b94:	01006c04 	movi	r4,432
 8003b98:	800381c0 	call	800381c <UsbWrite>
}
 8003b9c:	0001883a 	nop
 8003ba0:	e037883a 	mov	sp,fp
 8003ba4:	dfc00117 	ldw	ra,4(sp)
 8003ba8:	df000017 	ldw	fp,0(sp)
 8003bac:	dec00204 	addi	sp,sp,8
 8003bb0:	f800283a 	ret

08003bb4 <UsbGetDeviceDesc2>:

void UsbGetDeviceDesc2()
{
 8003bb4:	defffe04 	addi	sp,sp,-8
 8003bb8:	dfc00115 	stw	ra,4(sp)
 8003bbc:	df000015 	stw	fp,0(sp)
 8003bc0:	d839883a 	mov	fp,sp
	//the starting address
	IO_write(HPI_ADDR,0x0500); //the start address
 8003bc4:	01414004 	movi	r5,1280
 8003bc8:	01000084 	movi	r4,2
 8003bcc:	80011880 	call	8001188 <IO_write>
	IO_write(HPI_DATA,0x050C);
 8003bd0:	01414304 	movi	r5,1292
 8003bd4:	0009883a 	mov	r4,zero
 8003bd8:	80011880 	call	8001188 <IO_write>
	IO_write(HPI_DATA,0x0008); //4 port number
 8003bdc:	01400204 	movi	r5,8
 8003be0:	0009883a 	mov	r4,zero
 8003be4:	80011880 	call	8001188 <IO_write>
	IO_write(HPI_DATA,0x02D0); //device address
 8003be8:	0140b404 	movi	r5,720
 8003bec:	0009883a 	mov	r4,zero
 8003bf0:	80011880 	call	8001188 <IO_write>
	IO_write(HPI_DATA,0x0001);
 8003bf4:	01400044 	movi	r5,1
 8003bf8:	0009883a 	mov	r4,zero
 8003bfc:	80011880 	call	8001188 <IO_write>
	IO_write(HPI_DATA,0x0013);
 8003c00:	014004c4 	movi	r5,19
 8003c04:	0009883a 	mov	r4,zero
 8003c08:	80011880 	call	8001188 <IO_write>
	IO_write(HPI_DATA,0x0514);
 8003c0c:	01414504 	movi	r5,1300
 8003c10:	0009883a 	mov	r4,zero
 8003c14:	80011880 	call	8001188 <IO_write>

	//td content 4 bytes
	IO_write(HPI_DATA,0x0680);//c
 8003c18:	0141a004 	movi	r5,1664
 8003c1c:	0009883a 	mov	r4,zero
 8003c20:	80011880 	call	8001188 <IO_write>
	IO_write(HPI_DATA,0x0100);//e //device 0x01
 8003c24:	01404004 	movi	r5,256
 8003c28:	0009883a 	mov	r4,zero
 8003c2c:	80011880 	call	8001188 <IO_write>
	IO_write(HPI_DATA,0x0000);//0
 8003c30:	000b883a 	mov	r5,zero
 8003c34:	0009883a 	mov	r4,zero
 8003c38:	80011880 	call	8001188 <IO_write>
	IO_write(HPI_DATA,0x0012);//2
 8003c3c:	01400484 	movi	r5,18
 8003c40:	0009883a 	mov	r4,zero
 8003c44:	80011880 	call	8001188 <IO_write>

	//data phase IN-1
	IO_write(HPI_DATA,0x0544); //514
 8003c48:	01415104 	movi	r5,1348
 8003c4c:	0009883a 	mov	r4,zero
 8003c50:	80011880 	call	8001188 <IO_write>
	IO_write(HPI_DATA,0x0008);//6
 8003c54:	01400204 	movi	r5,8
 8003c58:	0009883a 	mov	r4,zero
 8003c5c:	80011880 	call	8001188 <IO_write>
	IO_write(HPI_DATA,0x0290);//8
 8003c60:	0140a404 	movi	r5,656
 8003c64:	0009883a 	mov	r4,zero
 8003c68:	80011880 	call	8001188 <IO_write>
	IO_write(HPI_DATA,0x0041);//a
 8003c6c:	01401044 	movi	r5,65
 8003c70:	0009883a 	mov	r4,zero
 8003c74:	80011880 	call	8001188 <IO_write>
	IO_write(HPI_DATA,0x0013);//c
 8003c78:	014004c4 	movi	r5,19
 8003c7c:	0009883a 	mov	r4,zero
 8003c80:	80011880 	call	8001188 <IO_write>
	IO_write(HPI_DATA,0x0520);//e
 8003c84:	01414804 	movi	r5,1312
 8003c88:	0009883a 	mov	r4,zero
 8003c8c:	80011880 	call	8001188 <IO_write>

	//data phase IN-2
	IO_write(HPI_DATA,0x054c); //520
 8003c90:	01415304 	movi	r5,1356
 8003c94:	0009883a 	mov	r4,zero
 8003c98:	80011880 	call	8001188 <IO_write>
	IO_write(HPI_DATA,0x0008);//2
 8003c9c:	01400204 	movi	r5,8
 8003ca0:	0009883a 	mov	r4,zero
 8003ca4:	80011880 	call	8001188 <IO_write>
	IO_write(HPI_DATA,0x0290);//4
 8003ca8:	0140a404 	movi	r5,656
 8003cac:	0009883a 	mov	r4,zero
 8003cb0:	80011880 	call	8001188 <IO_write>
	IO_write(HPI_DATA,0x0001);//6
 8003cb4:	01400044 	movi	r5,1
 8003cb8:	0009883a 	mov	r4,zero
 8003cbc:	80011880 	call	8001188 <IO_write>
	IO_write(HPI_DATA,0x0013);//8
 8003cc0:	014004c4 	movi	r5,19
 8003cc4:	0009883a 	mov	r4,zero
 8003cc8:	80011880 	call	8001188 <IO_write>
	IO_write(HPI_DATA,0x052c);//a
 8003ccc:	01414b04 	movi	r5,1324
 8003cd0:	0009883a 	mov	r4,zero
 8003cd4:	80011880 	call	8001188 <IO_write>

	//data phase IN-3
	IO_write(HPI_DATA,0x0554); //c
 8003cd8:	01415504 	movi	r5,1364
 8003cdc:	0009883a 	mov	r4,zero
 8003ce0:	80011880 	call	8001188 <IO_write>
	IO_write(HPI_DATA,0x0002);//e
 8003ce4:	01400084 	movi	r5,2
 8003ce8:	0009883a 	mov	r4,zero
 8003cec:	80011880 	call	8001188 <IO_write>
	IO_write(HPI_DATA,0x0290);//530
 8003cf0:	0140a404 	movi	r5,656
 8003cf4:	0009883a 	mov	r4,zero
 8003cf8:	80011880 	call	8001188 <IO_write>
	IO_write(HPI_DATA,0x0041);//2
 8003cfc:	01401044 	movi	r5,65
 8003d00:	0009883a 	mov	r4,zero
 8003d04:	80011880 	call	8001188 <IO_write>
	IO_write(HPI_DATA,0x0013);//4
 8003d08:	014004c4 	movi	r5,19
 8003d0c:	0009883a 	mov	r4,zero
 8003d10:	80011880 	call	8001188 <IO_write>
	IO_write(HPI_DATA,0x0538);//6
 8003d14:	01414e04 	movi	r5,1336
 8003d18:	0009883a 	mov	r4,zero
 8003d1c:	80011880 	call	8001188 <IO_write>

	//status phase
	IO_write(HPI_DATA,0x0000); //538
 8003d20:	000b883a 	mov	r5,zero
 8003d24:	0009883a 	mov	r4,zero
 8003d28:	80011880 	call	8001188 <IO_write>
	IO_write(HPI_DATA,0x0000);//a
 8003d2c:	000b883a 	mov	r5,zero
 8003d30:	0009883a 	mov	r4,zero
 8003d34:	80011880 	call	8001188 <IO_write>
	IO_write(HPI_DATA,0x0210);//c
 8003d38:	01408404 	movi	r5,528
 8003d3c:	0009883a 	mov	r4,zero
 8003d40:	80011880 	call	8001188 <IO_write>
	IO_write(HPI_DATA,0x0041);//e
 8003d44:	01401044 	movi	r5,65
 8003d48:	0009883a 	mov	r4,zero
 8003d4c:	80011880 	call	8001188 <IO_write>
	IO_write(HPI_DATA,0x0013);//540
 8003d50:	014004c4 	movi	r5,19
 8003d54:	0009883a 	mov	r4,zero
 8003d58:	80011880 	call	8001188 <IO_write>
	IO_write(HPI_DATA,0x0000);//2
 8003d5c:	000b883a 	mov	r5,zero
 8003d60:	0009883a 	mov	r4,zero
 8003d64:	80011880 	call	8001188 <IO_write>

	UsbWrite(HUSB_SIE1_pCurrentTDPtr,0x0500); //HUSB_SIE1_pCurrentTDPtr
 8003d68:	01414004 	movi	r5,1280
 8003d6c:	01006c04 	movi	r4,432
 8003d70:	800381c0 	call	800381c <UsbWrite>
}
 8003d74:	0001883a 	nop
 8003d78:	e037883a 	mov	sp,fp
 8003d7c:	dfc00117 	ldw	ra,4(sp)
 8003d80:	df000017 	ldw	fp,0(sp)
 8003d84:	dec00204 	addi	sp,sp,8
 8003d88:	f800283a 	ret

08003d8c <UsbGetConfigDesc1>:


void UsbGetConfigDesc1()
{
 8003d8c:	defffe04 	addi	sp,sp,-8
 8003d90:	dfc00115 	stw	ra,4(sp)
 8003d94:	df000015 	stw	fp,0(sp)
 8003d98:	d839883a 	mov	fp,sp
	//the starting address
	IO_write(HPI_ADDR,0x0500); //the start address
 8003d9c:	01414004 	movi	r5,1280
 8003da0:	01000084 	movi	r4,2
 8003da4:	80011880 	call	8001188 <IO_write>
	IO_write(HPI_DATA,0x050C);
 8003da8:	01414304 	movi	r5,1292
 8003dac:	0009883a 	mov	r4,zero
 8003db0:	80011880 	call	8001188 <IO_write>
	IO_write(HPI_DATA,0x0008); //4 port number
 8003db4:	01400204 	movi	r5,8
 8003db8:	0009883a 	mov	r4,zero
 8003dbc:	80011880 	call	8001188 <IO_write>
	IO_write(HPI_DATA,0x02D0); //device address
 8003dc0:	0140b404 	movi	r5,720
 8003dc4:	0009883a 	mov	r4,zero
 8003dc8:	80011880 	call	8001188 <IO_write>
	IO_write(HPI_DATA,0x0001);
 8003dcc:	01400044 	movi	r5,1
 8003dd0:	0009883a 	mov	r4,zero
 8003dd4:	80011880 	call	8001188 <IO_write>
	IO_write(HPI_DATA,0x0013);
 8003dd8:	014004c4 	movi	r5,19
 8003ddc:	0009883a 	mov	r4,zero
 8003de0:	80011880 	call	8001188 <IO_write>
	IO_write(HPI_DATA,0x0514);
 8003de4:	01414504 	movi	r5,1300
 8003de8:	0009883a 	mov	r4,zero
 8003dec:	80011880 	call	8001188 <IO_write>

	//td content 4 bytes
	IO_write(HPI_DATA,0x0680);//c
 8003df0:	0141a004 	movi	r5,1664
 8003df4:	0009883a 	mov	r4,zero
 8003df8:	80011880 	call	8001188 <IO_write>
	IO_write(HPI_DATA,0x0200);//e //config 0x02
 8003dfc:	01408004 	movi	r5,512
 8003e00:	0009883a 	mov	r4,zero
 8003e04:	80011880 	call	8001188 <IO_write>
	IO_write(HPI_DATA,0x0000);//0
 8003e08:	000b883a 	mov	r5,zero
 8003e0c:	0009883a 	mov	r4,zero
 8003e10:	80011880 	call	8001188 <IO_write>
	IO_write(HPI_DATA,0x0009);//2
 8003e14:	01400244 	movi	r5,9
 8003e18:	0009883a 	mov	r4,zero
 8003e1c:	80011880 	call	8001188 <IO_write>

	//data phase IN-1
	IO_write(HPI_DATA,0x0544); //514
 8003e20:	01415104 	movi	r5,1348
 8003e24:	0009883a 	mov	r4,zero
 8003e28:	80011880 	call	8001188 <IO_write>
	IO_write(HPI_DATA,0x0008);//6
 8003e2c:	01400204 	movi	r5,8
 8003e30:	0009883a 	mov	r4,zero
 8003e34:	80011880 	call	8001188 <IO_write>
	IO_write(HPI_DATA,0x0290);//8
 8003e38:	0140a404 	movi	r5,656
 8003e3c:	0009883a 	mov	r4,zero
 8003e40:	80011880 	call	8001188 <IO_write>
	IO_write(HPI_DATA,0x0041);//a
 8003e44:	01401044 	movi	r5,65
 8003e48:	0009883a 	mov	r4,zero
 8003e4c:	80011880 	call	8001188 <IO_write>
	IO_write(HPI_DATA,0x0013);//c
 8003e50:	014004c4 	movi	r5,19
 8003e54:	0009883a 	mov	r4,zero
 8003e58:	80011880 	call	8001188 <IO_write>
	IO_write(HPI_DATA,0x0520);//e
 8003e5c:	01414804 	movi	r5,1312
 8003e60:	0009883a 	mov	r4,zero
 8003e64:	80011880 	call	8001188 <IO_write>

	//data phase IN-2
	IO_write(HPI_DATA,0x054c); //520
 8003e68:	01415304 	movi	r5,1356
 8003e6c:	0009883a 	mov	r4,zero
 8003e70:	80011880 	call	8001188 <IO_write>
	IO_write(HPI_DATA,0x0001);//2
 8003e74:	01400044 	movi	r5,1
 8003e78:	0009883a 	mov	r4,zero
 8003e7c:	80011880 	call	8001188 <IO_write>
	IO_write(HPI_DATA,0x0290);//4
 8003e80:	0140a404 	movi	r5,656
 8003e84:	0009883a 	mov	r4,zero
 8003e88:	80011880 	call	8001188 <IO_write>
	IO_write(HPI_DATA,0x0001);//6 //data0
 8003e8c:	01400044 	movi	r5,1
 8003e90:	0009883a 	mov	r4,zero
 8003e94:	80011880 	call	8001188 <IO_write>
	IO_write(HPI_DATA,0x0013);//8
 8003e98:	014004c4 	movi	r5,19
 8003e9c:	0009883a 	mov	r4,zero
 8003ea0:	80011880 	call	8001188 <IO_write>
	IO_write(HPI_DATA,0x052c);//a
 8003ea4:	01414b04 	movi	r5,1324
 8003ea8:	0009883a 	mov	r4,zero
 8003eac:	80011880 	call	8001188 <IO_write>

	//status phase
	IO_write(HPI_DATA,0x0000); //52c
 8003eb0:	000b883a 	mov	r5,zero
 8003eb4:	0009883a 	mov	r4,zero
 8003eb8:	80011880 	call	8001188 <IO_write>
	IO_write(HPI_DATA,0x0000);//e
 8003ebc:	000b883a 	mov	r5,zero
 8003ec0:	0009883a 	mov	r4,zero
 8003ec4:	80011880 	call	8001188 <IO_write>
	IO_write(HPI_DATA,0x0210);//530
 8003ec8:	01408404 	movi	r5,528
 8003ecc:	0009883a 	mov	r4,zero
 8003ed0:	80011880 	call	8001188 <IO_write>
	IO_write(HPI_DATA,0x0041);//2
 8003ed4:	01401044 	movi	r5,65
 8003ed8:	0009883a 	mov	r4,zero
 8003edc:	80011880 	call	8001188 <IO_write>
	IO_write(HPI_DATA,0x0013);//4
 8003ee0:	014004c4 	movi	r5,19
 8003ee4:	0009883a 	mov	r4,zero
 8003ee8:	80011880 	call	8001188 <IO_write>
	IO_write(HPI_DATA,0x0000);//6
 8003eec:	000b883a 	mov	r5,zero
 8003ef0:	0009883a 	mov	r4,zero
 8003ef4:	80011880 	call	8001188 <IO_write>

	UsbWrite(HUSB_SIE1_pCurrentTDPtr,0x0500); //HUSB_SIE1_pCurrentTDPtr
 8003ef8:	01414004 	movi	r5,1280
 8003efc:	01006c04 	movi	r4,432
 8003f00:	800381c0 	call	800381c <UsbWrite>
}
 8003f04:	0001883a 	nop
 8003f08:	e037883a 	mov	sp,fp
 8003f0c:	dfc00117 	ldw	ra,4(sp)
 8003f10:	df000017 	ldw	fp,0(sp)
 8003f14:	dec00204 	addi	sp,sp,8
 8003f18:	f800283a 	ret

08003f1c <UsbGetConfigDesc2>:


void UsbGetConfigDesc2()
{
 8003f1c:	defffe04 	addi	sp,sp,-8
 8003f20:	dfc00115 	stw	ra,4(sp)
 8003f24:	df000015 	stw	fp,0(sp)
 8003f28:	d839883a 	mov	fp,sp
	//the starting address
	IO_write(HPI_ADDR,0x0500); //the start address
 8003f2c:	01414004 	movi	r5,1280
 8003f30:	01000084 	movi	r4,2
 8003f34:	80011880 	call	8001188 <IO_write>
	IO_write(HPI_DATA,0x050C);
 8003f38:	01414304 	movi	r5,1292
 8003f3c:	0009883a 	mov	r4,zero
 8003f40:	80011880 	call	8001188 <IO_write>
	IO_write(HPI_DATA,0x0008); //4 port number
 8003f44:	01400204 	movi	r5,8
 8003f48:	0009883a 	mov	r4,zero
 8003f4c:	80011880 	call	8001188 <IO_write>
	IO_write(HPI_DATA,0x02D0); //device address
 8003f50:	0140b404 	movi	r5,720
 8003f54:	0009883a 	mov	r4,zero
 8003f58:	80011880 	call	8001188 <IO_write>
	IO_write(HPI_DATA,0x0001);
 8003f5c:	01400044 	movi	r5,1
 8003f60:	0009883a 	mov	r4,zero
 8003f64:	80011880 	call	8001188 <IO_write>
	IO_write(HPI_DATA,0x0013);
 8003f68:	014004c4 	movi	r5,19
 8003f6c:	0009883a 	mov	r4,zero
 8003f70:	80011880 	call	8001188 <IO_write>
	IO_write(HPI_DATA,0x0514);
 8003f74:	01414504 	movi	r5,1300
 8003f78:	0009883a 	mov	r4,zero
 8003f7c:	80011880 	call	8001188 <IO_write>

	//td content 4 bytes
	IO_write(HPI_DATA,0x0680);//c
 8003f80:	0141a004 	movi	r5,1664
 8003f84:	0009883a 	mov	r4,zero
 8003f88:	80011880 	call	8001188 <IO_write>
	IO_write(HPI_DATA,0x0200);//e //config 0x02
 8003f8c:	01408004 	movi	r5,512
 8003f90:	0009883a 	mov	r4,zero
 8003f94:	80011880 	call	8001188 <IO_write>
	IO_write(HPI_DATA,0x0000);//0
 8003f98:	000b883a 	mov	r5,zero
 8003f9c:	0009883a 	mov	r4,zero
 8003fa0:	80011880 	call	8001188 <IO_write>
	IO_write(HPI_DATA,0x00FF);//2
 8003fa4:	01403fc4 	movi	r5,255
 8003fa8:	0009883a 	mov	r4,zero
 8003fac:	80011880 	call	8001188 <IO_write>

	//data phase IN-1
	IO_write(HPI_DATA,0x055c); //514
 8003fb0:	01415704 	movi	r5,1372
 8003fb4:	0009883a 	mov	r4,zero
 8003fb8:	80011880 	call	8001188 <IO_write>
	IO_write(HPI_DATA,0x0008);//6
 8003fbc:	01400204 	movi	r5,8
 8003fc0:	0009883a 	mov	r4,zero
 8003fc4:	80011880 	call	8001188 <IO_write>
	IO_write(HPI_DATA,0x0290);//8
 8003fc8:	0140a404 	movi	r5,656
 8003fcc:	0009883a 	mov	r4,zero
 8003fd0:	80011880 	call	8001188 <IO_write>
	IO_write(HPI_DATA,0x0041);//a
 8003fd4:	01401044 	movi	r5,65
 8003fd8:	0009883a 	mov	r4,zero
 8003fdc:	80011880 	call	8001188 <IO_write>
	IO_write(HPI_DATA,0x0013);//c
 8003fe0:	014004c4 	movi	r5,19
 8003fe4:	0009883a 	mov	r4,zero
 8003fe8:	80011880 	call	8001188 <IO_write>
	IO_write(HPI_DATA,0x0520);//e
 8003fec:	01414804 	movi	r5,1312
 8003ff0:	0009883a 	mov	r4,zero
 8003ff4:	80011880 	call	8001188 <IO_write>

	//data phase IN-2
	IO_write(HPI_DATA,0x0564); //520
 8003ff8:	01415904 	movi	r5,1380
 8003ffc:	0009883a 	mov	r4,zero
 8004000:	80011880 	call	8001188 <IO_write>
	IO_write(HPI_DATA,0x0008);//2
 8004004:	01400204 	movi	r5,8
 8004008:	0009883a 	mov	r4,zero
 800400c:	80011880 	call	8001188 <IO_write>
	IO_write(HPI_DATA,0x0290);//4
 8004010:	0140a404 	movi	r5,656
 8004014:	0009883a 	mov	r4,zero
 8004018:	80011880 	call	8001188 <IO_write>
	IO_write(HPI_DATA,0x0001);//6 //data0
 800401c:	01400044 	movi	r5,1
 8004020:	0009883a 	mov	r4,zero
 8004024:	80011880 	call	8001188 <IO_write>
	IO_write(HPI_DATA,0x0013);//8
 8004028:	014004c4 	movi	r5,19
 800402c:	0009883a 	mov	r4,zero
 8004030:	80011880 	call	8001188 <IO_write>
	IO_write(HPI_DATA,0x052c);//a
 8004034:	01414b04 	movi	r5,1324
 8004038:	0009883a 	mov	r4,zero
 800403c:	80011880 	call	8001188 <IO_write>

	//data phase IN-3
	IO_write(HPI_DATA,0x056c); //52c
 8004040:	01415b04 	movi	r5,1388
 8004044:	0009883a 	mov	r4,zero
 8004048:	80011880 	call	8001188 <IO_write>
	IO_write(HPI_DATA,0x0008);//e
 800404c:	01400204 	movi	r5,8
 8004050:	0009883a 	mov	r4,zero
 8004054:	80011880 	call	8001188 <IO_write>
	IO_write(HPI_DATA,0x0290);//530
 8004058:	0140a404 	movi	r5,656
 800405c:	0009883a 	mov	r4,zero
 8004060:	80011880 	call	8001188 <IO_write>
	IO_write(HPI_DATA,0x0041);//2
 8004064:	01401044 	movi	r5,65
 8004068:	0009883a 	mov	r4,zero
 800406c:	80011880 	call	8001188 <IO_write>
	IO_write(HPI_DATA,0x0013);//4
 8004070:	014004c4 	movi	r5,19
 8004074:	0009883a 	mov	r4,zero
 8004078:	80011880 	call	8001188 <IO_write>
	IO_write(HPI_DATA,0x0538);//6
 800407c:	01414e04 	movi	r5,1336
 8004080:	0009883a 	mov	r4,zero
 8004084:	80011880 	call	8001188 <IO_write>

	//data phase IN-4
	IO_write(HPI_DATA,0x0574); //538
 8004088:	01415d04 	movi	r5,1396
 800408c:	0009883a 	mov	r4,zero
 8004090:	80011880 	call	8001188 <IO_write>
	IO_write(HPI_DATA,0x0008);//a
 8004094:	01400204 	movi	r5,8
 8004098:	0009883a 	mov	r4,zero
 800409c:	80011880 	call	8001188 <IO_write>
	IO_write(HPI_DATA,0x0290);//c
 80040a0:	0140a404 	movi	r5,656
 80040a4:	0009883a 	mov	r4,zero
 80040a8:	80011880 	call	8001188 <IO_write>
	IO_write(HPI_DATA,0x0001);//e //data0
 80040ac:	01400044 	movi	r5,1
 80040b0:	0009883a 	mov	r4,zero
 80040b4:	80011880 	call	8001188 <IO_write>
	IO_write(HPI_DATA,0x0013);//540
 80040b8:	014004c4 	movi	r5,19
 80040bc:	0009883a 	mov	r4,zero
 80040c0:	80011880 	call	8001188 <IO_write>
	IO_write(HPI_DATA,0x0544);//2
 80040c4:	01415104 	movi	r5,1348
 80040c8:	0009883a 	mov	r4,zero
 80040cc:	80011880 	call	8001188 <IO_write>

	//data phase IN-5
	IO_write(HPI_DATA,0x057c); //544
 80040d0:	01415f04 	movi	r5,1404
 80040d4:	0009883a 	mov	r4,zero
 80040d8:	80011880 	call	8001188 <IO_write>
	IO_write(HPI_DATA,0x0002);//6
 80040dc:	01400084 	movi	r5,2
 80040e0:	0009883a 	mov	r4,zero
 80040e4:	80011880 	call	8001188 <IO_write>
	IO_write(HPI_DATA,0x0290);//8
 80040e8:	0140a404 	movi	r5,656
 80040ec:	0009883a 	mov	r4,zero
 80040f0:	80011880 	call	8001188 <IO_write>
	IO_write(HPI_DATA,0x0041);//a //data1
 80040f4:	01401044 	movi	r5,65
 80040f8:	0009883a 	mov	r4,zero
 80040fc:	80011880 	call	8001188 <IO_write>
	IO_write(HPI_DATA,0x0013);//c
 8004100:	014004c4 	movi	r5,19
 8004104:	0009883a 	mov	r4,zero
 8004108:	80011880 	call	8001188 <IO_write>
	IO_write(HPI_DATA,0x0550);//e
 800410c:	01415404 	movi	r5,1360
 8004110:	0009883a 	mov	r4,zero
 8004114:	80011880 	call	8001188 <IO_write>

	//status phase
	IO_write(HPI_DATA,0x0000); //550
 8004118:	000b883a 	mov	r5,zero
 800411c:	0009883a 	mov	r4,zero
 8004120:	80011880 	call	8001188 <IO_write>
	IO_write(HPI_DATA,0x0000);//2
 8004124:	000b883a 	mov	r5,zero
 8004128:	0009883a 	mov	r4,zero
 800412c:	80011880 	call	8001188 <IO_write>
	IO_write(HPI_DATA,0x0210);//4
 8004130:	01408404 	movi	r5,528
 8004134:	0009883a 	mov	r4,zero
 8004138:	80011880 	call	8001188 <IO_write>
	IO_write(HPI_DATA,0x0041);//6
 800413c:	01401044 	movi	r5,65
 8004140:	0009883a 	mov	r4,zero
 8004144:	80011880 	call	8001188 <IO_write>
	IO_write(HPI_DATA,0x0013);//8
 8004148:	014004c4 	movi	r5,19
 800414c:	0009883a 	mov	r4,zero
 8004150:	80011880 	call	8001188 <IO_write>
	IO_write(HPI_DATA,0x0000);//a
 8004154:	000b883a 	mov	r5,zero
 8004158:	0009883a 	mov	r4,zero
 800415c:	80011880 	call	8001188 <IO_write>

	UsbWrite(HUSB_SIE1_pCurrentTDPtr,0x0500); //HUSB_SIE1_pCurrentTDPtr
 8004160:	01414004 	movi	r5,1280
 8004164:	01006c04 	movi	r4,432
 8004168:	800381c0 	call	800381c <UsbWrite>
}
 800416c:	0001883a 	nop
 8004170:	e037883a 	mov	sp,fp
 8004174:	dfc00117 	ldw	ra,4(sp)
 8004178:	df000017 	ldw	fp,0(sp)
 800417c:	dec00204 	addi	sp,sp,8
 8004180:	f800283a 	ret

08004184 <UsbSetConfig>:

void UsbSetConfig()
{
 8004184:	defffe04 	addi	sp,sp,-8
 8004188:	dfc00115 	stw	ra,4(sp)
 800418c:	df000015 	stw	fp,0(sp)
 8004190:	d839883a 	mov	fp,sp
	//the starting address
	IO_write(HPI_ADDR,0x0500); //the start address
 8004194:	01414004 	movi	r5,1280
 8004198:	01000084 	movi	r4,2
 800419c:	80011880 	call	8001188 <IO_write>
	IO_write(HPI_DATA,0x050C);
 80041a0:	01414304 	movi	r5,1292
 80041a4:	0009883a 	mov	r4,zero
 80041a8:	80011880 	call	8001188 <IO_write>
	IO_write(HPI_DATA,0x0008); //4 port number
 80041ac:	01400204 	movi	r5,8
 80041b0:	0009883a 	mov	r4,zero
 80041b4:	80011880 	call	8001188 <IO_write>
	IO_write(HPI_DATA,0x02D0); //port address
 80041b8:	0140b404 	movi	r5,720
 80041bc:	0009883a 	mov	r4,zero
 80041c0:	80011880 	call	8001188 <IO_write>
	IO_write(HPI_DATA,0x0001);
 80041c4:	01400044 	movi	r5,1
 80041c8:	0009883a 	mov	r4,zero
 80041cc:	80011880 	call	8001188 <IO_write>
	IO_write(HPI_DATA,0x0013);
 80041d0:	014004c4 	movi	r5,19
 80041d4:	0009883a 	mov	r4,zero
 80041d8:	80011880 	call	8001188 <IO_write>
	IO_write(HPI_DATA,0x0514);
 80041dc:	01414504 	movi	r5,1300
 80041e0:	0009883a 	mov	r4,zero
 80041e4:	80011880 	call	8001188 <IO_write>

	//td content 4 bytes
	IO_write(HPI_DATA,0x0900);
 80041e8:	01424004 	movi	r5,2304
 80041ec:	0009883a 	mov	r4,zero
 80041f0:	80011880 	call	8001188 <IO_write>
	IO_write(HPI_DATA,0x0001);//device address
 80041f4:	01400044 	movi	r5,1
 80041f8:	0009883a 	mov	r4,zero
 80041fc:	80011880 	call	8001188 <IO_write>
	IO_write(HPI_DATA,0x0000);
 8004200:	000b883a 	mov	r5,zero
 8004204:	0009883a 	mov	r4,zero
 8004208:	80011880 	call	8001188 <IO_write>
	IO_write(HPI_DATA,0x0000);
 800420c:	000b883a 	mov	r5,zero
 8004210:	0009883a 	mov	r4,zero
 8004214:	80011880 	call	8001188 <IO_write>
	//in packet
	IO_write(HPI_DATA,0x0000); //don't care
 8004218:	000b883a 	mov	r5,zero
 800421c:	0009883a 	mov	r4,zero
 8004220:	80011880 	call	8001188 <IO_write>
	IO_write(HPI_DATA,0x0000);//port number
 8004224:	000b883a 	mov	r5,zero
 8004228:	0009883a 	mov	r4,zero
 800422c:	80011880 	call	8001188 <IO_write>
	IO_write(HPI_DATA,0x0290);//device address
 8004230:	0140a404 	movi	r5,656
 8004234:	0009883a 	mov	r4,zero
 8004238:	80011880 	call	8001188 <IO_write>
	IO_write(HPI_DATA,0x0041); //data 1
 800423c:	01401044 	movi	r5,65
 8004240:	0009883a 	mov	r4,zero
 8004244:	80011880 	call	8001188 <IO_write>
	IO_write(HPI_DATA,0x0013);
 8004248:	014004c4 	movi	r5,19
 800424c:	0009883a 	mov	r4,zero
 8004250:	80011880 	call	8001188 <IO_write>
	IO_write(HPI_DATA,0x0000);
 8004254:	000b883a 	mov	r5,zero
 8004258:	0009883a 	mov	r4,zero
 800425c:	80011880 	call	8001188 <IO_write>

	UsbWrite(HUSB_SIE1_pCurrentTDPtr,0x0500); //HUSB_SIE1_pCurrentTDPtr
 8004260:	01414004 	movi	r5,1280
 8004264:	01006c04 	movi	r4,432
 8004268:	800381c0 	call	800381c <UsbWrite>

}
 800426c:	0001883a 	nop
 8004270:	e037883a 	mov	sp,fp
 8004274:	dfc00117 	ldw	ra,4(sp)
 8004278:	df000017 	ldw	fp,0(sp)
 800427c:	dec00204 	addi	sp,sp,8
 8004280:	f800283a 	ret

08004284 <UsbClassRequest>:

void UsbClassRequest()
{
 8004284:	defffe04 	addi	sp,sp,-8
 8004288:	dfc00115 	stw	ra,4(sp)
 800428c:	df000015 	stw	fp,0(sp)
 8004290:	d839883a 	mov	fp,sp
	//the starting address
	IO_write(HPI_ADDR,0x0500); //the start address
 8004294:	01414004 	movi	r5,1280
 8004298:	01000084 	movi	r4,2
 800429c:	80011880 	call	8001188 <IO_write>
	IO_write(HPI_DATA,0x050C);
 80042a0:	01414304 	movi	r5,1292
 80042a4:	0009883a 	mov	r4,zero
 80042a8:	80011880 	call	8001188 <IO_write>
	IO_write(HPI_DATA,0x0008); //4 port number
 80042ac:	01400204 	movi	r5,8
 80042b0:	0009883a 	mov	r4,zero
 80042b4:	80011880 	call	8001188 <IO_write>
	IO_write(HPI_DATA,0x02D0); //port address
 80042b8:	0140b404 	movi	r5,720
 80042bc:	0009883a 	mov	r4,zero
 80042c0:	80011880 	call	8001188 <IO_write>
	IO_write(HPI_DATA,0x0001);
 80042c4:	01400044 	movi	r5,1
 80042c8:	0009883a 	mov	r4,zero
 80042cc:	80011880 	call	8001188 <IO_write>
	IO_write(HPI_DATA,0x0013);
 80042d0:	014004c4 	movi	r5,19
 80042d4:	0009883a 	mov	r4,zero
 80042d8:	80011880 	call	8001188 <IO_write>
	IO_write(HPI_DATA,0x0514);
 80042dc:	01414504 	movi	r5,1300
 80042e0:	0009883a 	mov	r4,zero
 80042e4:	80011880 	call	8001188 <IO_write>

	//td content 4 bytes
	IO_write(HPI_DATA,0x0A21);
 80042e8:	01428844 	movi	r5,2593
 80042ec:	0009883a 	mov	r4,zero
 80042f0:	80011880 	call	8001188 <IO_write>
	IO_write(HPI_DATA,0x0000);//device address
 80042f4:	000b883a 	mov	r5,zero
 80042f8:	0009883a 	mov	r4,zero
 80042fc:	80011880 	call	8001188 <IO_write>
	IO_write(HPI_DATA,0x0000);
 8004300:	000b883a 	mov	r5,zero
 8004304:	0009883a 	mov	r4,zero
 8004308:	80011880 	call	8001188 <IO_write>
	IO_write(HPI_DATA,0x0000);
 800430c:	000b883a 	mov	r5,zero
 8004310:	0009883a 	mov	r4,zero
 8004314:	80011880 	call	8001188 <IO_write>
	//in packet
	IO_write(HPI_DATA,0x0000); //don't care
 8004318:	000b883a 	mov	r5,zero
 800431c:	0009883a 	mov	r4,zero
 8004320:	80011880 	call	8001188 <IO_write>
	IO_write(HPI_DATA,0x0000);//port number /data length
 8004324:	000b883a 	mov	r5,zero
 8004328:	0009883a 	mov	r4,zero
 800432c:	80011880 	call	8001188 <IO_write>
	IO_write(HPI_DATA,0x0290);//device address
 8004330:	0140a404 	movi	r5,656
 8004334:	0009883a 	mov	r4,zero
 8004338:	80011880 	call	8001188 <IO_write>
	IO_write(HPI_DATA,0x0041); //data 1
 800433c:	01401044 	movi	r5,65
 8004340:	0009883a 	mov	r4,zero
 8004344:	80011880 	call	8001188 <IO_write>
	IO_write(HPI_DATA,0x0013);
 8004348:	014004c4 	movi	r5,19
 800434c:	0009883a 	mov	r4,zero
 8004350:	80011880 	call	8001188 <IO_write>
	IO_write(HPI_DATA,0x0000);
 8004354:	000b883a 	mov	r5,zero
 8004358:	0009883a 	mov	r4,zero
 800435c:	80011880 	call	8001188 <IO_write>

	UsbWrite(HUSB_SIE1_pCurrentTDPtr,0x0500); //HUSB_SIE1_pCurrentTDPtr
 8004360:	01414004 	movi	r5,1280
 8004364:	01006c04 	movi	r4,432
 8004368:	800381c0 	call	800381c <UsbWrite>
}
 800436c:	0001883a 	nop
 8004370:	e037883a 	mov	sp,fp
 8004374:	dfc00117 	ldw	ra,4(sp)
 8004378:	df000017 	ldw	fp,0(sp)
 800437c:	dec00204 	addi	sp,sp,8
 8004380:	f800283a 	ret

08004384 <UsbGetHidDesc>:


void UsbGetHidDesc()
{
 8004384:	defffe04 	addi	sp,sp,-8
 8004388:	dfc00115 	stw	ra,4(sp)
 800438c:	df000015 	stw	fp,0(sp)
 8004390:	d839883a 	mov	fp,sp
	//the starting address
	IO_write(HPI_ADDR,0x0500); //the start address
 8004394:	01414004 	movi	r5,1280
 8004398:	01000084 	movi	r4,2
 800439c:	80011880 	call	8001188 <IO_write>
	IO_write(HPI_DATA,0x050C);
 80043a0:	01414304 	movi	r5,1292
 80043a4:	0009883a 	mov	r4,zero
 80043a8:	80011880 	call	8001188 <IO_write>
	IO_write(HPI_DATA,0x0008); //4 port number
 80043ac:	01400204 	movi	r5,8
 80043b0:	0009883a 	mov	r4,zero
 80043b4:	80011880 	call	8001188 <IO_write>
	IO_write(HPI_DATA,0x02D0); //port address
 80043b8:	0140b404 	movi	r5,720
 80043bc:	0009883a 	mov	r4,zero
 80043c0:	80011880 	call	8001188 <IO_write>
	IO_write(HPI_DATA,0x0001);
 80043c4:	01400044 	movi	r5,1
 80043c8:	0009883a 	mov	r4,zero
 80043cc:	80011880 	call	8001188 <IO_write>
	IO_write(HPI_DATA,0x0013);
 80043d0:	014004c4 	movi	r5,19
 80043d4:	0009883a 	mov	r4,zero
 80043d8:	80011880 	call	8001188 <IO_write>
	IO_write(HPI_DATA,0x0514);
 80043dc:	01414504 	movi	r5,1300
 80043e0:	0009883a 	mov	r4,zero
 80043e4:	80011880 	call	8001188 <IO_write>

	//td content 4 bytes
	IO_write(HPI_DATA,0x0681);//c
 80043e8:	0141a044 	movi	r5,1665
 80043ec:	0009883a 	mov	r4,zero
 80043f0:	80011880 	call	8001188 <IO_write>
	IO_write(HPI_DATA,0x2100);//e //HID 0x21
 80043f4:	01484004 	movi	r5,8448
 80043f8:	0009883a 	mov	r4,zero
 80043fc:	80011880 	call	8001188 <IO_write>
	IO_write(HPI_DATA,0x0000);//0
 8004400:	000b883a 	mov	r5,zero
 8004404:	0009883a 	mov	r4,zero
 8004408:	80011880 	call	8001188 <IO_write>
	IO_write(HPI_DATA,0x007B);//2
 800440c:	01401ec4 	movi	r5,123
 8004410:	0009883a 	mov	r4,zero
 8004414:	80011880 	call	8001188 <IO_write>

	//data phase IN-1
	IO_write(HPI_DATA,0x0544); //514
 8004418:	01415104 	movi	r5,1348
 800441c:	0009883a 	mov	r4,zero
 8004420:	80011880 	call	8001188 <IO_write>
	IO_write(HPI_DATA,0x0008);//6
 8004424:	01400204 	movi	r5,8
 8004428:	0009883a 	mov	r4,zero
 800442c:	80011880 	call	8001188 <IO_write>
	IO_write(HPI_DATA,0x0290);//8
 8004430:	0140a404 	movi	r5,656
 8004434:	0009883a 	mov	r4,zero
 8004438:	80011880 	call	8001188 <IO_write>
	IO_write(HPI_DATA,0x0041);//a
 800443c:	01401044 	movi	r5,65
 8004440:	0009883a 	mov	r4,zero
 8004444:	80011880 	call	8001188 <IO_write>
	IO_write(HPI_DATA,0x0013);//c
 8004448:	014004c4 	movi	r5,19
 800444c:	0009883a 	mov	r4,zero
 8004450:	80011880 	call	8001188 <IO_write>
	IO_write(HPI_DATA,0x0520);//e
 8004454:	01414804 	movi	r5,1312
 8004458:	0009883a 	mov	r4,zero
 800445c:	80011880 	call	8001188 <IO_write>

	//status phase
	IO_write(HPI_DATA,0x0000); //52c
 8004460:	000b883a 	mov	r5,zero
 8004464:	0009883a 	mov	r4,zero
 8004468:	80011880 	call	8001188 <IO_write>
	IO_write(HPI_DATA,0x0000);//e
 800446c:	000b883a 	mov	r5,zero
 8004470:	0009883a 	mov	r4,zero
 8004474:	80011880 	call	8001188 <IO_write>
	IO_write(HPI_DATA,0x0210);//530
 8004478:	01408404 	movi	r5,528
 800447c:	0009883a 	mov	r4,zero
 8004480:	80011880 	call	8001188 <IO_write>
	IO_write(HPI_DATA,0x0041);//2
 8004484:	01401044 	movi	r5,65
 8004488:	0009883a 	mov	r4,zero
 800448c:	80011880 	call	8001188 <IO_write>
	IO_write(HPI_DATA,0x0013);//4
 8004490:	014004c4 	movi	r5,19
 8004494:	0009883a 	mov	r4,zero
 8004498:	80011880 	call	8001188 <IO_write>
	IO_write(HPI_DATA,0x0000);//6
 800449c:	000b883a 	mov	r5,zero
 80044a0:	0009883a 	mov	r4,zero
 80044a4:	80011880 	call	8001188 <IO_write>

	UsbWrite(HUSB_SIE1_pCurrentTDPtr,0x0500); //HUSB_SIE1_pCurrentTDPtr
 80044a8:	01414004 	movi	r5,1280
 80044ac:	01006c04 	movi	r4,432
 80044b0:	800381c0 	call	800381c <UsbWrite>

}
 80044b4:	0001883a 	nop
 80044b8:	e037883a 	mov	sp,fp
 80044bc:	dfc00117 	ldw	ra,4(sp)
 80044c0:	df000017 	ldw	fp,0(sp)
 80044c4:	dec00204 	addi	sp,sp,8
 80044c8:	f800283a 	ret

080044cc <UsbGetReportDesc>:


void UsbGetReportDesc()
{
 80044cc:	defffe04 	addi	sp,sp,-8
 80044d0:	dfc00115 	stw	ra,4(sp)
 80044d4:	df000015 	stw	fp,0(sp)
 80044d8:	d839883a 	mov	fp,sp
	//the starting address
	IO_write(HPI_ADDR,0x0500); //the start address
 80044dc:	01414004 	movi	r5,1280
 80044e0:	01000084 	movi	r4,2
 80044e4:	80011880 	call	8001188 <IO_write>
	IO_write(HPI_DATA,0x050C);
 80044e8:	01414304 	movi	r5,1292
 80044ec:	0009883a 	mov	r4,zero
 80044f0:	80011880 	call	8001188 <IO_write>
	IO_write(HPI_DATA,0x0008); //4 port number
 80044f4:	01400204 	movi	r5,8
 80044f8:	0009883a 	mov	r4,zero
 80044fc:	80011880 	call	8001188 <IO_write>
	IO_write(HPI_DATA,0x02D0); //device address
 8004500:	0140b404 	movi	r5,720
 8004504:	0009883a 	mov	r4,zero
 8004508:	80011880 	call	8001188 <IO_write>
	IO_write(HPI_DATA,0x0001);
 800450c:	01400044 	movi	r5,1
 8004510:	0009883a 	mov	r4,zero
 8004514:	80011880 	call	8001188 <IO_write>
	IO_write(HPI_DATA,0x0013);
 8004518:	014004c4 	movi	r5,19
 800451c:	0009883a 	mov	r4,zero
 8004520:	80011880 	call	8001188 <IO_write>
	IO_write(HPI_DATA,0x0514);
 8004524:	01414504 	movi	r5,1300
 8004528:	0009883a 	mov	r4,zero
 800452c:	80011880 	call	8001188 <IO_write>

	//td content 4 bytes
	IO_write(HPI_DATA,0x0681);//c
 8004530:	0141a044 	movi	r5,1665
 8004534:	0009883a 	mov	r4,zero
 8004538:	80011880 	call	8001188 <IO_write>
	IO_write(HPI_DATA,0x2200);//e //report 0x22
 800453c:	01488004 	movi	r5,8704
 8004540:	0009883a 	mov	r4,zero
 8004544:	80011880 	call	8001188 <IO_write>
	IO_write(HPI_DATA,0x0000);//0
 8004548:	000b883a 	mov	r5,zero
 800454c:	0009883a 	mov	r4,zero
 8004550:	80011880 	call	8001188 <IO_write>
	IO_write(HPI_DATA,0x007B);//2
 8004554:	01401ec4 	movi	r5,123
 8004558:	0009883a 	mov	r4,zero
 800455c:	80011880 	call	8001188 <IO_write>

	//data phase IN-1
	IO_write(HPI_DATA,0x0580); //514
 8004560:	01416004 	movi	r5,1408
 8004564:	0009883a 	mov	r4,zero
 8004568:	80011880 	call	8001188 <IO_write>
	IO_write(HPI_DATA,0x0008);//6
 800456c:	01400204 	movi	r5,8
 8004570:	0009883a 	mov	r4,zero
 8004574:	80011880 	call	8001188 <IO_write>
	IO_write(HPI_DATA,0x0290);//8
 8004578:	0140a404 	movi	r5,656
 800457c:	0009883a 	mov	r4,zero
 8004580:	80011880 	call	8001188 <IO_write>
	IO_write(HPI_DATA,0x0041);//a
